
opentitan.elf:     file format elf32-littleriscv


Disassembly of section .text:

20000010 <_start>:
20000010:	100021b7          	lui	gp,0x10002
20000014:	80018193          	addi	gp,gp,-2048 # 10001800 <__global_pointer$>
20000018:	10001137          	lui	sp,0x10001
2000001c:	00010113          	mv	sp,sp
20000020:	840a                	mv	s0,sp
20000022:	34001073          	csrw	mscratch,zero
20000026:	7c50706f          	j	20007fea <reset_handler>
2000002a:	8082                	ret
	...

20000100 <_start_trap_vectored>:
20000100:	0880006f          	j	20000188 <_start_trap>
20000104:	0840006f          	j	20000188 <_start_trap>
20000108:	0800006f          	j	20000188 <_start_trap>
2000010c:	07c0006f          	j	20000188 <_start_trap>
20000110:	0780006f          	j	20000188 <_start_trap>
20000114:	0740006f          	j	20000188 <_start_trap>
20000118:	0700006f          	j	20000188 <_start_trap>
2000011c:	06c0006f          	j	20000188 <_start_trap>
20000120:	0680006f          	j	20000188 <_start_trap>
20000124:	0640006f          	j	20000188 <_start_trap>
20000128:	0600006f          	j	20000188 <_start_trap>
2000012c:	05c0006f          	j	20000188 <_start_trap>
20000130:	0580006f          	j	20000188 <_start_trap>
20000134:	0540006f          	j	20000188 <_start_trap>
20000138:	0500006f          	j	20000188 <_start_trap>
2000013c:	04c0006f          	j	20000188 <_start_trap>
20000140:	0480006f          	j	20000188 <_start_trap>
20000144:	0440006f          	j	20000188 <_start_trap>
20000148:	0400006f          	j	20000188 <_start_trap>
2000014c:	03c0006f          	j	20000188 <_start_trap>
20000150:	0380006f          	j	20000188 <_start_trap>
20000154:	0340006f          	j	20000188 <_start_trap>
20000158:	0300006f          	j	20000188 <_start_trap>
2000015c:	02c0006f          	j	20000188 <_start_trap>
20000160:	0280006f          	j	20000188 <_start_trap>
20000164:	0240006f          	j	20000188 <_start_trap>
20000168:	0200006f          	j	20000188 <_start_trap>
2000016c:	01c0006f          	j	20000188 <_start_trap>
20000170:	0180006f          	j	20000188 <_start_trap>
20000174:	0140006f          	j	20000188 <_start_trap>
20000178:	0100006f          	j	20000188 <_start_trap>
2000017c:	00c0006f          	j	20000188 <_start_trap>
20000180:	0000c097          	auipc	ra,0xc
20000184:	fac080e7          	jalr	-84(ra) # 2000c12c <abort>

20000188 <_start_trap>:
20000188:	34011173          	csrrw	sp,mscratch,sp
2000018c:	04011a63          	bnez	sp,200001e0 <_from_app>

20000190 <_from_kernel>:
20000190:	34011173          	csrrw	sp,mscratch,sp
20000194:	7139                	addi	sp,sp,-64
20000196:	c006                	sw	ra,0(sp)
20000198:	c216                	sw	t0,4(sp)
2000019a:	c41a                	sw	t1,8(sp)
2000019c:	c61e                	sw	t2,12(sp)
2000019e:	c872                	sw	t3,16(sp)
200001a0:	ca76                	sw	t4,20(sp)
200001a2:	cc7a                	sw	t5,24(sp)
200001a4:	ce7e                	sw	t6,28(sp)
200001a6:	d02a                	sw	a0,32(sp)
200001a8:	d22e                	sw	a1,36(sp)
200001aa:	d432                	sw	a2,40(sp)
200001ac:	d636                	sw	a3,44(sp)
200001ae:	d83a                	sw	a4,48(sp)
200001b0:	da3e                	sw	a5,52(sp)
200001b2:	dc42                	sw	a6,56(sp)
200001b4:	de46                	sw	a7,60(sp)
200001b6:	586050ef          	jal	ra,2000573c <_start_trap_rust>
200001ba:	4082                	lw	ra,0(sp)
200001bc:	4292                	lw	t0,4(sp)
200001be:	4322                	lw	t1,8(sp)
200001c0:	43b2                	lw	t2,12(sp)
200001c2:	4e42                	lw	t3,16(sp)
200001c4:	4ed2                	lw	t4,20(sp)
200001c6:	4f62                	lw	t5,24(sp)
200001c8:	4ff2                	lw	t6,28(sp)
200001ca:	5502                	lw	a0,32(sp)
200001cc:	5592                	lw	a1,36(sp)
200001ce:	5622                	lw	a2,40(sp)
200001d0:	56b2                	lw	a3,44(sp)
200001d2:	5742                	lw	a4,48(sp)
200001d4:	57d2                	lw	a5,52(sp)
200001d6:	5862                	lw	a6,56(sp)
200001d8:	58f2                	lw	a7,60(sp)
200001da:	6121                	addi	sp,sp,64
200001dc:	30200073          	mret

200001e0 <_from_app>:
200001e0:	c022                	sw	s0,0(sp)
200001e2:	4412                	lw	s0,4(sp)
200001e4:	00142023          	sw	ra,0(s0)
200001e8:	00342423          	sw	gp,8(s0)
200001ec:	00442623          	sw	tp,12(s0)
200001f0:	00542823          	sw	t0,16(s0)
200001f4:	00642a23          	sw	t1,20(s0)
200001f8:	00742c23          	sw	t2,24(s0)
200001fc:	d004                	sw	s1,32(s0)
200001fe:	d048                	sw	a0,36(s0)
20000200:	d40c                	sw	a1,40(s0)
20000202:	d450                	sw	a2,44(s0)
20000204:	d814                	sw	a3,48(s0)
20000206:	d858                	sw	a4,52(s0)
20000208:	dc1c                	sw	a5,56(s0)
2000020a:	03042e23          	sw	a6,60(s0)
2000020e:	05142023          	sw	a7,64(s0)
20000212:	05242223          	sw	s2,68(s0)
20000216:	05342423          	sw	s3,72(s0)
2000021a:	05442623          	sw	s4,76(s0)
2000021e:	05542823          	sw	s5,80(s0)
20000222:	05642a23          	sw	s6,84(s0)
20000226:	05742c23          	sw	s7,88(s0)
2000022a:	05842e23          	sw	s8,92(s0)
2000022e:	07942023          	sw	s9,96(s0)
20000232:	07a42223          	sw	s10,100(s0)
20000236:	07b42423          	sw	s11,104(s0)
2000023a:	07c42623          	sw	t3,108(s0)
2000023e:	07d42823          	sw	t4,112(s0)
20000242:	07e42a23          	sw	t5,116(s0)
20000246:	07f42c23          	sw	t6,120(s0)
2000024a:	4282                	lw	t0,0(sp)
2000024c:	00542e23          	sw	t0,28(s0)
20000250:	340022f3          	csrr	t0,mscratch
20000254:	00542223          	sw	t0,4(s0)
20000258:	341022f3          	csrr	t0,mepc
2000025c:	06542e23          	sw	t0,124(s0)
20000260:	342022f3          	csrr	t0,mcause
20000264:	08542023          	sw	t0,128(s0)
20000268:	0002d563          	bgez	t0,20000272 <_from_app_continue>
2000026c:	8516                	mv	a0,t0
2000026e:	149050ef          	jal	ra,20005bb6 <_disable_interrupt_trap_handler>

20000272 <_from_app_continue>:
20000272:	42a2                	lw	t0,8(sp)
20000274:	34129073          	csrw	mepc,t0
20000278:	34001073          	csrw	mscratch,zero
2000027c:	300022f3          	csrr	t0,mstatus
20000280:	6309                	lui	t1,0x2
20000282:	80030313          	addi	t1,t1,-2048 # 1800 <MPU_MIN_ALIGN+0x1400>
20000286:	0062e2b3          	or	t0,t0,t1
2000028a:	30029073          	csrw	mstatus,t0
2000028e:	30200073          	mret
20000292:	8082                	ret

20000294 <core::ptr::real_drop_in_place>:
20000294:	1141                	addi	sp,sp,-16
20000296:	c606                	sw	ra,12(sp)
20000298:	c422                	sw	s0,8(sp)
2000029a:	0800                	addi	s0,sp,16
2000029c:	4422                	lw	s0,8(sp)
2000029e:	40b2                	lw	ra,12(sp)
200002a0:	0141                	addi	sp,sp,16
200002a2:	8082                	ret

200002a4 <core::cell::Cell<T>::set>:
200002a4:	7131                	addi	sp,sp,-192
200002a6:	df06                	sw	ra,188(sp)
200002a8:	dd22                	sw	s0,184(sp)
200002aa:	db26                	sw	s1,180(sp)
200002ac:	d94a                	sw	s2,176(sp)
200002ae:	d74e                	sw	s3,172(sp)
200002b0:	d552                	sw	s4,168(sp)
200002b2:	d356                	sw	s5,164(sp)
200002b4:	d15a                	sw	s6,160(sp)
200002b6:	cf5e                	sw	s7,156(sp)
200002b8:	cd62                	sw	s8,152(sp)
200002ba:	cb66                	sw	s9,148(sp)
200002bc:	c96a                	sw	s10,144(sp)
200002be:	c76e                	sw	s11,140(sp)
200002c0:	0180                	addi	s0,sp,192
200002c2:	89aa                	mv	s3,a0
200002c4:	f4840513          	addi	a0,s0,-184
200002c8:	08400613          	li	a2,132
200002cc:	00009097          	auipc	ra,0x9
200002d0:	39a080e7          	jalr	922(ra) # 20009666 <memcpy>
200002d4:	4581                	li	a1,0
200002d6:	02058a93          	addi	s5,a1,32
200002da:	08400513          	li	a0,132
200002de:	07556163          	bltu	a0,s5,20000340 <core::cell::Cell<T>::set+0x9c>
200002e2:	00b98533          	add	a0,s3,a1
200002e6:	f4840613          	addi	a2,s0,-184
200002ea:	00b604b3          	add	s1,a2,a1
200002ee:	00052b03          	lw	s6,0(a0)
200002f2:	00452b83          	lw	s7,4(a0)
200002f6:	00852c03          	lw	s8,8(a0)
200002fa:	00c52c83          	lw	s9,12(a0)
200002fe:	01052d03          	lw	s10,16(a0)
20000302:	01452d83          	lw	s11,20(a0)
20000306:	01852903          	lw	s2,24(a0)
2000030a:	01c52a03          	lw	s4,28(a0)
2000030e:	85a6                	mv	a1,s1
20000310:	02000613          	li	a2,32
20000314:	00009097          	auipc	ra,0x9
20000318:	352080e7          	jalr	850(ra) # 20009666 <memcpy>
2000031c:	0144ae23          	sw	s4,28(s1)
20000320:	0124ac23          	sw	s2,24(s1)
20000324:	01b4aa23          	sw	s11,20(s1)
20000328:	01a4a823          	sw	s10,16(s1)
2000032c:	0194a623          	sw	s9,12(s1)
20000330:	0184a423          	sw	s8,8(s1)
20000334:	0174a223          	sw	s7,4(s1)
20000338:	0164a023          	sw	s6,0(s1)
2000033c:	85d6                	mv	a1,s5
2000033e:	bf61                	j	200002d6 <core::cell::Cell<T>::set+0x32>
20000340:	fc842503          	lw	a0,-56(s0)
20000344:	08a9a023          	sw	a0,128(s3)
20000348:	4dba                	lw	s11,140(sp)
2000034a:	4d4a                	lw	s10,144(sp)
2000034c:	4cda                	lw	s9,148(sp)
2000034e:	4c6a                	lw	s8,152(sp)
20000350:	4bfa                	lw	s7,156(sp)
20000352:	5b0a                	lw	s6,160(sp)
20000354:	5a9a                	lw	s5,164(sp)
20000356:	5a2a                	lw	s4,168(sp)
20000358:	59ba                	lw	s3,172(sp)
2000035a:	594a                	lw	s2,176(sp)
2000035c:	54da                	lw	s1,180(sp)
2000035e:	546a                	lw	s0,184(sp)
20000360:	50fa                	lw	ra,188(sp)
20000362:	6129                	addi	sp,sp,192
20000364:	8082                	ret

20000366 <core::iter::range::<impl core::iter::traits::iterator::Iterator for core::ops::range::Range<A>>::next>:
20000366:	1141                	addi	sp,sp,-16
20000368:	c606                	sw	ra,12(sp)
2000036a:	c422                	sw	s0,8(sp)
2000036c:	0800                	addi	s0,sp,16
2000036e:	410c                	lw	a1,0(a0)
20000370:	4150                	lw	a2,4(a0)
20000372:	00c5f663          	bgeu	a1,a2,2000037e <core::iter::range::<impl core::iter::traits::iterator::Iterator for core::ops::range::Range<A>>::next+0x18>
20000376:	00158613          	addi	a2,a1,1
2000037a:	00b67463          	bgeu	a2,a1,20000382 <core::iter::range::<impl core::iter::traits::iterator::Iterator for core::ops::range::Range<A>>::next+0x1c>
2000037e:	4501                	li	a0,0
20000380:	a019                	j	20000386 <core::iter::range::<impl core::iter::traits::iterator::Iterator for core::ops::range::Range<A>>::next+0x20>
20000382:	c110                	sw	a2,0(a0)
20000384:	4505                	li	a0,1
20000386:	4422                	lw	s0,8(sp)
20000388:	40b2                	lw	ra,12(sp)
2000038a:	0141                	addi	sp,sp,16
2000038c:	8082                	ret

2000038e <kernel::process::load_processes>:
2000038e:	dc010113          	addi	sp,sp,-576 # 10000dc0 <STACK_MEMORY+0xdc0>
20000392:	22112e23          	sw	ra,572(sp)
20000396:	22812c23          	sw	s0,568(sp)
2000039a:	22912a23          	sw	s1,564(sp)
2000039e:	23212823          	sw	s2,560(sp)
200003a2:	23312623          	sw	s3,556(sp)
200003a6:	23412423          	sw	s4,552(sp)
200003aa:	23512223          	sw	s5,548(sp)
200003ae:	23612023          	sw	s6,544(sp)
200003b2:	21712e23          	sw	s7,540(sp)
200003b6:	21812c23          	sw	s8,536(sp)
200003ba:	21912a23          	sw	s9,532(sp)
200003be:	21a12823          	sw	s10,528(sp)
200003c2:	21b12623          	sw	s11,524(sp)
200003c6:	0480                	addi	s0,sp,576
200003c8:	4a91                	li	s5,4
200003ca:	e1542a23          	sw	s5,-492(s0)
200003ce:	e0042823          	sw	zero,-496(s0)
200003d2:	6909                	lui	s2,0x2
200003d4:	10002537          	lui	a0,0x10002
200003d8:	40050993          	addi	s3,a0,1024 # 10002400 <start_app_memory>
200003dc:	20030537          	lui	a0,0x20030
200003e0:	00050d93          	mv	s11,a0
200003e4:	e1040b93          	addi	s7,s0,-496
200003e8:	2000c537          	lui	a0,0x2000c
200003ec:	fa850513          	addi	a0,a0,-88 # 2000bfa8 <.L__unnamed_92>
200003f0:	dea42e23          	sw	a0,-516(s0)
200003f4:	2000b537          	lui	a0,0x2000b
200003f8:	baa50513          	addi	a0,a0,-1110 # 2000abaa <core::str::UTF8_CHAR_WIDTH>
200003fc:	e0a42623          	sw	a0,-500(s0)
20000400:	80808537          	lui	a0,0x80808
20000404:	08050a13          	addi	s4,a0,128 # 80808080 <_sapps+0x607d8080>
20000408:	6541                	lui	a0,0x10
2000040a:	fff50d13          	addi	s10,a0,-1 # ffff <.Lline_table_start0+0x354>
2000040e:	10002537          	lui	a0,0x10002
20000412:	1fc50513          	addi	a0,a0,508 # 100021fc <opentitan::reset_handler::BUF>
20000416:	dea42a23          	sw	a0,-524(s0)
2000041a:	6505                	lui	a0,0x1
2000041c:	c0050513          	addi	a0,a0,-1024 # c00 <MPU_MIN_ALIGN+0x800>
20000420:	dea42623          	sw	a0,-532(s0)
20000424:	10002537          	lui	a0,0x10002
20000428:	22c50513          	addi	a0,a0,556 # 1000222c <opentitan::reset_handler::BUF>
2000042c:	dea42423          	sw	a0,-536(s0)
20000430:	10002537          	lui	a0,0x10002
20000434:	1dc50513          	addi	a0,a0,476 # 100021dc <opentitan::PROCESSES>
20000438:	dea42223          	sw	a0,-540(s0)
2000043c:	10001537          	lui	a0,0x10001
20000440:	01050513          	addi	a0,a0,16 # 10001010 <.L__unnamed_1>
20000444:	dea42023          	sw	a0,-544(s0)
20000448:	55555537          	lui	a0,0x55555
2000044c:	55550513          	addi	a0,a0,1365 # 55555555 <_sapps+0x35525555>
20000450:	dca42e23          	sw	a0,-548(s0)
20000454:	33333537          	lui	a0,0x33333
20000458:	33350513          	addi	a0,a0,819 # 33333333 <_sapps+0x13303333>
2000045c:	dca42c23          	sw	a0,-552(s0)
20000460:	0f0f1537          	lui	a0,0xf0f1
20000464:	f0f50513          	addi	a0,a0,-241 # f0f0f0f <.Lline_table_start0+0xf0e1264>
20000468:	dca42a23          	sw	a0,-556(s0)
2000046c:	01010537          	lui	a0,0x1010
20000470:	10150513          	addi	a0,a0,257 # 1010101 <.Lline_table_start0+0x1000456>
20000474:	dca42823          	sw	a0,-560(s0)
20000478:	855e                	mv	a0,s7
2000047a:	00000097          	auipc	ra,0x0
2000047e:	eec080e7          	jalr	-276(ra) # 20000366 <core::iter::range::<impl core::iter::traits::iterator::Iterator for core::ops::range::Range<A>>::next>
20000482:	76050863          	beqz	a0,20000bf2 <kernel::process::load_processes+0x864>
20000486:	8c2e                	mv	s8,a1
20000488:	000dd503          	lhu	a0,0(s11)
2000048c:	4589                	li	a1,2
2000048e:	30b51a63          	bne	a0,a1,200007a2 <kernel::process::load_processes+0x414>
20000492:	004da583          	lw	a1,4(s11)
20000496:	002dd503          	lhu	a0,2(s11)
2000049a:	30b57463          	bgeu	a0,a1,200007a2 <kernel::process::load_processes+0x414>
2000049e:	4c81                	li	s9,0
200004a0:	10000637          	lui	a2,0x10000
200004a4:	30b66063          	bltu	a2,a1,200007a4 <kernel::process::load_processes+0x416>
200004a8:	00357293          	andi	t0,a0,3
200004ac:	405a8633          	sub	a2,s5,t0
200004b0:	5efd                	li	t4,-1
200004b2:	00ced833          	srl	a6,t4,a2
200004b6:	00255613          	srli	a2,a0,0x2
200004ba:	005036b3          	snez	a3,t0
200004be:	00d608b3          	add	a7,a2,a3
200004c2:	00289613          	slli	a2,a7,0x2
200004c6:	00cd8733          	add	a4,s11,a2
200004ca:	4481                	li	s1,0
200004cc:	866e                	mv	a2,s11
200004ce:	4781                	li	a5,0
200004d0:	4f85                	li	t6,1
200004d2:	4b0d                	li	s6,3
200004d4:	02c70363          	beq	a4,a2,200004fa <kernel::process::load_processes+0x16c>
200004d8:	0611                	addi	a2,a2,4
200004da:	0485                	addi	s1,s1,1
200004dc:	ff548ce3          	beq	s1,s5,200004d4 <kernel::process::load_processes+0x146>
200004e0:	86c2                	mv	a3,a6
200004e2:	00988363          	beq	a7,s1,200004e8 <kernel::process::load_processes+0x15a>
200004e6:	56fd                	li	a3,-1
200004e8:	00029363          	bnez	t0,200004ee <kernel::process::load_processes+0x160>
200004ec:	56fd                	li	a3,-1
200004ee:	ffc62583          	lw	a1,-4(a2) # ffffffc <.Lline_table_start0+0xfff0351>
200004f2:	8df5                	and	a1,a1,a3
200004f4:	8fad                	xor	a5,a5,a1
200004f6:	fec711e3          	bne	a4,a2,200004d8 <kernel::process::load_processes+0x14a>
200004fa:	00cda583          	lw	a1,12(s11)
200004fe:	2ab79263          	bne	a5,a1,200007a2 <kernel::process::load_processes+0x414>
20000502:	1541                	addi	a0,a0,-16
20000504:	4f15                	li	t5,5
20000506:	2a050763          	beqz	a0,200007b4 <kernel::process::load_processes+0x426>
2000050a:	45c1                	li	a1,16
2000050c:	4c81                	li	s9,0
2000050e:	dfc42783          	lw	a5,-516(s0)
20000512:	e0042423          	sw	zero,-504(s0)
20000516:	e0042223          	sw	zero,-508(s0)
2000051a:	4731                	li	a4,12
2000051c:	25e56b63          	bltu	a0,t5,20000772 <kernel::process::load_processes+0x3e4>
20000520:	00bd8633          	add	a2,s11,a1
20000524:	00458e13          	addi	t3,a1,4
20000528:	1571                	addi	a0,a0,-4
2000052a:	00065583          	lhu	a1,0(a2)
2000052e:	22bae563          	bltu	s5,a1,20000758 <kernel::process::load_processes+0x3ca>
20000532:	0075f693          	andi	a3,a1,7
20000536:	03f68263          	beq	a3,t6,2000055a <kernel::process::load_processes+0x1cc>
2000053a:	4589                	li	a1,2
2000053c:	02b68a63          	beq	a3,a1,20000570 <kernel::process::load_processes+0x1e2>
20000540:	21669c63          	bne	a3,s6,20000758 <kernel::process::load_processes+0x3ca>
20000544:	00265683          	lhu	a3,2(a2)
20000548:	20d56863          	bltu	a0,a3,20000758 <kernel::process::load_processes+0x3ca>
2000054c:	01cd82b3          	add	t0,s11,t3
20000550:	459d                	li	a1,7
20000552:	02d5ed63          	bltu	a1,a3,2000058c <kernel::process::load_processes+0x1fe>
20000556:	4881                	li	a7,0
20000558:	a825                	j	20000590 <kernel::process::load_processes+0x202>
2000055a:	1ee56f63          	bltu	a0,a4,20000758 <kernel::process::load_processes+0x3ca>
2000055e:	00265583          	lhu	a1,2(a2)
20000562:	1ee59b63          	bne	a1,a4,20000758 <kernel::process::load_processes+0x3ca>
20000566:	01cd85b3          	add	a1,s11,t3
2000056a:	e0b42423          	sw	a1,-504(s0)
2000056e:	a2ed                	j	20000758 <kernel::process::load_processes+0x3ca>
20000570:	00265583          	lhu	a1,2(a2)
20000574:	0075f693          	andi	a3,a1,7
20000578:	1e069063          	bnez	a3,20000758 <kernel::process::load_processes+0x3ca>
2000057c:	01cd86b3          	add	a3,s11,t3
20000580:	e0d42223          	sw	a3,-508(s0)
20000584:	818d                	srli	a1,a1,0x3
20000586:	deb42c23          	sw	a1,-520(s0)
2000058a:	a2f9                	j	20000758 <kernel::process::load_processes+0x3ca>
2000058c:	ff968893          	addi	a7,a3,-7
20000590:	0032f593          	andi	a1,t0,3
20000594:	4801                	li	a6,0
20000596:	c199                	beqz	a1,2000059c <kernel::process::load_processes+0x20e>
20000598:	40500833          	neg	a6,t0
2000059c:	1a068863          	beqz	a3,2000074c <kernel::process::load_processes+0x3be>
200005a0:	e0f42023          	sw	a5,-512(s0)
200005a4:	4781                	li	a5,0
200005a6:	00f285b3          	add	a1,t0,a5
200005aa:	0005c703          	lbu	a4,0(a1)
200005ae:	01871593          	slli	a1,a4,0x18
200005b2:	4185d493          	srai	s1,a1,0x18
200005b6:	009ed863          	bge	t4,s1,200005c6 <kernel::process::load_processes+0x238>
200005ba:	40f805b3          	sub	a1,a6,a5
200005be:	898d                	andi	a1,a1,3
200005c0:	c585                	beqz	a1,200005e8 <kernel::process::load_processes+0x25a>
200005c2:	0785                	addi	a5,a5,1
200005c4:	aab5                	j	20000740 <kernel::process::load_processes+0x3b2>
200005c6:	e0c42583          	lw	a1,-500(s0)
200005ca:	95ba                	add	a1,a1,a4
200005cc:	0005c583          	lbu	a1,0(a1)
200005d0:	07558d63          	beq	a1,s5,2000064a <kernel::process::load_processes+0x2bc>
200005d4:	05658363          	beq	a1,s6,2000061a <kernel::process::load_processes+0x28c>
200005d8:	4709                	li	a4,2
200005da:	16e59c63          	bne	a1,a4,20000752 <kernel::process::load_processes+0x3c4>
200005de:	00178713          	addi	a4,a5,1
200005e2:	14d76363          	bltu	a4,a3,20000728 <kernel::process::load_processes+0x39a>
200005e6:	a2b5                	j	20000752 <kernel::process::load_processes+0x3c4>
200005e8:	0117fd63          	bgeu	a5,a7,20000602 <kernel::process::load_processes+0x274>
200005ec:	00f605b3          	add	a1,a2,a5
200005f0:	41d8                	lw	a4,4(a1)
200005f2:	458c                	lw	a1,8(a1)
200005f4:	8dd9                	or	a1,a1,a4
200005f6:	0145f5b3          	and	a1,a1,s4
200005fa:	e581                	bnez	a1,20000602 <kernel::process::load_processes+0x274>
200005fc:	07a1                	addi	a5,a5,8
200005fe:	ff17e7e3          	bltu	a5,a7,200005ec <kernel::process::load_processes+0x25e>
20000602:	12d7ff63          	bgeu	a5,a3,20000740 <kernel::process::load_processes+0x3b2>
20000606:	00f285b3          	add	a1,t0,a5
2000060a:	00058583          	lb	a1,0(a1)
2000060e:	1205c963          	bltz	a1,20000740 <kernel::process::load_processes+0x3b2>
20000612:	0785                	addi	a5,a5,1
20000614:	fef699e3          	bne	a3,a5,20000606 <kernel::process::load_processes+0x278>
20000618:	a235                	j	20000744 <kernel::process::load_processes+0x3b6>
2000061a:	00178593          	addi	a1,a5,1
2000061e:	12d5fa63          	bgeu	a1,a3,20000752 <kernel::process::load_processes+0x3c4>
20000622:	9596                	add	a1,a1,t0
20000624:	0005c303          	lbu	t1,0(a1)
20000628:	01831393          	slli	t2,t1,0x18
2000062c:	0ed00593          	li	a1,237
20000630:	04b70763          	beq	a4,a1,2000067e <kernel::process::load_processes+0x2f0>
20000634:	0e000593          	li	a1,224
20000638:	06b71563          	bne	a4,a1,200006a2 <kernel::process::load_processes+0x314>
2000063c:	0e037593          	andi	a1,t1,224
20000640:	0a000713          	li	a4,160
20000644:	0ce58e63          	beq	a1,a4,20000720 <kernel::process::load_processes+0x392>
20000648:	a229                	j	20000752 <kernel::process::load_processes+0x3c4>
2000064a:	00178593          	addi	a1,a5,1
2000064e:	10d5f263          	bgeu	a1,a3,20000752 <kernel::process::load_processes+0x3c4>
20000652:	9596                	add	a1,a1,t0
20000654:	0005c383          	lbu	t2,0(a1)
20000658:	01839313          	slli	t1,t2,0x18
2000065c:	0f400593          	li	a1,244
20000660:	02b70863          	beq	a4,a1,20000690 <kernel::process::load_processes+0x302>
20000664:	0f000593          	li	a1,240
20000668:	04b71d63          	bne	a4,a1,200006c2 <kernel::process::load_processes+0x334>
2000066c:	07038593          	addi	a1,t2,112
20000670:	0ff5f593          	andi	a1,a1,255
20000674:	03000713          	li	a4,48
20000678:	06e5e463          	bltu	a1,a4,200006e0 <kernel::process::load_processes+0x352>
2000067c:	a8d9                	j	20000752 <kernel::process::load_processes+0x3c4>
2000067e:	4183d593          	srai	a1,t2,0x18
20000682:	0cbec863          	blt	t4,a1,20000752 <kernel::process::load_processes+0x3c4>
20000686:	0a000593          	li	a1,160
2000068a:	08b36b63          	bltu	t1,a1,20000720 <kernel::process::load_processes+0x392>
2000068e:	a0d1                	j	20000752 <kernel::process::load_processes+0x3c4>
20000690:	41835593          	srai	a1,t1,0x18
20000694:	0abecf63          	blt	t4,a1,20000752 <kernel::process::load_processes+0x3c4>
20000698:	09000593          	li	a1,144
2000069c:	04b3e263          	bltu	t2,a1,200006e0 <kernel::process::load_processes+0x352>
200006a0:	a84d                	j	20000752 <kernel::process::load_processes+0x3c4>
200006a2:	01f48593          	addi	a1,s1,31
200006a6:	0ff5f593          	andi	a1,a1,255
200006aa:	472d                	li	a4,11
200006ac:	04b76c63          	bltu	a4,a1,20000704 <kernel::process::load_processes+0x376>
200006b0:	4183d593          	srai	a1,t2,0x18
200006b4:	08becf63          	blt	t4,a1,20000752 <kernel::process::load_processes+0x3c4>
200006b8:	0c000593          	li	a1,192
200006bc:	06b36263          	bltu	t1,a1,20000720 <kernel::process::load_processes+0x392>
200006c0:	a849                	j	20000752 <kernel::process::load_processes+0x3c4>
200006c2:	0bf00593          	li	a1,191
200006c6:	0875e663          	bltu	a1,t2,20000752 <kernel::process::load_processes+0x3c4>
200006ca:	00f48593          	addi	a1,s1,15
200006ce:	0ff5f593          	andi	a1,a1,255
200006d2:	4709                	li	a4,2
200006d4:	06b76f63          	bltu	a4,a1,20000752 <kernel::process::load_processes+0x3c4>
200006d8:	41835593          	srai	a1,t1,0x18
200006dc:	06becb63          	blt	t4,a1,20000752 <kernel::process::load_processes+0x3c4>
200006e0:	00278593          	addi	a1,a5,2
200006e4:	06d5f763          	bgeu	a1,a3,20000752 <kernel::process::load_processes+0x3c4>
200006e8:	9596                	add	a1,a1,t0
200006ea:	0005c583          	lbu	a1,0(a1)
200006ee:	0c05f593          	andi	a1,a1,192
200006f2:	08000713          	li	a4,128
200006f6:	04e59e63          	bne	a1,a4,20000752 <kernel::process::load_processes+0x3c4>
200006fa:	00378713          	addi	a4,a5,3
200006fe:	02d76563          	bltu	a4,a3,20000728 <kernel::process::load_processes+0x39a>
20000702:	a881                	j	20000752 <kernel::process::load_processes+0x3c4>
20000704:	0bf00593          	li	a1,191
20000708:	0465e563          	bltu	a1,t1,20000752 <kernel::process::load_processes+0x3c4>
2000070c:	0fe4f593          	andi	a1,s1,254
20000710:	0ee00713          	li	a4,238
20000714:	02e59f63          	bne	a1,a4,20000752 <kernel::process::load_processes+0x3c4>
20000718:	4183d593          	srai	a1,t2,0x18
2000071c:	02becb63          	blt	t4,a1,20000752 <kernel::process::load_processes+0x3c4>
20000720:	00278713          	addi	a4,a5,2
20000724:	02d77763          	bgeu	a4,a3,20000752 <kernel::process::load_processes+0x3c4>
20000728:	00e285b3          	add	a1,t0,a4
2000072c:	0005c583          	lbu	a1,0(a1)
20000730:	0c05f593          	andi	a1,a1,192
20000734:	08000793          	li	a5,128
20000738:	00f59d63          	bne	a1,a5,20000752 <kernel::process::load_processes+0x3c4>
2000073c:	00170793          	addi	a5,a4,1
20000740:	e6d7e3e3          	bltu	a5,a3,200005a6 <kernel::process::load_processes+0x218>
20000744:	8cb6                	mv	s9,a3
20000746:	8796                	mv	a5,t0
20000748:	4731                	li	a4,12
2000074a:	a039                	j	20000758 <kernel::process::load_processes+0x3ca>
2000074c:	8cb6                	mv	s9,a3
2000074e:	8796                	mv	a5,t0
20000750:	a021                	j	20000758 <kernel::process::load_processes+0x3ca>
20000752:	4731                	li	a4,12
20000754:	e0042783          	lw	a5,-512(s0)
20000758:	00261583          	lh	a1,2(a2)
2000075c:	40b00633          	neg	a2,a1
20000760:	8a0d                	andi	a2,a2,3
20000762:	95b2                	add	a1,a1,a2
20000764:	01a5f633          	and	a2,a1,s10
20000768:	00ce05b3          	add	a1,t3,a2
2000076c:	8d11                	sub	a0,a0,a2
2000076e:	dbe579e3          	bgeu	a0,t5,20000520 <kernel::process::load_processes+0x192>
20000772:	df942823          	sw	s9,-528(s0)
20000776:	004dac83          	lw	s9,4(s11)
2000077a:	008dc503          	lbu	a0,8(s11)
2000077e:	8905                	andi	a0,a0,1
20000780:	c115                	beqz	a0,200007a4 <kernel::process::load_processes+0x416>
20000782:	e0842583          	lw	a1,-504(s0)
20000786:	c995                	beqz	a1,200007ba <kernel::process::load_processes+0x42c>
20000788:	4b01                	li	s6,0
2000078a:	00001463          	bnez	zero,20000792 <kernel::process::load_processes+0x404>
2000078e:	0085ab03          	lw	s6,8(a1)
20000792:	c795                	beqz	a5,200007be <kernel::process::load_processes+0x430>
20000794:	df042503          	lw	a0,-528(s0)
20000798:	dca42423          	sw	a0,-568(s0)
2000079c:	dcf42623          	sw	a5,-564(s0)
200007a0:	a03d                	j	200007ce <kernel::process::load_processes+0x440>
200007a2:	4c81                	li	s9,0
200007a4:	4b01                	li	s6,0
200007a6:	440c8663          	beqz	s9,20000bf2 <kernel::process::load_processes+0x864>
200007aa:	41690933          	sub	s2,s2,s6
200007ae:	99da                	add	s3,s3,s6
200007b0:	9de6                	add	s11,s11,s9
200007b2:	b1d9                	j	20000478 <kernel::process::load_processes+0xea>
200007b4:	004dac83          	lw	s9,4(s11)
200007b8:	b7f5                	j	200007a4 <kernel::process::load_processes+0x416>
200007ba:	4b01                	li	s6,0
200007bc:	ffe1                	bnez	a5,20000794 <kernel::process::load_processes+0x406>
200007be:	2000c537          	lui	a0,0x2000c
200007c2:	fa850513          	addi	a0,a0,-88 # 2000bfa8 <.L__unnamed_92>
200007c6:	dca42623          	sw	a0,-564(s0)
200007ca:	dc042423          	sw	zero,-568(s0)
200007ce:	e0f42023          	sw	a5,-512(s0)
200007d2:	c581                	beqz	a1,200007da <kernel::process::load_processes+0x44c>
200007d4:	0005ab83          	lw	s7,0(a1)
200007d8:	a011                	j	200007dc <kernel::process::load_processes+0x44e>
200007da:	4b81                	li	s7,0
200007dc:	002dd483          	lhu	s1,2(s11)
200007e0:	4521                	li	a0,8
200007e2:	eaa42c23          	sw	a0,-328(s0)
200007e6:	457d                	li	a0,31
200007e8:	eaa42823          	sw	a0,-336(s0)
200007ec:	e8a42e23          	sw	a0,-356(s0)
200007f0:	e8a42423          	sw	a0,-376(s0)
200007f4:	e6a42a23          	sw	a0,-396(s0)
200007f8:	e6a42023          	sw	a0,-416(s0)
200007fc:	e4a42623          	sw	a0,-436(s0)
20000800:	e2a42c23          	sw	a0,-456(s0)
20000804:	e2a42223          	sw	a0,-476(s0)
20000808:	ea042a23          	sw	zero,-332(s0)
2000080c:	ea042223          	sw	zero,-348(s0)
20000810:	ea042023          	sw	zero,-352(s0)
20000814:	e8042823          	sw	zero,-368(s0)
20000818:	e8042623          	sw	zero,-372(s0)
2000081c:	e6042e23          	sw	zero,-388(s0)
20000820:	e6042c23          	sw	zero,-392(s0)
20000824:	e6042423          	sw	zero,-408(s0)
20000828:	e6042223          	sw	zero,-412(s0)
2000082c:	e4042a23          	sw	zero,-428(s0)
20000830:	e4042823          	sw	zero,-432(s0)
20000834:	e4042023          	sw	zero,-448(s0)
20000838:	e2042e23          	sw	zero,-452(s0)
2000083c:	e2042623          	sw	zero,-468(s0)
20000840:	e2042423          	sw	zero,-472(s0)
20000844:	e0042c23          	sw	zero,-488(s0)
20000848:	f4840513          	addi	a0,s0,-184
2000084c:	85ee                	mv	a1,s11
2000084e:	8666                	mv	a2,s9
20000850:	86e6                	mv	a3,s9
20000852:	4709                	li	a4,2
20000854:	e1840793          	addi	a5,s0,-488
20000858:	00008097          	auipc	ra,0x8
2000085c:	7a4080e7          	jalr	1956(ra) # 20008ffc <<rv32i::pmp::PMPConfig as kernel::platform::mpu::MPU>::allocate_region>
20000860:	f4842503          	lw	a0,-184(s0)
20000864:	10050e63          	beqz	a0,20000980 <kernel::process::load_processes+0x5f2>
20000868:	009b8533          	add	a0,s7,s1
2000086c:	4585                	li	a1,1
2000086e:	df442603          	lw	a2,-524(s0)
20000872:	00b60823          	sb	a1,16(a2)
20000876:	dec42583          	lw	a1,-532(s0)
2000087a:	0165e463          	bltu	a1,s6,20000882 <kernel::process::load_processes+0x4f4>
2000087e:	dec42b03          	lw	s6,-532(s0)
20000882:	956e                	add	a0,a0,s11
20000884:	dca42223          	sw	a0,-572(s0)
20000888:	df442503          	lw	a0,-524(s0)
2000088c:	4548                	lw	a0,12(a0)
2000088e:	050a                	slli	a0,a0,0x2
20000890:	8baa                	mv	s7,a0
20000892:	955a                	add	a0,a0,s6
20000894:	39050b13          	addi	s6,a0,912
20000898:	4481                	li	s1,0
2000089a:	0a000513          	li	a0,160
2000089e:	00a48e63          	beq	s1,a0,200008ba <kernel::process::load_processes+0x52c>
200008a2:	e1840513          	addi	a0,s0,-488
200008a6:	9526                	add	a0,a0,s1
200008a8:	85ce                	mv	a1,s3
200008aa:	864a                	mv	a2,s2
200008ac:	00009097          	auipc	ra,0x9
200008b0:	852080e7          	jalr	-1966(ra) # 200090fe <rv32i::pmp::PMPRegion::overlaps>
200008b4:	04d1                	addi	s1,s1,20
200008b6:	d175                	beqz	a0,2000089a <kernel::process::load_processes+0x50c>
200008b8:	a0e1                	j	20000980 <kernel::process::load_processes+0x5f2>
200008ba:	6505                	lui	a0,0x1
200008bc:	f9050513          	addi	a0,a0,-112 # f90 <MPU_MIN_ALIGN+0xb90>
200008c0:	955e                	add	a0,a0,s7
200008c2:	01656363          	bltu	a0,s6,200008c8 <kernel::process::load_processes+0x53a>
200008c6:	8b2a                	mv	s6,a0
200008c8:	fffb0513          	addi	a0,s6,-1
200008cc:	00155593          	srli	a1,a0,0x1
200008d0:	8d4d                	or	a0,a0,a1
200008d2:	00255593          	srli	a1,a0,0x2
200008d6:	8d4d                	or	a0,a0,a1
200008d8:	00455593          	srli	a1,a0,0x4
200008dc:	8d4d                	or	a0,a0,a1
200008de:	00855593          	srli	a1,a0,0x8
200008e2:	8d4d                	or	a0,a0,a1
200008e4:	01055593          	srli	a1,a0,0x10
200008e8:	8dc9                	or	a1,a1,a0
200008ea:	00158513          	addi	a0,a1,1
200008ee:	00b57563          	bgeu	a0,a1,200008f8 <kernel::process::load_processes+0x56a>
200008f2:	4501                	li	a0,0
200008f4:	4585                	li	a1,1
200008f6:	a095                	j	2000095a <kernel::process::load_processes+0x5cc>
200008f8:	c939                	beqz	a0,2000094e <kernel::process::load_processes+0x5c0>
200008fa:	00155593          	srli	a1,a0,0x1
200008fe:	8d4d                	or	a0,a0,a1
20000900:	00255593          	srli	a1,a0,0x2
20000904:	8d4d                	or	a0,a0,a1
20000906:	00455593          	srli	a1,a0,0x4
2000090a:	8d4d                	or	a0,a0,a1
2000090c:	00855593          	srli	a1,a0,0x8
20000910:	8d4d                	or	a0,a0,a1
20000912:	01055593          	srli	a1,a0,0x10
20000916:	8d4d                	or	a0,a0,a1
20000918:	fff54513          	not	a0,a0
2000091c:	00155593          	srli	a1,a0,0x1
20000920:	ddc42603          	lw	a2,-548(s0)
20000924:	8df1                	and	a1,a1,a2
20000926:	8d0d                	sub	a0,a0,a1
20000928:	dd842603          	lw	a2,-552(s0)
2000092c:	00c575b3          	and	a1,a0,a2
20000930:	8109                	srli	a0,a0,0x2
20000932:	8d71                	and	a0,a0,a2
20000934:	952e                	add	a0,a0,a1
20000936:	00455593          	srli	a1,a0,0x4
2000093a:	952e                	add	a0,a0,a1
2000093c:	dd442583          	lw	a1,-556(s0)
20000940:	8d6d                	and	a0,a0,a1
20000942:	dd042583          	lw	a1,-560(s0)
20000946:	02b50533          	mul	a0,a0,a1
2000094a:	8161                	srli	a0,a0,0x18
2000094c:	a019                	j	20000952 <kernel::process::load_processes+0x5c4>
2000094e:	02000513          	li	a0,32
20000952:	4585                	li	a1,1
20000954:	467d                	li	a2,31
20000956:	40a60533          	sub	a0,a2,a0
2000095a:	4705                	li	a4,1
2000095c:	00a59533          	sll	a0,a1,a0
20000960:	00150613          	addi	a2,a0,1
20000964:	00367693          	andi	a3,a2,3
20000968:	4581                	li	a1,0
2000096a:	c299                	beqz	a3,20000970 <kernel::process::load_processes+0x5e2>
2000096c:	40da85b3          	sub	a1,s5,a3
20000970:	00c58b33          	add	s6,a1,a2
20000974:	01390633          	add	a2,s2,s3
20000978:	013b06b3          	add	a3,s6,s3
2000097c:	00d67563          	bgeu	a2,a3,20000986 <kernel::process::load_processes+0x5f8>
20000980:	e1040b93          	addi	s7,s0,-496
20000984:	b505                	j	200007a4 <kernel::process::load_processes+0x416>
20000986:	952e                	add	a0,a0,a1
20000988:	45ad                	li	a1,11
2000098a:	e2b42423          	sw	a1,-472(s0)
2000098e:	45fd                	li	a1,31
20000990:	e2b42223          	sw	a1,-476(s0)
20000994:	e0e42c23          	sw	a4,-488(s0)
20000998:	e3642023          	sw	s6,-480(s0)
2000099c:	e1342e23          	sw	s3,-484(s0)
200009a0:	954e                	add	a0,a0,s3
200009a2:	01698633          	add	a2,s3,s6
200009a6:	417005b3          	neg	a1,s7
200009aa:	41760733          	sub	a4,a2,s7
200009ae:	e0042683          	lw	a3,-512(s0)
200009b2:	c599                	beqz	a1,200009c0 <kernel::process::load_processes+0x632>
200009b4:	00b50633          	add	a2,a0,a1
200009b8:	000620a3          	sw	zero,1(a2)
200009bc:	0591                	addi	a1,a1,4
200009be:	f9fd                	bnez	a1,200009b4 <kernel::process::load_processes+0x626>
200009c0:	dc442503          	lw	a0,-572(s0)
200009c4:	c7070513          	addi	a0,a4,-912
200009c8:	eaa42e23          	sw	a0,-324(s0)
200009cc:	c7872823          	sw	s8,-912(a4)
200009d0:	ebc42b83          	lw	s7,-324(s0)
200009d4:	df842583          	lw	a1,-520(s0)
200009d8:	04bbaa23          	sw	a1,84(s7)
200009dc:	e0442583          	lw	a1,-508(s0)
200009e0:	04bba823          	sw	a1,80(s7)
200009e4:	df042583          	lw	a1,-528(s0)
200009e8:	04bba623          	sw	a1,76(s7)
200009ec:	04dba423          	sw	a3,72(s7)
200009f0:	e0842583          	lw	a1,-504(s0)
200009f4:	04bba223          	sw	a1,68(s7)
200009f8:	016ba823          	sw	s6,16(s7)
200009fc:	de842583          	lw	a1,-536(s0)
20000a00:	00bba423          	sw	a1,8(s7)
20000a04:	df442583          	lw	a1,-524(s0)
20000a08:	00bba223          	sw	a1,4(s7)
20000a0c:	039bac23          	sw	s9,56(s7)
20000a10:	05bba023          	sw	s11,64(s7)
20000a14:	03bbaa23          	sw	s11,52(s7)
20000a18:	00abac23          	sw	a0,24(s7)
20000a1c:	00abaa23          	sw	a0,20(s7)
20000a20:	6505                	lui	a0,0x1
20000a22:	c0050513          	addi	a0,a0,-1024 # c00 <MPU_MIN_ALIGN+0x800>
20000a26:	013ba623          	sw	s3,12(s7)
20000a2a:	033ba423          	sw	s3,40(s7)
20000a2e:	033ba223          	sw	s3,36(s7)
20000a32:	00a984b3          	add	s1,s3,a0
20000a36:	020bae23          	sw	zero,60(s7)
20000a3a:	029ba823          	sw	s1,48(s7)
20000a3e:	029ba623          	sw	s1,44(s7)
20000a42:	029ba023          	sw	s1,32(s7)
20000a46:	009bae23          	sw	s1,28(s7)
20000a4a:	058b8513          	addi	a0,s7,88
20000a4e:	4581                	li	a1,0
20000a50:	08400613          	li	a2,132
20000a54:	e0e42423          	sw	a4,-504(s0)
20000a58:	00009097          	auipc	ra,0x9
20000a5c:	c32080e7          	jalr	-974(ra) # 2000968a <memset>
20000a60:	4519                	li	a0,6
20000a62:	22ab9223          	sh	a0,548(s7)
20000a66:	0dcb8513          	addi	a0,s7,220
20000a6a:	e1840593          	addi	a1,s0,-488
20000a6e:	0a400613          	li	a2,164
20000a72:	00009097          	auipc	ra,0x9
20000a76:	bf4080e7          	jalr	-1036(ra) # 20009666 <memcpy>
20000a7a:	4515                	li	a0,5
20000a7c:	20aba023          	sw	a0,512(s7)
20000a80:	1e9bac23          	sw	s1,504(s7)
20000a84:	dc842503          	lw	a0,-568(s0)
20000a88:	1eaba223          	sw	a0,484(s7)
20000a8c:	dcc42503          	lw	a0,-564(s0)
20000a90:	1eaba023          	sw	a0,480(s7)
20000a94:	4529                	li	a0,10
20000a96:	1caba823          	sw	a0,464(s7)
20000a9a:	e0842503          	lw	a0,-504(s0)
20000a9e:	e9850513          	addi	a0,a0,-360
20000aa2:	1caba623          	sw	a0,460(s7)
20000aa6:	4505                	li	a0,1
20000aa8:	22ab8023          	sb	a0,544(s7)
20000aac:	1cab8e23          	sb	a0,476(s7)
20000ab0:	18ab8023          	sb	a0,384(s7)
20000ab4:	200bae23          	sw	zero,540(s7)
20000ab8:	200bac23          	sw	zero,536(s7)
20000abc:	200baa23          	sw	zero,532(s7)
20000ac0:	1e0bae23          	sw	zero,508(s7)
20000ac4:	1e0ba823          	sw	zero,496(s7)
20000ac8:	1e0ba423          	sw	zero,488(s7)
20000acc:	1c0bac23          	sw	zero,472(s7)
20000ad0:	1c0baa23          	sw	zero,468(s7)
20000ad4:	1c0ba023          	sw	zero,448(s7)
20000ad8:	1a0baa23          	sw	zero,436(s7)
20000adc:	1a0ba423          	sw	zero,424(s7)
20000ae0:	180bae23          	sw	zero,412(s7)
20000ae4:	180ba823          	sw	zero,400(s7)
20000ae8:	180ba223          	sw	zero,388(s7)
20000aec:	03cb8513          	addi	a0,s7,60
20000af0:	00005097          	auipc	ra,0x5
20000af4:	154080e7          	jalr	340(ra) # 20005c44 <kernel::tbfheader::TbfHeader::get_protected_size>
20000af8:	1dcbc583          	lbu	a1,476(s7)
20000afc:	c5b9                	beqz	a1,20000b4a <kernel::process::load_processes+0x7bc>
20000afe:	1ccb8593          	addi	a1,s7,460
20000b02:	1c0b8e23          	sb	zero,476(s7)
20000b06:	ebc42483          	lw	s1,-324(s0)
20000b0a:	44d0                	lw	a2,12(s1)
20000b0c:	4894                	lw	a3,16(s1)
20000b0e:	4cd8                	lw	a4,28(s1)
20000b10:	dc442783          	lw	a5,-572(s0)
20000b14:	f6f42423          	sw	a5,-152(s0)
20000b18:	f6e42223          	sw	a4,-156(s0)
20000b1c:	f6d42023          	sw	a3,-160(s0)
20000b20:	f4c42e23          	sw	a2,-164(s0)
20000b24:	956e                	add	a0,a0,s11
20000b26:	f4a42c23          	sw	a0,-168(s0)
20000b2a:	f4042623          	sw	zero,-180(s0)
20000b2e:	f4042423          	sw	zero,-184(s0)
20000b32:	852e                	mv	a0,a1
20000b34:	f4840593          	addi	a1,s0,-184
20000b38:	00008097          	auipc	ra,0x8
20000b3c:	d0e080e7          	jalr	-754(ra) # 20008846 <<kernel::common::ring_buffer::RingBuffer<T> as kernel::common::queue::Queue<T>>::enqueue>
20000b40:	86a6                	mv	a3,s1
20000b42:	4505                	li	a0,1
20000b44:	1cab8e23          	sb	a0,476(s7)
20000b48:	a019                	j	20000b4e <kernel::process::load_processes+0x7c0>
20000b4a:	ebc42683          	lw	a3,-324(s0)
20000b4e:	e1040b93          	addi	s7,s0,-496
20000b52:	05868593          	addi	a1,a3,88
20000b56:	ec040493          	addi	s1,s0,-320
20000b5a:	8526                	mv	a0,s1
20000b5c:	e0b42423          	sw	a1,-504(s0)
20000b60:	08400613          	li	a2,132
20000b64:	84b6                	mv	s1,a3
20000b66:	00009097          	auipc	ra,0x9
20000b6a:	b00080e7          	jalr	-1280(ra) # 20009666 <memcpy>
20000b6e:	ec040793          	addi	a5,s0,-320
20000b72:	54d8                	lw	a4,44(s1)
20000b74:	4581                	li	a1,0
20000b76:	07c00693          	li	a3,124
20000b7a:	00d58963          	beq	a1,a3,20000b8c <kernel::process::load_processes+0x7fe>
20000b7e:	00b78633          	add	a2,a5,a1
20000b82:	00062023          	sw	zero,0(a2)
20000b86:	0591                	addi	a1,a1,4
20000b88:	fed59be3          	bne	a1,a3,20000b7e <kernel::process::load_processes+0x7f0>
20000b8c:	f4042023          	sw	zero,-192(s0)
20000b90:	f2042e23          	sw	zero,-196(s0)
20000b94:	ece42223          	sw	a4,-316(s0)
20000b98:	d4d8                	sw	a4,44(s1)
20000b9a:	8526                	mv	a0,s1
20000b9c:	00000097          	auipc	ra,0x0
20000ba0:	0fc080e7          	jalr	252(ra) # 20000c98 <kernel::process::Process<C>::debug_set_max_stack_depth>
20000ba4:	f4840493          	addi	s1,s0,-184
20000ba8:	8526                	mv	a0,s1
20000baa:	ec040593          	addi	a1,s0,-320
20000bae:	08400613          	li	a2,132
20000bb2:	00009097          	auipc	ra,0x9
20000bb6:	ab4080e7          	jalr	-1356(ra) # 20009666 <memcpy>
20000bba:	e0842503          	lw	a0,-504(s0)
20000bbe:	85a6                	mv	a1,s1
20000bc0:	fffff097          	auipc	ra,0xfffff
20000bc4:	6e4080e7          	jalr	1764(ra) # 200002a4 <core::cell::Cell<T>::set>
20000bc8:	100025b7          	lui	a1,0x10002
20000bcc:	1fc5a503          	lw	a0,508(a1) # 100021fc <opentitan::reset_handler::BUF>
20000bd0:	0505                	addi	a0,a0,1
20000bd2:	1ea5ae23          	sw	a0,508(a1)
20000bd6:	055c7b63          	bgeu	s8,s5,20000c2c <kernel::process::load_processes+0x89e>
20000bda:	ebc42503          	lw	a0,-324(s0)
20000bde:	003c1593          	slli	a1,s8,0x3
20000be2:	de442603          	lw	a2,-540(s0)
20000be6:	95b2                	add	a1,a1,a2
20000be8:	de042603          	lw	a2,-544(s0)
20000bec:	c1d0                	sw	a2,4(a1)
20000bee:	c188                	sw	a0,0(a1)
20000bf0:	be6d                	j	200007aa <kernel::process::load_processes+0x41c>
20000bf2:	20c12d83          	lw	s11,524(sp)
20000bf6:	21012d03          	lw	s10,528(sp)
20000bfa:	21412c83          	lw	s9,532(sp)
20000bfe:	21812c03          	lw	s8,536(sp)
20000c02:	21c12b83          	lw	s7,540(sp)
20000c06:	22012b03          	lw	s6,544(sp)
20000c0a:	22412a83          	lw	s5,548(sp)
20000c0e:	22812a03          	lw	s4,552(sp)
20000c12:	22c12983          	lw	s3,556(sp)
20000c16:	23012903          	lw	s2,560(sp)
20000c1a:	23412483          	lw	s1,564(sp)
20000c1e:	23812403          	lw	s0,568(sp)
20000c22:	23c12083          	lw	ra,572(sp)
20000c26:	24010113          	addi	sp,sp,576
20000c2a:	8082                	ret
20000c2c:	10001537          	lui	a0,0x10001
20000c30:	00050513          	mv	a0,a0
20000c34:	85e2                	mv	a1,s8
20000c36:	4611                	li	a2,4
20000c38:	00003097          	auipc	ra,0x3
20000c3c:	e0e080e7          	jalr	-498(ra) # 20003a46 <core::panicking::panic_bounds_check>
20000c40:	0000b097          	auipc	ra,0xb
20000c44:	4ec080e7          	jalr	1260(ra) # 2000c12c <abort>

20000c48 <kernel::process::Process<C>::grant_ptrs_reset>:
20000c48:	1101                	addi	sp,sp,-32
20000c4a:	ce06                	sw	ra,28(sp)
20000c4c:	cc22                	sw	s0,24(sp)
20000c4e:	ca26                	sw	s1,20(sp)
20000c50:	c84a                	sw	s2,16(sp)
20000c52:	1000                	addi	s0,sp,32
20000c54:	84aa                	mv	s1,a0
20000c56:	4148                	lw	a0,4(a0)
20000c58:	4585                	li	a1,1
20000c5a:	00b50823          	sb	a1,16(a0) # 10001010 <.L__unnamed_1>
20000c5e:	4548                	lw	a0,12(a0)
20000c60:	fea42623          	sw	a0,-20(s0)
20000c64:	fe042423          	sw	zero,-24(s0)
20000c68:	fe840913          	addi	s2,s0,-24
20000c6c:	854a                	mv	a0,s2
20000c6e:	fffff097          	auipc	ra,0xfffff
20000c72:	6f8080e7          	jalr	1784(ra) # 20000366 <core::iter::range::<impl core::iter::traits::iterator::Iterator for core::ops::range::Range<A>>::next>
20000c76:	c919                	beqz	a0,20000c8c <kernel::process::Process<C>::grant_ptrs_reset+0x44>
20000c78:	4888                	lw	a0,16(s1)
20000c7a:	44d0                	lw	a2,12(s1)
20000c7c:	9532                	add	a0,a0,a2
20000c7e:	fff5c593          	not	a1,a1
20000c82:	058a                	slli	a1,a1,0x2
20000c84:	952e                	add	a0,a0,a1
20000c86:	00052023          	sw	zero,0(a0)
20000c8a:	b7cd                	j	20000c6c <kernel::process::Process<C>::grant_ptrs_reset+0x24>
20000c8c:	4942                	lw	s2,16(sp)
20000c8e:	44d2                	lw	s1,20(sp)
20000c90:	4462                	lw	s0,24(sp)
20000c92:	40f2                	lw	ra,28(sp)
20000c94:	6105                	addi	sp,sp,32
20000c96:	8082                	ret

20000c98 <kernel::process::Process<C>::debug_set_max_stack_depth>:
20000c98:	1141                	addi	sp,sp,-16
20000c9a:	c606                	sw	ra,12(sp)
20000c9c:	c422                	sw	s0,8(sp)
20000c9e:	0800                	addi	s0,sp,16
20000ca0:	22054583          	lbu	a1,544(a0)
20000ca4:	cd89                	beqz	a1,20000cbe <kernel::process::Process<C>::debug_set_max_stack_depth+0x26>
20000ca6:	22050023          	sb	zero,544(a0)
20000caa:	554c                	lw	a1,44(a0)
20000cac:	1f852603          	lw	a2,504(a0)
20000cb0:	00c5f463          	bgeu	a1,a2,20000cb8 <kernel::process::Process<C>::debug_set_max_stack_depth+0x20>
20000cb4:	1eb52c23          	sw	a1,504(a0)
20000cb8:	4585                	li	a1,1
20000cba:	22b50023          	sb	a1,544(a0)
20000cbe:	4422                	lw	s0,8(sp)
20000cc0:	40b2                	lw	ra,12(sp)
20000cc2:	0141                	addi	sp,sp,16
20000cc4:	8082                	ret

20000cc6 <<kernel::process::Process<C> as kernel::process::ProcessType>::flash_start>:
20000cc6:	1141                	addi	sp,sp,-16
20000cc8:	c606                	sw	ra,12(sp)
20000cca:	c422                	sw	s0,8(sp)
20000ccc:	0800                	addi	s0,sp,16
20000cce:	5948                	lw	a0,52(a0)
20000cd0:	4422                	lw	s0,8(sp)
20000cd2:	40b2                	lw	ra,12(sp)
20000cd4:	0141                	addi	sp,sp,16
20000cd6:	8082                	ret

20000cd8 <<kernel::process::Process<C> as kernel::process::ProcessType>::dequeue_task>:
20000cd8:	7175                	addi	sp,sp,-144
20000cda:	c706                	sw	ra,140(sp)
20000cdc:	c522                	sw	s0,136(sp)
20000cde:	c326                	sw	s1,132(sp)
20000ce0:	c14a                	sw	s2,128(sp)
20000ce2:	dece                	sw	s3,124(sp)
20000ce4:	dcd2                	sw	s4,120(sp)
20000ce6:	dad6                	sw	s5,116(sp)
20000ce8:	d8da                	sw	s6,112(sp)
20000cea:	0900                	addi	s0,sp,144
20000cec:	892a                	mv	s2,a0
20000cee:	1dc5c503          	lbu	a0,476(a1)
20000cf2:	c55d                	beqz	a0,20000da0 <<kernel::process::Process<C> as kernel::process::ProcessType>::dequeue_task+0xc8>
20000cf4:	84ae                	mv	s1,a1
20000cf6:	1c058e23          	sb	zero,476(a1)
20000cfa:	4a89                	li	s5,2
20000cfc:	1d45a983          	lw	s3,468(a1)
20000d00:	1d85a503          	lw	a0,472(a1)
20000d04:	4b09                	li	s6,2
20000d06:	06a98063          	beq	s3,a0,20000d66 <<kernel::process::Process<C> as kernel::process::ProcessType>::dequeue_task+0x8e>
20000d0a:	1d04aa03          	lw	s4,464(s1)
20000d0e:	0d49fc63          	bgeu	s3,s4,20000de6 <<kernel::process::Process<C> as kernel::process::ProcessType>::dequeue_task+0x10e>
20000d12:	02400513          	li	a0,36
20000d16:	02a98533          	mul	a0,s3,a0
20000d1a:	1cc4a583          	lw	a1,460(s1)
20000d1e:	952e                	add	a0,a0,a1
20000d20:	00052b03          	lw	s6,0(a0)
20000d24:	00450593          	addi	a1,a0,4
20000d28:	f9840513          	addi	a0,s0,-104
20000d2c:	02000613          	li	a2,32
20000d30:	00009097          	auipc	ra,0x9
20000d34:	936080e7          	jalr	-1738(ra) # 20009666 <memcpy>
20000d38:	00198513          	addi	a0,s3,1
20000d3c:	03457533          	remu	a0,a0,s4
20000d40:	1ca4aa23          	sw	a0,468(s1)
20000d44:	4509                	li	a0,2
20000d46:	02ab0063          	beq	s6,a0,20000d66 <<kernel::process::Process<C> as kernel::process::ProcessType>::dequeue_task+0x8e>
20000d4a:	40c8                	lw	a0,4(s1)
20000d4c:	410c                	lw	a1,0(a0)
20000d4e:	15fd                	addi	a1,a1,-1
20000d50:	c10c                	sw	a1,0(a0)
20000d52:	fc040513          	addi	a0,s0,-64
20000d56:	f9840593          	addi	a1,s0,-104
20000d5a:	02000613          	li	a2,32
20000d5e:	00009097          	auipc	ra,0x9
20000d62:	908080e7          	jalr	-1784(ra) # 20009666 <memcpy>
20000d66:	4505                	li	a0,1
20000d68:	1ca48e23          	sb	a0,476(s1)
20000d6c:	f7840493          	addi	s1,s0,-136
20000d70:	fc040593          	addi	a1,s0,-64
20000d74:	8526                	mv	a0,s1
20000d76:	02000613          	li	a2,32
20000d7a:	00009097          	auipc	ra,0x9
20000d7e:	8ec080e7          	jalr	-1812(ra) # 20009666 <memcpy>
20000d82:	f9542c23          	sw	s5,-104(s0)
20000d86:	f9c40513          	addi	a0,s0,-100
20000d8a:	fc040593          	addi	a1,s0,-64
20000d8e:	02000613          	li	a2,32
20000d92:	00009097          	auipc	ra,0x9
20000d96:	8d4080e7          	jalr	-1836(ra) # 20009666 <memcpy>
20000d9a:	01692023          	sw	s6,0(s2) # 2000 <MPU_MIN_ALIGN+0x1c00>
20000d9e:	a00d                	j	20000dc0 <<kernel::process::Process<C> as kernel::process::ProcessType>::dequeue_task+0xe8>
20000da0:	4989                	li	s3,2
20000da2:	f9342c23          	sw	s3,-104(s0)
20000da6:	f9c40513          	addi	a0,s0,-100
20000daa:	fc040493          	addi	s1,s0,-64
20000dae:	85a6                	mv	a1,s1
20000db0:	02000613          	li	a2,32
20000db4:	00009097          	auipc	ra,0x9
20000db8:	8b2080e7          	jalr	-1870(ra) # 20009666 <memcpy>
20000dbc:	01392023          	sw	s3,0(s2)
20000dc0:	00490513          	addi	a0,s2,4
20000dc4:	85a6                	mv	a1,s1
20000dc6:	02000613          	li	a2,32
20000dca:	00009097          	auipc	ra,0x9
20000dce:	89c080e7          	jalr	-1892(ra) # 20009666 <memcpy>
20000dd2:	5b46                	lw	s6,112(sp)
20000dd4:	5ad6                	lw	s5,116(sp)
20000dd6:	5a66                	lw	s4,120(sp)
20000dd8:	59f6                	lw	s3,124(sp)
20000dda:	490a                	lw	s2,128(sp)
20000ddc:	449a                	lw	s1,132(sp)
20000dde:	442a                	lw	s0,136(sp)
20000de0:	40ba                	lw	ra,140(sp)
20000de2:	6149                	addi	sp,sp,144
20000de4:	8082                	ret
20000de6:	10002537          	lui	a0,0x10002
20000dea:	ba850513          	addi	a0,a0,-1112 # 10001ba8 <.L__unnamed_15>
20000dee:	85ce                	mv	a1,s3
20000df0:	8652                	mv	a2,s4
20000df2:	00003097          	auipc	ra,0x3
20000df6:	c54080e7          	jalr	-940(ra) # 20003a46 <core::panicking::panic_bounds_check>
20000dfa:	0000b097          	auipc	ra,0xb
20000dfe:	332080e7          	jalr	818(ra) # 2000c12c <abort>

20000e02 <<kernel::process::Process<C> as kernel::process::ProcessType>::enqueue_task>:
20000e02:	7139                	addi	sp,sp,-64
20000e04:	de06                	sw	ra,60(sp)
20000e06:	dc22                	sw	s0,56(sp)
20000e08:	da26                	sw	s1,52(sp)
20000e0a:	d84a                	sw	s2,48(sp)
20000e0c:	0080                	addi	s0,sp,64
20000e0e:	84aa                	mv	s1,a0
20000e10:	22454503          	lbu	a0,548(a0)
20000e14:	4615                	li	a2,5
20000e16:	04c50b63          	beq	a0,a2,20000e6c <<kernel::process::Process<C> as kernel::process::ProcessType>::enqueue_task+0x6a>
20000e1a:	40c8                	lw	a0,4(s1)
20000e1c:	4110                	lw	a2,0(a0)
20000e1e:	0605                	addi	a2,a2,1
20000e20:	c110                	sw	a2,0(a0)
20000e22:	1dc4c503          	lbu	a0,476(s1)
20000e26:	c905                	beqz	a0,20000e56 <<kernel::process::Process<C> as kernel::process::ProcessType>::enqueue_task+0x54>
20000e28:	1c048e23          	sb	zero,476(s1)
20000e2c:	fc840913          	addi	s2,s0,-56
20000e30:	854a                	mv	a0,s2
20000e32:	02400613          	li	a2,36
20000e36:	00009097          	auipc	ra,0x9
20000e3a:	830080e7          	jalr	-2000(ra) # 20009666 <memcpy>
20000e3e:	1cc48513          	addi	a0,s1,460
20000e42:	85ca                	mv	a1,s2
20000e44:	00008097          	auipc	ra,0x8
20000e48:	a02080e7          	jalr	-1534(ra) # 20008846 <<kernel::common::ring_buffer::RingBuffer<T> as kernel::common::queue::Queue<T>>::enqueue>
20000e4c:	85aa                	mv	a1,a0
20000e4e:	4505                	li	a0,1
20000e50:	1ca48e23          	sb	a0,476(s1)
20000e54:	ed89                	bnez	a1,20000e6e <<kernel::process::Process<C> as kernel::process::ProcessType>::enqueue_task+0x6c>
20000e56:	2204c503          	lbu	a0,544(s1)
20000e5a:	c909                	beqz	a0,20000e6c <<kernel::process::Process<C> as kernel::process::ProcessType>::enqueue_task+0x6a>
20000e5c:	4505                	li	a0,1
20000e5e:	22a48023          	sb	a0,544(s1)
20000e62:	2144a503          	lw	a0,532(s1)
20000e66:	0505                	addi	a0,a0,1
20000e68:	20a4aa23          	sw	a0,532(s1)
20000e6c:	4501                	li	a0,0
20000e6e:	5942                	lw	s2,48(sp)
20000e70:	54d2                	lw	s1,52(sp)
20000e72:	5462                	lw	s0,56(sp)
20000e74:	50f2                	lw	ra,60(sp)
20000e76:	6121                	addi	sp,sp,64
20000e78:	8082                	ret

20000e7a <<kernel::process::Process<C> as kernel::process::ProcessType>::add_mpu_region>:
20000e7a:	1101                	addi	sp,sp,-32
20000e7c:	ce06                	sw	ra,28(sp)
20000e7e:	cc22                	sw	s0,24(sp)
20000e80:	ca26                	sw	s1,20(sp)
20000e82:	c84a                	sw	s2,16(sp)
20000e84:	c64e                	sw	s3,12(sp)
20000e86:	1000                	addi	s0,sp,32
20000e88:	892a                	mv	s2,a0
20000e8a:	1805c503          	lbu	a0,384(a1)
20000e8e:	c525                	beqz	a0,20000ef6 <<kernel::process::Process<C> as kernel::process::ProcessType>::add_mpu_region+0x7c>
20000e90:	84ae                	mv	s1,a1
20000e92:	18058023          	sb	zero,384(a1)
20000e96:	0dc58793          	addi	a5,a1,220
20000e9a:	fe040513          	addi	a0,s0,-32
20000e9e:	4985                	li	s3,1
20000ea0:	85b2                	mv	a1,a2
20000ea2:	8636                	mv	a2,a3
20000ea4:	86ba                	mv	a3,a4
20000ea6:	4705                	li	a4,1
20000ea8:	00008097          	auipc	ra,0x8
20000eac:	154080e7          	jalr	340(ra) # 20008ffc <<rv32i::pmp::PMPConfig as kernel::platform::mpu::MPU>::allocate_region>
20000eb0:	fe042503          	lw	a0,-32(s0)
20000eb4:	05351463          	bne	a0,s3,20000efc <<kernel::process::Process<C> as kernel::process::ProcessType>::add_mpu_region+0x82>
20000eb8:	04800593          	li	a1,72
20000ebc:	4501                	li	a0,0
20000ebe:	04b50063          	beq	a0,a1,20000efe <<kernel::process::Process<C> as kernel::process::ProcessType>::add_mpu_region+0x84>
20000ec2:	00a48633          	add	a2,s1,a0
20000ec6:	0531                	addi	a0,a0,12
20000ec8:	18462603          	lw	a2,388(a2)
20000ecc:	ff3609e3          	beq	a2,s3,20000ebe <<kernel::process::Process<C> as kernel::process::ProcessType>::add_mpu_region+0x44>
20000ed0:	9526                	add	a0,a0,s1
20000ed2:	fe842583          	lw	a1,-24(s0)
20000ed6:	18b52023          	sw	a1,384(a0)
20000eda:	fe442583          	lw	a1,-28(s0)
20000ede:	16b52e23          	sw	a1,380(a0)
20000ee2:	fe042583          	lw	a1,-32(s0)
20000ee6:	16b52c23          	sw	a1,376(a0)
20000eea:	4505                	li	a0,1
20000eec:	fe842603          	lw	a2,-24(s0)
20000ef0:	fe442583          	lw	a1,-28(s0)
20000ef4:	a031                	j	20000f00 <<kernel::process::Process<C> as kernel::process::ProcessType>::add_mpu_region+0x86>
20000ef6:	00092023          	sw	zero,0(s2)
20000efa:	a819                	j	20000f10 <<kernel::process::Process<C> as kernel::process::ProcessType>::add_mpu_region+0x96>
20000efc:	a011                	j	20000f00 <<kernel::process::Process<C> as kernel::process::ProcessType>::add_mpu_region+0x86>
20000efe:	4501                	li	a0,0
20000f00:	19348023          	sb	s3,384(s1)
20000f04:	00c92423          	sw	a2,8(s2)
20000f08:	00b92223          	sw	a1,4(s2)
20000f0c:	00a92023          	sw	a0,0(s2)
20000f10:	49b2                	lw	s3,12(sp)
20000f12:	4942                	lw	s2,16(sp)
20000f14:	44d2                	lw	s1,20(sp)
20000f16:	4462                	lw	s0,24(sp)
20000f18:	40f2                	lw	ra,28(sp)
20000f1a:	6105                	addi	sp,sp,32
20000f1c:	8082                	ret

20000f1e <<kernel::process::Process<C> as kernel::process::ProcessType>::set_fault_state>:
20000f1e:	7129                	addi	sp,sp,-320
20000f20:	12112e23          	sw	ra,316(sp)
20000f24:	12812c23          	sw	s0,312(sp)
20000f28:	12912a23          	sw	s1,308(sp)
20000f2c:	13212823          	sw	s2,304(sp)
20000f30:	13312623          	sw	s3,300(sp)
20000f34:	13412423          	sw	s4,296(sp)
20000f38:	13512223          	sw	s5,292(sp)
20000f3c:	13612023          	sw	s6,288(sp)
20000f40:	11712e23          	sw	s7,284(sp)
20000f44:	11812c23          	sw	s8,280(sp)
20000f48:	0280                	addi	s0,sp,320
20000f4a:	8b2a                	mv	s6,a0
20000f4c:	4515                	li	a0,5
20000f4e:	22ab0223          	sb	a0,548(s6)
20000f52:	225b4583          	lbu	a1,549(s6)
20000f56:	4505                	li	a0,1
20000f58:	02a58663          	beq	a1,a0,20000f84 <<kernel::process::Process<C> as kernel::process::ProcessType>::set_fault_state+0x66>
20000f5c:	4509                	li	a0,2
20000f5e:	22a59c63          	bne	a1,a0,20001196 <<kernel::process::Process<C> as kernel::process::ProcessType>::set_fault_state+0x278>
20000f62:	1dcb4503          	lbu	a0,476(s6)
20000f66:	c121                	beqz	a0,20000fa6 <<kernel::process::Process<C> as kernel::process::ProcessType>::set_fault_state+0x88>
20000f68:	1d8b2603          	lw	a2,472(s6)
20000f6c:	1d4b2583          	lw	a1,468(s6)
20000f70:	1d0b2503          	lw	a0,464(s6)
20000f74:	00008097          	auipc	ra,0x8
20000f78:	8aa080e7          	jalr	-1878(ra) # 2000881e <<kernel::common::ring_buffer::RingBuffer<T> as kernel::common::queue::Queue<T>>::len>
20000f7c:	4585                	li	a1,1
20000f7e:	1cbb0e23          	sb	a1,476(s6)
20000f82:	a01d                	j	20000fa8 <<kernel::process::Process<C> as kernel::process::ProcessType>::set_fault_state+0x8a>
20000f84:	1dcb4503          	lbu	a0,476(s6)
20000f88:	c52d                	beqz	a0,20000ff2 <<kernel::process::Process<C> as kernel::process::ProcessType>::set_fault_state+0xd4>
20000f8a:	1d8b2603          	lw	a2,472(s6)
20000f8e:	1d4b2583          	lw	a1,468(s6)
20000f92:	1d0b2503          	lw	a0,464(s6)
20000f96:	00008097          	auipc	ra,0x8
20000f9a:	888080e7          	jalr	-1912(ra) # 2000881e <<kernel::common::ring_buffer::RingBuffer<T> as kernel::common::queue::Queue<T>>::len>
20000f9e:	4585                	li	a1,1
20000fa0:	1cbb0e23          	sb	a1,476(s6)
20000fa4:	a881                	j	20000ff4 <<kernel::process::Process<C> as kernel::process::ProcessType>::set_fault_state+0xd6>
20000fa6:	4501                	li	a0,0
20000fa8:	f4a42a23          	sw	a0,-172(s0)
20000fac:	f4042823          	sw	zero,-176(s0)
20000fb0:	f5040493          	addi	s1,s0,-176
20000fb4:	8526                	mv	a0,s1
20000fb6:	fffff097          	auipc	ra,0xfffff
20000fba:	3b0080e7          	jalr	944(ra) # 20000366 <core::iter::range::<impl core::iter::traits::iterator::Iterator for core::ops::range::Range<A>>::next>
20000fbe:	c519                	beqz	a0,20000fcc <<kernel::process::Process<C> as kernel::process::ProcessType>::set_fault_state+0xae>
20000fc0:	004b2503          	lw	a0,4(s6)
20000fc4:	410c                	lw	a1,0(a0)
20000fc6:	15fd                	addi	a1,a1,-1
20000fc8:	c10c                	sw	a1,0(a0)
20000fca:	b7ed                	j	20000fb4 <<kernel::process::Process<C> as kernel::process::ProcessType>::set_fault_state+0x96>
20000fcc:	1dcb4503          	lbu	a0,476(s6)
20000fd0:	c901                	beqz	a0,20000fe0 <<kernel::process::Process<C> as kernel::process::ProcessType>::set_fault_state+0xc2>
20000fd2:	4505                	li	a0,1
20000fd4:	1cab0e23          	sb	a0,476(s6)
20000fd8:	1c0b2c23          	sw	zero,472(s6)
20000fdc:	1c0b2a23          	sw	zero,468(s6)
20000fe0:	855a                	mv	a0,s6
20000fe2:	00000097          	auipc	ra,0x0
20000fe6:	c66080e7          	jalr	-922(ra) # 20000c48 <kernel::process::Process<C>::grant_ptrs_reset>
20000fea:	4511                	li	a0,4
20000fec:	22ab0223          	sb	a0,548(s6)
20000ff0:	aaad                	j	2000116a <<kernel::process::Process<C> as kernel::process::ProcessType>::set_fault_state+0x24c>
20000ff2:	4501                	li	a0,0
20000ff4:	1ccb0913          	addi	s2,s6,460
20000ff8:	f4a42a23          	sw	a0,-172(s0)
20000ffc:	f4042823          	sw	zero,-176(s0)
20001000:	f5040493          	addi	s1,s0,-176
20001004:	8526                	mv	a0,s1
20001006:	fffff097          	auipc	ra,0xfffff
2000100a:	360080e7          	jalr	864(ra) # 20000366 <core::iter::range::<impl core::iter::traits::iterator::Iterator for core::ops::range::Range<A>>::next>
2000100e:	c519                	beqz	a0,2000101c <<kernel::process::Process<C> as kernel::process::ProcessType>::set_fault_state+0xfe>
20001010:	004b2503          	lw	a0,4(s6)
20001014:	410c                	lw	a1,0(a0)
20001016:	15fd                	addi	a1,a1,-1
20001018:	c10c                	sw	a1,0(a0)
2000101a:	b7ed                	j	20001004 <<kernel::process::Process<C> as kernel::process::ProcessType>::set_fault_state+0xe6>
2000101c:	1dcb4503          	lbu	a0,476(s6)
20001020:	c901                	beqz	a0,20001030 <<kernel::process::Process<C> as kernel::process::ProcessType>::set_fault_state+0x112>
20001022:	4505                	li	a0,1
20001024:	1cab0e23          	sb	a0,476(s6)
20001028:	1c0b2c23          	sw	zero,472(s6)
2000102c:	1c0b2a23          	sw	zero,468(s6)
20001030:	220b4503          	lbu	a0,544(s6)
20001034:	c105                	beqz	a0,20001054 <<kernel::process::Process<C> as kernel::process::ProcessType>::set_fault_state+0x136>
20001036:	4505                	li	a0,1
20001038:	22ab0023          	sb	a0,544(s6)
2000103c:	4515                	li	a0,5
2000103e:	20ab2023          	sw	a0,512(s6)
20001042:	200b2a23          	sw	zero,532(s6)
20001046:	1e0b2e23          	sw	zero,508(s6)
2000104a:	218b2503          	lw	a0,536(s6)
2000104e:	0505                	addi	a0,a0,1
20001050:	20ab2c23          	sw	a0,536(s6)
20001054:	034b2b83          	lw	s7,52(s6)
20001058:	03cb0993          	addi	s3,s6,60
2000105c:	854e                	mv	a0,s3
2000105e:	00005097          	auipc	ra,0x5
20001062:	c10080e7          	jalr	-1008(ra) # 20005c6e <kernel::tbfheader::TbfHeader::get_init_function_offset>
20001066:	8c2a                	mv	s8,a0
20001068:	4519                	li	a0,6
2000106a:	22ab0223          	sb	a0,548(s6)
2000106e:	855a                	mv	a0,s6
20001070:	00000097          	auipc	ra,0x0
20001074:	bd8080e7          	jalr	-1064(ra) # 20000c48 <kernel::process::Process<C>::grant_ptrs_reset>
20001078:	018b2503          	lw	a0,24(s6)
2000107c:	00ab2a23          	sw	a0,20(s6)
20001080:	020b2503          	lw	a0,32(s6)
20001084:	00ab2e23          	sw	a0,28(s6)
20001088:	028b2503          	lw	a0,40(s6)
2000108c:	02ab2223          	sw	a0,36(s6)
20001090:	030b2483          	lw	s1,48(s6)
20001094:	029b2623          	sw	s1,44(s6)
20001098:	058b0a13          	addi	s4,s6,88
2000109c:	ec840a93          	addi	s5,s0,-312
200010a0:	8556                	mv	a0,s5
200010a2:	85d2                	mv	a1,s4
200010a4:	08400613          	li	a2,132
200010a8:	00008097          	auipc	ra,0x8
200010ac:	5be080e7          	jalr	1470(ra) # 20009666 <memcpy>
200010b0:	9c5e                	add	s8,s8,s7
200010b2:	07c00513          	li	a0,124
200010b6:	4581                	li	a1,0
200010b8:	00a58963          	beq	a1,a0,200010ca <<kernel::process::Process<C> as kernel::process::ProcessType>::set_fault_state+0x1ac>
200010bc:	00ba8633          	add	a2,s5,a1
200010c0:	00062023          	sw	zero,0(a2)
200010c4:	0591                	addi	a1,a1,4
200010c6:	fea59be3          	bne	a1,a0,200010bc <<kernel::process::Process<C> as kernel::process::ProcessType>::set_fault_state+0x19e>
200010ca:	f4042423          	sw	zero,-184(s0)
200010ce:	f4042223          	sw	zero,-188(s0)
200010d2:	ec942623          	sw	s1,-308(s0)
200010d6:	029b2623          	sw	s1,44(s6)
200010da:	855a                	mv	a0,s6
200010dc:	00000097          	auipc	ra,0x0
200010e0:	bbc080e7          	jalr	-1092(ra) # 20000c98 <kernel::process::Process<C>::debug_set_max_stack_depth>
200010e4:	f5040493          	addi	s1,s0,-176
200010e8:	ec840593          	addi	a1,s0,-312
200010ec:	8526                	mv	a0,s1
200010ee:	08400613          	li	a2,132
200010f2:	00008097          	auipc	ra,0x8
200010f6:	574080e7          	jalr	1396(ra) # 20009666 <memcpy>
200010fa:	8552                	mv	a0,s4
200010fc:	85a6                	mv	a1,s1
200010fe:	fffff097          	auipc	ra,0xfffff
20001102:	1a6080e7          	jalr	422(ra) # 200002a4 <core::cell::Cell<T>::set>
20001106:	854e                	mv	a0,s3
20001108:	00005097          	auipc	ra,0x5
2000110c:	b3c080e7          	jalr	-1220(ra) # 20005c44 <kernel::tbfheader::TbfHeader::get_protected_size>
20001110:	1dcb4583          	lbu	a1,476(s6)
20001114:	c5b1                	beqz	a1,20001160 <<kernel::process::Process<C> as kernel::process::ProcessType>::set_fault_state+0x242>
20001116:	1c0b2c23          	sw	zero,472(s6)
2000111a:	1c0b2a23          	sw	zero,468(s6)
2000111e:	1c0b0e23          	sb	zero,476(s6)
20001122:	00cb2583          	lw	a1,12(s6)
20001126:	010b2603          	lw	a2,16(s6)
2000112a:	01cb2683          	lw	a3,28(s6)
2000112e:	f7842823          	sw	s8,-144(s0)
20001132:	f6d42623          	sw	a3,-148(s0)
20001136:	f6c42423          	sw	a2,-152(s0)
2000113a:	f6b42223          	sw	a1,-156(s0)
2000113e:	955e                	add	a0,a0,s7
20001140:	f6a42023          	sw	a0,-160(s0)
20001144:	f4042a23          	sw	zero,-172(s0)
20001148:	f4042823          	sw	zero,-176(s0)
2000114c:	f5040593          	addi	a1,s0,-176
20001150:	854a                	mv	a0,s2
20001152:	00007097          	auipc	ra,0x7
20001156:	6f4080e7          	jalr	1780(ra) # 20008846 <<kernel::common::ring_buffer::RingBuffer<T> as kernel::common::queue::Queue<T>>::enqueue>
2000115a:	4505                	li	a0,1
2000115c:	1cab0e23          	sb	a0,476(s6)
20001160:	004b2503          	lw	a0,4(s6)
20001164:	410c                	lw	a1,0(a0)
20001166:	0585                	addi	a1,a1,1
20001168:	c10c                	sw	a1,0(a0)
2000116a:	11812c03          	lw	s8,280(sp)
2000116e:	11c12b83          	lw	s7,284(sp)
20001172:	12012b03          	lw	s6,288(sp)
20001176:	12412a83          	lw	s5,292(sp)
2000117a:	12812a03          	lw	s4,296(sp)
2000117e:	12c12983          	lw	s3,300(sp)
20001182:	13012903          	lw	s2,304(sp)
20001186:	13412483          	lw	s1,308(sp)
2000118a:	13812403          	lw	s0,312(sp)
2000118e:	13c12083          	lw	ra,316(sp)
20001192:	6131                	addi	sp,sp,320
20001194:	8082                	ret
20001196:	4585                	li	a1,1
20001198:	f6b42223          	sw	a1,-156(s0)
2000119c:	ec840593          	addi	a1,s0,-312
200011a0:	f6b42023          	sw	a1,-160(s0)
200011a4:	f4042c23          	sw	zero,-168(s0)
200011a8:	f4a42a23          	sw	a0,-172(s0)
200011ac:	20006537          	lui	a0,0x20006
200011b0:	2b850513          	addi	a0,a0,696 # 200062b8 <<&T as core::fmt::Display>::fmt>
200011b4:	eca42623          	sw	a0,-308(s0)
200011b8:	1e0b0513          	addi	a0,s6,480
200011bc:	eca42423          	sw	a0,-312(s0)
200011c0:	10001537          	lui	a0,0x10001
200011c4:	0b850513          	addi	a0,a0,184 # 100010b8 <.L__unnamed_16>
200011c8:	f4a42823          	sw	a0,-176(s0)
200011cc:	10001537          	lui	a0,0x10001
200011d0:	0c850593          	addi	a1,a0,200 # 100010c8 <.L__unnamed_17>
200011d4:	f5040513          	addi	a0,s0,-176
200011d8:	00003097          	auipc	ra,0x3
200011dc:	8f0080e7          	jalr	-1808(ra) # 20003ac8 <core::panicking::panic_fmt>
200011e0:	0000b097          	auipc	ra,0xb
200011e4:	f4c080e7          	jalr	-180(ra) # 2000c12c <abort>

200011e8 <<kernel::process::Process<C> as kernel::process::ProcessType>::get_process_name>:
200011e8:	1141                	addi	sp,sp,-16
200011ea:	c606                	sw	ra,12(sp)
200011ec:	c422                	sw	s0,8(sp)
200011ee:	0800                	addi	s0,sp,16
200011f0:	1e052603          	lw	a2,480(a0)
200011f4:	1e452583          	lw	a1,484(a0)
200011f8:	8532                	mv	a0,a2
200011fa:	4422                	lw	s0,8(sp)
200011fc:	40b2                	lw	ra,12(sp)
200011fe:	0141                	addi	sp,sp,16
20001200:	8082                	ret

20001202 <<kernel::process::Process<C> as kernel::process::ProcessType>::set_yielded_state>:
20001202:	1141                	addi	sp,sp,-16
20001204:	c606                	sw	ra,12(sp)
20001206:	c422                	sw	s0,8(sp)
20001208:	0800                	addi	s0,sp,16
2000120a:	22454583          	lbu	a1,548(a0)
2000120e:	e981                	bnez	a1,2000121e <<kernel::process::Process<C> as kernel::process::ProcessType>::set_yielded_state+0x1c>
20001210:	4585                	li	a1,1
20001212:	22b50223          	sb	a1,548(a0)
20001216:	4148                	lw	a0,4(a0)
20001218:	410c                	lw	a1,0(a0)
2000121a:	15fd                	addi	a1,a1,-1
2000121c:	c10c                	sw	a1,0(a0)
2000121e:	4422                	lw	s0,8(sp)
20001220:	40b2                	lw	ra,12(sp)
20001222:	0141                	addi	sp,sp,16
20001224:	8082                	ret

20001226 <<kernel::process::Process<C> as kernel::process::ProcessType>::process_detail_fmt>:
20001226:	7111                	addi	sp,sp,-256
20001228:	df86                	sw	ra,252(sp)
2000122a:	dda2                	sw	s0,248(sp)
2000122c:	dba6                	sw	s1,244(sp)
2000122e:	d9ca                	sw	s2,240(sp)
20001230:	d7ce                	sw	s3,236(sp)
20001232:	d5d2                	sw	s4,232(sp)
20001234:	d3d6                	sw	s5,228(sp)
20001236:	d1da                	sw	s6,224(sp)
20001238:	cfde                	sw	s7,220(sp)
2000123a:	cde2                	sw	s8,216(sp)
2000123c:	cbe6                	sw	s9,212(sp)
2000123e:	c9ea                	sw	s10,208(sp)
20001240:	c7ee                	sw	s11,204(sp)
20001242:	0200                	addi	s0,sp,256
20001244:	8cb2                	mv	s9,a2
20001246:	892e                	mv	s2,a1
20001248:	8aaa                	mv	s5,a0
2000124a:	5d08                	lw	a0,56(a0)
2000124c:	034aa483          	lw	s1,52(s5)
20001250:	00a48b33          	add	s6,s1,a0
20001254:	f1642823          	sw	s6,-240(s0)
20001258:	f0942a23          	sw	s1,-236(s0)
2000125c:	03ca8a13          	addi	s4,s5,60
20001260:	8552                	mv	a0,s4
20001262:	00005097          	auipc	ra,0x5
20001266:	9e2080e7          	jalr	-1566(ra) # 20005c44 <kernel::tbfheader::TbfHeader::get_protected_size>
2000126a:	f0a42c23          	sw	a0,-232(s0)
2000126e:	9526                	add	a0,a0,s1
20001270:	f0a42e23          	sw	a0,-228(s0)
20001274:	40ab0533          	sub	a0,s6,a0
20001278:	f2a42023          	sw	a0,-224(s0)
2000127c:	8552                	mv	a0,s4
2000127e:	00005097          	auipc	ra,0x5
20001282:	9f0080e7          	jalr	-1552(ra) # 20005c6e <kernel::tbfheader::TbfHeader::get_init_function_offset>
20001286:	9526                	add	a0,a0,s1
20001288:	f2a42223          	sw	a0,-220(s0)
2000128c:	010aa583          	lw	a1,16(s5)
20001290:	00caa503          	lw	a0,12(s5)
20001294:	95aa                	add	a1,a1,a0
20001296:	f2b42423          	sw	a1,-216(s0)
2000129a:	014aa603          	lw	a2,20(s5)
2000129e:	f2c42623          	sw	a2,-212(s0)
200012a2:	01caa683          	lw	a3,28(s5)
200012a6:	f2d42823          	sw	a3,-208(s0)
200012aa:	220ac683          	lbu	a3,544(s5)
200012ae:	c69d                	beqz	a3,200012dc <<kernel::process::Process<C> as kernel::process::ProcessType>::process_detail_fmt+0xb6>
200012b0:	4485                	li	s1,1
200012b2:	229a8023          	sb	s1,544(s5)
200012b6:	1ecaa683          	lw	a3,492(s5)
200012ba:	f0d42223          	sw	a3,-252(s0)
200012be:	1e8aa683          	lw	a3,488(s5)
200012c2:	f0d42623          	sw	a3,-244(s0)
200012c6:	1f0aad83          	lw	s11,496(s5)
200012ca:	1f4aa683          	lw	a3,500(s5)
200012ce:	f0d42423          	sw	a3,-248(s0)
200012d2:	229a8023          	sb	s1,544(s5)
200012d6:	1f8aa683          	lw	a3,504(s5)
200012da:	a031                	j	200012e6 <<kernel::process::Process<C> as kernel::process::ProcessType>::process_detail_fmt+0xc0>
200012dc:	4d81                	li	s11,0
200012de:	f0042623          	sw	zero,-244(s0)
200012e2:	4481                	li	s1,0
200012e4:	4681                	li	a3,0
200012e6:	f2d42a23          	sw	a3,-204(s0)
200012ea:	f2a42c23          	sw	a0,-200(s0)
200012ee:	40c58533          	sub	a0,a1,a2
200012f2:	f2a42e23          	sw	a0,-196(s0)
200012f6:	f4a42023          	sw	a0,-192(s0)
200012fa:	1dcac503          	lbu	a0,476(s5)
200012fe:	cd19                	beqz	a0,2000131c <<kernel::process::Process<C> as kernel::process::ProcessType>::process_detail_fmt+0xf6>
20001300:	1d8aa603          	lw	a2,472(s5)
20001304:	1d4aa583          	lw	a1,468(s5)
20001308:	1d0aa503          	lw	a0,464(s5)
2000130c:	00007097          	auipc	ra,0x7
20001310:	512080e7          	jalr	1298(ra) # 2000881e <<kernel::common::ring_buffer::RingBuffer<T> as kernel::common::queue::Queue<T>>::len>
20001314:	4585                	li	a1,1
20001316:	1cba8e23          	sb	a1,476(s5)
2000131a:	a011                	j	2000131e <<kernel::process::Process<C> as kernel::process::ProcessType>::process_detail_fmt+0xf8>
2000131c:	4501                	li	a0,0
2000131e:	f4a42223          	sw	a0,-188(s0)
20001322:	c8a9                	beqz	s1,20001374 <<kernel::process::Process<C> as kernel::process::ProcessType>::process_detail_fmt+0x14e>
20001324:	4505                	li	a0,1
20001326:	22aa8023          	sb	a0,544(s5)
2000132a:	1fcaa583          	lw	a1,508(s5)
2000132e:	f4b42423          	sw	a1,-184(s0)
20001332:	200aac03          	lw	s8,512(s5)
20001336:	210aa583          	lw	a1,528(s5)
2000133a:	f4b42c23          	sw	a1,-168(s0)
2000133e:	20caa583          	lw	a1,524(s5)
20001342:	f4b42a23          	sw	a1,-172(s0)
20001346:	208aa583          	lw	a1,520(s5)
2000134a:	f4b42823          	sw	a1,-176(s0)
2000134e:	204aa583          	lw	a1,516(s5)
20001352:	f4b42623          	sw	a1,-180(s0)
20001356:	22aa8023          	sb	a0,544(s5)
2000135a:	22aa8023          	sb	a0,544(s5)
2000135e:	214aa583          	lw	a1,532(s5)
20001362:	f4b42e23          	sw	a1,-164(s0)
20001366:	22aa8023          	sb	a0,544(s5)
2000136a:	f4c40b13          	addi	s6,s0,-180
2000136e:	218aa503          	lw	a0,536(s5)
20001372:	a809                	j	20001384 <<kernel::process::Process<C> as kernel::process::ProcessType>::process_detail_fmt+0x15e>
20001374:	f4042423          	sw	zero,-184(s0)
20001378:	f4042e23          	sw	zero,-164(s0)
2000137c:	4c19                	li	s8,6
2000137e:	f4c40b13          	addi	s6,s0,-180
20001382:	4501                	li	a0,0
20001384:	f6a42023          	sw	a0,-160(s0)
20001388:	224a8503          	lb	a0,548(s5)
2000138c:	f6040593          	addi	a1,s0,-160
20001390:	fab42c23          	sw	a1,-72(s0)
20001394:	f5c40593          	addi	a1,s0,-164
20001398:	fab42823          	sw	a1,-80(s0)
2000139c:	f4840593          	addi	a1,s0,-184
200013a0:	fab42423          	sw	a1,-88(s0)
200013a4:	200045b7          	lui	a1,0x20004
200013a8:	ab058593          	addi	a1,a1,-1360 # 20003ab0 <core::fmt::num::imp::<impl core::fmt::Display for u32>::fmt>
200013ac:	fab42e23          	sw	a1,-68(s0)
200013b0:	fab42a23          	sw	a1,-76(s0)
200013b4:	fab42623          	sw	a1,-84(s0)
200013b8:	fab42223          	sw	a1,-92(s0)
200013bc:	f4440593          	addi	a1,s0,-188
200013c0:	fab42023          	sw	a1,-96(s0)
200013c4:	200065b7          	lui	a1,0x20006
200013c8:	42a58593          	addi	a1,a1,1066 # 2000642a <<kernel::process::State as core::fmt::Debug>::fmt>
200013cc:	f8b42e23          	sw	a1,-100(s0)
200013d0:	f7040b93          	addi	s7,s0,-144
200013d4:	f9742c23          	sw	s7,-104(s0)
200013d8:	200065b7          	lui	a1,0x20006
200013dc:	2b858593          	addi	a1,a1,696 # 200062b8 <<&T as core::fmt::Display>::fmt>
200013e0:	f8b42a23          	sw	a1,-108(s0)
200013e4:	1e0a8593          	addi	a1,s5,480
200013e8:	f8b42823          	sw	a1,-112(s0)
200013ec:	f6a40823          	sb	a0,-144(s0)
200013f0:	f9040513          	addi	a0,s0,-112
200013f4:	89aa                	mv	s3,a0
200013f6:	f8a42423          	sw	a0,-120(s0)
200013fa:	f8042023          	sw	zero,-128(s0)
200013fe:	451d                	li	a0,7
20001400:	f6a42e23          	sw	a0,-132(s0)
20001404:	10001537          	lui	a0,0x10001
20001408:	0d850513          	addi	a0,a0,216 # 100010d8 <.L__unnamed_18>
2000140c:	f6a42c23          	sw	a0,-136(s0)
20001410:	4499                	li	s1,6
20001412:	f8942623          	sw	s1,-116(s0)
20001416:	014cad03          	lw	s10,20(s9)
2000141a:	f7840a13          	addi	s4,s0,-136
2000141e:	854a                	mv	a0,s2
20001420:	85d2                	mv	a1,s4
20001422:	9d02                	jalr	s10
20001424:	009c1d63          	bne	s8,s1,2000143e <<kernel::process::Process<C> as kernel::process::ProcessType>::process_detail_fmt+0x218>
20001428:	84e6                	mv	s1,s9
2000142a:	00cca683          	lw	a3,12(s9)
2000142e:	2000a537          	lui	a0,0x2000a
20001432:	d7950593          	addi	a1,a0,-647 # 20009d79 <.L__unnamed_19>
20001436:	854a                	mv	a0,s2
20001438:	464d                	li	a2,19
2000143a:	9682                	jalr	a3
2000143c:	a8b9                	j	2000149a <<kernel::process::Process<C> as kernel::process::ProcessType>::process_detail_fmt+0x274>
2000143e:	84e6                	mv	s1,s9
20001440:	f7842c23          	sw	s8,-136(s0)
20001444:	000b2503          	lw	a0,0(s6)
20001448:	f6a42e23          	sw	a0,-132(s0)
2000144c:	004b2503          	lw	a0,4(s6)
20001450:	f8a42023          	sw	a0,-128(s0)
20001454:	008b2503          	lw	a0,8(s6)
20001458:	f8a42223          	sw	a0,-124(s0)
2000145c:	00cb2503          	lw	a0,12(s6)
20001460:	f8a42423          	sw	a0,-120(s0)
20001464:	fb742023          	sw	s7,-96(s0)
20001468:	f8042c23          	sw	zero,-104(s0)
2000146c:	4505                	li	a0,1
2000146e:	faa42223          	sw	a0,-92(s0)
20001472:	f8a42a23          	sw	a0,-108(s0)
20001476:	10001537          	lui	a0,0x10001
2000147a:	11050513          	addi	a0,a0,272 # 10001110 <.L__unnamed_20>
2000147e:	f8a42823          	sw	a0,-112(s0)
20001482:	20007537          	lui	a0,0x20007
20001486:	bfa50513          	addi	a0,a0,-1030 # 20006bfa <<core::option::Option<T> as core::fmt::Debug>::fmt>
2000148a:	f6a42a23          	sw	a0,-140(s0)
2000148e:	f7442823          	sw	s4,-144(s0)
20001492:	f9040593          	addi	a1,s0,-112
20001496:	854a                	mv	a0,s2
20001498:	9d02                	jalr	s10
2000149a:	8c5e                	mv	s8,s7
2000149c:	8bee                	mv	s7,s11
2000149e:	8dce                	mv	s11,s3
200014a0:	f0c42983          	lw	s3,-244(s0)
200014a4:	f3c42503          	lw	a0,-196(s0)
200014a8:	f4042583          	lw	a1,-192(s0)
200014ac:	00a5e763          	bltu	a1,a0,200014ba <<kernel::process::Process<C> as kernel::process::ProcessType>::process_detail_fmt+0x294>
200014b0:	2000c537          	lui	a0,0x2000c
200014b4:	da350513          	addi	a0,a0,-605 # 2000bda3 <.Lanon.a2d937e2433298631c704dcdf44b3a07.1>
200014b8:	a029                	j	200014c2 <<kernel::process::Process<C> as kernel::process::ProcessType>::process_detail_fmt+0x29c>
200014ba:	2000c537          	lui	a0,0x2000c
200014be:	d9950513          	addi	a0,a0,-615 # 2000bd99 <.Lanon.a2d937e2433298631c704dcdf44b3a07.0>
200014c2:	f9b42423          	sw	s11,-120(s0)
200014c6:	4599                	li	a1,6
200014c8:	f8b42623          	sw	a1,-116(s0)
200014cc:	f8b42223          	sw	a1,-124(s0)
200014d0:	459d                	li	a1,7
200014d2:	f6b42e23          	sw	a1,-132(s0)
200014d6:	f3040593          	addi	a1,s0,-208
200014da:	fab42c23          	sw	a1,-72(s0)
200014de:	f2c40593          	addi	a1,s0,-212
200014e2:	fab42823          	sw	a1,-80(s0)
200014e6:	200065b7          	lui	a1,0x20006
200014ea:	2b858593          	addi	a1,a1,696 # 200062b8 <<&T as core::fmt::Display>::fmt>
200014ee:	fab42623          	sw	a1,-84(s0)
200014f2:	fb842423          	sw	s8,-88(s0)
200014f6:	f4040593          	addi	a1,s0,-192
200014fa:	fab42023          	sw	a1,-96(s0)
200014fe:	200045b7          	lui	a1,0x20004
20001502:	ab058593          	addi	a1,a1,-1360 # 20003ab0 <core::fmt::num::imp::<impl core::fmt::Display for u32>::fmt>
20001506:	fab42223          	sw	a1,-92(s0)
2000150a:	f8b42e23          	sw	a1,-100(s0)
2000150e:	f3c40593          	addi	a1,s0,-196
20001512:	f8b42c23          	sw	a1,-104(s0)
20001516:	200055b7          	lui	a1,0x20005
2000151a:	65258593          	addi	a1,a1,1618 # 20005652 <core::fmt::num::<impl core::fmt::UpperHex for i32>::fmt>
2000151e:	fab42e23          	sw	a1,-68(s0)
20001522:	fab42a23          	sw	a1,-76(s0)
20001526:	f8b42a23          	sw	a1,-108(s0)
2000152a:	f2840593          	addi	a1,s0,-216
2000152e:	f8b42823          	sw	a1,-112(s0)
20001532:	2000a5b7          	lui	a1,0x2000a
20001536:	07458593          	addi	a1,a1,116 # 2000a074 <.L__unnamed_21>
2000153a:	f8b42023          	sw	a1,-128(s0)
2000153e:	100015b7          	lui	a1,0x10001
20001542:	11858593          	addi	a1,a1,280 # 10001118 <.L__unnamed_22>
20001546:	f6b42c23          	sw	a1,-136(s0)
2000154a:	45a9                	li	a1,10
2000154c:	f6b42a23          	sw	a1,-140(s0)
20001550:	f6a42823          	sw	a0,-144(s0)
20001554:	f7840593          	addi	a1,s0,-136
20001558:	854a                	mv	a0,s2
2000155a:	9d02                	jalr	s10
2000155c:	02098563          	beqz	s3,20001586 <<kernel::process::Process<C> as kernel::process::ProcessType>::process_detail_fmt+0x360>
20001560:	f0442603          	lw	a2,-252(s0)
20001564:	f6c42223          	sw	a2,-156(s0)
20001568:	f3042503          	lw	a0,-208(s0)
2000156c:	40c505b3          	sub	a1,a0,a2
20001570:	f2c42503          	lw	a0,-212(s0)
20001574:	40c50633          	sub	a2,a0,a2
20001578:	02b66263          	bltu	a2,a1,2000159c <<kernel::process::Process<C> as kernel::process::ProcessType>::process_detail_fmt+0x376>
2000157c:	2000c537          	lui	a0,0x2000c
20001580:	da350513          	addi	a0,a0,-605 # 2000bda3 <.Lanon.a2d937e2433298631c704dcdf44b3a07.1>
20001584:	a005                	j	200015a4 <<kernel::process::Process<C> as kernel::process::ProcessType>::process_detail_fmt+0x37e>
20001586:	00c4a983          	lw	s3,12(s1)
2000158a:	2000a537          	lui	a0,0x2000a
2000158e:	29050593          	addi	a1,a0,656 # 2000a290 <.L__unnamed_23>
20001592:	854a                	mv	a0,s2
20001594:	0d600613          	li	a2,214
20001598:	9982                	jalr	s3
2000159a:	a209                	j	2000169c <<kernel::process::Process<C> as kernel::process::ProcessType>::process_detail_fmt+0x476>
2000159c:	2000c537          	lui	a0,0x2000c
200015a0:	d9950513          	addi	a0,a0,-615 # 2000bd99 <.Lanon.a2d937e2433298631c704dcdf44b3a07.0>
200015a4:	f6b42423          	sw	a1,-152(s0)
200015a8:	f6c42623          	sw	a2,-148(s0)
200015ac:	f9b42423          	sw	s11,-120(s0)
200015b0:	4591                	li	a1,4
200015b2:	f8b42623          	sw	a1,-116(s0)
200015b6:	f8b42223          	sw	a1,-124(s0)
200015ba:	2000a5b7          	lui	a1,0x2000a
200015be:	20058593          	addi	a1,a1,512 # 2000a200 <.L__unnamed_24>
200015c2:	f8b42023          	sw	a1,-128(s0)
200015c6:	4595                	li	a1,5
200015c8:	f6b42e23          	sw	a1,-132(s0)
200015cc:	100015b7          	lui	a1,0x10001
200015d0:	15058593          	addi	a1,a1,336 # 10001150 <.L__unnamed_25>
200015d4:	f6b42c23          	sw	a1,-136(s0)
200015d8:	200055b7          	lui	a1,0x20005
200015dc:	65258593          	addi	a1,a1,1618 # 20005652 <core::fmt::num::<impl core::fmt::UpperHex for i32>::fmt>
200015e0:	fab42623          	sw	a1,-84(s0)
200015e4:	f6440593          	addi	a1,s0,-156
200015e8:	fab42423          	sw	a1,-88(s0)
200015ec:	200065b7          	lui	a1,0x20006
200015f0:	2b858593          	addi	a1,a1,696 # 200062b8 <<&T as core::fmt::Display>::fmt>
200015f4:	fab42223          	sw	a1,-92(s0)
200015f8:	fb842023          	sw	s8,-96(s0)
200015fc:	f6c40b13          	addi	s6,s0,-148
20001600:	f9642c23          	sw	s6,-104(s0)
20001604:	200045b7          	lui	a1,0x20004
20001608:	ab058593          	addi	a1,a1,-1360 # 20003ab0 <core::fmt::num::imp::<impl core::fmt::Display for u32>::fmt>
2000160c:	f8b42e23          	sw	a1,-100(s0)
20001610:	f8b42a23          	sw	a1,-108(s0)
20001614:	f6840593          	addi	a1,s0,-152
20001618:	f8b42823          	sw	a1,-112(s0)
2000161c:	45a9                	li	a1,10
2000161e:	f6b42a23          	sw	a1,-140(s0)
20001622:	f6a42823          	sw	a0,-144(s0)
20001626:	f7840a13          	addi	s4,s0,-136
2000162a:	854a                	mv	a0,s2
2000162c:	85d2                	mv	a1,s4
2000162e:	9d02                	jalr	s10
20001630:	06098463          	beqz	s3,20001698 <<kernel::process::Process<C> as kernel::process::ProcessType>::process_detail_fmt+0x472>
20001634:	060b8263          	beqz	s7,20001698 <<kernel::process::Process<C> as kernel::process::ProcessType>::process_detail_fmt+0x472>
20001638:	f0842483          	lw	s1,-248(s0)
2000163c:	f0442503          	lw	a0,-252(s0)
20001640:	8d05                	sub	a0,a0,s1
20001642:	f6a42623          	sw	a0,-148(s0)
20001646:	f6a42823          	sw	a0,-144(s0)
2000164a:	fb442023          	sw	s4,-96(s0)
2000164e:	4509                	li	a0,2
20001650:	faa42223          	sw	a0,-92(s0)
20001654:	f8a42e23          	sw	a0,-100(s0)
20001658:	2000a537          	lui	a0,0x2000a
2000165c:	47850513          	addi	a0,a0,1144 # 2000a478 <.L__unnamed_26>
20001660:	f8a42c23          	sw	a0,-104(s0)
20001664:	450d                	li	a0,3
20001666:	f8a42a23          	sw	a0,-108(s0)
2000166a:	10001537          	lui	a0,0x10001
2000166e:	17850513          	addi	a0,a0,376 # 10001178 <.L__unnamed_27>
20001672:	f8a42823          	sw	a0,-112(s0)
20001676:	f9842023          	sw	s8,-128(s0)
2000167a:	20004537          	lui	a0,0x20004
2000167e:	ab050513          	addi	a0,a0,-1360 # 20003ab0 <core::fmt::num::imp::<impl core::fmt::Display for u32>::fmt>
20001682:	f8a42223          	sw	a0,-124(s0)
20001686:	f6a42e23          	sw	a0,-132(s0)
2000168a:	f7642c23          	sw	s6,-136(s0)
2000168e:	f9040593          	addi	a1,s0,-112
20001692:	854a                	mv	a0,s2
20001694:	9d02                	jalr	s10
20001696:	a839                	j	200016b4 <<kernel::process::Process<C> as kernel::process::ProcessType>::process_detail_fmt+0x48e>
20001698:	00c4a983          	lw	s3,12(s1)
2000169c:	f0842483          	lw	s1,-248(s0)
200016a0:	2000a537          	lui	a0,0x2000a
200016a4:	36650593          	addi	a1,a0,870 # 2000a366 <.L__unnamed_28>
200016a8:	854a                	mv	a0,s2
200016aa:	03f00613          	li	a2,63
200016ae:	9982                	jalr	s3
200016b0:	0a0b8c63          	beqz	s7,20001768 <<kernel::process::Process<C> as kernel::process::ProcessType>::process_detail_fmt+0x542>
200016b4:	f6942223          	sw	s1,-156(s0)
200016b8:	f3442503          	lw	a0,-204(s0)
200016bc:	40a485b3          	sub	a1,s1,a0
200016c0:	f3842503          	lw	a0,-200(s0)
200016c4:	40a48633          	sub	a2,s1,a0
200016c8:	00b66763          	bltu	a2,a1,200016d6 <<kernel::process::Process<C> as kernel::process::ProcessType>::process_detail_fmt+0x4b0>
200016cc:	2000c537          	lui	a0,0x2000c
200016d0:	da350513          	addi	a0,a0,-605 # 2000bda3 <.Lanon.a2d937e2433298631c704dcdf44b3a07.1>
200016d4:	a029                	j	200016de <<kernel::process::Process<C> as kernel::process::ProcessType>::process_detail_fmt+0x4b8>
200016d6:	2000c537          	lui	a0,0x2000c
200016da:	d9950513          	addi	a0,a0,-615 # 2000bd99 <.Lanon.a2d937e2433298631c704dcdf44b3a07.0>
200016de:	f6b42423          	sw	a1,-152(s0)
200016e2:	f6c42623          	sw	a2,-148(s0)
200016e6:	f9b42423          	sw	s11,-120(s0)
200016ea:	2000a5b7          	lui	a1,0x2000a
200016ee:	56c58593          	addi	a1,a1,1388 # 2000a56c <.L__unnamed_29>
200016f2:	f8b42023          	sw	a1,-128(s0)
200016f6:	4591                	li	a1,4
200016f8:	f8b42623          	sw	a1,-116(s0)
200016fc:	f8b42223          	sw	a1,-124(s0)
20001700:	f6b42e23          	sw	a1,-132(s0)
20001704:	100015b7          	lui	a1,0x10001
20001708:	19058593          	addi	a1,a1,400 # 10001190 <.L__unnamed_30>
2000170c:	f6b42c23          	sw	a1,-136(s0)
20001710:	200065b7          	lui	a1,0x20006
20001714:	2b858593          	addi	a1,a1,696 # 200062b8 <<&T as core::fmt::Display>::fmt>
20001718:	fab42623          	sw	a1,-84(s0)
2000171c:	fb842423          	sw	s8,-88(s0)
20001720:	f6c40593          	addi	a1,s0,-148
20001724:	fab42023          	sw	a1,-96(s0)
20001728:	200045b7          	lui	a1,0x20004
2000172c:	ab058593          	addi	a1,a1,-1360 # 20003ab0 <core::fmt::num::imp::<impl core::fmt::Display for u32>::fmt>
20001730:	fab42223          	sw	a1,-92(s0)
20001734:	f8b42e23          	sw	a1,-100(s0)
20001738:	f6840593          	addi	a1,s0,-152
2000173c:	f8b42c23          	sw	a1,-104(s0)
20001740:	200055b7          	lui	a1,0x20005
20001744:	65258593          	addi	a1,a1,1618 # 20005652 <core::fmt::num::<impl core::fmt::UpperHex for i32>::fmt>
20001748:	f8b42a23          	sw	a1,-108(s0)
2000174c:	f6440593          	addi	a1,s0,-156
20001750:	f8b42823          	sw	a1,-112(s0)
20001754:	45a9                	li	a1,10
20001756:	f6b42a23          	sw	a1,-140(s0)
2000175a:	f6a42823          	sw	a0,-144(s0)
2000175e:	f7840593          	addi	a1,s0,-136
20001762:	854a                	mv	a0,s2
20001764:	9d02                	jalr	s10
20001766:	a809                	j	20001778 <<kernel::process::Process<C> as kernel::process::ProcessType>::process_detail_fmt+0x552>
20001768:	2000a537          	lui	a0,0x2000a
2000176c:	5fc50593          	addi	a1,a0,1532 # 2000a5fc <.L__unnamed_31>
20001770:	854a                	mv	a0,s2
20001772:	0c600613          	li	a2,198
20001776:	9982                	jalr	s3
20001778:	f9b42423          	sw	s11,-120(s0)
2000177c:	451d                	li	a0,7
2000177e:	f8a42623          	sw	a0,-116(s0)
20001782:	f8a42223          	sw	a0,-124(s0)
20001786:	4521                	li	a0,8
20001788:	f6a42e23          	sw	a0,-132(s0)
2000178c:	f1440513          	addi	a0,s0,-236
20001790:	fca42023          	sw	a0,-64(s0)
20001794:	f1840513          	addi	a0,s0,-232
20001798:	faa42c23          	sw	a0,-72(s0)
2000179c:	f1c40513          	addi	a0,s0,-228
200017a0:	faa42823          	sw	a0,-80(s0)
200017a4:	20004537          	lui	a0,0x20004
200017a8:	ab050513          	addi	a0,a0,-1360 # 20003ab0 <core::fmt::num::imp::<impl core::fmt::Display for u32>::fmt>
200017ac:	faa42e23          	sw	a0,-68(s0)
200017b0:	faa42623          	sw	a0,-84(s0)
200017b4:	f2040513          	addi	a0,s0,-224
200017b8:	faa42423          	sw	a0,-88(s0)
200017bc:	f1040513          	addi	a0,s0,-240
200017c0:	faa42023          	sw	a0,-96(s0)
200017c4:	f3840a13          	addi	s4,s0,-200
200017c8:	f9442c23          	sw	s4,-104(s0)
200017cc:	20005537          	lui	a0,0x20005
200017d0:	65250513          	addi	a0,a0,1618 # 20005652 <core::fmt::num::<impl core::fmt::UpperHex for i32>::fmt>
200017d4:	fca42223          	sw	a0,-60(s0)
200017d8:	faa42a23          	sw	a0,-76(s0)
200017dc:	faa42223          	sw	a0,-92(s0)
200017e0:	f8a42e23          	sw	a0,-100(s0)
200017e4:	f8a42a23          	sw	a0,-108(s0)
200017e8:	f3440513          	addi	a0,s0,-204
200017ec:	f8a42823          	sw	a0,-112(s0)
200017f0:	2000b537          	lui	a0,0x2000b
200017f4:	97050513          	addi	a0,a0,-1680 # 2000a970 <.L__unnamed_32>
200017f8:	f8a42023          	sw	a0,-128(s0)
200017fc:	10001537          	lui	a0,0x10001
20001800:	1b050513          	addi	a0,a0,432 # 100011b0 <.L__unnamed_33>
20001804:	f6a42c23          	sw	a0,-136(s0)
20001808:	f7840993          	addi	s3,s0,-136
2000180c:	854a                	mv	a0,s2
2000180e:	85ce                	mv	a1,s3
20001810:	9d02                	jalr	s10
20001812:	180ac503          	lbu	a0,384(s5)
20001816:	c521                	beqz	a0,2000185e <<kernel::process::Process<C> as kernel::process::ProcessType>::process_detail_fmt+0x638>
20001818:	180a8023          	sb	zero,384(s5)
2000181c:	0dca8513          	addi	a0,s5,220
20001820:	f6a42823          	sw	a0,-144(s0)
20001824:	fb342023          	sw	s3,-96(s0)
20001828:	f8042c23          	sw	zero,-104(s0)
2000182c:	10002537          	lui	a0,0x10002
20001830:	9a850513          	addi	a0,a0,-1624 # 100019a8 <.L__unnamed_34>
20001834:	f8a42823          	sw	a0,-112(s0)
20001838:	20007537          	lui	a0,0x20007
2000183c:	04a50513          	addi	a0,a0,74 # 2000704a <<&mut T as core::fmt::Display>::fmt>
20001840:	f6a42e23          	sw	a0,-132(s0)
20001844:	f7842c23          	sw	s8,-136(s0)
20001848:	4485                	li	s1,1
2000184a:	fa942223          	sw	s1,-92(s0)
2000184e:	f8942a23          	sw	s1,-108(s0)
20001852:	f9040593          	addi	a1,s0,-112
20001856:	854a                	mv	a0,s2
20001858:	9d02                	jalr	s10
2000185a:	189a8023          	sb	s1,384(s5)
2000185e:	fb342023          	sw	s3,-96(s0)
20001862:	4509                	li	a0,2
20001864:	faa42223          	sw	a0,-92(s0)
20001868:	f8a42e23          	sw	a0,-100(s0)
2000186c:	450d                	li	a0,3
2000186e:	f8a42a23          	sw	a0,-108(s0)
20001872:	f2440513          	addi	a0,s0,-220
20001876:	f8a42023          	sw	a0,-128(s0)
2000187a:	20005537          	lui	a0,0x20005
2000187e:	5ce50513          	addi	a0,a0,1486 # 200055ce <core::fmt::num::<impl core::fmt::LowerHex for i32>::fmt>
20001882:	f8a42223          	sw	a0,-124(s0)
20001886:	f6a42e23          	sw	a0,-132(s0)
2000188a:	f7442c23          	sw	s4,-136(s0)
2000188e:	2000b537          	lui	a0,0x2000b
20001892:	ad050513          	addi	a0,a0,-1328 # 2000aad0 <.L__unnamed_35>
20001896:	f8a42c23          	sw	a0,-104(s0)
2000189a:	10001537          	lui	a0,0x10001
2000189e:	1f050513          	addi	a0,a0,496 # 100011f0 <.L__unnamed_36>
200018a2:	f8a42823          	sw	a0,-112(s0)
200018a6:	f9040593          	addi	a1,s0,-112
200018aa:	854a                	mv	a0,s2
200018ac:	9d02                	jalr	s10
200018ae:	4dbe                	lw	s11,204(sp)
200018b0:	4d4e                	lw	s10,208(sp)
200018b2:	4cde                	lw	s9,212(sp)
200018b4:	4c6e                	lw	s8,216(sp)
200018b6:	4bfe                	lw	s7,220(sp)
200018b8:	5b0e                	lw	s6,224(sp)
200018ba:	5a9e                	lw	s5,228(sp)
200018bc:	5a2e                	lw	s4,232(sp)
200018be:	59be                	lw	s3,236(sp)
200018c0:	594e                	lw	s2,240(sp)
200018c2:	54de                	lw	s1,244(sp)
200018c4:	546e                	lw	s0,248(sp)
200018c6:	50fe                	lw	ra,252(sp)
200018c8:	6111                	addi	sp,sp,256
200018ca:	8082                	ret

200018cc <<kernel::process::Process<C> as kernel::process::ProcessType>::debug_restart_count>:
200018cc:	1141                	addi	sp,sp,-16
200018ce:	c606                	sw	ra,12(sp)
200018d0:	c422                	sw	s0,8(sp)
200018d2:	0800                	addi	s0,sp,16
200018d4:	22054583          	lbu	a1,544(a0)
200018d8:	c599                	beqz	a1,200018e6 <<kernel::process::Process<C> as kernel::process::ProcessType>::debug_restart_count+0x1a>
200018da:	4585                	li	a1,1
200018dc:	22b50023          	sb	a1,544(a0)
200018e0:	21852503          	lw	a0,536(a0)
200018e4:	a011                	j	200018e8 <<kernel::process::Process<C> as kernel::process::ProcessType>::debug_restart_count+0x1c>
200018e6:	4501                	li	a0,0
200018e8:	4422                	lw	s0,8(sp)
200018ea:	40b2                	lw	ra,12(sp)
200018ec:	0141                	addi	sp,sp,16
200018ee:	8082                	ret

200018f0 <<kernel::process::Process<C> as kernel::process::ProcessType>::debug_syscall_count>:
200018f0:	1141                	addi	sp,sp,-16
200018f2:	c606                	sw	ra,12(sp)
200018f4:	c422                	sw	s0,8(sp)
200018f6:	0800                	addi	s0,sp,16
200018f8:	22054583          	lbu	a1,544(a0)
200018fc:	c599                	beqz	a1,2000190a <<kernel::process::Process<C> as kernel::process::ProcessType>::debug_syscall_count+0x1a>
200018fe:	4585                	li	a1,1
20001900:	22b50023          	sb	a1,544(a0)
20001904:	1fc52503          	lw	a0,508(a0)
20001908:	a011                	j	2000190c <<kernel::process::Process<C> as kernel::process::ProcessType>::debug_syscall_count+0x1c>
2000190a:	4501                	li	a0,0
2000190c:	4422                	lw	s0,8(sp)
2000190e:	40b2                	lw	ra,12(sp)
20001910:	0141                	addi	sp,sp,16
20001912:	8082                	ret

20001914 <<kernel::process::Process<C> as kernel::process::ProcessType>::kernel_memory_break>:
20001914:	1141                	addi	sp,sp,-16
20001916:	c606                	sw	ra,12(sp)
20001918:	c422                	sw	s0,8(sp)
2000191a:	0800                	addi	s0,sp,16
2000191c:	4948                	lw	a0,20(a0)
2000191e:	4422                	lw	s0,8(sp)
20001920:	40b2                	lw	ra,12(sp)
20001922:	0141                	addi	sp,sp,16
20001924:	8082                	ret

20001926 <<kernel::process::Process<C> as kernel::process::ProcessType>::debug_syscall_called>:
20001926:	1141                	addi	sp,sp,-16
20001928:	c606                	sw	ra,12(sp)
2000192a:	c422                	sw	s0,8(sp)
2000192c:	0800                	addi	s0,sp,16
2000192e:	22054583          	lbu	a1,544(a0)
20001932:	c989                	beqz	a1,20001944 <<kernel::process::Process<C> as kernel::process::ProcessType>::debug_syscall_called+0x1e>
20001934:	4585                	li	a1,1
20001936:	22b50023          	sb	a1,544(a0)
2000193a:	1fc52583          	lw	a1,508(a0)
2000193e:	0585                	addi	a1,a1,1
20001940:	1eb52e23          	sw	a1,508(a0)
20001944:	4422                	lw	s0,8(sp)
20001946:	40b2                	lw	ra,12(sp)
20001948:	0141                	addi	sp,sp,16
2000194a:	8082                	ret

2000194c <<kernel::process::Process<C> as kernel::process::ProcessType>::set_process_function>:
2000194c:	712d                	addi	sp,sp,-288
2000194e:	10112e23          	sw	ra,284(sp)
20001952:	10812c23          	sw	s0,280(sp)
20001956:	10912a23          	sw	s1,276(sp)
2000195a:	11212823          	sw	s2,272(sp)
2000195e:	11312623          	sw	s3,268(sp)
20001962:	11412423          	sw	s4,264(sp)
20001966:	11512223          	sw	s5,260(sp)
2000196a:	11612023          	sw	s6,256(sp)
2000196e:	dfde                	sw	s7,252(sp)
20001970:	dde2                	sw	s8,248(sp)
20001972:	dbe6                	sw	s9,244(sp)
20001974:	d9ea                	sw	s10,240(sp)
20001976:	1200                	addi	s0,sp,288
20001978:	892e                	mv	s2,a1
2000197a:	84aa                	mv	s1,a0
2000197c:	05c50593          	addi	a1,a0,92
20001980:	f2840993          	addi	s3,s0,-216
20001984:	854e                	mv	a0,s3
20001986:	02000613          	li	a2,32
2000198a:	00008097          	auipc	ra,0x8
2000198e:	cdc080e7          	jalr	-804(ra) # 20009666 <memcpy>
20001992:	08c48593          	addi	a1,s1,140
20001996:	ee040a13          	addi	s4,s0,-288
2000199a:	8552                	mv	a0,s4
2000199c:	04800613          	li	a2,72
200019a0:	00008097          	auipc	ra,0x8
200019a4:	cc6080e7          	jalr	-826(ra) # 20009666 <memcpy>
200019a8:	01c92a83          	lw	s5,28(s2)
200019ac:	00c92b03          	lw	s6,12(s2)
200019b0:	01092b83          	lw	s7,16(s2)
200019b4:	01492c03          	lw	s8,20(s2)
200019b8:	01892903          	lw	s2,24(s2)
200019bc:	40c8                	lw	a0,4(s1)
200019be:	410c                	lw	a1,0(a0)
200019c0:	0585                	addi	a1,a1,1
200019c2:	0d84ac83          	lw	s9,216(s1)
200019c6:	0d44ad03          	lw	s10,212(s1)
200019ca:	54d0                	lw	a2,44(s1)
200019cc:	c10c                	sw	a1,0(a0)
200019ce:	d4d0                	sw	a2,44(s1)
200019d0:	22048223          	sb	zero,548(s1)
200019d4:	8526                	mv	a0,s1
200019d6:	fffff097          	auipc	ra,0xfffff
200019da:	2c2080e7          	jalr	706(ra) # 20000c98 <kernel::process::Process<C>::debug_set_max_stack_depth>
200019de:	f5a42423          	sw	s10,-184(s0)
200019e2:	f4c40513          	addi	a0,s0,-180
200019e6:	85ce                	mv	a1,s3
200019e8:	02000613          	li	a2,32
200019ec:	00008097          	auipc	ra,0x8
200019f0:	c7a080e7          	jalr	-902(ra) # 20009666 <memcpy>
200019f4:	f7242c23          	sw	s2,-136(s0)
200019f8:	f7842a23          	sw	s8,-140(s0)
200019fc:	f7742823          	sw	s7,-144(s0)
20001a00:	f7642623          	sw	s6,-148(s0)
20001a04:	f7c40513          	addi	a0,s0,-132
20001a08:	85d2                	mv	a1,s4
20001a0a:	04800613          	li	a2,72
20001a0e:	00008097          	auipc	ra,0x8
20001a12:	c58080e7          	jalr	-936(ra) # 20009666 <memcpy>
20001a16:	fd942423          	sw	s9,-56(s0)
20001a1a:	fd542223          	sw	s5,-60(s0)
20001a1e:	05848513          	addi	a0,s1,88
20001a22:	f4840593          	addi	a1,s0,-184
20001a26:	fffff097          	auipc	ra,0xfffff
20001a2a:	87e080e7          	jalr	-1922(ra) # 200002a4 <core::cell::Cell<T>::set>
20001a2e:	5d4e                	lw	s10,240(sp)
20001a30:	5cde                	lw	s9,244(sp)
20001a32:	5c6e                	lw	s8,248(sp)
20001a34:	5bfe                	lw	s7,252(sp)
20001a36:	10012b03          	lw	s6,256(sp)
20001a3a:	10412a83          	lw	s5,260(sp)
20001a3e:	10812a03          	lw	s4,264(sp)
20001a42:	10c12983          	lw	s3,268(sp)
20001a46:	11012903          	lw	s2,272(sp)
20001a4a:	11412483          	lw	s1,276(sp)
20001a4e:	11812403          	lw	s0,280(sp)
20001a52:	11c12083          	lw	ra,284(sp)
20001a56:	6115                	addi	sp,sp,288
20001a58:	8082                	ret

20001a5a <<kernel::process::Process<C> as kernel::process::ProcessType>::debug_timeslice_expired>:
20001a5a:	1141                	addi	sp,sp,-16
20001a5c:	c606                	sw	ra,12(sp)
20001a5e:	c422                	sw	s0,8(sp)
20001a60:	0800                	addi	s0,sp,16
20001a62:	22054583          	lbu	a1,544(a0)
20001a66:	c989                	beqz	a1,20001a78 <<kernel::process::Process<C> as kernel::process::ProcessType>::debug_timeslice_expired+0x1e>
20001a68:	4585                	li	a1,1
20001a6a:	22b50023          	sb	a1,544(a0)
20001a6e:	21c52583          	lw	a1,540(a0)
20001a72:	0585                	addi	a1,a1,1
20001a74:	20b52e23          	sw	a1,540(a0)
20001a78:	4422                	lw	s0,8(sp)
20001a7a:	40b2                	lw	ra,12(sp)
20001a7c:	0141                	addi	sp,sp,16
20001a7e:	8082                	ret

20001a80 <<kernel::process::Process<C> as kernel::process::ProcessType>::remove_pending_callbacks>:
20001a80:	711d                	addi	sp,sp,-96
20001a82:	ce86                	sw	ra,92(sp)
20001a84:	cca2                	sw	s0,88(sp)
20001a86:	caa6                	sw	s1,84(sp)
20001a88:	c8ca                	sw	s2,80(sp)
20001a8a:	c6ce                	sw	s3,76(sp)
20001a8c:	c4d2                	sw	s4,72(sp)
20001a8e:	c2d6                	sw	s5,68(sp)
20001a90:	c0da                	sw	s6,64(sp)
20001a92:	de5e                	sw	s7,60(sp)
20001a94:	dc62                	sw	s8,56(sp)
20001a96:	da66                	sw	s9,52(sp)
20001a98:	d86a                	sw	s10,48(sp)
20001a9a:	d66e                	sw	s11,44(sp)
20001a9c:	1080                	addi	s0,sp,96
20001a9e:	8a2a                	mv	s4,a0
20001aa0:	1dc54503          	lbu	a0,476(a0)
20001aa4:	c145                	beqz	a0,20001b44 <<kernel::process::Process<C> as kernel::process::ProcessType>::remove_pending_callbacks+0xc4>
20001aa6:	8932                	mv	s2,a2
20001aa8:	89ae                	mv	s3,a1
20001aaa:	1c0a0e23          	sb	zero,476(s4)
20001aae:	1d4a2b83          	lw	s7,468(s4)
20001ab2:	1d0a2c03          	lw	s8,464(s4)
20001ab6:	02400c93          	li	s9,36
20001aba:	4d05                	li	s10,1
20001abc:	fa840b13          	addi	s6,s0,-88
20001ac0:	8ade                	mv	s5,s7
20001ac2:	1d8a2503          	lw	a0,472(s4)
20001ac6:	06ab8a63          	beq	s7,a0,20001b3a <<kernel::process::Process<C> as kernel::process::ProcessType>::remove_pending_callbacks+0xba>
20001aca:	1d0a2483          	lw	s1,464(s4)
20001ace:	089bfa63          	bgeu	s7,s1,20001b62 <<kernel::process::Process<C> as kernel::process::ProcessType>::remove_pending_callbacks+0xe2>
20001ad2:	039b8533          	mul	a0,s7,s9
20001ad6:	1cca2d83          	lw	s11,460(s4)
20001ada:	00ad85b3          	add	a1,s11,a0
20001ade:	4188                	lw	a0,0(a1)
20001ae0:	ed09                	bnez	a0,20001afa <<kernel::process::Process<C> as kernel::process::ProcessType>::remove_pending_callbacks+0x7a>
20001ae2:	41c8                	lw	a0,4(a1)
20001ae4:	01a51b63          	bne	a0,s10,20001afa <<kernel::process::Process<C> as kernel::process::ProcessType>::remove_pending_callbacks+0x7a>
20001ae8:	4588                	lw	a0,8(a1)
20001aea:	01351863          	bne	a0,s3,20001afa <<kernel::process::Process<C> as kernel::process::ProcessType>::remove_pending_callbacks+0x7a>
20001aee:	45c8                	lw	a0,12(a1)
20001af0:	01251563          	bne	a0,s2,20001afa <<kernel::process::Process<C> as kernel::process::ProcessType>::remove_pending_callbacks+0x7a>
20001af4:	020c1e63          	bnez	s8,20001b30 <<kernel::process::Process<C> as kernel::process::ProcessType>::remove_pending_callbacks+0xb0>
20001af8:	a85d                	j	20001bae <<kernel::process::Process<C> as kernel::process::ProcessType>::remove_pending_callbacks+0x12e>
20001afa:	035b8563          	beq	s7,s5,20001b24 <<kernel::process::Process<C> as kernel::process::ProcessType>::remove_pending_callbacks+0xa4>
20001afe:	855a                	mv	a0,s6
20001b00:	02400613          	li	a2,36
20001b04:	00008097          	auipc	ra,0x8
20001b08:	b62080e7          	jalr	-1182(ra) # 20009666 <memcpy>
20001b0c:	089af363          	bgeu	s5,s1,20001b92 <<kernel::process::Process<C> as kernel::process::ProcessType>::remove_pending_callbacks+0x112>
20001b10:	039a8533          	mul	a0,s5,s9
20001b14:	956e                	add	a0,a0,s11
20001b16:	85da                	mv	a1,s6
20001b18:	02400613          	li	a2,36
20001b1c:	00008097          	auipc	ra,0x8
20001b20:	b4a080e7          	jalr	-1206(ra) # 20009666 <memcpy>
20001b24:	040c0563          	beqz	s8,20001b6e <<kernel::process::Process<C> as kernel::process::ProcessType>::remove_pending_callbacks+0xee>
20001b28:	001a8513          	addi	a0,s5,1
20001b2c:	03857ab3          	remu	s5,a0,s8
20001b30:	001b8513          	addi	a0,s7,1
20001b34:	03857bb3          	remu	s7,a0,s8
20001b38:	b769                	j	20001ac2 <<kernel::process::Process<C> as kernel::process::ProcessType>::remove_pending_callbacks+0x42>
20001b3a:	4505                	li	a0,1
20001b3c:	1caa0e23          	sb	a0,476(s4)
20001b40:	1d5a2c23          	sw	s5,472(s4)
20001b44:	5db2                	lw	s11,44(sp)
20001b46:	5d42                	lw	s10,48(sp)
20001b48:	5cd2                	lw	s9,52(sp)
20001b4a:	5c62                	lw	s8,56(sp)
20001b4c:	5bf2                	lw	s7,60(sp)
20001b4e:	4b06                	lw	s6,64(sp)
20001b50:	4a96                	lw	s5,68(sp)
20001b52:	4a26                	lw	s4,72(sp)
20001b54:	49b6                	lw	s3,76(sp)
20001b56:	4946                	lw	s2,80(sp)
20001b58:	44d6                	lw	s1,84(sp)
20001b5a:	4466                	lw	s0,88(sp)
20001b5c:	40f6                	lw	ra,92(sp)
20001b5e:	6125                	addi	sp,sp,96
20001b60:	8082                	ret
20001b62:	10002537          	lui	a0,0x10002
20001b66:	b6850513          	addi	a0,a0,-1176 # 10001b68 <.L__unnamed_37>
20001b6a:	85de                	mv	a1,s7
20001b6c:	a805                	j	20001b9c <<kernel::process::Process<C> as kernel::process::ProcessType>::remove_pending_callbacks+0x11c>
20001b6e:	2000c537          	lui	a0,0x2000c
20001b72:	08050513          	addi	a0,a0,128 # 2000c080 <str.0.813>
20001b76:	100025b7          	lui	a1,0x10002
20001b7a:	b8858613          	addi	a2,a1,-1144 # 10001b88 <.L__unnamed_38>
20001b7e:	03900593          	li	a1,57
20001b82:	00002097          	auipc	ra,0x2
20001b86:	e7c080e7          	jalr	-388(ra) # 200039fe <core::panicking::panic>
20001b8a:	0000a097          	auipc	ra,0xa
20001b8e:	5a2080e7          	jalr	1442(ra) # 2000c12c <abort>
20001b92:	10002537          	lui	a0,0x10002
20001b96:	b7850513          	addi	a0,a0,-1160 # 10001b78 <.L__unnamed_39>
20001b9a:	85d6                	mv	a1,s5
20001b9c:	8626                	mv	a2,s1
20001b9e:	00002097          	auipc	ra,0x2
20001ba2:	ea8080e7          	jalr	-344(ra) # 20003a46 <core::panicking::panic_bounds_check>
20001ba6:	0000a097          	auipc	ra,0xa
20001baa:	586080e7          	jalr	1414(ra) # 2000c12c <abort>
20001bae:	2000c537          	lui	a0,0x2000c
20001bb2:	08050513          	addi	a0,a0,128 # 2000c080 <str.0.813>
20001bb6:	100025b7          	lui	a1,0x10002
20001bba:	b9858613          	addi	a2,a1,-1128 # 10001b98 <.L__unnamed_40>
20001bbe:	b7c1                	j	20001b7e <<kernel::process::Process<C> as kernel::process::ProcessType>::remove_pending_callbacks+0xfe>

20001bc0 <<kernel::process::Process<C> as kernel::process::ProcessType>::set_syscall_return_value>:
20001bc0:	7135                	addi	sp,sp,-160
20001bc2:	cf06                	sw	ra,156(sp)
20001bc4:	cd22                	sw	s0,152(sp)
20001bc6:	cb26                	sw	s1,148(sp)
20001bc8:	c94a                	sw	s2,144(sp)
20001bca:	c74e                	sw	s3,140(sp)
20001bcc:	c552                	sw	s4,136(sp)
20001bce:	1100                	addi	s0,sp,160
20001bd0:	892e                	mv	s2,a1
20001bd2:	84aa                	mv	s1,a0
20001bd4:	05850993          	addi	s3,a0,88
20001bd8:	f6040a13          	addi	s4,s0,-160
20001bdc:	8552                	mv	a0,s4
20001bde:	85ce                	mv	a1,s3
20001be0:	02400613          	li	a2,36
20001be4:	00008097          	auipc	ra,0x8
20001be8:	a82080e7          	jalr	-1406(ra) # 20009666 <memcpy>
20001bec:	f9242223          	sw	s2,-124(s0)
20001bf0:	08048593          	addi	a1,s1,128
20001bf4:	f8840513          	addi	a0,s0,-120
20001bf8:	05c00613          	li	a2,92
20001bfc:	00008097          	auipc	ra,0x8
20001c00:	a6a080e7          	jalr	-1430(ra) # 20009666 <memcpy>
20001c04:	854e                	mv	a0,s3
20001c06:	85d2                	mv	a1,s4
20001c08:	ffffe097          	auipc	ra,0xffffe
20001c0c:	69c080e7          	jalr	1692(ra) # 200002a4 <core::cell::Cell<T>::set>
20001c10:	4a2a                	lw	s4,136(sp)
20001c12:	49ba                	lw	s3,140(sp)
20001c14:	494a                	lw	s2,144(sp)
20001c16:	44da                	lw	s1,148(sp)
20001c18:	446a                	lw	s0,152(sp)
20001c1a:	40fa                	lw	ra,156(sp)
20001c1c:	610d                	addi	sp,sp,160
20001c1e:	8082                	ret

20001c20 <<kernel::process::Process<C> as kernel::process::ProcessType>::flash_non_protected_start>:
20001c20:	1141                	addi	sp,sp,-16
20001c22:	c606                	sw	ra,12(sp)
20001c24:	c422                	sw	s0,8(sp)
20001c26:	c226                	sw	s1,4(sp)
20001c28:	0800                	addi	s0,sp,16
20001c2a:	5944                	lw	s1,52(a0)
20001c2c:	03c50513          	addi	a0,a0,60
20001c30:	00004097          	auipc	ra,0x4
20001c34:	014080e7          	jalr	20(ra) # 20005c44 <kernel::tbfheader::TbfHeader::get_protected_size>
20001c38:	9526                	add	a0,a0,s1
20001c3a:	4492                	lw	s1,4(sp)
20001c3c:	4422                	lw	s0,8(sp)
20001c3e:	40b2                	lw	ra,12(sp)
20001c40:	0141                	addi	sp,sp,16
20001c42:	8082                	ret

20001c44 <<kernel::process::Process<C> as kernel::process::ProcessType>::update_heap_start_pointer>:
20001c44:	1141                	addi	sp,sp,-16
20001c46:	c606                	sw	ra,12(sp)
20001c48:	c422                	sw	s0,8(sp)
20001c4a:	0800                	addi	s0,sp,16
20001c4c:	4550                	lw	a2,12(a0)
20001c4e:	02c5e063          	bltu	a1,a2,20001c6e <<kernel::process::Process<C> as kernel::process::ProcessType>::update_heap_start_pointer+0x2a>
20001c52:	4914                	lw	a3,16(a0)
20001c54:	9636                	add	a2,a2,a3
20001c56:	00c5fc63          	bgeu	a1,a2,20001c6e <<kernel::process::Process<C> as kernel::process::ProcessType>::update_heap_start_pointer+0x2a>
20001c5a:	22054603          	lbu	a2,544(a0)
20001c5e:	ca01                	beqz	a2,20001c6e <<kernel::process::Process<C> as kernel::process::ProcessType>::update_heap_start_pointer+0x2a>
20001c60:	1eb52623          	sw	a1,492(a0)
20001c64:	4585                	li	a1,1
20001c66:	22b50023          	sb	a1,544(a0)
20001c6a:	1eb52423          	sw	a1,488(a0)
20001c6e:	4422                	lw	s0,8(sp)
20001c70:	40b2                	lw	ra,12(sp)
20001c72:	0141                	addi	sp,sp,16
20001c74:	8082                	ret

20001c76 <<kernel::process::Process<C> as kernel::process::ProcessType>::get_writeable_flash_region>:
20001c76:	1141                	addi	sp,sp,-16
20001c78:	c606                	sw	ra,12(sp)
20001c7a:	c422                	sw	s0,8(sp)
20001c7c:	0800                	addi	s0,sp,16
20001c7e:	86aa                	mv	a3,a0
20001c80:	5d58                	lw	a4,60(a0)
20001c82:	4501                	li	a0,0
20001c84:	4601                	li	a2,0
20001c86:	ef09                	bnez	a4,20001ca0 <<kernel::process::Process<C> as kernel::process::ProcessType>::get_writeable_flash_region+0x2a>
20001c88:	4aa8                	lw	a0,80(a3)
20001c8a:	c909                	beqz	a0,20001c9c <<kernel::process::Process<C> as kernel::process::ProcessType>::get_writeable_flash_region+0x26>
20001c8c:	4af0                	lw	a2,84(a3)
20001c8e:	00c5f763          	bgeu	a1,a2,20001c9c <<kernel::process::Process<C> as kernel::process::ProcessType>::get_writeable_flash_region+0x26>
20001c92:	058e                	slli	a1,a1,0x3
20001c94:	952e                	add	a0,a0,a1
20001c96:	4150                	lw	a2,4(a0)
20001c98:	4108                	lw	a0,0(a0)
20001c9a:	a019                	j	20001ca0 <<kernel::process::Process<C> as kernel::process::ProcessType>::get_writeable_flash_region+0x2a>
20001c9c:	4501                	li	a0,0
20001c9e:	4601                	li	a2,0
20001ca0:	85b2                	mv	a1,a2
20001ca2:	4422                	lw	s0,8(sp)
20001ca4:	40b2                	lw	ra,12(sp)
20001ca6:	0141                	addi	sp,sp,16
20001ca8:	8082                	ret

20001caa <<kernel::process::Process<C> as kernel::process::ProcessType>::update_stack_start_pointer>:
20001caa:	1141                	addi	sp,sp,-16
20001cac:	c606                	sw	ra,12(sp)
20001cae:	c422                	sw	s0,8(sp)
20001cb0:	0800                	addi	s0,sp,16
20001cb2:	4550                	lw	a2,12(a0)
20001cb4:	02c5e263          	bltu	a1,a2,20001cd8 <<kernel::process::Process<C> as kernel::process::ProcessType>::update_stack_start_pointer+0x2e>
20001cb8:	4914                	lw	a3,16(a0)
20001cba:	9636                	add	a2,a2,a3
20001cbc:	00c5fe63          	bgeu	a1,a2,20001cd8 <<kernel::process::Process<C> as kernel::process::ProcessType>::update_stack_start_pointer+0x2e>
20001cc0:	22054603          	lbu	a2,544(a0)
20001cc4:	ca11                	beqz	a2,20001cd8 <<kernel::process::Process<C> as kernel::process::ProcessType>::update_stack_start_pointer+0x2e>
20001cc6:	1eb52c23          	sw	a1,504(a0)
20001cca:	1eb52a23          	sw	a1,500(a0)
20001cce:	4585                	li	a1,1
20001cd0:	22b50023          	sb	a1,544(a0)
20001cd4:	1eb52823          	sw	a1,496(a0)
20001cd8:	4422                	lw	s0,8(sp)
20001cda:	40b2                	lw	ra,12(sp)
20001cdc:	0141                	addi	sp,sp,16
20001cde:	8082                	ret

20001ce0 <<kernel::process::Process<C> as kernel::process::ProcessType>::debug_dropped_callback_count>:
20001ce0:	1141                	addi	sp,sp,-16
20001ce2:	c606                	sw	ra,12(sp)
20001ce4:	c422                	sw	s0,8(sp)
20001ce6:	0800                	addi	s0,sp,16
20001ce8:	22054583          	lbu	a1,544(a0)
20001cec:	c599                	beqz	a1,20001cfa <<kernel::process::Process<C> as kernel::process::ProcessType>::debug_dropped_callback_count+0x1a>
20001cee:	4585                	li	a1,1
20001cf0:	22b50023          	sb	a1,544(a0)
20001cf4:	21452503          	lw	a0,532(a0)
20001cf8:	a011                	j	20001cfc <<kernel::process::Process<C> as kernel::process::ProcessType>::debug_dropped_callback_count+0x1c>
20001cfa:	4501                	li	a0,0
20001cfc:	4422                	lw	s0,8(sp)
20001cfe:	40b2                	lw	ra,12(sp)
20001d00:	0141                	addi	sp,sp,16
20001d02:	8082                	ret

20001d04 <<kernel::process::Process<C> as kernel::process::ProcessType>::number_writeable_flash_regions>:
20001d04:	1141                	addi	sp,sp,-16
20001d06:	c606                	sw	ra,12(sp)
20001d08:	c422                	sw	s0,8(sp)
20001d0a:	0800                	addi	s0,sp,16
20001d0c:	5d50                	lw	a2,60(a0)
20001d0e:	4581                	li	a1,0
20001d10:	e609                	bnez	a2,20001d1a <<kernel::process::Process<C> as kernel::process::ProcessType>::number_writeable_flash_regions+0x16>
20001d12:	4930                	lw	a2,80(a0)
20001d14:	4581                	li	a1,0
20001d16:	c211                	beqz	a2,20001d1a <<kernel::process::Process<C> as kernel::process::ProcessType>::number_writeable_flash_regions+0x16>
20001d18:	496c                	lw	a1,84(a0)
20001d1a:	852e                	mv	a0,a1
20001d1c:	4422                	lw	s0,8(sp)
20001d1e:	40b2                	lw	ra,12(sp)
20001d20:	0141                	addi	sp,sp,16
20001d22:	8082                	ret

20001d24 <<kernel::process::Process<C> as kernel::process::ProcessType>::debug_timeslice_expiration_count>:
20001d24:	1141                	addi	sp,sp,-16
20001d26:	c606                	sw	ra,12(sp)
20001d28:	c422                	sw	s0,8(sp)
20001d2a:	0800                	addi	s0,sp,16
20001d2c:	22054583          	lbu	a1,544(a0)
20001d30:	c599                	beqz	a1,20001d3e <<kernel::process::Process<C> as kernel::process::ProcessType>::debug_timeslice_expiration_count+0x1a>
20001d32:	4585                	li	a1,1
20001d34:	22b50023          	sb	a1,544(a0)
20001d38:	21c52503          	lw	a0,540(a0)
20001d3c:	a011                	j	20001d40 <<kernel::process::Process<C> as kernel::process::ProcessType>::debug_timeslice_expiration_count+0x1c>
20001d3e:	4501                	li	a0,0
20001d40:	4422                	lw	s0,8(sp)
20001d42:	40b2                	lw	ra,12(sp)
20001d44:	0141                	addi	sp,sp,16
20001d46:	8082                	ret

20001d48 <<kernel::process::Process<C> as kernel::process::ProcessType>::brk>:
20001d48:	7179                	addi	sp,sp,-48
20001d4a:	d606                	sw	ra,44(sp)
20001d4c:	d422                	sw	s0,40(sp)
20001d4e:	d226                	sw	s1,36(sp)
20001d50:	d04a                	sw	s2,32(sp)
20001d52:	ce4e                	sw	s3,28(sp)
20001d54:	cc52                	sw	s4,24(sp)
20001d56:	ca56                	sw	s5,20(sp)
20001d58:	c85a                	sw	s6,16(sp)
20001d5a:	c65e                	sw	s7,12(sp)
20001d5c:	1800                	addi	s0,sp,48
20001d5e:	892a                	mv	s2,a0
20001d60:	1805c503          	lbu	a0,384(a1)
20001d64:	c931                	beqz	a0,20001db8 <<kernel::process::Process<C> as kernel::process::ProcessType>::brk+0x70>
20001d66:	89b2                	mv	s3,a2
20001d68:	84ae                	mv	s1,a1
20001d6a:	4a85                	li	s5,1
20001d6c:	20000b13          	li	s6,512
20001d70:	18058023          	sb	zero,384(a1)
20001d74:	51c8                	lw	a0,36(a1)
20001d76:	02a66563          	bltu	a2,a0,20001da0 <<kernel::process::Process<C> as kernel::process::ProcessType>::brk+0x58>
20001d7a:	4888                	lw	a0,16(s1)
20001d7c:	44cc                	lw	a1,12(s1)
20001d7e:	952e                	add	a0,a0,a1
20001d80:	02a9f063          	bgeu	s3,a0,20001da0 <<kernel::process::Process<C> as kernel::process::ProcessType>::brk+0x58>
20001d84:	10000b13          	li	s6,256
20001d88:	48cc                	lw	a1,20(s1)
20001d8a:	0135eb63          	bltu	a1,s3,20001da0 <<kernel::process::Process<C> as kernel::process::ProcessType>::brk+0x58>
20001d8e:	0dc48a13          	addi	s4,s1,220
20001d92:	854e                	mv	a0,s3
20001d94:	8652                	mv	a2,s4
20001d96:	00007097          	auipc	ra,0x7
20001d9a:	396080e7          	jalr	918(ra) # 2000912c <<rv32i::pmp::PMPConfig as kernel::platform::mpu::MPU>::update_app_memory_region>
20001d9e:	cd1d                	beqz	a0,20001ddc <<kernel::process::Process<C> as kernel::process::ProcessType>::brk+0x94>
20001da0:	4501                	li	a0,0
20001da2:	4b81                	li	s7,0
20001da4:	4585                	li	a1,1
20001da6:	19548023          	sb	s5,384(s1)
20001daa:	00ab6633          	or	a2,s6,a0
20001dae:	8dd1                	or	a1,a1,a2
20001db0:	01756633          	or	a2,a0,s7
20001db4:	8d51                	or	a0,a0,a2
20001db6:	a021                	j	20001dbe <<kernel::process::Process<C> as kernel::process::ProcessType>::brk+0x76>
20001db8:	30100593          	li	a1,769
20001dbc:	4501                	li	a0,0
20001dbe:	00b92023          	sw	a1,0(s2)
20001dc2:	00a92223          	sw	a0,4(s2)
20001dc6:	4bb2                	lw	s7,12(sp)
20001dc8:	4b42                	lw	s6,16(sp)
20001dca:	4ad2                	lw	s5,20(sp)
20001dcc:	4a62                	lw	s4,24(sp)
20001dce:	49f2                	lw	s3,28(sp)
20001dd0:	5902                	lw	s2,32(sp)
20001dd2:	5492                	lw	s1,36(sp)
20001dd4:	5422                	lw	s0,40(sp)
20001dd6:	50b2                	lw	ra,44(sp)
20001dd8:	6145                	addi	sp,sp,48
20001dda:	8082                	ret
20001ddc:	01c4ab83          	lw	s7,28(s1)
20001de0:	0134ae23          	sw	s3,28(s1)
20001de4:	4488                	lw	a0,8(s1)
20001de6:	85d2                	mv	a1,s4
20001de8:	00007097          	auipc	ra,0x7
20001dec:	370080e7          	jalr	880(ra) # 20009158 <<rv32i::pmp::PMPConfig as kernel::platform::mpu::MPU>::configure_mpu>
20001df0:	4501                	li	a0,0
20001df2:	4b01                	li	s6,0
20001df4:	4581                	li	a1,0
20001df6:	bf45                	j	20001da6 <<kernel::process::Process<C> as kernel::process::ProcessType>::brk+0x5e>

20001df8 <<kernel::process::Process<C> as kernel::process::ProcessType>::free>:
20001df8:	1141                	addi	sp,sp,-16
20001dfa:	c606                	sw	ra,12(sp)
20001dfc:	c422                	sw	s0,8(sp)
20001dfe:	0800                	addi	s0,sp,16
20001e00:	4422                	lw	s0,8(sp)
20001e02:	40b2                	lw	ra,12(sp)
20001e04:	0141                	addi	sp,sp,16
20001e06:	8082                	ret

20001e08 <<kernel::process::Process<C> as kernel::process::ProcessType>::sbrk>:
20001e08:	1141                	addi	sp,sp,-16
20001e0a:	c606                	sw	ra,12(sp)
20001e0c:	c422                	sw	s0,8(sp)
20001e0e:	0800                	addi	s0,sp,16
20001e10:	4dd4                	lw	a3,28(a1)
20001e12:	9636                	add	a2,a2,a3
20001e14:	00000097          	auipc	ra,0x0
20001e18:	f34080e7          	jalr	-204(ra) # 20001d48 <<kernel::process::Process<C> as kernel::process::ProcessType>::brk>
20001e1c:	4422                	lw	s0,8(sp)
20001e1e:	40b2                	lw	ra,12(sp)
20001e20:	0141                	addi	sp,sp,16
20001e22:	8082                	ret

20001e24 <<kernel::process::Process<C> as kernel::process::ProcessType>::stop>:
20001e24:	1141                	addi	sp,sp,-16
20001e26:	c606                	sw	ra,12(sp)
20001e28:	c422                	sw	s0,8(sp)
20001e2a:	0800                	addi	s0,sp,16
20001e2c:	22454583          	lbu	a1,548(a0)
20001e30:	c591                	beqz	a1,20001e3c <<kernel::process::Process<C> as kernel::process::ProcessType>::stop+0x18>
20001e32:	4605                	li	a2,1
20001e34:	00c59763          	bne	a1,a2,20001e42 <<kernel::process::Process<C> as kernel::process::ProcessType>::stop+0x1e>
20001e38:	458d                	li	a1,3
20001e3a:	a011                	j	20001e3e <<kernel::process::Process<C> as kernel::process::ProcessType>::stop+0x1a>
20001e3c:	4589                	li	a1,2
20001e3e:	22b50223          	sb	a1,548(a0)
20001e42:	4422                	lw	s0,8(sp)
20001e44:	40b2                	lw	ra,12(sp)
20001e46:	0141                	addi	sp,sp,16
20001e48:	8082                	ret

20001e4a <<kernel::process::Process<C> as kernel::process::ProcessType>::alloc>:
20001e4a:	1101                	addi	sp,sp,-32
20001e4c:	ce06                	sw	ra,28(sp)
20001e4e:	cc22                	sw	s0,24(sp)
20001e50:	ca26                	sw	s1,20(sp)
20001e52:	c84a                	sw	s2,16(sp)
20001e54:	c64e                	sw	s3,12(sp)
20001e56:	1000                	addi	s0,sp,32
20001e58:	892e                	mv	s2,a1
20001e5a:	84aa                	mv	s1,a0
20001e5c:	18054503          	lbu	a0,384(a0)
20001e60:	c90d                	beqz	a0,20001e92 <<kernel::process::Process<C> as kernel::process::ProcessType>::alloc+0x48>
20001e62:	48c8                	lw	a0,20(s1)
20001e64:	41250533          	sub	a0,a0,s2
20001e68:	40c005b3          	neg	a1,a2
20001e6c:	00b579b3          	and	s3,a0,a1
20001e70:	18048023          	sb	zero,384(s1)
20001e74:	4ccc                	lw	a1,28(s1)
20001e76:	4501                	li	a0,0
20001e78:	02b9e263          	bltu	s3,a1,20001e9c <<kernel::process::Process<C> as kernel::process::ProcessType>::alloc+0x52>
20001e7c:	0dc48613          	addi	a2,s1,220
20001e80:	852e                	mv	a0,a1
20001e82:	85ce                	mv	a1,s3
20001e84:	00007097          	auipc	ra,0x7
20001e88:	2a8080e7          	jalr	680(ra) # 2000912c <<rv32i::pmp::PMPConfig as kernel::platform::mpu::MPU>::update_app_memory_region>
20001e8c:	c509                	beqz	a0,20001e96 <<kernel::process::Process<C> as kernel::process::ProcessType>::alloc+0x4c>
20001e8e:	4501                	li	a0,0
20001e90:	a031                	j	20001e9c <<kernel::process::Process<C> as kernel::process::ProcessType>::alloc+0x52>
20001e92:	4501                	li	a0,0
20001e94:	a039                	j	20001ea2 <<kernel::process::Process<C> as kernel::process::ProcessType>::alloc+0x58>
20001e96:	0134aa23          	sw	s3,20(s1)
20001e9a:	854e                	mv	a0,s3
20001e9c:	4585                	li	a1,1
20001e9e:	18b48023          	sb	a1,384(s1)
20001ea2:	85ca                	mv	a1,s2
20001ea4:	49b2                	lw	s3,12(sp)
20001ea6:	4942                	lw	s2,16(sp)
20001ea8:	44d2                	lw	s1,20(sp)
20001eaa:	4462                	lw	s0,24(sp)
20001eac:	40f2                	lw	ra,28(sp)
20001eae:	6105                	addi	sp,sp,32
20001eb0:	8082                	ret

20001eb2 <<kernel::process::Process<C> as kernel::process::ProcessType>::allow>:
20001eb2:	1141                	addi	sp,sp,-16
20001eb4:	c606                	sw	ra,12(sp)
20001eb6:	c422                	sw	s0,8(sp)
20001eb8:	0800                	addi	s0,sp,16
20001eba:	c205                	beqz	a2,20001eda <<kernel::process::Process<C> as kernel::process::ProcessType>::allow+0x28>
20001ebc:	00d60733          	add	a4,a2,a3
20001ec0:	00c76863          	bltu	a4,a2,20001ed0 <<kernel::process::Process<C> as kernel::process::ProcessType>::allow+0x1e>
20001ec4:	45dc                	lw	a5,12(a1)
20001ec6:	00f66563          	bltu	a2,a5,20001ed0 <<kernel::process::Process<C> as kernel::process::ProcessType>::allow+0x1e>
20001eca:	4ddc                	lw	a5,28(a1)
20001ecc:	00e7ff63          	bgeu	a5,a4,20001eea <<kernel::process::Process<C> as kernel::process::ProcessType>::allow+0x38>
20001ed0:	4585                	li	a1,1
20001ed2:	c10c                	sw	a1,0(a0)
20001ed4:	459d                	li	a1,7
20001ed6:	c14c                	sw	a1,4(a0)
20001ed8:	a029                	j	20001ee2 <<kernel::process::Process<C> as kernel::process::ProcessType>::allow+0x30>
20001eda:	00052023          	sw	zero,0(a0)
20001ede:	00052223          	sw	zero,4(a0)
20001ee2:	4422                	lw	s0,8(sp)
20001ee4:	40b2                	lw	ra,12(sp)
20001ee6:	0141                	addi	sp,sp,16
20001ee8:	8082                	ret
20001eea:	51dc                	lw	a5,36(a1)
20001eec:	00f76363          	bltu	a4,a5,20001ef2 <<kernel::process::Process<C> as kernel::process::ProcessType>::allow+0x40>
20001ef0:	87ba                	mv	a5,a4
20001ef2:	d1dc                	sw	a5,36(a1)
20001ef4:	41d8                	lw	a4,4(a1)
20001ef6:	418c                	lw	a1,0(a1)
20001ef8:	c914                	sw	a3,16(a0)
20001efa:	c54c                	sw	a1,12(a0)
20001efc:	c518                	sw	a4,8(a0)
20001efe:	c150                	sw	a2,4(a0)
20001f00:	00052023          	sw	zero,0(a0)
20001f04:	bff9                	j	20001ee2 <<kernel::process::Process<C> as kernel::process::ProcessType>::allow+0x30>

20001f06 <<kernel::process::Process<C> as kernel::process::ProcessType>::appid>:
20001f06:	1141                	addi	sp,sp,-16
20001f08:	c606                	sw	ra,12(sp)
20001f0a:	c422                	sw	s0,8(sp)
20001f0c:	0800                	addi	s0,sp,16
20001f0e:	4150                	lw	a2,4(a0)
20001f10:	410c                	lw	a1,0(a0)
20001f12:	8532                	mv	a0,a2
20001f14:	4422                	lw	s0,8(sp)
20001f16:	40b2                	lw	ra,12(sp)
20001f18:	0141                	addi	sp,sp,16
20001f1a:	8082                	ret

20001f1c <<kernel::process::Process<C> as kernel::process::ProcessType>::resume>:
20001f1c:	1141                	addi	sp,sp,-16
20001f1e:	c606                	sw	ra,12(sp)
20001f20:	c422                	sw	s0,8(sp)
20001f22:	0800                	addi	s0,sp,16
20001f24:	22454583          	lbu	a1,548(a0)
20001f28:	4609                	li	a2,2
20001f2a:	00c58763          	beq	a1,a2,20001f38 <<kernel::process::Process<C> as kernel::process::ProcessType>::resume+0x1c>
20001f2e:	460d                	li	a2,3
20001f30:	00c59763          	bne	a1,a2,20001f3e <<kernel::process::Process<C> as kernel::process::ProcessType>::resume+0x22>
20001f34:	4585                	li	a1,1
20001f36:	a011                	j	20001f3a <<kernel::process::Process<C> as kernel::process::ProcessType>::resume+0x1e>
20001f38:	4581                	li	a1,0
20001f3a:	22b50223          	sb	a1,548(a0)
20001f3e:	4422                	lw	s0,8(sp)
20001f40:	40b2                	lw	ra,12(sp)
20001f42:	0141                	addi	sp,sp,16
20001f44:	8082                	ret

20001f46 <<kernel::process::Process<C> as kernel::process::ProcessType>::mem_end>:
20001f46:	1141                	addi	sp,sp,-16
20001f48:	c606                	sw	ra,12(sp)
20001f4a:	c422                	sw	s0,8(sp)
20001f4c:	0800                	addi	s0,sp,16
20001f4e:	490c                	lw	a1,16(a0)
20001f50:	4548                	lw	a0,12(a0)
20001f52:	952e                	add	a0,a0,a1
20001f54:	4422                	lw	s0,8(sp)
20001f56:	40b2                	lw	ra,12(sp)
20001f58:	0141                	addi	sp,sp,16
20001f5a:	8082                	ret

20001f5c <<kernel::process::Process<C> as kernel::process::ProcessType>::fault_fmt>:
20001f5c:	1141                	addi	sp,sp,-16
20001f5e:	c606                	sw	ra,12(sp)
20001f60:	c422                	sw	s0,8(sp)
20001f62:	0800                	addi	s0,sp,16
20001f64:	4422                	lw	s0,8(sp)
20001f66:	40b2                	lw	ra,12(sp)
20001f68:	0141                	addi	sp,sp,16
20001f6a:	8082                	ret

20001f6c <<kernel::process::Process<C> as kernel::process::ProcessType>::flash_end>:
20001f6c:	1141                	addi	sp,sp,-16
20001f6e:	c606                	sw	ra,12(sp)
20001f70:	c422                	sw	s0,8(sp)
20001f72:	0800                	addi	s0,sp,16
20001f74:	5d0c                	lw	a1,56(a0)
20001f76:	5948                	lw	a0,52(a0)
20001f78:	952e                	add	a0,a0,a1
20001f7a:	4422                	lw	s0,8(sp)
20001f7c:	40b2                	lw	ra,12(sp)
20001f7e:	0141                	addi	sp,sp,16
20001f80:	8082                	ret

20001f82 <<kernel::process::Process<C> as kernel::process::ProcessType>::get_state>:
20001f82:	1141                	addi	sp,sp,-16
20001f84:	c606                	sw	ra,12(sp)
20001f86:	c422                	sw	s0,8(sp)
20001f88:	0800                	addi	s0,sp,16
20001f8a:	22450503          	lb	a0,548(a0)
20001f8e:	4422                	lw	s0,8(sp)
20001f90:	40b2                	lw	ra,12(sp)
20001f92:	0141                	addi	sp,sp,16
20001f94:	8082                	ret

20001f96 <<kernel::process::Process<C> as kernel::process::ProcessType>::grant_ptr>:
20001f96:	1141                	addi	sp,sp,-16
20001f98:	c606                	sw	ra,12(sp)
20001f9a:	c422                	sw	s0,8(sp)
20001f9c:	0800                	addi	s0,sp,16
20001f9e:	4910                	lw	a2,16(a0)
20001fa0:	4548                	lw	a0,12(a0)
20001fa2:	9532                	add	a0,a0,a2
20001fa4:	fff5c593          	not	a1,a1
20001fa8:	058a                	slli	a1,a1,0x2
20001faa:	952e                	add	a0,a0,a1
20001fac:	4422                	lw	s0,8(sp)
20001fae:	40b2                	lw	ra,12(sp)
20001fb0:	0141                	addi	sp,sp,16
20001fb2:	8082                	ret

20001fb4 <<kernel::process::Process<C> as kernel::process::ProcessType>::mem_start>:
20001fb4:	1141                	addi	sp,sp,-16
20001fb6:	c606                	sw	ra,12(sp)
20001fb8:	c422                	sw	s0,8(sp)
20001fba:	0800                	addi	s0,sp,16
20001fbc:	4548                	lw	a0,12(a0)
20001fbe:	4422                	lw	s0,8(sp)
20001fc0:	40b2                	lw	ra,12(sp)
20001fc2:	0141                	addi	sp,sp,16
20001fc4:	8082                	ret

20001fc6 <<kernel::process::Process<C> as kernel::process::ProcessType>::setup_mpu>:
20001fc6:	1141                	addi	sp,sp,-16
20001fc8:	c606                	sw	ra,12(sp)
20001fca:	c422                	sw	s0,8(sp)
20001fcc:	c226                	sw	s1,4(sp)
20001fce:	0800                	addi	s0,sp,16
20001fd0:	84aa                	mv	s1,a0
20001fd2:	18054503          	lbu	a0,384(a0)
20001fd6:	cd09                	beqz	a0,20001ff0 <<kernel::process::Process<C> as kernel::process::ProcessType>::setup_mpu+0x2a>
20001fd8:	18048023          	sb	zero,384(s1)
20001fdc:	4488                	lw	a0,8(s1)
20001fde:	0dc48593          	addi	a1,s1,220
20001fe2:	00007097          	auipc	ra,0x7
20001fe6:	176080e7          	jalr	374(ra) # 20009158 <<rv32i::pmp::PMPConfig as kernel::platform::mpu::MPU>::configure_mpu>
20001fea:	4505                	li	a0,1
20001fec:	18a48023          	sb	a0,384(s1)
20001ff0:	4492                	lw	s1,4(sp)
20001ff2:	4422                	lw	s0,8(sp)
20001ff4:	40b2                	lw	ra,12(sp)
20001ff6:	0141                	addi	sp,sp,16
20001ff8:	8082                	ret

20001ffa <<kernel::process::Process<C> as kernel::process::ProcessType>::switch_to>:
20001ffa:	7129                	addi	sp,sp,-320
20001ffc:	12112e23          	sw	ra,316(sp)
20002000:	12812c23          	sw	s0,312(sp)
20002004:	12912a23          	sw	s1,308(sp)
20002008:	13212823          	sw	s2,304(sp)
2000200c:	13312623          	sw	s3,300(sp)
20002010:	13412423          	sw	s4,296(sp)
20002014:	13512223          	sw	s5,292(sp)
20002018:	13612023          	sw	s6,288(sp)
2000201c:	11712e23          	sw	s7,284(sp)
20002020:	11812c23          	sw	s8,280(sp)
20002024:	11912a23          	sw	s9,276(sp)
20002028:	0280                	addi	s0,sp,320
2000202a:	8a2e                	mv	s4,a1
2000202c:	892a                	mv	s2,a0
2000202e:	05858993          	addi	s3,a1,88
20002032:	ec840493          	addi	s1,s0,-312
20002036:	8526                	mv	a0,s1
20002038:	85ce                	mv	a1,s3
2000203a:	08400613          	li	a2,132
2000203e:	00007097          	auipc	ra,0x7
20002042:	628080e7          	jalr	1576(ra) # 20009666 <memcpy>
20002046:	f7810113          	addi	sp,sp,-136
2000204a:	c606                	sw	ra,12(sp)
2000204c:	c80e                	sw	gp,16(sp)
2000204e:	ca12                	sw	tp,20(sp)
20002050:	cc16                	sw	t0,24(sp)
20002052:	ce1a                	sw	t1,28(sp)
20002054:	d01e                	sw	t2,32(sp)
20002056:	d222                	sw	s0,36(sp)
20002058:	d426                	sw	s1,40(sp)
2000205a:	d62a                	sw	a0,44(sp)
2000205c:	d82e                	sw	a1,48(sp)
2000205e:	da32                	sw	a2,52(sp)
20002060:	dc36                	sw	a3,56(sp)
20002062:	de3a                	sw	a4,60(sp)
20002064:	c0be                	sw	a5,64(sp)
20002066:	c2c2                	sw	a6,68(sp)
20002068:	c4c6                	sw	a7,72(sp)
2000206a:	c6ca                	sw	s2,76(sp)
2000206c:	c8ce                	sw	s3,80(sp)
2000206e:	cad2                	sw	s4,84(sp)
20002070:	ccd6                	sw	s5,88(sp)
20002072:	ceda                	sw	s6,92(sp)
20002074:	d0de                	sw	s7,96(sp)
20002076:	d2e2                	sw	s8,100(sp)
20002078:	d4e6                	sw	s9,104(sp)
2000207a:	d6ea                	sw	s10,108(sp)
2000207c:	d8ee                	sw	s11,112(sp)
2000207e:	daf2                	sw	t3,116(sp)
20002080:	dcf6                	sw	t4,120(sp)
20002082:	defa                	sw	t5,124(sp)
20002084:	c17e                	sw	t6,128(sp)
20002086:	c226                	sw	s1,4(sp)
20002088:	200022b7          	lui	t0,0x20002
2000208c:	13a28293          	addi	t0,t0,314 # 2000213a <_return_to_kernel>
20002090:	c416                	sw	t0,8(sp)
20002092:	34011073          	csrw	mscratch,sp
20002096:	300022f3          	csrr	t0,mstatus
2000209a:	6309                	lui	t1,0x2
2000209c:	80830313          	addi	t1,t1,-2040 # 1808 <MPU_MIN_ALIGN+0x1408>
200020a0:	fff34313          	not	t1,t1
200020a4:	0062f2b3          	and	t0,t0,t1
200020a8:	0802e293          	ori	t0,t0,128
200020ac:	30029073          	csrw	mstatus,t0
200020b0:	07c4a283          	lw	t0,124(s1)
200020b4:	34129073          	csrw	mepc,t0
200020b8:	82a6                	mv	t0,s1
200020ba:	0002a083          	lw	ra,0(t0)
200020be:	0042a103          	lw	sp,4(t0)
200020c2:	0082a183          	lw	gp,8(t0)
200020c6:	00c2a203          	lw	tp,12(t0)
200020ca:	0142a303          	lw	t1,20(t0)
200020ce:	0182a383          	lw	t2,24(t0)
200020d2:	01c2a403          	lw	s0,28(t0)
200020d6:	0202a483          	lw	s1,32(t0)
200020da:	0242a503          	lw	a0,36(t0)
200020de:	0282a583          	lw	a1,40(t0)
200020e2:	02c2a603          	lw	a2,44(t0)
200020e6:	0302a683          	lw	a3,48(t0)
200020ea:	0342a703          	lw	a4,52(t0)
200020ee:	0382a783          	lw	a5,56(t0)
200020f2:	03c2a803          	lw	a6,60(t0)
200020f6:	0402a883          	lw	a7,64(t0)
200020fa:	0442a903          	lw	s2,68(t0)
200020fe:	0482a983          	lw	s3,72(t0)
20002102:	04c2aa03          	lw	s4,76(t0)
20002106:	0502aa83          	lw	s5,80(t0)
2000210a:	0542ab03          	lw	s6,84(t0)
2000210e:	0582ab83          	lw	s7,88(t0)
20002112:	05c2ac03          	lw	s8,92(t0)
20002116:	0602ac83          	lw	s9,96(t0)
2000211a:	0642ad03          	lw	s10,100(t0)
2000211e:	0682ad83          	lw	s11,104(t0)
20002122:	06c2ae03          	lw	t3,108(t0)
20002126:	0702ae83          	lw	t4,112(t0)
2000212a:	0742af03          	lw	t5,116(t0)
2000212e:	0782af83          	lw	t6,120(t0)
20002132:	0102a283          	lw	t0,16(t0)
20002136:	30200073          	mret

2000213a <_return_to_kernel>:
2000213a:	40b2                	lw	ra,12(sp)
2000213c:	41c2                	lw	gp,16(sp)
2000213e:	4252                	lw	tp,20(sp)
20002140:	42e2                	lw	t0,24(sp)
20002142:	4372                	lw	t1,28(sp)
20002144:	5382                	lw	t2,32(sp)
20002146:	5412                	lw	s0,36(sp)
20002148:	54a2                	lw	s1,40(sp)
2000214a:	5532                	lw	a0,44(sp)
2000214c:	55c2                	lw	a1,48(sp)
2000214e:	5652                	lw	a2,52(sp)
20002150:	56e2                	lw	a3,56(sp)
20002152:	5772                	lw	a4,60(sp)
20002154:	4786                	lw	a5,64(sp)
20002156:	4816                	lw	a6,68(sp)
20002158:	48a6                	lw	a7,72(sp)
2000215a:	4936                	lw	s2,76(sp)
2000215c:	49c6                	lw	s3,80(sp)
2000215e:	4a56                	lw	s4,84(sp)
20002160:	4ae6                	lw	s5,88(sp)
20002162:	4b76                	lw	s6,92(sp)
20002164:	5b86                	lw	s7,96(sp)
20002166:	5c16                	lw	s8,100(sp)
20002168:	5ca6                	lw	s9,104(sp)
2000216a:	5d36                	lw	s10,108(sp)
2000216c:	5dc6                	lw	s11,112(sp)
2000216e:	5e56                	lw	t3,116(sp)
20002170:	5ee6                	lw	t4,120(sp)
20002172:	5f76                	lw	t5,124(sp)
20002174:	4f8a                	lw	t6,128(sp)
20002176:	08810113          	addi	sp,sp,136
2000217a:	f4842503          	lw	a0,-184(s0)
2000217e:	00007097          	auipc	ra,0x7
20002182:	4ce080e7          	jalr	1230(ra) # 2000964c <<rv32i::csr::mcause::Trap as core::convert::From<u32>>::from>
20002186:	8905                	andi	a0,a0,1
20002188:	e119                	bnez	a0,2000218e <_return_to_kernel+0x54>
2000218a:	4c9d                	li	s9,7
2000218c:	a0b9                	j	200021da <_return_to_kernel+0xa0>
2000218e:	4c95                	li	s9,5
20002190:	0025e513          	ori	a0,a1,2
20002194:	0ff57513          	andi	a0,a0,255
20002198:	45a9                	li	a1,10
2000219a:	04b51063          	bne	a0,a1,200021da <_return_to_kernel+0xa0>
2000219e:	f4442503          	lw	a0,-188(s0)
200021a2:	0511                	addi	a0,a0,4
200021a4:	f4a42223          	sw	a0,-188(s0)
200021a8:	efc42c03          	lw	s8,-260(s0)
200021ac:	ef842b83          	lw	s7,-264(s0)
200021b0:	ef442b03          	lw	s6,-268(s0)
200021b4:	ef042a83          	lw	s5,-272(s0)
200021b8:	eec44503          	lbu	a0,-276(s0)
200021bc:	4591                	li	a1,4
200021be:	0ab50563          	beq	a0,a1,20002268 <_return_to_kernel+0x12e>
200021c2:	4585                	li	a1,1
200021c4:	0ab50463          	beq	a0,a1,2000226c <_return_to_kernel+0x132>
200021c8:	4589                	li	a1,2
200021ca:	0ab50363          	beq	a0,a1,20002270 <_return_to_kernel+0x136>
200021ce:	458d                	li	a1,3
200021d0:	0ab50263          	beq	a0,a1,20002274 <_return_to_kernel+0x13a>
200021d4:	e119                	bnez	a0,200021da <_return_to_kernel+0xa0>
200021d6:	4c81                	li	s9,0
200021d8:	a009                	j	200021da <_return_to_kernel+0xa0>
200021da:	ecc42503          	lw	a0,-308(s0)
200021de:	02aa2623          	sw	a0,44(s4)
200021e2:	f5040493          	addi	s1,s0,-176
200021e6:	ec840593          	addi	a1,s0,-312
200021ea:	8526                	mv	a0,s1
200021ec:	08400613          	li	a2,132
200021f0:	00007097          	auipc	ra,0x7
200021f4:	476080e7          	jalr	1142(ra) # 20009666 <memcpy>
200021f8:	854e                	mv	a0,s3
200021fa:	85a6                	mv	a1,s1
200021fc:	ffffe097          	auipc	ra,0xffffe
20002200:	0a8080e7          	jalr	168(ra) # 200002a4 <core::cell::Cell<T>::set>
20002204:	220a4503          	lbu	a0,544(s4)
20002208:	cd11                	beqz	a0,20002224 <_return_to_kernel+0xea>
2000220a:	220a0023          	sb	zero,544(s4)
2000220e:	02ca2503          	lw	a0,44(s4)
20002212:	1f8a2583          	lw	a1,504(s4)
20002216:	00b57463          	bgeu	a0,a1,2000221e <_return_to_kernel+0xe4>
2000221a:	1eaa2c23          	sw	a0,504(s4)
2000221e:	4505                	li	a0,1
20002220:	22aa0023          	sb	a0,544(s4)
20002224:	01892823          	sw	s8,16(s2)
20002228:	01792623          	sw	s7,12(s2)
2000222c:	01692423          	sw	s6,8(s2)
20002230:	01592223          	sw	s5,4(s2)
20002234:	01992023          	sw	s9,0(s2)
20002238:	11412c83          	lw	s9,276(sp)
2000223c:	11812c03          	lw	s8,280(sp)
20002240:	11c12b83          	lw	s7,284(sp)
20002244:	12012b03          	lw	s6,288(sp)
20002248:	12412a83          	lw	s5,292(sp)
2000224c:	12812a03          	lw	s4,296(sp)
20002250:	12c12983          	lw	s3,300(sp)
20002254:	13012903          	lw	s2,304(sp)
20002258:	13412483          	lw	s1,308(sp)
2000225c:	13812403          	lw	s0,312(sp)
20002260:	13c12083          	lw	ra,316(sp)
20002264:	6131                	addi	sp,sp,320
20002266:	8082                	ret
20002268:	4c91                	li	s9,4
2000226a:	bf85                	j	200021da <_return_to_kernel+0xa0>
2000226c:	4c85                	li	s9,1
2000226e:	b7b5                	j	200021da <_return_to_kernel+0xa0>
20002270:	4c89                	li	s9,2
20002272:	b7a5                	j	200021da <_return_to_kernel+0xa0>
20002274:	4c8d                	li	s9,3
20002276:	b795                	j	200021da <_return_to_kernel+0xa0>

20002278 <tock_cells::take_cell::TakeCell<T>::is_none>:
20002278:	1141                	addi	sp,sp,-16
2000227a:	c606                	sw	ra,12(sp)
2000227c:	c422                	sw	s0,8(sp)
2000227e:	0800                	addi	s0,sp,16
20002280:	4108                	lw	a0,0(a0)
20002282:	00153513          	seqz	a0,a0
20002286:	4422                	lw	s0,8(sp)
20002288:	40b2                	lw	ra,12(sp)
2000228a:	0141                	addi	sp,sp,16
2000228c:	8082                	ret

2000228e <<capsules::led::LED as kernel::driver::Driver>::command>:
2000228e:	1141                	addi	sp,sp,-16
20002290:	c606                	sw	ra,12(sp)
20002292:	c422                	sw	s0,8(sp)
20002294:	c226                	sw	s1,4(sp)
20002296:	c04a                	sw	s2,0(sp)
20002298:	0800                	addi	s0,sp,16
2000229a:	00452903          	lw	s2,4(a0)
2000229e:	4108                	lw	a0,0(a0)
200022a0:	468d                	li	a3,3
200022a2:	04d58f63          	beq	a1,a3,20002300 <<capsules::led::LED as kernel::driver::Driver>::command+0x72>
200022a6:	4685                	li	a3,1
200022a8:	00d58963          	beq	a1,a3,200022ba <<capsules::led::LED as kernel::driver::Driver>::command+0x2c>
200022ac:	4689                	li	a3,2
200022ae:	02d58763          	beq	a1,a3,200022dc <<capsules::led::LED as kernel::driver::Driver>::command+0x4e>
200022b2:	44ad                	li	s1,11
200022b4:	e1b5                	bnez	a1,20002318 <<capsules::led::LED as kernel::driver::Driver>::command+0x8a>
200022b6:	4481                	li	s1,0
200022b8:	a085                	j	20002318 <<capsules::led::LED as kernel::driver::Driver>::command+0x8a>
200022ba:	449d                	li	s1,7
200022bc:	05267e63          	bgeu	a2,s2,20002318 <<capsules::led::LED as kernel::driver::Driver>::command+0x8a>
200022c0:	45b1                	li	a1,12
200022c2:	02b605b3          	mul	a1,a2,a1
200022c6:	00b50633          	add	a2,a0,a1
200022ca:	424c                	lw	a1,4(a2)
200022cc:	4208                	lw	a0,0(a2)
200022ce:	00864603          	lbu	a2,8(a2)
200022d2:	4485                	li	s1,1
200022d4:	02961363          	bne	a2,s1,200022fa <<capsules::led::LED as kernel::driver::Driver>::command+0x6c>
200022d8:	49cc                	lw	a1,20(a1)
200022da:	a00d                	j	200022fc <<capsules::led::LED as kernel::driver::Driver>::command+0x6e>
200022dc:	449d                	li	s1,7
200022de:	03267d63          	bgeu	a2,s2,20002318 <<capsules::led::LED as kernel::driver::Driver>::command+0x8a>
200022e2:	45b1                	li	a1,12
200022e4:	02b605b3          	mul	a1,a2,a1
200022e8:	00b50633          	add	a2,a0,a1
200022ec:	424c                	lw	a1,4(a2)
200022ee:	4208                	lw	a0,0(a2)
200022f0:	00864603          	lbu	a2,8(a2)
200022f4:	4485                	li	s1,1
200022f6:	fe9611e3          	bne	a2,s1,200022d8 <<capsules::led::LED as kernel::driver::Driver>::command+0x4a>
200022fa:	498c                	lw	a1,16(a1)
200022fc:	9582                	jalr	a1
200022fe:	a829                	j	20002318 <<capsules::led::LED as kernel::driver::Driver>::command+0x8a>
20002300:	449d                	li	s1,7
20002302:	01267b63          	bgeu	a2,s2,20002318 <<capsules::led::LED as kernel::driver::Driver>::command+0x8a>
20002306:	45b1                	li	a1,12
20002308:	02b605b3          	mul	a1,a2,a1
2000230c:	95aa                	add	a1,a1,a0
2000230e:	4188                	lw	a0,0(a1)
20002310:	41cc                	lw	a1,4(a1)
20002312:	4d8c                	lw	a1,24(a1)
20002314:	9582                	jalr	a1
20002316:	4485                	li	s1,1
20002318:	8526                	mv	a0,s1
2000231a:	85ca                	mv	a1,s2
2000231c:	4902                	lw	s2,0(sp)
2000231e:	4492                	lw	s1,4(sp)
20002320:	4422                	lw	s0,8(sp)
20002322:	40b2                	lw	ra,12(sp)
20002324:	0141                	addi	sp,sp,16
20002326:	8082                	ret

20002328 <_ZN4core3ptr18real_drop_in_place17h3fc38f9cc98eca45E.49>:
20002328:	1141                	addi	sp,sp,-16
2000232a:	c606                	sw	ra,12(sp)
2000232c:	c422                	sw	s0,8(sp)
2000232e:	0800                	addi	s0,sp,16
20002330:	410c                	lw	a1,0(a0)
20002332:	c589                	beqz	a1,2000233c <_ZN4core3ptr18real_drop_in_place17h3fc38f9cc98eca45E.49+0x14>
20002334:	00004097          	auipc	ra,0x4
20002338:	e1e080e7          	jalr	-482(ra) # 20006152 <<kernel::mem::AppPtr<L,T> as core::ops::drop::Drop>::drop>
2000233c:	4422                	lw	s0,8(sp)
2000233e:	40b2                	lw	ra,12(sp)
20002340:	0141                	addi	sp,sp,16
20002342:	8082                	ret

20002344 <_ZN4core3ptr18real_drop_in_place17h3fc38f9cc98eca45E.llvm.6618883037663697866>:
20002344:	1141                	addi	sp,sp,-16
20002346:	c606                	sw	ra,12(sp)
20002348:	c422                	sw	s0,8(sp)
2000234a:	0800                	addi	s0,sp,16
2000234c:	410c                	lw	a1,0(a0)
2000234e:	c589                	beqz	a1,20002358 <_ZN4core3ptr18real_drop_in_place17h3fc38f9cc98eca45E.llvm.6618883037663697866+0x14>
20002350:	00004097          	auipc	ra,0x4
20002354:	e02080e7          	jalr	-510(ra) # 20006152 <<kernel::mem::AppPtr<L,T> as core::ops::drop::Drop>::drop>
20002358:	4422                	lw	s0,8(sp)
2000235a:	40b2                	lw	ra,12(sp)
2000235c:	0141                	addi	sp,sp,16
2000235e:	8082                	ret

20002360 <_ZN8capsules7console7Console4send17h765997ba9b97065bE.llvm.6618883037663697866>:
20002360:	711d                	addi	sp,sp,-96
20002362:	ce86                	sw	ra,92(sp)
20002364:	cca2                	sw	s0,88(sp)
20002366:	caa6                	sw	s1,84(sp)
20002368:	c8ca                	sw	s2,80(sp)
2000236a:	c6ce                	sw	s3,76(sp)
2000236c:	c4d2                	sw	s4,72(sp)
2000236e:	1080                	addi	s0,sp,96
20002370:	89ba                	mv	s3,a4
20002372:	84b6                	mv	s1,a3
20002374:	fad42223          	sw	a3,-92(s0)
20002378:	faa42023          	sw	a0,-96(s0)
2000237c:	4914                	lw	a3,16(a0)
2000237e:	c69d                	beqz	a3,200023ac <_ZN8capsules7console7Console4send17h765997ba9b97065bE.llvm.6618883037663697866+0x4c>
20002380:	4505                	li	a0,1
20002382:	04a48e23          	sb	a0,92(s1)
20002386:	01848513          	addi	a0,s1,24
2000238a:	00000097          	auipc	ra,0x0
2000238e:	fba080e7          	jalr	-70(ra) # 20002344 <_ZN4core3ptr18real_drop_in_place17h3fc38f9cc98eca45E.llvm.6618883037663697866>
20002392:	00c9a503          	lw	a0,12(s3)
20002396:	d0c8                	sw	a0,36(s1)
20002398:	0089a503          	lw	a0,8(s3)
2000239c:	d088                	sw	a0,32(s1)
2000239e:	0049a503          	lw	a0,4(s3)
200023a2:	ccc8                	sw	a0,28(s1)
200023a4:	0009a503          	lw	a0,0(s3)
200023a8:	cc88                	sw	a0,24(s1)
200023aa:	a8fd                	j	200024a8 <_ZN8capsules7console7Console4send17h765997ba9b97065bE.llvm.6618883037663697866+0x148>
200023ac:	c950                	sw	a2,20(a0)
200023ae:	c90c                	sw	a1,16(a0)
200023b0:	01852903          	lw	s2,24(a0)
200023b4:	00052c23          	sw	zero,24(a0)
200023b8:	01c52a03          	lw	s4,28(a0)
200023bc:	fa440513          	addi	a0,s0,-92
200023c0:	faa42423          	sw	a0,-88(s0)
200023c4:	0009a503          	lw	a0,0(s3)
200023c8:	faa42623          	sw	a0,-84(s0)
200023cc:	0049a503          	lw	a0,4(s3)
200023d0:	faa42823          	sw	a0,-80(s0)
200023d4:	0089a503          	lw	a0,8(s3)
200023d8:	faa42a23          	sw	a0,-76(s0)
200023dc:	00c9a503          	lw	a0,12(s3)
200023e0:	faa42c23          	sw	a0,-72(s0)
200023e4:	fa040513          	addi	a0,s0,-96
200023e8:	faa42e23          	sw	a0,-68(s0)
200023ec:	08090763          	beqz	s2,2000247a <_ZN8capsules7console7Console4send17h765997ba9b97065bE.llvm.6618883037663697866+0x11a>
200023f0:	fc040513          	addi	a0,s0,-64
200023f4:	fa840593          	addi	a1,s0,-88
200023f8:	4661                	li	a2,24
200023fa:	00007097          	auipc	ra,0x7
200023fe:	26c080e7          	jalr	620(ra) # 20009666 <memcpy>
20002402:	fc042483          	lw	s1,-64(s0)
20002406:	4088                	lw	a0,0(s1)
20002408:	5558                	lw	a4,44(a0)
2000240a:	fd042583          	lw	a1,-48(s0)
2000240e:	40e58533          	sub	a0,a1,a4
20002412:	0ae5e363          	bltu	a1,a4,200024b8 <_ZN8capsules7console7Console4send17h765997ba9b97065bE.llvm.6618883037663697866+0x158>
20002416:	fc440993          	addi	s3,s0,-60
2000241a:	fc442583          	lw	a1,-60(s0)
2000241e:	952e                	add	a0,a0,a1
20002420:	4581                	li	a1,0
20002422:	00b70f63          	beq	a4,a1,20002440 <_ZN8capsules7console7Console4send17h765997ba9b97065bE.llvm.6618883037663697866+0xe0>
20002426:	00ba0d63          	beq	s4,a1,20002440 <_ZN8capsules7console7Console4send17h765997ba9b97065bE.llvm.6618883037663697866+0xe0>
2000242a:	00b50633          	add	a2,a0,a1
2000242e:	00b906b3          	add	a3,s2,a1
20002432:	00060603          	lb	a2,0(a2)
20002436:	00c68023          	sb	a2,0(a3)
2000243a:	0585                	addi	a1,a1,1
2000243c:	feb715e3          	bne	a4,a1,20002426 <_ZN8capsules7console7Console4send17h765997ba9b97065bE.llvm.6618883037663697866+0xc6>
20002440:	4088                	lw	a0,0(s1)
20002442:	554c                	lw	a1,44(a0)
20002444:	02ba7e63          	bgeu	s4,a1,20002480 <_ZN8capsules7console7Console4send17h765997ba9b97065bE.llvm.6618883037663697866+0x120>
20002448:	414585b3          	sub	a1,a1,s4
2000244c:	d54c                	sw	a1,44(a0)
2000244e:	4088                	lw	a0,0(s1)
20002450:	0561                	addi	a0,a0,24
20002452:	00000097          	auipc	ra,0x0
20002456:	ef2080e7          	jalr	-270(ra) # 20002344 <_ZN4core3ptr18real_drop_in_place17h3fc38f9cc98eca45E.llvm.6618883037663697866>
2000245a:	4088                	lw	a0,0(s1)
2000245c:	00c9a583          	lw	a1,12(s3)
20002460:	d14c                	sw	a1,36(a0)
20002462:	0089a583          	lw	a1,8(s3)
20002466:	d10c                	sw	a1,32(a0)
20002468:	0049a583          	lw	a1,4(s3)
2000246c:	cd4c                	sw	a1,28(a0)
2000246e:	0009a583          	lw	a1,0(s3)
20002472:	cd0c                	sw	a1,24(a0)
20002474:	8752                	mv	a4,s4
20002476:	4481                	li	s1,0
20002478:	a039                	j	20002486 <_ZN8capsules7console7Console4send17h765997ba9b97065bE.llvm.6618883037663697866+0x126>
2000247a:	fac40513          	addi	a0,s0,-84
2000247e:	a00d                	j	200024a0 <_ZN8capsules7console7Console4send17h765997ba9b97065bE.llvm.6618883037663697866+0x140>
20002480:	02052623          	sw	zero,44(a0)
20002484:	4485                	li	s1,1
20002486:	fd442503          	lw	a0,-44(s0)
2000248a:	4108                	lw	a0,0(a0)
2000248c:	410c                	lw	a1,0(a0)
2000248e:	4148                	lw	a0,4(a0)
20002490:	511c                	lw	a5,32(a0)
20002492:	fd840513          	addi	a0,s0,-40
20002496:	864a                	mv	a2,s2
20002498:	86d2                	mv	a3,s4
2000249a:	9782                	jalr	a5
2000249c:	c491                	beqz	s1,200024a8 <_ZN8capsules7console7Console4send17h765997ba9b97065bE.llvm.6618883037663697866+0x148>
2000249e:	854e                	mv	a0,s3
200024a0:	00004097          	auipc	ra,0x4
200024a4:	cb2080e7          	jalr	-846(ra) # 20006152 <<kernel::mem::AppPtr<L,T> as core::ops::drop::Drop>::drop>
200024a8:	4a26                	lw	s4,72(sp)
200024aa:	49b6                	lw	s3,76(sp)
200024ac:	4946                	lw	s2,80(sp)
200024ae:	44d6                	lw	s1,84(sp)
200024b0:	4466                	lw	s0,88(sp)
200024b2:	40f6                	lw	ra,92(sp)
200024b4:	6125                	addi	sp,sp,96
200024b6:	8082                	ret
200024b8:	00002097          	auipc	ra,0x2
200024bc:	adc080e7          	jalr	-1316(ra) # 20003f94 <core::slice::slice_index_order_fail>
200024c0:	0000a097          	auipc	ra,0xa
200024c4:	c6c080e7          	jalr	-916(ra) # 2000c12c <abort>

200024c8 <capsules::console::Console::send_continue>:
200024c8:	7179                	addi	sp,sp,-48
200024ca:	d606                	sw	ra,44(sp)
200024cc:	d422                	sw	s0,40(sp)
200024ce:	d226                	sw	s1,36(sp)
200024d0:	1800                	addi	s0,sp,48
200024d2:	84aa                	mv	s1,a0
200024d4:	5748                	lw	a0,44(a4)
200024d6:	c125                	beqz	a0,20002536 <capsules::console::Console::send_continue+0x6e>
200024d8:	4f08                	lw	a0,24(a4)
200024da:	00072c23          	sw	zero,24(a4)
200024de:	fca42823          	sw	a0,-48(s0)
200024e2:	4f5c                	lw	a5,28(a4)
200024e4:	fcf42a23          	sw	a5,-44(s0)
200024e8:	531c                	lw	a5,32(a4)
200024ea:	fcf42c23          	sw	a5,-40(s0)
200024ee:	535c                	lw	a5,36(a4)
200024f0:	fcf42e23          	sw	a5,-36(s0)
200024f4:	c521                	beqz	a0,2000253c <capsules::console::Console::send_continue+0x74>
200024f6:	fdc42503          	lw	a0,-36(s0)
200024fa:	fea42623          	sw	a0,-20(s0)
200024fe:	fd842503          	lw	a0,-40(s0)
20002502:	fea42423          	sw	a0,-24(s0)
20002506:	fd442503          	lw	a0,-44(s0)
2000250a:	fea42223          	sw	a0,-28(s0)
2000250e:	fd042503          	lw	a0,-48(s0)
20002512:	fea42023          	sw	a0,-32(s0)
20002516:	fe040793          	addi	a5,s0,-32
2000251a:	852e                	mv	a0,a1
2000251c:	85b2                	mv	a1,a2
2000251e:	8636                	mv	a2,a3
20002520:	86ba                	mv	a3,a4
20002522:	873e                	mv	a4,a5
20002524:	00000097          	auipc	ra,0x0
20002528:	e3c080e7          	jalr	-452(ra) # 20002360 <_ZN8capsules7console7Console4send17h765997ba9b97065bE.llvm.6618883037663697866>
2000252c:	10000513          	li	a0,256
20002530:	00a49023          	sh	a0,0(s1)
20002534:	a81d                	j	2000256a <capsules::console::Console::send_continue+0xa2>
20002536:	00049023          	sh	zero,0(s1)
2000253a:	a805                	j	2000256a <capsules::console::Console::send_continue+0xa2>
2000253c:	4505                	li	a0,1
2000253e:	00a48023          	sb	a0,0(s1)
20002542:	fe040503          	lb	a0,-32(s0)
20002546:	00a480a3          	sb	a0,1(s1)
2000254a:	fe140503          	lb	a0,-31(s0)
2000254e:	00a48123          	sb	a0,2(s1)
20002552:	fe240503          	lb	a0,-30(s0)
20002556:	00a481a3          	sb	a0,3(s1)
2000255a:	4519                	li	a0,6
2000255c:	c0c8                	sw	a0,4(s1)
2000255e:	fd040513          	addi	a0,s0,-48
20002562:	00000097          	auipc	ra,0x0
20002566:	de2080e7          	jalr	-542(ra) # 20002344 <_ZN4core3ptr18real_drop_in_place17h3fc38f9cc98eca45E.llvm.6618883037663697866>
2000256a:	5492                	lw	s1,36(sp)
2000256c:	5422                	lw	s0,40(sp)
2000256e:	50b2                	lw	ra,44(sp)
20002570:	6145                	addi	sp,sp,48
20002572:	8082                	ret

20002574 <<capsules::console::Console as kernel::driver::Driver>::allow>:
20002574:	7175                	addi	sp,sp,-144
20002576:	c706                	sw	ra,140(sp)
20002578:	c522                	sw	s0,136(sp)
2000257a:	c326                	sw	s1,132(sp)
2000257c:	c14a                	sw	s2,128(sp)
2000257e:	dece                	sw	s3,124(sp)
20002580:	dcd2                	sw	s4,120(sp)
20002582:	dad6                	sw	s5,116(sp)
20002584:	0900                	addi	s0,sp,144
20002586:	4789                	li	a5,2
20002588:	14f68163          	beq	a3,a5,200026ca <<capsules::console::Console as kernel::driver::Driver>::allow+0x156>
2000258c:	4785                	li	a5,1
2000258e:	16f69f63          	bne	a3,a5,2000270c <<capsules::console::Console as kernel::driver::Driver>::allow+0x198>
20002592:	0521                	addi	a0,a0,8
20002594:	f6a42e23          	sw	a0,-132(s0)
20002598:	f8c42223          	sw	a2,-124(s0)
2000259c:	f8b42023          	sw	a1,-128(s0)
200025a0:	f8040513          	addi	a0,s0,-128
200025a4:	f8a42623          	sw	a0,-116(s0)
200025a8:	f7c40513          	addi	a0,s0,-132
200025ac:	f8a42423          	sw	a0,-120(s0)
200025b0:	4748                	lw	a0,12(a4)
200025b2:	f8a42e23          	sw	a0,-100(s0)
200025b6:	4708                	lw	a0,8(a4)
200025b8:	f8a42c23          	sw	a0,-104(s0)
200025bc:	4348                	lw	a0,4(a4)
200025be:	f8a42a23          	sw	a0,-108(s0)
200025c2:	4308                	lw	a0,0(a4)
200025c4:	f8a42823          	sw	a0,-112(s0)
200025c8:	4594                	lw	a3,8(a1)
200025ca:	12c6ee63          	bltu	a3,a2,20002706 <<capsules::console::Console as kernel::driver::Driver>::allow+0x192>
200025ce:	28d67c63          	bgeu	a2,a3,20002866 <<capsules::console::Console as kernel::driver::Driver>::allow+0x2f2>
200025d2:	00361513          	slli	a0,a2,0x3
200025d6:	41cc                	lw	a1,4(a1)
200025d8:	952e                	add	a0,a0,a1
200025da:	00452a83          	lw	s5,4(a0)
200025de:	00052903          	lw	s2,0(a0)
200025e2:	fa040513          	addi	a0,s0,-96
200025e6:	f8840593          	addi	a1,s0,-120
200025ea:	4661                	li	a2,24
200025ec:	00007097          	auipc	ra,0x7
200025f0:	07a080e7          	jalr	122(ra) # 20009666 <memcpy>
200025f4:	20090363          	beqz	s2,200027fa <<capsules::console::Console as kernel::driver::Driver>::allow+0x286>
200025f8:	fa442a03          	lw	s4,-92(s0)
200025fc:	fa042503          	lw	a0,-96(s0)
20002600:	fb442583          	lw	a1,-76(s0)
20002604:	fcb42223          	sw	a1,-60(s0)
20002608:	fb042583          	lw	a1,-80(s0)
2000260c:	fcb42023          	sw	a1,-64(s0)
20002610:	fac42583          	lw	a1,-84(s0)
20002614:	fab42e23          	sw	a1,-68(s0)
20002618:	fa842583          	lw	a1,-88(s0)
2000261c:	fab42c23          	sw	a1,-72(s0)
20002620:	078aa603          	lw	a2,120(s5)
20002624:	4108                	lw	a0,0(a0)
20002626:	414c                	lw	a1,4(a0)
20002628:	854a                	mv	a0,s2
2000262a:	9602                	jalr	a2
2000262c:	4104                	lw	s1,0(a0)
2000262e:	ec95                	bnez	s1,2000266a <<capsules::console::Console as kernel::driver::Driver>::allow+0xf6>
20002630:	89aa                	mv	s3,a0
20002632:	070aa683          	lw	a3,112(s5)
20002636:	854a                	mv	a0,s2
20002638:	06000593          	li	a1,96
2000263c:	4611                	li	a2,4
2000263e:	9682                	jalr	a3
20002640:	20050d63          	beqz	a0,2000285a <<capsules::console::Console as kernel::driver::Driver>::allow+0x2e6>
20002644:	84aa                	mv	s1,a0
20002646:	04050e23          	sb	zero,92(a0)
2000264a:	04052c23          	sw	zero,88(a0)
2000264e:	04052423          	sw	zero,72(a0)
20002652:	02052823          	sw	zero,48(a0)
20002656:	02052623          	sw	zero,44(a0)
2000265a:	02052423          	sw	zero,40(a0)
2000265e:	00052c23          	sw	zero,24(a0)
20002662:	00052023          	sw	zero,0(a0)
20002666:	00a9a023          	sw	a0,0(s3)
2000266a:	4501                	li	a0,0
2000266c:	000a2583          	lw	a1,0(s4)
20002670:	004a2603          	lw	a2,4(s4)
20002674:	fcc42623          	sw	a2,-52(s0)
20002678:	fcb42423          	sw	a1,-56(s0)
2000267c:	fb842583          	lw	a1,-72(s0)
20002680:	fcb42823          	sw	a1,-48(s0)
20002684:	fbc42583          	lw	a1,-68(s0)
20002688:	fcb42a23          	sw	a1,-44(s0)
2000268c:	fc042583          	lw	a1,-64(s0)
20002690:	fcb42c23          	sw	a1,-40(s0)
20002694:	fc442583          	lw	a1,-60(s0)
20002698:	fcb42e23          	sw	a1,-36(s0)
2000269c:	fd040913          	addi	s2,s0,-48
200026a0:	14051663          	bnez	a0,200027ec <<capsules::console::Console as kernel::driver::Driver>::allow+0x278>
200026a4:	01848513          	addi	a0,s1,24
200026a8:	00000097          	auipc	ra,0x0
200026ac:	c80080e7          	jalr	-896(ra) # 20002328 <_ZN4core3ptr18real_drop_in_place17h3fc38f9cc98eca45E.49>
200026b0:	00c92503          	lw	a0,12(s2)
200026b4:	d0c8                	sw	a0,36(s1)
200026b6:	00892503          	lw	a0,8(s2)
200026ba:	d088                	sw	a0,32(s1)
200026bc:	00492503          	lw	a0,4(s2)
200026c0:	ccc8                	sw	a0,28(s1)
200026c2:	00092503          	lw	a0,0(s2)
200026c6:	cc88                	sw	a0,24(s1)
200026c8:	a2a5                	j	20002830 <<capsules::console::Console as kernel::driver::Driver>::allow+0x2bc>
200026ca:	0521                	addi	a0,a0,8
200026cc:	f6a42e23          	sw	a0,-132(s0)
200026d0:	f8c42223          	sw	a2,-124(s0)
200026d4:	f8b42023          	sw	a1,-128(s0)
200026d8:	f8040513          	addi	a0,s0,-128
200026dc:	f8a42623          	sw	a0,-116(s0)
200026e0:	f7c40513          	addi	a0,s0,-132
200026e4:	f8a42423          	sw	a0,-120(s0)
200026e8:	4748                	lw	a0,12(a4)
200026ea:	f8a42e23          	sw	a0,-100(s0)
200026ee:	4708                	lw	a0,8(a4)
200026f0:	f8a42c23          	sw	a0,-104(s0)
200026f4:	4348                	lw	a0,4(a4)
200026f6:	f8a42a23          	sw	a0,-108(s0)
200026fa:	4308                	lw	a0,0(a4)
200026fc:	f8a42823          	sw	a0,-112(s0)
20002700:	4594                	lw	a3,8(a1)
20002702:	00c6fc63          	bgeu	a3,a2,2000271a <<capsules::console::Console as kernel::driver::Driver>::allow+0x1a6>
20002706:	f9040513          	addi	a0,s0,-112
2000270a:	a8d5                	j	200027fe <<capsules::console::Console as kernel::driver::Driver>::allow+0x28a>
2000270c:	853a                	mv	a0,a4
2000270e:	00000097          	auipc	ra,0x0
20002712:	c36080e7          	jalr	-970(ra) # 20002344 <_ZN4core3ptr18real_drop_in_place17h3fc38f9cc98eca45E.llvm.6618883037663697866>
20002716:	452d                	li	a0,11
20002718:	aa05                	j	20002848 <<capsules::console::Console as kernel::driver::Driver>::allow+0x2d4>
2000271a:	14d67663          	bgeu	a2,a3,20002866 <<capsules::console::Console as kernel::driver::Driver>::allow+0x2f2>
2000271e:	00361513          	slli	a0,a2,0x3
20002722:	41cc                	lw	a1,4(a1)
20002724:	952e                	add	a0,a0,a1
20002726:	00452a83          	lw	s5,4(a0)
2000272a:	00052903          	lw	s2,0(a0)
2000272e:	fa040513          	addi	a0,s0,-96
20002732:	f8840593          	addi	a1,s0,-120
20002736:	4661                	li	a2,24
20002738:	00007097          	auipc	ra,0x7
2000273c:	f2e080e7          	jalr	-210(ra) # 20009666 <memcpy>
20002740:	0a090d63          	beqz	s2,200027fa <<capsules::console::Console as kernel::driver::Driver>::allow+0x286>
20002744:	fa442a03          	lw	s4,-92(s0)
20002748:	fa042503          	lw	a0,-96(s0)
2000274c:	fb442583          	lw	a1,-76(s0)
20002750:	fcb42223          	sw	a1,-60(s0)
20002754:	fb042583          	lw	a1,-80(s0)
20002758:	fcb42023          	sw	a1,-64(s0)
2000275c:	fac42583          	lw	a1,-84(s0)
20002760:	fab42e23          	sw	a1,-68(s0)
20002764:	fa842583          	lw	a1,-88(s0)
20002768:	fab42c23          	sw	a1,-72(s0)
2000276c:	078aa603          	lw	a2,120(s5)
20002770:	4108                	lw	a0,0(a0)
20002772:	414c                	lw	a1,4(a0)
20002774:	854a                	mv	a0,s2
20002776:	9602                	jalr	a2
20002778:	4104                	lw	s1,0(a0)
2000277a:	ec8d                	bnez	s1,200027b4 <<capsules::console::Console as kernel::driver::Driver>::allow+0x240>
2000277c:	89aa                	mv	s3,a0
2000277e:	070aa683          	lw	a3,112(s5)
20002782:	854a                	mv	a0,s2
20002784:	06000593          	li	a1,96
20002788:	4611                	li	a2,4
2000278a:	9682                	jalr	a3
2000278c:	c971                	beqz	a0,20002860 <<capsules::console::Console as kernel::driver::Driver>::allow+0x2ec>
2000278e:	84aa                	mv	s1,a0
20002790:	04050e23          	sb	zero,92(a0)
20002794:	04052c23          	sw	zero,88(a0)
20002798:	04052423          	sw	zero,72(a0)
2000279c:	02052823          	sw	zero,48(a0)
200027a0:	02052623          	sw	zero,44(a0)
200027a4:	02052423          	sw	zero,40(a0)
200027a8:	00052c23          	sw	zero,24(a0)
200027ac:	00052023          	sw	zero,0(a0)
200027b0:	00a9a023          	sw	a0,0(s3)
200027b4:	4501                	li	a0,0
200027b6:	000a2583          	lw	a1,0(s4)
200027ba:	004a2603          	lw	a2,4(s4)
200027be:	fcc42623          	sw	a2,-52(s0)
200027c2:	fcb42423          	sw	a1,-56(s0)
200027c6:	fb842583          	lw	a1,-72(s0)
200027ca:	fcb42823          	sw	a1,-48(s0)
200027ce:	fbc42583          	lw	a1,-68(s0)
200027d2:	fcb42a23          	sw	a1,-44(s0)
200027d6:	fc042583          	lw	a1,-64(s0)
200027da:	fcb42c23          	sw	a1,-40(s0)
200027de:	fc442583          	lw	a1,-60(s0)
200027e2:	fcb42e23          	sw	a1,-36(s0)
200027e6:	fd040913          	addi	s2,s0,-48
200027ea:	c10d                	beqz	a0,2000280c <<capsules::console::Console as kernel::driver::Driver>::allow+0x298>
200027ec:	854a                	mv	a0,s2
200027ee:	00000097          	auipc	ra,0x0
200027f2:	b3a080e7          	jalr	-1222(ra) # 20002328 <_ZN4core3ptr18real_drop_in_place17h3fc38f9cc98eca45E.49>
200027f6:	4585                	li	a1,1
200027f8:	a82d                	j	20002832 <<capsules::console::Console as kernel::driver::Driver>::allow+0x2be>
200027fa:	fa840513          	addi	a0,s0,-88
200027fe:	00000097          	auipc	ra,0x0
20002802:	b2a080e7          	jalr	-1238(ra) # 20002328 <_ZN4core3ptr18real_drop_in_place17h3fc38f9cc98eca45E.49>
20002806:	4585                	li	a1,1
20002808:	4601                	li	a2,0
2000280a:	a02d                	j	20002834 <<capsules::console::Console as kernel::driver::Driver>::allow+0x2c0>
2000280c:	04848513          	addi	a0,s1,72
20002810:	00000097          	auipc	ra,0x0
20002814:	b18080e7          	jalr	-1256(ra) # 20002328 <_ZN4core3ptr18real_drop_in_place17h3fc38f9cc98eca45E.49>
20002818:	00c92503          	lw	a0,12(s2)
2000281c:	c8e8                	sw	a0,84(s1)
2000281e:	00892503          	lw	a0,8(s2)
20002822:	c8a8                	sw	a0,80(s1)
20002824:	00492503          	lw	a0,4(s2)
20002828:	c4e8                	sw	a0,76(s1)
2000282a:	00092503          	lw	a0,0(s2)
2000282e:	c4a8                	sw	a0,72(s1)
20002830:	4581                	li	a1,0
20002832:	4605                	li	a2,1
20002834:	4505                	li	a0,1
20002836:	c989                	beqz	a1,20002848 <<capsules::console::Console as kernel::driver::Driver>::allow+0x2d4>
20002838:	2000a537          	lui	a0,0x2000a
2000283c:	40850513          	addi	a0,a0,1032 # 2000a408 <.L__unnamed_28+0xa2>
20002840:	00261593          	slli	a1,a2,0x2
20002844:	952e                	add	a0,a0,a1
20002846:	4108                	lw	a0,0(a0)
20002848:	5ad6                	lw	s5,116(sp)
2000284a:	5a66                	lw	s4,120(sp)
2000284c:	59f6                	lw	s3,124(sp)
2000284e:	490a                	lw	s2,128(sp)
20002850:	449a                	lw	s1,132(sp)
20002852:	442a                	lw	s0,136(sp)
20002854:	40ba                	lw	ra,140(sp)
20002856:	6149                	addi	sp,sp,144
20002858:	8082                	ret
2000285a:	4505                	li	a0,1
2000285c:	4481                	li	s1,0
2000285e:	b539                	j	2000266c <<capsules::console::Console as kernel::driver::Driver>::allow+0xf8>
20002860:	4505                	li	a0,1
20002862:	4481                	li	s1,0
20002864:	bf89                	j	200027b6 <<capsules::console::Console as kernel::driver::Driver>::allow+0x242>
20002866:	10002537          	lui	a0,0x10002
2000286a:	a1c50513          	addi	a0,a0,-1508 # 10001a1c <.L__unnamed_41>
2000286e:	85b2                	mv	a1,a2
20002870:	8636                	mv	a2,a3
20002872:	00001097          	auipc	ra,0x1
20002876:	1d4080e7          	jalr	468(ra) # 20003a46 <core::panicking::panic_bounds_check>
2000287a:	0000a097          	auipc	ra,0xa
2000287e:	8b2080e7          	jalr	-1870(ra) # 2000c12c <abort>

20002882 <<capsules::console::Console as kernel::driver::Driver>::subscribe>:
20002882:	715d                	addi	sp,sp,-80
20002884:	c686                	sw	ra,76(sp)
20002886:	c4a2                	sw	s0,72(sp)
20002888:	c2a6                	sw	s1,68(sp)
2000288a:	c0ca                	sw	s2,64(sp)
2000288c:	de4e                	sw	s3,60(sp)
2000288e:	dc52                	sw	s4,56(sp)
20002890:	0880                	addi	s0,sp,80
20002892:	89b2                	mv	s3,a2
20002894:	4609                	li	a2,2
20002896:	08c58b63          	beq	a1,a2,2000292c <<capsules::console::Console as kernel::driver::Driver>::subscribe+0xaa>
2000289a:	4605                	li	a2,1
2000289c:	0ac59363          	bne	a1,a2,20002942 <<capsules::console::Console as kernel::driver::Driver>::subscribe+0xc0>
200028a0:	4690                	lw	a2,8(a3)
200028a2:	08e66863          	bltu	a2,a4,20002932 <<capsules::console::Console as kernel::driver::Driver>::subscribe+0xb0>
200028a6:	18c77563          	bgeu	a4,a2,20002a30 <<capsules::console::Console as kernel::driver::Driver>::subscribe+0x1ae>
200028aa:	fd845583          	lhu	a1,-40(s0)
200028ae:	05c2                	slli	a1,a1,0x10
200028b0:	fd645603          	lhu	a2,-42(s0)
200028b4:	8dd1                	or	a1,a1,a2
200028b6:	00371613          	slli	a2,a4,0x3
200028ba:	42d4                	lw	a3,4(a3)
200028bc:	9636                	add	a2,a2,a3
200028be:	00462a03          	lw	s4,4(a2)
200028c2:	4204                	lw	s1,0(a2)
200028c4:	fda41603          	lh	a2,-38(s0)
200028c8:	fec41223          	sh	a2,-28(s0)
200028cc:	feb42023          	sw	a1,-32(s0)
200028d0:	fd445583          	lhu	a1,-44(s0)
200028d4:	05c2                	slli	a1,a1,0x10
200028d6:	fd245603          	lhu	a2,-46(s0)
200028da:	8dd1                	or	a1,a1,a2
200028dc:	fcb42e23          	sw	a1,-36(s0)
200028e0:	10048763          	beqz	s1,200029ee <<capsules::console::Console as kernel::driver::Driver>::subscribe+0x16c>
200028e4:	078a2603          	lw	a2,120(s4)
200028e8:	454c                	lw	a1,12(a0)
200028ea:	8526                	mv	a0,s1
200028ec:	9602                	jalr	a2
200028ee:	892a                	mv	s2,a0
200028f0:	4108                	lw	a0,0(a0)
200028f2:	ed61                	bnez	a0,200029ca <<capsules::console::Console as kernel::driver::Driver>::subscribe+0x148>
200028f4:	070a2683          	lw	a3,112(s4)
200028f8:	8526                	mv	a0,s1
200028fa:	06000593          	li	a1,96
200028fe:	4611                	li	a2,4
20002900:	9682                	jalr	a3
20002902:	12050363          	beqz	a0,20002a28 <<capsules::console::Console as kernel::driver::Driver>::subscribe+0x1a6>
20002906:	04050e23          	sb	zero,92(a0)
2000290a:	04052c23          	sw	zero,88(a0)
2000290e:	04052423          	sw	zero,72(a0)
20002912:	02052823          	sw	zero,48(a0)
20002916:	02052623          	sw	zero,44(a0)
2000291a:	02052423          	sw	zero,40(a0)
2000291e:	00052c23          	sw	zero,24(a0)
20002922:	00052023          	sw	zero,0(a0)
20002926:	00a92023          	sw	a0,0(s2)
2000292a:	a045                	j	200029ca <<capsules::console::Console as kernel::driver::Driver>::subscribe+0x148>
2000292c:	4690                	lw	a2,8(a3)
2000292e:	00e67c63          	bgeu	a2,a4,20002946 <<capsules::console::Console as kernel::driver::Driver>::subscribe+0xc4>
20002932:	4505                	li	a0,1
20002934:	faa41c23          	sh	a0,-72(s0)
20002938:	fba40513          	addi	a0,s0,-70
2000293c:	fd240593          	addi	a1,s0,-46
20002940:	a875                	j	200029fc <<capsules::console::Console as kernel::driver::Driver>::subscribe+0x17a>
20002942:	452d                	li	a0,11
20002944:	a8d1                	j	20002a18 <<capsules::console::Console as kernel::driver::Driver>::subscribe+0x196>
20002946:	0ec77563          	bgeu	a4,a2,20002a30 <<capsules::console::Console as kernel::driver::Driver>::subscribe+0x1ae>
2000294a:	fd845583          	lhu	a1,-40(s0)
2000294e:	05c2                	slli	a1,a1,0x10
20002950:	fd645603          	lhu	a2,-42(s0)
20002954:	8dd1                	or	a1,a1,a2
20002956:	00371613          	slli	a2,a4,0x3
2000295a:	42d4                	lw	a3,4(a3)
2000295c:	9636                	add	a2,a2,a3
2000295e:	00462a03          	lw	s4,4(a2)
20002962:	4204                	lw	s1,0(a2)
20002964:	fda41603          	lh	a2,-38(s0)
20002968:	fec41223          	sh	a2,-28(s0)
2000296c:	feb42023          	sw	a1,-32(s0)
20002970:	fd445583          	lhu	a1,-44(s0)
20002974:	05c2                	slli	a1,a1,0x10
20002976:	fd245603          	lhu	a2,-46(s0)
2000297a:	8dd1                	or	a1,a1,a2
2000297c:	fcb42e23          	sw	a1,-36(s0)
20002980:	c4bd                	beqz	s1,200029ee <<capsules::console::Console as kernel::driver::Driver>::subscribe+0x16c>
20002982:	078a2603          	lw	a2,120(s4)
20002986:	454c                	lw	a1,12(a0)
20002988:	8526                	mv	a0,s1
2000298a:	9602                	jalr	a2
2000298c:	892a                	mv	s2,a0
2000298e:	4108                	lw	a0,0(a0)
20002990:	e91d                	bnez	a0,200029c6 <<capsules::console::Console as kernel::driver::Driver>::subscribe+0x144>
20002992:	070a2683          	lw	a3,112(s4)
20002996:	8526                	mv	a0,s1
20002998:	06000593          	li	a1,96
2000299c:	4611                	li	a2,4
2000299e:	9682                	jalr	a3
200029a0:	c541                	beqz	a0,20002a28 <<capsules::console::Console as kernel::driver::Driver>::subscribe+0x1a6>
200029a2:	04050e23          	sb	zero,92(a0)
200029a6:	04052c23          	sw	zero,88(a0)
200029aa:	04052423          	sw	zero,72(a0)
200029ae:	02052823          	sw	zero,48(a0)
200029b2:	02052623          	sw	zero,44(a0)
200029b6:	02052423          	sw	zero,40(a0)
200029ba:	00052c23          	sw	zero,24(a0)
200029be:	00052023          	sw	zero,0(a0)
200029c2:	00a92023          	sw	a0,0(s2)
200029c6:	03050513          	addi	a0,a0,48
200029ca:	85ce                	mv	a1,s3
200029cc:	4661                	li	a2,24
200029ce:	00007097          	auipc	ra,0x7
200029d2:	c98080e7          	jalr	-872(ra) # 20009666 <memcpy>
200029d6:	4505                	li	a0,1
200029d8:	faa42e23          	sw	a0,-68(s0)
200029dc:	4501                	li	a0,0
200029de:	faa40c23          	sb	a0,-72(s0)
200029e2:	e115                	bnez	a0,20002a06 <<capsules::console::Console as kernel::driver::Driver>::subscribe+0x184>
200029e4:	fc042583          	lw	a1,-64(s0)
200029e8:	fbc40513          	addi	a0,s0,-68
200029ec:	a02d                	j	20002a16 <<capsules::console::Console as kernel::driver::Driver>::subscribe+0x194>
200029ee:	4505                	li	a0,1
200029f0:	faa41c23          	sh	a0,-72(s0)
200029f4:	fba40513          	addi	a0,s0,-70
200029f8:	fdc40593          	addi	a1,s0,-36
200029fc:	4629                	li	a2,10
200029fe:	00007097          	auipc	ra,0x7
20002a02:	c68080e7          	jalr	-920(ra) # 20009666 <memcpy>
20002a06:	2000a537          	lui	a0,0x2000a
20002a0a:	40850513          	addi	a0,a0,1032 # 2000a408 <.L__unnamed_28+0xa2>
20002a0e:	fb944583          	lbu	a1,-71(s0)
20002a12:	058a                	slli	a1,a1,0x2
20002a14:	952e                	add	a0,a0,a1
20002a16:	4108                	lw	a0,0(a0)
20002a18:	5a62                	lw	s4,56(sp)
20002a1a:	59f2                	lw	s3,60(sp)
20002a1c:	4906                	lw	s2,64(sp)
20002a1e:	4496                	lw	s1,68(sp)
20002a20:	4426                	lw	s0,72(sp)
20002a22:	40b6                	lw	ra,76(sp)
20002a24:	6161                	addi	sp,sp,80
20002a26:	8082                	ret
20002a28:	4505                	li	a0,1
20002a2a:	faa40ca3          	sb	a0,-71(s0)
20002a2e:	bf45                	j	200029de <<capsules::console::Console as kernel::driver::Driver>::subscribe+0x15c>
20002a30:	10002537          	lui	a0,0x10002
20002a34:	a1c50513          	addi	a0,a0,-1508 # 10001a1c <.L__unnamed_41>
20002a38:	85ba                	mv	a1,a4
20002a3a:	00001097          	auipc	ra,0x1
20002a3e:	00c080e7          	jalr	12(ra) # 20003a46 <core::panicking::panic_bounds_check>
20002a42:	00009097          	auipc	ra,0x9
20002a46:	6ea080e7          	jalr	1770(ra) # 2000c12c <abort>

20002a4a <<capsules::console::Console as kernel::driver::Driver>::command>:
20002a4a:	7159                	addi	sp,sp,-112
20002a4c:	d686                	sw	ra,108(sp)
20002a4e:	d4a2                	sw	s0,104(sp)
20002a50:	d2a6                	sw	s1,100(sp)
20002a52:	d0ca                	sw	s2,96(sp)
20002a54:	cece                	sw	s3,92(sp)
20002a56:	ccd2                	sw	s4,88(sp)
20002a58:	cad6                	sw	s5,84(sp)
20002a5a:	c8da                	sw	s6,80(sp)
20002a5c:	c6de                	sw	s7,76(sp)
20002a5e:	c4e2                	sw	s8,72(sp)
20002a60:	1880                	addi	s0,sp,112
20002a62:	8b2a                	mv	s6,a0
20002a64:	faf42223          	sw	a5,-92(s0)
20002a68:	fae42023          	sw	a4,-96(s0)
20002a6c:	f8a42e23          	sw	a0,-100(s0)
20002a70:	450d                	li	a0,3
20002a72:	1aa58e63          	beq	a1,a0,20002c2e <<capsules::console::Console as kernel::driver::Driver>::command+0x1e4>
20002a76:	89be                	mv	s3,a5
20002a78:	893a                	mv	s2,a4
20002a7a:	8a32                	mv	s4,a2
20002a7c:	4505                	li	a0,1
20002a7e:	00a58963          	beq	a1,a0,20002a90 <<capsules::console::Console as kernel::driver::Driver>::command+0x46>
20002a82:	4509                	li	a0,2
20002a84:	0ea58563          	beq	a1,a0,20002b6e <<capsules::console::Console as kernel::driver::Driver>::command+0x124>
20002a88:	44ad                	li	s1,11
20002a8a:	1a058863          	beqz	a1,20002c3a <<capsules::console::Console as kernel::driver::Driver>::command+0x1f0>
20002a8e:	a27d                	j	20002c3c <<capsules::console::Console as kernel::driver::Driver>::command+0x1f2>
20002a90:	fb442423          	sw	s4,-88(s0)
20002a94:	00892603          	lw	a2,8(s2)
20002a98:	19366263          	bltu	a2,s3,20002c1c <<capsules::console::Console as kernel::driver::Driver>::command+0x1d2>
20002a9c:	20c9f663          	bgeu	s3,a2,20002ca8 <<capsules::console::Console as kernel::driver::Driver>::command+0x25e>
20002aa0:	00399513          	slli	a0,s3,0x3
20002aa4:	00492583          	lw	a1,4(s2)
20002aa8:	952e                	add	a0,a0,a1
20002aaa:	4104                	lw	s1,0(a0)
20002aac:	16048863          	beqz	s1,20002c1c <<capsules::console::Console as kernel::driver::Driver>::command+0x1d2>
20002ab0:	00452b83          	lw	s7,4(a0)
20002ab4:	078ba603          	lw	a2,120(s7)
20002ab8:	00cb2583          	lw	a1,12(s6)
20002abc:	8526                	mv	a0,s1
20002abe:	9602                	jalr	a2
20002ac0:	4114                	lw	a3,0(a0)
20002ac2:	e6b1                	bnez	a3,20002b0e <<capsules::console::Console as kernel::driver::Driver>::command+0xc4>
20002ac4:	8aaa                	mv	s5,a0
20002ac6:	070ba683          	lw	a3,112(s7)
20002aca:	8526                	mv	a0,s1
20002acc:	06000593          	li	a1,96
20002ad0:	4611                	li	a2,4
20002ad2:	9682                	jalr	a3
20002ad4:	18050963          	beqz	a0,20002c66 <<capsules::console::Console as kernel::driver::Driver>::command+0x21c>
20002ad8:	86aa                	mv	a3,a0
20002ada:	04050e23          	sb	zero,92(a0)
20002ade:	04052c23          	sw	zero,88(a0)
20002ae2:	04052423          	sw	zero,72(a0)
20002ae6:	02052823          	sw	zero,48(a0)
20002aea:	02052623          	sw	zero,44(a0)
20002aee:	02052423          	sw	zero,40(a0)
20002af2:	00052c23          	sw	zero,24(a0)
20002af6:	00052023          	sw	zero,0(a0)
20002afa:	00aaa023          	sw	a0,0(s5)
20002afe:	fa842a03          	lw	s4,-88(s0)
20002b02:	fa442983          	lw	s3,-92(s0)
20002b06:	fa042903          	lw	s2,-96(s0)
20002b0a:	f9c42b03          	lw	s6,-100(s0)
20002b0e:	4e88                	lw	a0,24(a3)
20002b10:	0006ac23          	sw	zero,24(a3)
20002b14:	faa42c23          	sw	a0,-72(s0)
20002b18:	4ecc                	lw	a1,28(a3)
20002b1a:	fab42e23          	sw	a1,-68(s0)
20002b1e:	528c                	lw	a1,32(a3)
20002b20:	fcb42023          	sw	a1,-64(s0)
20002b24:	52cc                	lw	a1,36(a3)
20002b26:	fcb42223          	sw	a1,-60(s0)
20002b2a:	12050663          	beqz	a0,20002c56 <<capsules::console::Console as kernel::driver::Driver>::command+0x20c>
20002b2e:	fc442503          	lw	a0,-60(s0)
20002b32:	85aa                	mv	a1,a0
20002b34:	01456363          	bltu	a0,s4,20002b3a <<capsules::console::Console as kernel::driver::Driver>::command+0xf0>
20002b38:	85d2                	mv	a1,s4
20002b3a:	d6cc                	sw	a1,44(a3)
20002b3c:	d68c                	sw	a1,40(a3)
20002b3e:	fc042583          	lw	a1,-64(s0)
20002b42:	fcb42823          	sw	a1,-48(s0)
20002b46:	fbc42583          	lw	a1,-68(s0)
20002b4a:	fcb42623          	sw	a1,-52(s0)
20002b4e:	fb842583          	lw	a1,-72(s0)
20002b52:	fcb42423          	sw	a1,-56(s0)
20002b56:	fca42a23          	sw	a0,-44(s0)
20002b5a:	fc840713          	addi	a4,s0,-56
20002b5e:	855a                	mv	a0,s6
20002b60:	85ca                	mv	a1,s2
20002b62:	864e                	mv	a2,s3
20002b64:	fffff097          	auipc	ra,0xfffff
20002b68:	7fc080e7          	jalr	2044(ra) # 20002360 <_ZN8capsules7console7Console4send17h765997ba9b97065bE.llvm.6618883037663697866>
20002b6c:	a0f9                	j	20002c3a <<capsules::console::Console as kernel::driver::Driver>::command+0x1f0>
20002b6e:	fb442c23          	sw	s4,-72(s0)
20002b72:	00892603          	lw	a2,8(s2)
20002b76:	0b366363          	bltu	a2,s3,20002c1c <<capsules::console::Console as kernel::driver::Driver>::command+0x1d2>
20002b7a:	12c9f763          	bgeu	s3,a2,20002ca8 <<capsules::console::Console as kernel::driver::Driver>::command+0x25e>
20002b7e:	00399513          	slli	a0,s3,0x3
20002b82:	00492583          	lw	a1,4(s2)
20002b86:	952e                	add	a0,a0,a1
20002b88:	4104                	lw	s1,0(a0)
20002b8a:	c8c9                	beqz	s1,20002c1c <<capsules::console::Console as kernel::driver::Driver>::command+0x1d2>
20002b8c:	00452c03          	lw	s8,4(a0)
20002b90:	078c2603          	lw	a2,120(s8)
20002b94:	00cb2583          	lw	a1,12(s6)
20002b98:	8526                	mv	a0,s1
20002b9a:	9602                	jalr	a2
20002b9c:	00052a83          	lw	s5,0(a0)
20002ba0:	040a9663          	bnez	s5,20002bec <<capsules::console::Console as kernel::driver::Driver>::command+0x1a2>
20002ba4:	8baa                	mv	s7,a0
20002ba6:	070c2683          	lw	a3,112(s8)
20002baa:	8526                	mv	a0,s1
20002bac:	06000593          	li	a1,96
20002bb0:	4611                	li	a2,4
20002bb2:	9682                	jalr	a3
20002bb4:	c94d                	beqz	a0,20002c66 <<capsules::console::Console as kernel::driver::Driver>::command+0x21c>
20002bb6:	8aaa                	mv	s5,a0
20002bb8:	04050e23          	sb	zero,92(a0)
20002bbc:	04052c23          	sw	zero,88(a0)
20002bc0:	04052423          	sw	zero,72(a0)
20002bc4:	02052823          	sw	zero,48(a0)
20002bc8:	02052623          	sw	zero,44(a0)
20002bcc:	02052423          	sw	zero,40(a0)
20002bd0:	00052c23          	sw	zero,24(a0)
20002bd4:	00052023          	sw	zero,0(a0)
20002bd8:	00aba023          	sw	a0,0(s7)
20002bdc:	fb842a03          	lw	s4,-72(s0)
20002be0:	fa442983          	lw	s3,-92(s0)
20002be4:	fa042903          	lw	s2,-96(s0)
20002be8:	f9c42b03          	lw	s6,-100(s0)
20002bec:	028b0b93          	addi	s7,s6,40
20002bf0:	855e                	mv	a0,s7
20002bf2:	fffff097          	auipc	ra,0xfffff
20002bf6:	686080e7          	jalr	1670(ra) # 20002278 <tock_cells::take_cell::TakeCell<T>::is_none>
20002bfa:	448d                	li	s1,3
20002bfc:	e121                	bnez	a0,20002c3c <<capsules::console::Console as kernel::driver::Driver>::command+0x1f2>
20002bfe:	449d                	li	s1,7
20002c00:	048aa503          	lw	a0,72(s5)
20002c04:	cd05                	beqz	a0,20002c3c <<capsules::console::Console as kernel::driver::Driver>::command+0x1f2>
20002c06:	054aa503          	lw	a0,84(s5)
20002c0a:	01456363          	bltu	a0,s4,20002c10 <<capsules::console::Console as kernel::driver::Driver>::command+0x1c6>
20002c0e:	8552                	mv	a0,s4
20002c10:	028b2583          	lw	a1,40(s6)
20002c14:	c9b9                	beqz	a1,20002c6a <<capsules::console::Console as kernel::driver::Driver>::command+0x220>
20002c16:	02cb2603          	lw	a2,44(s6)
20002c1a:	a891                	j	20002c6e <<capsules::console::Console as kernel::driver::Driver>::command+0x224>
20002c1c:	4501                	li	a0,0
20002c1e:	2000a5b7          	lui	a1,0x2000a
20002c22:	40858593          	addi	a1,a1,1032 # 2000a408 <.L__unnamed_28+0xa2>
20002c26:	050a                	slli	a0,a0,0x2
20002c28:	952e                	add	a0,a0,a1
20002c2a:	4104                	lw	s1,0(a0)
20002c2c:	a801                	j	20002c3c <<capsules::console::Console as kernel::driver::Driver>::command+0x1f2>
20002c2e:	000b2503          	lw	a0,0(s6)
20002c32:	004b2583          	lw	a1,4(s6)
20002c36:	4d8c                	lw	a1,24(a1)
20002c38:	9582                	jalr	a1
20002c3a:	4485                	li	s1,1
20002c3c:	8526                	mv	a0,s1
20002c3e:	4c26                	lw	s8,72(sp)
20002c40:	4bb6                	lw	s7,76(sp)
20002c42:	4b46                	lw	s6,80(sp)
20002c44:	4ad6                	lw	s5,84(sp)
20002c46:	4a66                	lw	s4,88(sp)
20002c48:	49f6                	lw	s3,92(sp)
20002c4a:	5906                	lw	s2,96(sp)
20002c4c:	5496                	lw	s1,100(sp)
20002c4e:	5426                	lw	s0,104(sp)
20002c50:	50b6                	lw	ra,108(sp)
20002c52:	6165                	addi	sp,sp,112
20002c54:	8082                	ret
20002c56:	fb840513          	addi	a0,s0,-72
20002c5a:	fffff097          	auipc	ra,0xfffff
20002c5e:	6ea080e7          	jalr	1770(ra) # 20002344 <_ZN4core3ptr18real_drop_in_place17h3fc38f9cc98eca45E.llvm.6618883037663697866>
20002c62:	448d                	li	s1,3
20002c64:	bfe1                	j	20002c3c <<capsules::console::Console as kernel::driver::Driver>::command+0x1f2>
20002c66:	4505                	li	a0,1
20002c68:	bf5d                	j	20002c1e <<capsules::console::Console as kernel::driver::Driver>::command+0x1d4>
20002c6a:	4581                	li	a1,0
20002c6c:	4601                	li	a2,0
20002c6e:	00bba023          	sw	a1,0(s7)
20002c72:	fca665e3          	bltu	a2,a0,20002c3c <<capsules::console::Console as kernel::driver::Driver>::command+0x1f2>
20002c76:	04aaac23          	sw	a0,88(s5)
20002c7a:	4485                	li	s1,1
20002c7c:	028b2603          	lw	a2,40(s6)
20002c80:	020b2423          	sw	zero,40(s6)
20002c84:	de45                	beqz	a2,20002c3c <<capsules::console::Console as kernel::driver::Driver>::command+0x1f2>
20002c86:	02cb2683          	lw	a3,44(s6)
20002c8a:	033b2223          	sw	s3,36(s6)
20002c8e:	032b2023          	sw	s2,32(s6)
20002c92:	058aa703          	lw	a4,88(s5)
20002c96:	000b2583          	lw	a1,0(s6)
20002c9a:	004b2503          	lw	a0,4(s6)
20002c9e:	491c                	lw	a5,16(a0)
20002ca0:	fc840513          	addi	a0,s0,-56
20002ca4:	9782                	jalr	a5
20002ca6:	bf59                	j	20002c3c <<capsules::console::Console as kernel::driver::Driver>::command+0x1f2>
20002ca8:	10002537          	lui	a0,0x10002
20002cac:	a1c50513          	addi	a0,a0,-1508 # 10001a1c <.L__unnamed_41>
20002cb0:	85ce                	mv	a1,s3
20002cb2:	00001097          	auipc	ra,0x1
20002cb6:	d94080e7          	jalr	-620(ra) # 20003a46 <core::panicking::panic_bounds_check>
20002cba:	00009097          	auipc	ra,0x9
20002cbe:	472080e7          	jalr	1138(ra) # 2000c12c <abort>

20002cc2 <<capsules::console::Console as kernel::hil::uart::TransmitClient>::transmitted_buffer>:
20002cc2:	7119                	addi	sp,sp,-128
20002cc4:	de86                	sw	ra,124(sp)
20002cc6:	dca2                	sw	s0,120(sp)
20002cc8:	daa6                	sw	s1,116(sp)
20002cca:	d8ca                	sw	s2,112(sp)
20002ccc:	d6ce                	sw	s3,108(sp)
20002cce:	d4d2                	sw	s4,104(sp)
20002cd0:	d2d6                	sw	s5,100(sp)
20002cd2:	d0da                	sw	s6,96(sp)
20002cd4:	cede                	sw	s7,92(sp)
20002cd6:	cce2                	sw	s8,88(sp)
20002cd8:	cae6                	sw	s9,84(sp)
20002cda:	c8ea                	sw	s10,80(sp)
20002cdc:	c6ee                	sw	s11,76(sp)
20002cde:	0100                	addi	s0,sp,128
20002ce0:	8aaa                	mv	s5,a0
20002ce2:	f8a42223          	sw	a0,-124(s0)
20002ce6:	cd50                	sw	a2,28(a0)
20002ce8:	cd0c                	sw	a1,24(a0)
20002cea:	4904                	lw	s1,16(a0)
20002cec:	00052823          	sw	zero,16(a0)
20002cf0:	14048463          	beqz	s1,20002e38 <<capsules::console::Console as kernel::hil::uart::TransmitClient>::transmitted_buffer+0x176>
20002cf4:	014aa983          	lw	s3,20(s5)
20002cf8:	f9342623          	sw	s3,-116(s0)
20002cfc:	f8942423          	sw	s1,-120(s0)
20002d00:	4490                	lw	a2,8(s1)
20002d02:	13366b63          	bltu	a2,s3,20002e38 <<capsules::console::Console as kernel::hil::uart::TransmitClient>::transmitted_buffer+0x176>
20002d06:	28c9f963          	bgeu	s3,a2,20002f98 <<capsules::console::Console as kernel::hil::uart::TransmitClient>::transmitted_buffer+0x2d6>
20002d0a:	00399513          	slli	a0,s3,0x3
20002d0e:	40cc                	lw	a1,4(s1)
20002d10:	952e                	add	a0,a0,a1
20002d12:	00052b03          	lw	s6,0(a0)
20002d16:	120b0163          	beqz	s6,20002e38 <<capsules::console::Console as kernel::hil::uart::TransmitClient>::transmitted_buffer+0x176>
20002d1a:	00452b83          	lw	s7,4(a0)
20002d1e:	078ba603          	lw	a2,120(s7)
20002d22:	00caa583          	lw	a1,12(s5)
20002d26:	855a                	mv	a0,s6
20002d28:	9602                	jalr	a2
20002d2a:	00052903          	lw	s2,0(a0)
20002d2e:	04091463          	bnez	s2,20002d76 <<capsules::console::Console as kernel::hil::uart::TransmitClient>::transmitted_buffer+0xb4>
20002d32:	8a2a                	mv	s4,a0
20002d34:	070ba683          	lw	a3,112(s7)
20002d38:	855a                	mv	a0,s6
20002d3a:	06000593          	li	a1,96
20002d3e:	4611                	li	a2,4
20002d40:	9682                	jalr	a3
20002d42:	c97d                	beqz	a0,20002e38 <<capsules::console::Console as kernel::hil::uart::TransmitClient>::transmitted_buffer+0x176>
20002d44:	892a                	mv	s2,a0
20002d46:	04050e23          	sb	zero,92(a0)
20002d4a:	04052c23          	sw	zero,88(a0)
20002d4e:	04052423          	sw	zero,72(a0)
20002d52:	02052823          	sw	zero,48(a0)
20002d56:	02052623          	sw	zero,44(a0)
20002d5a:	02052423          	sw	zero,40(a0)
20002d5e:	00052c23          	sw	zero,24(a0)
20002d62:	00052023          	sw	zero,0(a0)
20002d66:	00aa2023          	sw	a0,0(s4)
20002d6a:	f8c42983          	lw	s3,-116(s0)
20002d6e:	f8842483          	lw	s1,-120(s0)
20002d72:	f8442a83          	lw	s5,-124(s0)
20002d76:	f9040513          	addi	a0,s0,-112
20002d7a:	85d6                	mv	a1,s5
20002d7c:	8626                	mv	a2,s1
20002d7e:	86ce                	mv	a3,s3
20002d80:	874a                	mv	a4,s2
20002d82:	fffff097          	auipc	ra,0xfffff
20002d86:	746080e7          	jalr	1862(ra) # 200024c8 <capsules::console::Console::send_continue>
20002d8a:	4505                	li	a0,1
20002d8c:	f9044583          	lbu	a1,-112(s0)
20002d90:	04a59e63          	bne	a1,a0,20002dec <<capsules::console::Console as kernel::hil::uart::TransmitClient>::transmitted_buffer+0x12a>
20002d94:	f9842983          	lw	s3,-104(s0)
20002d98:	f9442a03          	lw	s4,-108(s0)
20002d9c:	04090e23          	sb	zero,92(s2)
20002da0:	02092623          	sw	zero,44(s2)
20002da4:	02092423          	sw	zero,40(s2)
20002da8:	00092483          	lw	s1,0(s2)
20002dac:	00490593          	addi	a1,s2,4
20002db0:	f9c40513          	addi	a0,s0,-100
20002db4:	4651                	li	a2,20
20002db6:	00007097          	auipc	ra,0x7
20002dba:	8b0080e7          	jalr	-1872(ra) # 20009666 <memcpy>
20002dbe:	ccad                	beqz	s1,20002e38 <<capsules::console::Console as kernel::hil::uart::TransmitClient>::transmitted_buffer+0x176>
20002dc0:	8552                	mv	a0,s4
20002dc2:	85ce                	mv	a1,s3
20002dc4:	00003097          	auipc	ra,0x3
20002dc8:	512080e7          	jalr	1298(ra) # 200062d6 <kernel::returncode::<impl core::convert::From<kernel::returncode::ReturnCode> for isize>::from>
20002dcc:	892a                	mv	s2,a0
20002dce:	fa942823          	sw	s1,-80(s0)
20002dd2:	fb440513          	addi	a0,s0,-76
20002dd6:	f9c40593          	addi	a1,s0,-100
20002dda:	4651                	li	a2,20
20002ddc:	00007097          	auipc	ra,0x7
20002de0:	88a080e7          	jalr	-1910(ra) # 20009666 <memcpy>
20002de4:	fb040513          	addi	a0,s0,-80
20002de8:	85ca                	mv	a1,s2
20002dea:	a091                	j	20002e2e <<capsules::console::Console as kernel::hil::uart::TransmitClient>::transmitted_buffer+0x16c>
20002dec:	f9144503          	lbu	a0,-111(s0)
20002df0:	e521                	bnez	a0,20002e38 <<capsules::console::Console as kernel::hil::uart::TransmitClient>::transmitted_buffer+0x176>
20002df2:	02892983          	lw	s3,40(s2)
20002df6:	02092423          	sw	zero,40(s2)
20002dfa:	00092483          	lw	s1,0(s2)
20002dfe:	00490593          	addi	a1,s2,4
20002e02:	f9c40513          	addi	a0,s0,-100
20002e06:	4651                	li	a2,20
20002e08:	00007097          	auipc	ra,0x7
20002e0c:	85e080e7          	jalr	-1954(ra) # 20009666 <memcpy>
20002e10:	c485                	beqz	s1,20002e38 <<capsules::console::Console as kernel::hil::uart::TransmitClient>::transmitted_buffer+0x176>
20002e12:	fa942823          	sw	s1,-80(s0)
20002e16:	fb440513          	addi	a0,s0,-76
20002e1a:	f9c40593          	addi	a1,s0,-100
20002e1e:	4651                	li	a2,20
20002e20:	00007097          	auipc	ra,0x7
20002e24:	846080e7          	jalr	-1978(ra) # 20009666 <memcpy>
20002e28:	fb040513          	addi	a0,s0,-80
20002e2c:	85ce                	mv	a1,s3
20002e2e:	4601                	li	a2,0
20002e30:	00003097          	auipc	ra,0x3
20002e34:	29e080e7          	jalr	670(ra) # 200060ce <kernel::callback::Callback::schedule>
20002e38:	010aa503          	lw	a0,16(s5)
20002e3c:	10051c63          	bnez	a0,20002f54 <<capsules::console::Console as kernel::hil::uart::TransmitClient>::transmitted_buffer+0x292>
20002e40:	fb440b93          	addi	s7,s0,-76
20002e44:	008aa503          	lw	a0,8(s5)
20002e48:	00852903          	lw	s2,8(a0)
20002e4c:	f9040d93          	addi	s11,s0,-112
20002e50:	4d05                	li	s10,1
20002e52:	f9c40993          	addi	s3,s0,-100
20002e56:	4a01                	li	s4,0
20002e58:	003a1493          	slli	s1,s4,0x3
20002e5c:	0f2a7c63          	bgeu	s4,s2,20002f54 <<capsules::console::Console as kernel::hil::uart::TransmitClient>::transmitted_buffer+0x292>
20002e60:	008aac83          	lw	s9,8(s5)
20002e64:	008ca603          	lw	a2,8(s9)
20002e68:	03466463          	bltu	a2,s4,20002e90 <<capsules::console::Console as kernel::hil::uart::TransmitClient>::transmitted_buffer+0x1ce>
20002e6c:	10ca7363          	bgeu	s4,a2,20002f72 <<capsules::console::Console as kernel::hil::uart::TransmitClient>::transmitted_buffer+0x2b0>
20002e70:	004ca503          	lw	a0,4(s9)
20002e74:	009505b3          	add	a1,a0,s1
20002e78:	4188                	lw	a0,0(a1)
20002e7a:	c919                	beqz	a0,20002e90 <<capsules::console::Console as kernel::hil::uart::TransmitClient>::transmitted_buffer+0x1ce>
20002e7c:	41cc                	lw	a1,4(a1)
20002e7e:	5db0                	lw	a2,120(a1)
20002e80:	00caa583          	lw	a1,12(s5)
20002e84:	9602                	jalr	a2
20002e86:	4108                	lw	a0,0(a0)
20002e88:	c119                	beqz	a0,20002e8e <<capsules::console::Console as kernel::hil::uart::TransmitClient>::transmitted_buffer+0x1cc>
20002e8a:	8b52                	mv	s6,s4
20002e8c:	8c2a                	mv	s8,a0
20002e8e:	e511                	bnez	a0,20002e9a <<capsules::console::Console as kernel::hil::uart::TransmitClient>::transmitted_buffer+0x1d8>
20002e90:	0a05                	addi	s4,s4,1
20002e92:	04a1                	addi	s1,s1,8
20002e94:	fd2a66e3          	bltu	s4,s2,20002e60 <<capsules::console::Console as kernel::hil::uart::TransmitClient>::transmitted_buffer+0x19e>
20002e98:	a875                	j	20002f54 <<capsules::console::Console as kernel::hil::uart::TransmitClient>::transmitted_buffer+0x292>
20002e9a:	05cc4503          	lbu	a0,92(s8)
20002e9e:	c151                	beqz	a0,20002f22 <<capsules::console::Console as kernel::hil::uart::TransmitClient>::transmitted_buffer+0x260>
20002ea0:	040c0e23          	sb	zero,92(s8)
20002ea4:	856e                	mv	a0,s11
20002ea6:	85d6                	mv	a1,s5
20002ea8:	8666                	mv	a2,s9
20002eaa:	86da                	mv	a3,s6
20002eac:	8762                	mv	a4,s8
20002eae:	fffff097          	auipc	ra,0xfffff
20002eb2:	61a080e7          	jalr	1562(ra) # 200024c8 <capsules::console::Console::send_continue>
20002eb6:	f9044503          	lbu	a0,-112(s0)
20002eba:	07a51663          	bne	a0,s10,20002f26 <<capsules::console::Console as kernel::hil::uart::TransmitClient>::transmitted_buffer+0x264>
20002ebe:	f9842d03          	lw	s10,-104(s0)
20002ec2:	f9442d83          	lw	s11,-108(s0)
20002ec6:	040c0e23          	sb	zero,92(s8)
20002eca:	020c2623          	sw	zero,44(s8)
20002ece:	020c2423          	sw	zero,40(s8)
20002ed2:	000c2483          	lw	s1,0(s8)
20002ed6:	004c0593          	addi	a1,s8,4
20002eda:	854e                	mv	a0,s3
20002edc:	4651                	li	a2,20
20002ede:	00006097          	auipc	ra,0x6
20002ee2:	788080e7          	jalr	1928(ra) # 20009666 <memcpy>
20002ee6:	c88d                	beqz	s1,20002f18 <<capsules::console::Console as kernel::hil::uart::TransmitClient>::transmitted_buffer+0x256>
20002ee8:	856e                	mv	a0,s11
20002eea:	85ea                	mv	a1,s10
20002eec:	00003097          	auipc	ra,0x3
20002ef0:	3ea080e7          	jalr	1002(ra) # 200062d6 <kernel::returncode::<impl core::convert::From<kernel::returncode::ReturnCode> for isize>::from>
20002ef4:	8d2a                	mv	s10,a0
20002ef6:	fa942823          	sw	s1,-80(s0)
20002efa:	855e                	mv	a0,s7
20002efc:	85ce                	mv	a1,s3
20002efe:	4651                	li	a2,20
20002f00:	00006097          	auipc	ra,0x6
20002f04:	766080e7          	jalr	1894(ra) # 20009666 <memcpy>
20002f08:	fb040513          	addi	a0,s0,-80
20002f0c:	85ea                	mv	a1,s10
20002f0e:	4601                	li	a2,0
20002f10:	00003097          	auipc	ra,0x3
20002f14:	1be080e7          	jalr	446(ra) # 200060ce <kernel::callback::Callback::schedule>
20002f18:	4481                	li	s1,0
20002f1a:	4d05                	li	s10,1
20002f1c:	f9040d93          	addi	s11,s0,-112
20002f20:	a039                	j	20002f2e <<capsules::console::Console as kernel::hil::uart::TransmitClient>::transmitted_buffer+0x26c>
20002f22:	4481                	li	s1,0
20002f24:	a029                	j	20002f2e <<capsules::console::Console as kernel::hil::uart::TransmitClient>::transmitted_buffer+0x26c>
20002f26:	f9144503          	lbu	a0,-111(s0)
20002f2a:	00a034b3          	snez	s1,a0
20002f2e:	008ca603          	lw	a2,8(s9)
20002f32:	01666f63          	bltu	a2,s6,20002f50 <<capsules::console::Console as kernel::hil::uart::TransmitClient>::transmitted_buffer+0x28e>
20002f36:	04cb7b63          	bgeu	s6,a2,20002f8c <<capsules::console::Console as kernel::hil::uart::TransmitClient>::transmitted_buffer+0x2ca>
20002f3a:	003b1513          	slli	a0,s6,0x3
20002f3e:	004ca583          	lw	a1,4(s9)
20002f42:	95aa                	add	a1,a1,a0
20002f44:	4188                	lw	a0,0(a1)
20002f46:	c509                	beqz	a0,20002f50 <<capsules::console::Console as kernel::hil::uart::TransmitClient>::transmitted_buffer+0x28e>
20002f48:	41cc                	lw	a1,4(a1)
20002f4a:	59f0                	lw	a2,116(a1)
20002f4c:	85e2                	mv	a1,s8
20002f4e:	9602                	jalr	a2
20002f50:	0a05                	addi	s4,s4,1
20002f52:	d099                	beqz	s1,20002e58 <<capsules::console::Console as kernel::hil::uart::TransmitClient>::transmitted_buffer+0x196>
20002f54:	4db6                	lw	s11,76(sp)
20002f56:	4d46                	lw	s10,80(sp)
20002f58:	4cd6                	lw	s9,84(sp)
20002f5a:	4c66                	lw	s8,88(sp)
20002f5c:	4bf6                	lw	s7,92(sp)
20002f5e:	5b06                	lw	s6,96(sp)
20002f60:	5a96                	lw	s5,100(sp)
20002f62:	5a26                	lw	s4,104(sp)
20002f64:	59b6                	lw	s3,108(sp)
20002f66:	5946                	lw	s2,112(sp)
20002f68:	54d6                	lw	s1,116(sp)
20002f6a:	5466                	lw	s0,120(sp)
20002f6c:	50f6                	lw	ra,124(sp)
20002f6e:	6109                	addi	sp,sp,128
20002f70:	8082                	ret
20002f72:	10002537          	lui	a0,0x10002
20002f76:	a1c50513          	addi	a0,a0,-1508 # 10001a1c <.L__unnamed_41>
20002f7a:	85d2                	mv	a1,s4
20002f7c:	00001097          	auipc	ra,0x1
20002f80:	aca080e7          	jalr	-1334(ra) # 20003a46 <core::panicking::panic_bounds_check>
20002f84:	00009097          	auipc	ra,0x9
20002f88:	1a8080e7          	jalr	424(ra) # 2000c12c <abort>
20002f8c:	10002537          	lui	a0,0x10002
20002f90:	a1c50513          	addi	a0,a0,-1508 # 10001a1c <.L__unnamed_41>
20002f94:	85da                	mv	a1,s6
20002f96:	b7dd                	j	20002f7c <<capsules::console::Console as kernel::hil::uart::TransmitClient>::transmitted_buffer+0x2ba>
20002f98:	10002537          	lui	a0,0x10002
20002f9c:	a1c50513          	addi	a0,a0,-1508 # 10001a1c <.L__unnamed_41>
20002fa0:	85ce                	mv	a1,s3
20002fa2:	bfe9                	j	20002f7c <<capsules::console::Console as kernel::hil::uart::TransmitClient>::transmitted_buffer+0x2ba>

20002fa4 <<capsules::console::Console as kernel::hil::uart::ReceiveClient>::received_buffer>:
20002fa4:	7175                	addi	sp,sp,-144
20002fa6:	c706                	sw	ra,140(sp)
20002fa8:	c522                	sw	s0,136(sp)
20002faa:	c326                	sw	s1,132(sp)
20002fac:	c14a                	sw	s2,128(sp)
20002fae:	dece                	sw	s3,124(sp)
20002fb0:	dcd2                	sw	s4,120(sp)
20002fb2:	dad6                	sw	s5,116(sp)
20002fb4:	0900                	addi	s0,sp,144
20002fb6:	84aa                	mv	s1,a0
20002fb8:	f6c42e23          	sw	a2,-132(s0)
20002fbc:	f6b42c23          	sw	a1,-136(s0)
20002fc0:	f8d42223          	sw	a3,-124(s0)
20002fc4:	f8f42623          	sw	a5,-116(s0)
20002fc8:	f8e42423          	sw	a4,-120(s0)
20002fcc:	f90409a3          	sb	a6,-109(s0)
20002fd0:	5108                	lw	a0,32(a0)
20002fd2:	0204a023          	sw	zero,32(s1)
20002fd6:	18050163          	beqz	a0,20003158 <<capsules::console::Console as kernel::hil::uart::ReceiveClient>::received_buffer+0x1b4>
20002fda:	50cc                	lw	a1,36(s1)
20002fdc:	4510                	lw	a2,8(a0)
20002fde:	16b66963          	bltu	a2,a1,20003150 <<capsules::console::Console as kernel::hil::uart::ReceiveClient>::received_buffer+0x1ac>
20002fe2:	18c5f663          	bgeu	a1,a2,2000316e <<capsules::console::Console as kernel::hil::uart::ReceiveClient>::received_buffer+0x1ca>
20002fe6:	058e                	slli	a1,a1,0x3
20002fe8:	4148                	lw	a0,4(a0)
20002fea:	952e                	add	a0,a0,a1
20002fec:	00052a03          	lw	s4,0(a0)
20002ff0:	160a0063          	beqz	s4,20003150 <<capsules::console::Console as kernel::hil::uart::ReceiveClient>::received_buffer+0x1ac>
20002ff4:	00452a83          	lw	s5,4(a0)
20002ff8:	078aa603          	lw	a2,120(s5)
20002ffc:	44cc                	lw	a1,12(s1)
20002ffe:	8552                	mv	a0,s4
20003000:	9602                	jalr	a2
20003002:	00052903          	lw	s2,0(a0)
20003006:	02091f63          	bnez	s2,20003044 <<capsules::console::Console as kernel::hil::uart::ReceiveClient>::received_buffer+0xa0>
2000300a:	89aa                	mv	s3,a0
2000300c:	070aa683          	lw	a3,112(s5)
20003010:	8552                	mv	a0,s4
20003012:	06000593          	li	a1,96
20003016:	4611                	li	a2,4
20003018:	9682                	jalr	a3
2000301a:	12050b63          	beqz	a0,20003150 <<capsules::console::Console as kernel::hil::uart::ReceiveClient>::received_buffer+0x1ac>
2000301e:	892a                	mv	s2,a0
20003020:	04050e23          	sb	zero,92(a0)
20003024:	04052c23          	sw	zero,88(a0)
20003028:	04052423          	sw	zero,72(a0)
2000302c:	02052823          	sw	zero,48(a0)
20003030:	02052623          	sw	zero,44(a0)
20003034:	02052423          	sw	zero,40(a0)
20003038:	00052c23          	sw	zero,24(a0)
2000303c:	00052023          	sw	zero,0(a0)
20003040:	00a9a023          	sw	a0,0(s3)
20003044:	03092983          	lw	s3,48(s2)
20003048:	03490593          	addi	a1,s2,52
2000304c:	f9440513          	addi	a0,s0,-108
20003050:	4651                	li	a2,20
20003052:	00006097          	auipc	ra,0x6
20003056:	614080e7          	jalr	1556(ra) # 20009666 <memcpy>
2000305a:	0e098b63          	beqz	s3,20003150 <<capsules::console::Console as kernel::hil::uart::ReceiveClient>::received_buffer+0x1ac>
2000305e:	fb342423          	sw	s3,-88(s0)
20003062:	fac40513          	addi	a0,s0,-84
20003066:	f9440593          	addi	a1,s0,-108
2000306a:	4651                	li	a2,20
2000306c:	00006097          	auipc	ra,0x6
20003070:	5fa080e7          	jalr	1530(ra) # 20009666 <memcpy>
20003074:	f8442503          	lw	a0,-124(s0)
20003078:	f7c42583          	lw	a1,-132(s0)
2000307c:	f7842603          	lw	a2,-136(s0)
20003080:	f9344683          	lbu	a3,-109(s0)
20003084:	c681                	beqz	a3,2000308c <<capsules::console::Console as kernel::hil::uart::ReceiveClient>::received_buffer+0xe8>
20003086:	4719                	li	a4,6
20003088:	08e69d63          	bne	a3,a4,20003122 <<capsules::console::Console as kernel::hil::uart::ReceiveClient>::received_buffer+0x17e>
2000308c:	04892683          	lw	a3,72(s2)
20003090:	04092423          	sw	zero,72(s2)
20003094:	fcd42023          	sw	a3,-64(s0)
20003098:	04c92703          	lw	a4,76(s2)
2000309c:	fce42223          	sw	a4,-60(s0)
200030a0:	05092703          	lw	a4,80(s2)
200030a4:	fce42423          	sw	a4,-56(s0)
200030a8:	05492703          	lw	a4,84(s2)
200030ac:	fce42623          	sw	a4,-52(s0)
200030b0:	c2d1                	beqz	a3,20003134 <<capsules::console::Console as kernel::hil::uart::ReceiveClient>::received_buffer+0x190>
200030b2:	fc842683          	lw	a3,-56(s0)
200030b6:	fcd42c23          	sw	a3,-40(s0)
200030ba:	fc442683          	lw	a3,-60(s0)
200030be:	fcd42a23          	sw	a3,-44(s0)
200030c2:	fc042683          	lw	a3,-64(s0)
200030c6:	fcd42823          	sw	a3,-48(s0)
200030ca:	fcc42703          	lw	a4,-52(s0)
200030ce:	fce42e23          	sw	a4,-36(s0)
200030d2:	cf09                	beqz	a4,200030ec <<capsules::console::Console as kernel::hil::uart::ReceiveClient>::received_buffer+0x148>
200030d4:	cd81                	beqz	a1,200030ec <<capsules::console::Console as kernel::hil::uart::ReceiveClient>::received_buffer+0x148>
200030d6:	c919                	beqz	a0,200030ec <<capsules::console::Console as kernel::hil::uart::ReceiveClient>::received_buffer+0x148>
200030d8:	00060783          	lb	a5,0(a2)
200030dc:	00f68023          	sb	a5,0(a3)
200030e0:	177d                	addi	a4,a4,-1
200030e2:	15fd                	addi	a1,a1,-1
200030e4:	0605                	addi	a2,a2,1
200030e6:	157d                	addi	a0,a0,-1
200030e8:	0685                	addi	a3,a3,1
200030ea:	f76d                	bnez	a4,200030d4 <<capsules::console::Console as kernel::hil::uart::ReceiveClient>::received_buffer+0x130>
200030ec:	f8c42583          	lw	a1,-116(s0)
200030f0:	f8842503          	lw	a0,-120(s0)
200030f4:	00003097          	auipc	ra,0x3
200030f8:	1e2080e7          	jalr	482(ra) # 200062d6 <kernel::returncode::<impl core::convert::From<kernel::returncode::ReturnCode> for isize>::from>
200030fc:	85aa                	mv	a1,a0
200030fe:	f8442603          	lw	a2,-124(s0)
20003102:	fa840513          	addi	a0,s0,-88
20003106:	00003097          	auipc	ra,0x3
2000310a:	fc8080e7          	jalr	-56(ra) # 200060ce <kernel::callback::Callback::schedule>
2000310e:	fd040513          	addi	a0,s0,-48
20003112:	00003097          	auipc	ra,0x3
20003116:	040080e7          	jalr	64(ra) # 20006152 <<kernel::mem::AppPtr<L,T> as core::ops::drop::Drop>::drop>
2000311a:	fc042503          	lw	a0,-64(s0)
2000311e:	e90d                	bnez	a0,20003150 <<capsules::console::Console as kernel::hil::uart::ReceiveClient>::received_buffer+0x1ac>
20003120:	a015                	j	20003144 <<capsules::console::Console as kernel::hil::uart::ReceiveClient>::received_buffer+0x1a0>
20003122:	fa840513          	addi	a0,s0,-88
20003126:	55fd                	li	a1,-1
20003128:	4601                	li	a2,0
2000312a:	00003097          	auipc	ra,0x3
2000312e:	fa4080e7          	jalr	-92(ra) # 200060ce <kernel::callback::Callback::schedule>
20003132:	a839                	j	20003150 <<capsules::console::Console as kernel::hil::uart::ReceiveClient>::received_buffer+0x1ac>
20003134:	fa840513          	addi	a0,s0,-88
20003138:	55e9                	li	a1,-6
2000313a:	4601                	li	a2,0
2000313c:	00003097          	auipc	ra,0x3
20003140:	f92080e7          	jalr	-110(ra) # 200060ce <kernel::callback::Callback::schedule>
20003144:	fc040513          	addi	a0,s0,-64
20003148:	fffff097          	auipc	ra,0xfffff
2000314c:	1e0080e7          	jalr	480(ra) # 20002328 <_ZN4core3ptr18real_drop_in_place17h3fc38f9cc98eca45E.49>
20003150:	f7c42603          	lw	a2,-132(s0)
20003154:	f7842583          	lw	a1,-136(s0)
20003158:	d4d0                	sw	a2,44(s1)
2000315a:	d48c                	sw	a1,40(s1)
2000315c:	5ad6                	lw	s5,116(sp)
2000315e:	5a66                	lw	s4,120(sp)
20003160:	59f6                	lw	s3,124(sp)
20003162:	490a                	lw	s2,128(sp)
20003164:	449a                	lw	s1,132(sp)
20003166:	442a                	lw	s0,136(sp)
20003168:	40ba                	lw	ra,140(sp)
2000316a:	6149                	addi	sp,sp,144
2000316c:	8082                	ret
2000316e:	10002537          	lui	a0,0x10002
20003172:	a1c50513          	addi	a0,a0,-1508 # 10001a1c <.L__unnamed_41>
20003176:	00001097          	auipc	ra,0x1
2000317a:	8d0080e7          	jalr	-1840(ra) # 20003a46 <core::panicking::panic_bounds_check>
2000317e:	00009097          	auipc	ra,0x9
20003182:	fae080e7          	jalr	-82(ra) # 2000c12c <abort>

20003186 <<capsules::virtual_uart::MuxUart as kernel::hil::uart::TransmitClient>::transmitted_buffer>:
20003186:	1141                	addi	sp,sp,-16
20003188:	c606                	sw	ra,12(sp)
2000318a:	c422                	sw	s0,8(sp)
2000318c:	c226                	sw	s1,4(sp)
2000318e:	c04a                	sw	s2,0(sp)
20003190:	0800                	addi	s0,sp,16
20003192:	892a                	mv	s2,a0
20003194:	4904                	lw	s1,16(a0)
20003196:	cc81                	beqz	s1,200031ae <<capsules::virtual_uart::MuxUart as kernel::hil::uart::TransmitClient>::transmitted_buffer+0x28>
20003198:	00092823          	sw	zero,16(s2)
2000319c:	5888                	lw	a0,48(s1)
2000319e:	c901                	beqz	a0,200031ae <<capsules::virtual_uart::MuxUart as kernel::hil::uart::TransmitClient>::transmitted_buffer+0x28>
200031a0:	0344a803          	lw	a6,52(s1)
200031a4:	02048d23          	sb	zero,58(s1)
200031a8:	01082483          	lw	s1,16(a6)
200031ac:	9482                	jalr	s1
200031ae:	854a                	mv	a0,s2
200031b0:	4902                	lw	s2,0(sp)
200031b2:	4492                	lw	s1,4(sp)
200031b4:	4422                	lw	s0,8(sp)
200031b6:	40b2                	lw	ra,12(sp)
200031b8:	0141                	addi	sp,sp,16
200031ba:	00000317          	auipc	t1,0x0
200031be:	00830067          	jr	8(t1) # 200031c2 <capsules::virtual_uart::MuxUart::do_next_op>

200031c2 <capsules::virtual_uart::MuxUart::do_next_op>:
200031c2:	7179                	addi	sp,sp,-48
200031c4:	d606                	sw	ra,44(sp)
200031c6:	d422                	sw	s0,40(sp)
200031c8:	d226                	sw	s1,36(sp)
200031ca:	d04a                	sw	s2,32(sp)
200031cc:	ce4e                	sw	s3,28(sp)
200031ce:	1800                	addi	s0,sp,48
200031d0:	892a                	mv	s2,a0
200031d2:	4908                	lw	a0,16(a0)
200031d4:	e15d                	bnez	a0,2000327a <capsules::virtual_uart::MuxUart::do_next_op+0xb8>
200031d6:	00c90613          	addi	a2,s2,12
200031da:	4509                	li	a0,2
200031dc:	4204                	lw	s1,0(a2)
200031de:	ccd1                	beqz	s1,2000327a <capsules::virtual_uart::MuxUart::do_next_op+0xb8>
200031e0:	02448613          	addi	a2,s1,36
200031e4:	4ccc                	lw	a1,28(s1)
200031e6:	fea58be3          	beq	a1,a0,200031dc <capsules::virtual_uart::MuxUart::do_next_op+0x1a>
200031ea:	40d0                	lw	a2,4(s1)
200031ec:	0004a223          	sw	zero,4(s1)
200031f0:	ce3d                	beqz	a2,2000326e <capsules::virtual_uart::MuxUart::do_next_op+0xac>
200031f2:	5098                	lw	a4,32(s1)
200031f4:	4985                	li	s3,1
200031f6:	03359b63          	bne	a1,s3,2000322c <capsules::virtual_uart::MuxUart::do_next_op+0x6a>
200031fa:	00092503          	lw	a0,0(s2)
200031fe:	00492583          	lw	a1,4(s2)
20003202:	51d0                	lw	a2,36(a1)
20003204:	85ba                	mv	a1,a4
20003206:	9602                	jalr	a2
20003208:	fcb42e23          	sw	a1,-36(s0)
2000320c:	fca42c23          	sw	a0,-40(s0)
20003210:	05350f63          	beq	a0,s3,2000326e <capsules::virtual_uart::MuxUart::do_next_op+0xac>
20003214:	862a                	mv	a2,a0
20003216:	5888                	lw	a0,48(s1)
20003218:	c939                	beqz	a0,2000326e <capsules::virtual_uart::MuxUart::do_next_op+0xac>
2000321a:	86ae                	mv	a3,a1
2000321c:	58cc                	lw	a1,52(s1)
2000321e:	02048d23          	sb	zero,58(s1)
20003222:	45d8                	lw	a4,12(a1)
20003224:	85b2                	mv	a1,a2
20003226:	8636                	mv	a2,a3
20003228:	9702                	jalr	a4
2000322a:	a091                	j	2000326e <capsules::virtual_uart::MuxUart::do_next_op+0xac>
2000322c:	4494                	lw	a3,8(s1)
2000322e:	00092583          	lw	a1,0(s2)
20003232:	00492503          	lw	a0,4(s2)
20003236:	511c                	lw	a5,32(a0)
20003238:	fd840513          	addi	a0,s0,-40
2000323c:	9782                	jalr	a5
2000323e:	fe442603          	lw	a2,-28(s0)
20003242:	fe042583          	lw	a1,-32(s0)
20003246:	fdc42783          	lw	a5,-36(s0)
2000324a:	fcf42a23          	sw	a5,-44(s0)
2000324e:	fd842703          	lw	a4,-40(s0)
20003252:	fce42823          	sw	a4,-48(s0)
20003256:	01370c63          	beq	a4,s3,2000326e <capsules::virtual_uart::MuxUart::do_next_op+0xac>
2000325a:	5888                	lw	a0,48(s1)
2000325c:	c909                	beqz	a0,2000326e <capsules::virtual_uart::MuxUart::do_next_op+0xac>
2000325e:	58d4                	lw	a3,52(s1)
20003260:	02048d23          	sb	zero,58(s1)
20003264:	c195                	beqz	a1,20003288 <capsules::virtual_uart::MuxUart::do_next_op+0xc6>
20003266:	0106a803          	lw	a6,16(a3)
2000326a:	4681                	li	a3,0
2000326c:	9802                	jalr	a6
2000326e:	0204a023          	sw	zero,32(s1)
20003272:	4509                	li	a0,2
20003274:	ccc8                	sw	a0,28(s1)
20003276:	00992823          	sw	s1,16(s2)
2000327a:	49f2                	lw	s3,28(sp)
2000327c:	5902                	lw	s2,32(sp)
2000327e:	5492                	lw	s1,36(sp)
20003280:	5422                	lw	s0,40(sp)
20003282:	50b2                	lw	ra,44(sp)
20003284:	6145                	addi	sp,sp,48
20003286:	8082                	ret
20003288:	2000b537          	lui	a0,0x2000b
2000328c:	dec50513          	addi	a0,a0,-532 # 2000adec <.Lanon.2c6bb00a6eab53dbfca994608b168c3b.159>
20003290:	100015b7          	lui	a1,0x10001
20003294:	20858613          	addi	a2,a1,520 # 10001208 <.Lanon.f5e9d1b6b06a2b6d0d956a9fb25ba6d3.17>
20003298:	02b00593          	li	a1,43
2000329c:	00000097          	auipc	ra,0x0
200032a0:	762080e7          	jalr	1890(ra) # 200039fe <core::panicking::panic>
200032a4:	00009097          	auipc	ra,0x9
200032a8:	e88080e7          	jalr	-376(ra) # 2000c12c <abort>

200032ac <<capsules::virtual_uart::MuxUart as kernel::hil::uart::ReceiveClient>::received_buffer>:
200032ac:	7179                	addi	sp,sp,-48
200032ae:	d606                	sw	ra,44(sp)
200032b0:	d422                	sw	s0,40(sp)
200032b2:	d226                	sw	s1,36(sp)
200032b4:	d04a                	sw	s2,32(sp)
200032b6:	ce4e                	sw	s3,28(sp)
200032b8:	cc52                	sw	s4,24(sp)
200032ba:	ca56                	sw	s5,20(sp)
200032bc:	c85a                	sw	s6,16(sp)
200032be:	c65e                	sw	s7,12(sp)
200032c0:	c462                	sw	s8,8(sp)
200032c2:	c266                	sw	s9,4(sp)
200032c4:	1800                	addi	s0,sp,48
200032c6:	8942                	mv	s2,a6
200032c8:	89be                	mv	s3,a5
200032ca:	8a3a                	mv	s4,a4
200032cc:	8b2a                	mv	s6,a0
200032ce:	4805                	li	a6,1
200032d0:	03050423          	sb	a6,40(a0)
200032d4:	00c52883          	lw	a7,12(a0)
200032d8:	08088163          	beqz	a7,2000335a <<capsules::virtual_uart::MuxUart as kernel::hil::uart::ReceiveClient>::received_buffer+0xae>
200032dc:	8546                	mv	a0,a7
200032de:	0248a883          	lw	a7,36(a7)
200032e2:	03954703          	lbu	a4,57(a0)
200032e6:	db6d                	beqz	a4,200032d8 <<capsules::virtual_uart::MuxUart as kernel::hil::uart::ReceiveClient>::received_buffer+0x2c>
200032e8:	00c52283          	lw	t0,12(a0)
200032ec:	00052623          	sw	zero,12(a0)
200032f0:	fe0284e3          	beqz	t0,200032d8 <<capsules::virtual_uart::MuxUart as kernel::hil::uart::ReceiveClient>::received_buffer+0x2c>
200032f4:	01052303          	lw	t1,16(a0)
200032f8:	01452383          	lw	t2,20(a0)
200032fc:	4d18                	lw	a4,24(a0)
200032fe:	40770eb3          	sub	t4,a4,t2
20003302:	00dee363          	bltu	t4,a3,20003308 <<capsules::virtual_uart::MuxUart as kernel::hil::uart::ReceiveClient>::received_buffer+0x5c>
20003306:	8eb6                	mv	t4,a3
20003308:	03850703          	lb	a4,56(a0)
2000330c:	177d                	addi	a4,a4,-1
2000330e:	0ff77713          	andi	a4,a4,255
20003312:	02e86b63          	bltu	a6,a4,20003348 <<capsules::virtual_uart::MuxUart as kernel::hil::uart::ReceiveClient>::received_buffer+0x9c>
20003316:	00728e33          	add	t3,t0,t2
2000331a:	4781                	li	a5,0
2000331c:	03d7f663          	bgeu	a5,t4,20003348 <<capsules::virtual_uart::MuxUart as kernel::hil::uart::ReceiveClient>::received_buffer+0x9c>
20003320:	00178713          	addi	a4,a5,1
20003324:	02f76263          	bltu	a4,a5,20003348 <<capsules::virtual_uart::MuxUart as kernel::hil::uart::ReceiveClient>::received_buffer+0x9c>
20003328:	0ec7f263          	bgeu	a5,a2,2000340c <<capsules::virtual_uart::MuxUart as kernel::hil::uart::ReceiveClient>::received_buffer+0x160>
2000332c:	00f384b3          	add	s1,t2,a5
20003330:	0e64f463          	bgeu	s1,t1,20003418 <<capsules::virtual_uart::MuxUart as kernel::hil::uart::ReceiveClient>::received_buffer+0x16c>
20003334:	00fe04b3          	add	s1,t3,a5
20003338:	97ae                	add	a5,a5,a1
2000333a:	00078783          	lb	a5,0(a5)
2000333e:	00f48023          	sb	a5,0(s1)
20003342:	87ba                	mv	a5,a4
20003344:	fdd7eee3          	bltu	a5,t4,20003320 <<capsules::virtual_uart::MuxUart as kernel::hil::uart::ReceiveClient>::received_buffer+0x74>
20003348:	00652823          	sw	t1,16(a0)
2000334c:	00552623          	sw	t0,12(a0)
20003350:	007e8733          	add	a4,t4,t2
20003354:	c958                	sw	a4,20(a0)
20003356:	f80893e3          	bnez	a7,200032dc <<capsules::virtual_uart::MuxUart as kernel::hil::uart::ReceiveClient>::received_buffer+0x30>
2000335a:	00cb2c23          	sw	a2,24(s6)
2000335e:	00bb2a23          	sw	a1,20(s6)
20003362:	04000a93          	li	s5,64
20003366:	00cb2c03          	lw	s8,12(s6)
2000336a:	4b89                	li	s7,2
2000336c:	4c81                	li	s9,0
2000336e:	060c0763          	beqz	s8,200033dc <<capsules::virtual_uart::MuxUart as kernel::hil::uart::ReceiveClient>::received_buffer+0x130>
20003372:	84e2                	mv	s1,s8
20003374:	024c2c03          	lw	s8,36(s8)
20003378:	0394c503          	lbu	a0,57(s1)
2000337c:	d96d                	beqz	a0,2000336e <<capsules::virtual_uart::MuxUart as kernel::hil::uart::ReceiveClient>::received_buffer+0xc2>
2000337e:	44cc                	lw	a1,12(s1)
20003380:	0004a623          	sw	zero,12(s1)
20003384:	d5ed                	beqz	a1,2000336e <<capsules::virtual_uart::MuxUart as kernel::hil::uart::ReceiveClient>::received_buffer+0xc2>
20003386:	4890                	lw	a2,16(s1)
20003388:	48d4                	lw	a3,20(s1)
2000338a:	4c88                	lw	a0,24(s1)
2000338c:	8d15                	sub	a0,a0,a3
2000338e:	c919                	beqz	a0,200033a4 <<capsules::virtual_uart::MuxUart as kernel::hil::uart::ReceiveClient>::received_buffer+0xf8>
20003390:	0384c703          	lbu	a4,56(s1)
20003394:	03771c63          	bne	a4,s7,200033cc <<capsules::virtual_uart::MuxUart as kernel::hil::uart::ReceiveClient>::received_buffer+0x120>
20003398:	02048c23          	sb	zero,56(s1)
2000339c:	8526                	mv	a0,s1
2000339e:	4725                	li	a4,9
200033a0:	4819                	li	a6,6
200033a2:	a039                	j	200033b0 <<capsules::virtual_uart::MuxUart as kernel::hil::uart::ReceiveClient>::received_buffer+0x104>
200033a4:	02048c23          	sb	zero,56(s1)
200033a8:	8526                	mv	a0,s1
200033aa:	8752                	mv	a4,s4
200033ac:	87ce                	mv	a5,s3
200033ae:	884a                	mv	a6,s2
200033b0:	00000097          	auipc	ra,0x0
200033b4:	084080e7          	jalr	132(ra) # 20003434 <<capsules::virtual_uart::UartDevice as kernel::hil::uart::ReceiveClient>::received_buffer>
200033b8:	0384c583          	lbu	a1,56(s1)
200033bc:	4505                	li	a0,1
200033be:	00a58363          	beq	a1,a0,200033c4 <<capsules::virtual_uart::MuxUart as kernel::hil::uart::ReceiveClient>::received_buffer+0x118>
200033c2:	8566                	mv	a0,s9
200033c4:	8caa                	mv	s9,a0
200033c6:	fa0c16e3          	bnez	s8,20003372 <<capsules::virtual_uart::MuxUart as kernel::hil::uart::ReceiveClient>::received_buffer+0xc6>
200033ca:	a809                	j	200033dc <<capsules::virtual_uart::MuxUart as kernel::hil::uart::ReceiveClient>::received_buffer+0x130>
200033cc:	c4cc                	sw	a1,12(s1)
200033ce:	01556363          	bltu	a0,s5,200033d4 <<capsules::virtual_uart::MuxUart as kernel::hil::uart::ReceiveClient>::received_buffer+0x128>
200033d2:	8556                	mv	a0,s5
200033d4:	4c85                	li	s9,1
200033d6:	8aaa                	mv	s5,a0
200033d8:	f80c1de3          	bnez	s8,20003372 <<capsules::virtual_uart::MuxUart as kernel::hil::uart::ReceiveClient>::received_buffer+0xc6>
200033dc:	020b0423          	sb	zero,40(s6)
200033e0:	0ffcf513          	andi	a0,s9,255
200033e4:	c519                	beqz	a0,200033f2 <<capsules::virtual_uart::MuxUart as kernel::hil::uart::ReceiveClient>::received_buffer+0x146>
200033e6:	855a                	mv	a0,s6
200033e8:	85d6                	mv	a1,s5
200033ea:	00000097          	auipc	ra,0x0
200033ee:	06e080e7          	jalr	110(ra) # 20003458 <_ZN8capsules12virtual_uart7MuxUart13start_receive17h2c8f4ae0c5df3d67E.llvm.6618883037663697866>
200033f2:	4c92                	lw	s9,4(sp)
200033f4:	4c22                	lw	s8,8(sp)
200033f6:	4bb2                	lw	s7,12(sp)
200033f8:	4b42                	lw	s6,16(sp)
200033fa:	4ad2                	lw	s5,20(sp)
200033fc:	4a62                	lw	s4,24(sp)
200033fe:	49f2                	lw	s3,28(sp)
20003400:	5902                	lw	s2,32(sp)
20003402:	5492                	lw	s1,36(sp)
20003404:	5422                	lw	s0,40(sp)
20003406:	50b2                	lw	ra,44(sp)
20003408:	6145                	addi	sp,sp,48
2000340a:	8082                	ret
2000340c:	10001537          	lui	a0,0x10001
20003410:	21850513          	addi	a0,a0,536 # 10001218 <.Lanon.f5e9d1b6b06a2b6d0d956a9fb25ba6d3.15>
20003414:	85be                	mv	a1,a5
20003416:	a039                	j	20003424 <<capsules::virtual_uart::MuxUart as kernel::hil::uart::ReceiveClient>::received_buffer+0x178>
20003418:	10001537          	lui	a0,0x10001
2000341c:	22850513          	addi	a0,a0,552 # 10001228 <.Lanon.f5e9d1b6b06a2b6d0d956a9fb25ba6d3.16>
20003420:	85a6                	mv	a1,s1
20003422:	861a                	mv	a2,t1
20003424:	00000097          	auipc	ra,0x0
20003428:	622080e7          	jalr	1570(ra) # 20003a46 <core::panicking::panic_bounds_check>
2000342c:	00009097          	auipc	ra,0x9
20003430:	d00080e7          	jalr	-768(ra) # 2000c12c <abort>

20003434 <<capsules::virtual_uart::UartDevice as kernel::hil::uart::ReceiveClient>::received_buffer>:
20003434:	1141                	addi	sp,sp,-16
20003436:	c606                	sw	ra,12(sp)
20003438:	c422                	sw	s0,8(sp)
2000343a:	0800                	addi	s0,sp,16
2000343c:	88aa                	mv	a7,a0
2000343e:	5508                	lw	a0,40(a0)
20003440:	c901                	beqz	a0,20003450 <<capsules::virtual_uart::UartDevice as kernel::hil::uart::ReceiveClient>::received_buffer+0x1c>
20003442:	02c8a283          	lw	t0,44(a7)
20003446:	02088c23          	sb	zero,56(a7)
2000344a:	0102a883          	lw	a7,16(t0)
2000344e:	9882                	jalr	a7
20003450:	4422                	lw	s0,8(sp)
20003452:	40b2                	lw	ra,12(sp)
20003454:	0141                	addi	sp,sp,16
20003456:	8082                	ret

20003458 <_ZN8capsules12virtual_uart7MuxUart13start_receive17h2c8f4ae0c5df3d67E.llvm.6618883037663697866>:
20003458:	1101                	addi	sp,sp,-32
2000345a:	ce06                	sw	ra,28(sp)
2000345c:	cc22                	sw	s0,24(sp)
2000345e:	1000                	addi	s0,sp,32
20003460:	4950                	lw	a2,20(a0)
20003462:	00052a23          	sw	zero,20(a0)
20003466:	ce09                	beqz	a2,20003480 <_ZN8capsules12virtual_uart7MuxUart13start_receive17h2c8f4ae0c5df3d67E.llvm.6618883037663697866+0x28>
20003468:	4d14                	lw	a3,24(a0)
2000346a:	8736                	mv	a4,a3
2000346c:	00b6e363          	bltu	a3,a1,20003472 <_ZN8capsules12virtual_uart7MuxUart13start_receive17h2c8f4ae0c5df3d67E.llvm.6618883037663697866+0x1a>
20003470:	872e                	mv	a4,a1
20003472:	410c                	lw	a1,0(a0)
20003474:	4148                	lw	a0,4(a0)
20003476:	491c                	lw	a5,16(a0)
20003478:	fe840513          	addi	a0,s0,-24
2000347c:	9782                	jalr	a5
2000347e:	a809                	j	20003490 <_ZN8capsules12virtual_uart7MuxUart13start_receive17h2c8f4ae0c5df3d67E.llvm.6618883037663697866+0x38>
20003480:	02854583          	lbu	a1,40(a0)
20003484:	e591                	bnez	a1,20003490 <_ZN8capsules12virtual_uart7MuxUart13start_receive17h2c8f4ae0c5df3d67E.llvm.6618883037663697866+0x38>
20003486:	410c                	lw	a1,0(a0)
20003488:	4148                	lw	a0,4(a0)
2000348a:	4d10                	lw	a2,24(a0)
2000348c:	852e                	mv	a0,a1
2000348e:	9602                	jalr	a2
20003490:	4462                	lw	s0,24(sp)
20003492:	40f2                	lw	ra,28(sp)
20003494:	6105                	addi	sp,sp,32
20003496:	8082                	ret

20003498 <<capsules::virtual_uart::MuxUart as kernel::common::dynamic_deferred_call::DynamicDeferredCallClient>::call>:
20003498:	1141                	addi	sp,sp,-16
2000349a:	c606                	sw	ra,12(sp)
2000349c:	c422                	sw	s0,8(sp)
2000349e:	0800                	addi	s0,sp,16
200034a0:	4422                	lw	s0,8(sp)
200034a2:	40b2                	lw	ra,12(sp)
200034a4:	0141                	addi	sp,sp,16
200034a6:	00000317          	auipc	t1,0x0
200034aa:	d1c30067          	jr	-740(t1) # 200031c2 <capsules::virtual_uart::MuxUart::do_next_op>

200034ae <<capsules::virtual_uart::UartDevice as kernel::hil::uart::Transmit>::set_transmit_client>:
200034ae:	1141                	addi	sp,sp,-16
200034b0:	c606                	sw	ra,12(sp)
200034b2:	c422                	sw	s0,8(sp)
200034b4:	0800                	addi	s0,sp,16
200034b6:	d950                	sw	a2,52(a0)
200034b8:	d90c                	sw	a1,48(a0)
200034ba:	4422                	lw	s0,8(sp)
200034bc:	40b2                	lw	ra,12(sp)
200034be:	0141                	addi	sp,sp,16
200034c0:	8082                	ret

200034c2 <<capsules::virtual_uart::UartDevice as kernel::hil::uart::Transmit>::transmit_abort>:
200034c2:	1141                	addi	sp,sp,-16
200034c4:	c606                	sw	ra,12(sp)
200034c6:	c422                	sw	s0,8(sp)
200034c8:	0800                	addi	s0,sp,16
200034ca:	4509                	li	a0,2
200034cc:	4422                	lw	s0,8(sp)
200034ce:	40b2                	lw	ra,12(sp)
200034d0:	0141                	addi	sp,sp,16
200034d2:	8082                	ret

200034d4 <<capsules::virtual_uart::UartDevice as kernel::hil::uart::Transmit>::transmit_buffer>:
200034d4:	1141                	addi	sp,sp,-16
200034d6:	c606                	sw	ra,12(sp)
200034d8:	c422                	sw	s0,8(sp)
200034da:	c226                	sw	s1,4(sp)
200034dc:	c04a                	sw	s2,0(sp)
200034de:	0800                	addi	s0,sp,16
200034e0:	84aa                	mv	s1,a0
200034e2:	03a5c503          	lbu	a0,58(a1)
200034e6:	c501                	beqz	a0,200034ee <<capsules::virtual_uart::UartDevice as kernel::hil::uart::Transmit>::transmit_buffer+0x1a>
200034e8:	c4d4                	sw	a3,12(s1)
200034ea:	490d                	li	s2,3
200034ec:	a839                	j	2000350a <<capsules::virtual_uart::UartDevice as kernel::hil::uart::Transmit>::transmit_buffer+0x36>
200034ee:	d198                	sw	a4,32(a1)
200034f0:	c594                	sw	a3,8(a1)
200034f2:	c1d0                	sw	a2,4(a1)
200034f4:	0005ae23          	sw	zero,28(a1)
200034f8:	4905                	li	s2,1
200034fa:	03258d23          	sb	s2,58(a1)
200034fe:	4188                	lw	a0,0(a1)
20003500:	00000097          	auipc	ra,0x0
20003504:	01c080e7          	jalr	28(ra) # 2000351c <capsules::virtual_uart::MuxUart::do_next_op_async>
20003508:	4601                	li	a2,0
2000350a:	c490                	sw	a2,8(s1)
2000350c:	0124a023          	sw	s2,0(s1)
20003510:	4902                	lw	s2,0(sp)
20003512:	4492                	lw	s1,4(sp)
20003514:	4422                	lw	s0,8(sp)
20003516:	40b2                	lw	ra,12(sp)
20003518:	0141                	addi	sp,sp,16
2000351a:	8082                	ret

2000351c <capsules::virtual_uart::MuxUart::do_next_op_async>:
2000351c:	1141                	addi	sp,sp,-16
2000351e:	c606                	sw	ra,12(sp)
20003520:	c422                	sw	s0,8(sp)
20003522:	0800                	addi	s0,sp,16
20003524:	510c                	lw	a1,32(a0)
20003526:	c595                	beqz	a1,20003552 <capsules::virtual_uart::MuxUart::do_next_op_async+0x36>
20003528:	514c                	lw	a1,36(a0)
2000352a:	4d48                	lw	a0,28(a0)
2000352c:	4150                	lw	a2,4(a0)
2000352e:	02c5f663          	bgeu	a1,a2,2000355a <capsules::virtual_uart::MuxUart::do_next_op_async+0x3e>
20003532:	4631                	li	a2,12
20003534:	02c585b3          	mul	a1,a1,a2
20003538:	4110                	lw	a2,0(a0)
2000353a:	95b2                	add	a1,a1,a2
2000353c:	4190                	lw	a2,0(a1)
2000353e:	ca11                	beqz	a2,20003552 <capsules::virtual_uart::MuxUart::do_next_op_async+0x36>
20003540:	05a1                	addi	a1,a1,8
20003542:	0005c603          	lbu	a2,0(a1)
20003546:	e611                	bnez	a2,20003552 <capsules::virtual_uart::MuxUart::do_next_op_async+0x36>
20003548:	4605                	li	a2,1
2000354a:	00c58023          	sb	a2,0(a1)
2000354e:	00c50623          	sb	a2,12(a0)
20003552:	4422                	lw	s0,8(sp)
20003554:	40b2                	lw	ra,12(sp)
20003556:	0141                	addi	sp,sp,16
20003558:	8082                	ret
2000355a:	10002537          	lui	a0,0x10002
2000355e:	8f850513          	addi	a0,a0,-1800 # 100018f8 <.Lanon.31284c310bd95d0442671ad38aaf4a3a.1>
20003562:	00000097          	auipc	ra,0x0
20003566:	4e4080e7          	jalr	1252(ra) # 20003a46 <core::panicking::panic_bounds_check>
2000356a:	00009097          	auipc	ra,0x9
2000356e:	bc2080e7          	jalr	-1086(ra) # 2000c12c <abort>

20003572 <<capsules::virtual_uart::UartDevice as kernel::hil::uart::Transmit>::transmit_word>:
20003572:	1141                	addi	sp,sp,-16
20003574:	c606                	sw	ra,12(sp)
20003576:	c422                	sw	s0,8(sp)
20003578:	c226                	sw	s1,4(sp)
2000357a:	0800                	addi	s0,sp,16
2000357c:	448d                	li	s1,3
2000357e:	03a54603          	lbu	a2,58(a0)
20003582:	ea19                	bnez	a2,20003598 <<capsules::virtual_uart::UartDevice as kernel::hil::uart::Transmit>::transmit_word+0x26>
20003584:	d10c                	sw	a1,32(a0)
20003586:	4485                	li	s1,1
20003588:	cd44                	sw	s1,28(a0)
2000358a:	02950d23          	sb	s1,58(a0)
2000358e:	4108                	lw	a0,0(a0)
20003590:	00000097          	auipc	ra,0x0
20003594:	f8c080e7          	jalr	-116(ra) # 2000351c <capsules::virtual_uart::MuxUart::do_next_op_async>
20003598:	8526                	mv	a0,s1
2000359a:	4492                	lw	s1,4(sp)
2000359c:	4422                	lw	s0,8(sp)
2000359e:	40b2                	lw	ra,12(sp)
200035a0:	0141                	addi	sp,sp,16
200035a2:	8082                	ret

200035a4 <<capsules::virtual_uart::UartDevice as kernel::hil::uart::Receive>::set_receive_client>:
200035a4:	1141                	addi	sp,sp,-16
200035a6:	c606                	sw	ra,12(sp)
200035a8:	c422                	sw	s0,8(sp)
200035aa:	0800                	addi	s0,sp,16
200035ac:	d550                	sw	a2,44(a0)
200035ae:	d50c                	sw	a1,40(a0)
200035b0:	4422                	lw	s0,8(sp)
200035b2:	40b2                	lw	ra,12(sp)
200035b4:	0141                	addi	sp,sp,16
200035b6:	8082                	ret

200035b8 <<capsules::virtual_uart::UartDevice as kernel::hil::uart::Receive>::receive_buffer>:
200035b8:	1101                	addi	sp,sp,-32
200035ba:	ce06                	sw	ra,28(sp)
200035bc:	cc22                	sw	s0,24(sp)
200035be:	ca26                	sw	s1,20(sp)
200035c0:	c84a                	sw	s2,16(sp)
200035c2:	c64e                	sw	s3,12(sp)
200035c4:	c452                	sw	s4,8(sp)
200035c6:	c256                	sw	s5,4(sp)
200035c8:	1000                	addi	s0,sp,32
200035ca:	8a3a                	mv	s4,a4
200035cc:	8ab6                	mv	s5,a3
200035ce:	89b2                	mv	s3,a2
200035d0:	84ae                	mv	s1,a1
200035d2:	892a                	mv	s2,a0
200035d4:	00c58513          	addi	a0,a1,12
200035d8:	fffff097          	auipc	ra,0xfffff
200035dc:	ca0080e7          	jalr	-864(ra) # 20002278 <tock_cells::take_cell::TakeCell<T>::is_none>
200035e0:	c515                	beqz	a0,2000360c <<capsules::virtual_uart::UartDevice as kernel::hil::uart::Receive>::receive_buffer+0x54>
200035e2:	0154a823          	sw	s5,16(s1)
200035e6:	0134a623          	sw	s3,12(s1)
200035ea:	0144ac23          	sw	s4,24(s1)
200035ee:	02048c23          	sb	zero,56(s1)
200035f2:	0004aa23          	sw	zero,20(s1)
200035f6:	4088                	lw	a0,0(s1)
200035f8:	85d2                	mv	a1,s4
200035fa:	00000097          	auipc	ra,0x0
200035fe:	e5e080e7          	jalr	-418(ra) # 20003458 <_ZN8capsules12virtual_uart7MuxUart13start_receive17h2c8f4ae0c5df3d67E.llvm.6618883037663697866>
20003602:	4505                	li	a0,1
20003604:	02a48c23          	sb	a0,56(s1)
20003608:	4981                	li	s3,0
2000360a:	a021                	j	20003612 <<capsules::virtual_uart::UartDevice as kernel::hil::uart::Receive>::receive_buffer+0x5a>
2000360c:	01592623          	sw	s5,12(s2)
20003610:	450d                	li	a0,3
20003612:	01392423          	sw	s3,8(s2)
20003616:	00a92023          	sw	a0,0(s2)
2000361a:	4a92                	lw	s5,4(sp)
2000361c:	4a22                	lw	s4,8(sp)
2000361e:	49b2                	lw	s3,12(sp)
20003620:	4942                	lw	s2,16(sp)
20003622:	44d2                	lw	s1,20(sp)
20003624:	4462                	lw	s0,24(sp)
20003626:	40f2                	lw	ra,28(sp)
20003628:	6105                	addi	sp,sp,32
2000362a:	8082                	ret

2000362c <<capsules::virtual_uart::UartDevice as kernel::hil::uart::Receive>::receive_abort>:
2000362c:	1141                	addi	sp,sp,-16
2000362e:	c606                	sw	ra,12(sp)
20003630:	c422                	sw	s0,8(sp)
20003632:	0800                	addi	s0,sp,16
20003634:	4589                	li	a1,2
20003636:	02b50c23          	sb	a1,56(a0)
2000363a:	410c                	lw	a1,0(a0)
2000363c:	4188                	lw	a0,0(a1)
2000363e:	41cc                	lw	a1,4(a1)
20003640:	4d8c                	lw	a1,24(a1)
20003642:	9582                	jalr	a1
20003644:	450d                	li	a0,3
20003646:	4422                	lw	s0,8(sp)
20003648:	40b2                	lw	ra,12(sp)
2000364a:	0141                	addi	sp,sp,16
2000364c:	8082                	ret

2000364e <<capsules::virtual_uart::UartDevice as kernel::hil::uart::Receive>::receive_word>:
2000364e:	1141                	addi	sp,sp,-16
20003650:	c606                	sw	ra,12(sp)
20003652:	c422                	sw	s0,8(sp)
20003654:	0800                	addi	s0,sp,16
20003656:	4509                	li	a0,2
20003658:	4422                	lw	s0,8(sp)
2000365a:	40b2                	lw	ra,12(sp)
2000365c:	0141                	addi	sp,sp,16
2000365e:	8082                	ret

20003660 <<components::led::LedsComponent as kernel::component::Component>::finalize>:
20003660:	1101                	addi	sp,sp,-32
20003662:	ce06                	sw	ra,28(sp)
20003664:	cc22                	sw	s0,24(sp)
20003666:	ca26                	sw	s1,20(sp)
20003668:	c84a                	sw	s2,16(sp)
2000366a:	c64e                	sw	s3,12(sp)
2000366c:	c452                	sw	s4,8(sp)
2000366e:	c256                	sw	s5,4(sp)
20003670:	c05a                	sw	s6,0(sp)
20003672:	1000                	addi	s0,sp,32
20003674:	06000913          	li	s2,96
20003678:	10002537          	lui	a0,0x10002
2000367c:	2d050a93          	addi	s5,a0,720 # 100022d0 <opentitan::reset_handler::BUF>
20003680:	4a05                	li	s4,1
20003682:	02090663          	beqz	s2,200036ae <<components::led::LedsComponent as kernel::component::Component>::finalize+0x4e>
20003686:	008acb03          	lbu	s6,8(s5)
2000368a:	000aa983          	lw	s3,0(s5)
2000368e:	004aa483          	lw	s1,4(s5)
20003692:	508c                	lw	a1,32(s1)
20003694:	854e                	mv	a0,s3
20003696:	9582                	jalr	a1
20003698:	014b1463          	bne	s6,s4,200036a0 <<components::led::LedsComponent as kernel::component::Component>::finalize+0x40>
2000369c:	488c                	lw	a1,16(s1)
2000369e:	a011                	j	200036a2 <<components::led::LedsComponent as kernel::component::Component>::finalize+0x42>
200036a0:	48cc                	lw	a1,20(s1)
200036a2:	854e                	mv	a0,s3
200036a4:	9582                	jalr	a1
200036a6:	0ab1                	addi	s5,s5,12
200036a8:	1951                	addi	s2,s2,-12
200036aa:	fc091ee3          	bnez	s2,20003686 <<components::led::LedsComponent as kernel::component::Component>::finalize+0x26>
200036ae:	10002537          	lui	a0,0x10002
200036b2:	cc850593          	addi	a1,a0,-824 # 10001cc8 <<components::led::LedsComponent as kernel::component::Component>::finalize::BUF>
200036b6:	4621                	li	a2,8
200036b8:	c1d0                	sw	a2,4(a1)
200036ba:	100025b7          	lui	a1,0x10002
200036be:	2d058593          	addi	a1,a1,720 # 100022d0 <opentitan::reset_handler::BUF>
200036c2:	ccb52423          	sw	a1,-824(a0)
200036c6:	4b02                	lw	s6,0(sp)
200036c8:	4a92                	lw	s5,4(sp)
200036ca:	4a22                	lw	s4,8(sp)
200036cc:	49b2                	lw	s3,12(sp)
200036ce:	4942                	lw	s2,16(sp)
200036d0:	44d2                	lw	s1,20(sp)
200036d2:	4462                	lw	s0,24(sp)
200036d4:	40f2                	lw	ra,28(sp)
200036d6:	6105                	addi	sp,sp,32
200036d8:	8082                	ret

200036da <kernel::hil::uart::ReceiveClient::received_word>:
200036da:	1141                	addi	sp,sp,-16
200036dc:	c606                	sw	ra,12(sp)
200036de:	c422                	sw	s0,8(sp)
200036e0:	0800                	addi	s0,sp,16
200036e2:	4422                	lw	s0,8(sp)
200036e4:	40b2                	lw	ra,12(sp)
200036e6:	0141                	addi	sp,sp,16
200036e8:	8082                	ret

200036ea <kernel::hil::uart::ReceiveClient::received_word>:
200036ea:	1141                	addi	sp,sp,-16
200036ec:	c606                	sw	ra,12(sp)
200036ee:	c422                	sw	s0,8(sp)
200036f0:	0800                	addi	s0,sp,16
200036f2:	4422                	lw	s0,8(sp)
200036f4:	40b2                	lw	ra,12(sp)
200036f6:	0141                	addi	sp,sp,16
200036f8:	8082                	ret

200036fa <kernel::hil::uart::TransmitClient::transmitted_word>:
200036fa:	1141                	addi	sp,sp,-16
200036fc:	c606                	sw	ra,12(sp)
200036fe:	c422                	sw	s0,8(sp)
20003700:	0800                	addi	s0,sp,16
20003702:	4422                	lw	s0,8(sp)
20003704:	40b2                	lw	ra,12(sp)
20003706:	0141                	addi	sp,sp,16
20003708:	8082                	ret

2000370a <kernel::hil::uart::TransmitClient::transmitted_word>:
2000370a:	1141                	addi	sp,sp,-16
2000370c:	c606                	sw	ra,12(sp)
2000370e:	c422                	sw	s0,8(sp)
20003710:	0800                	addi	s0,sp,16
20003712:	4422                	lw	s0,8(sp)
20003714:	40b2                	lw	ra,12(sp)
20003716:	0141                	addi	sp,sp,16
20003718:	8082                	ret

2000371a <<components::console::UartMuxComponent as kernel::component::Component>::finalize>:
2000371a:	1101                	addi	sp,sp,-32
2000371c:	ce06                	sw	ra,28(sp)
2000371e:	cc22                	sw	s0,24(sp)
20003720:	ca26                	sw	s1,20(sp)
20003722:	c84a                	sw	s2,16(sp)
20003724:	1000                	addi	s0,sp,32
20003726:	892a                	mv	s2,a0
20003728:	410c                	lw	a1,0(a0)
2000372a:	4150                	lw	a2,4(a0)
2000372c:	4514                	lw	a3,8(a0)
2000372e:	4558                	lw	a4,12(a0)
20003730:	10002537          	lui	a0,0x10002
20003734:	ce050493          	addi	s1,a0,-800 # 10001ce0 <<components::console::UartMuxComponent as kernel::component::Component>::finalize::BUF>
20003738:	ccd8                	sw	a4,28(s1)
2000373a:	04000713          	li	a4,64
2000373e:	cc98                	sw	a4,24(s1)
20003740:	10002737          	lui	a4,0x10002
20003744:	c8870713          	addi	a4,a4,-888 # 10001c88 <capsules::virtual_uart::RX_BUF>
20003748:	c8d8                	sw	a4,20(s1)
2000374a:	02048423          	sb	zero,40(s1)
2000374e:	0204a023          	sw	zero,32(s1)
20003752:	0004a823          	sw	zero,16(s1)
20003756:	0004a623          	sw	zero,12(s1)
2000375a:	c494                	sw	a3,8(s1)
2000375c:	c0d0                	sw	a2,4(s1)
2000375e:	ceb52023          	sw	a1,-800(a0)
20003762:	00c92583          	lw	a1,12(s2)
20003766:	4590                	lw	a2,8(a1)
20003768:	41d4                	lw	a3,4(a1)
2000376a:	06d67e63          	bgeu	a2,a3,200037e6 <<components::console::UartMuxComponent as kernel::component::Component>::finalize+0xcc>
2000376e:	46b1                	li	a3,12
20003770:	02d606b3          	mul	a3,a2,a3
20003774:	4198                	lw	a4,0(a1)
20003776:	96ba                	add	a3,a3,a4
20003778:	10001737          	lui	a4,0x10001
2000377c:	23870713          	addi	a4,a4,568 # 10001238 <.Lanon.aac08785f9f9f986c730553ee9705282.0>
20003780:	c2d8                	sw	a4,4(a3)
20003782:	00068423          	sb	zero,8(a3)
20003786:	c284                	sw	s1,0(a3)
20003788:	00160693          	addi	a3,a2,1
2000378c:	c594                	sw	a3,8(a1)
2000378e:	d0d0                	sw	a2,36(s1)
20003790:	4585                	li	a1,1
20003792:	d08c                	sw	a1,32(s1)
20003794:	ce052503          	lw	a0,-800(a0)
20003798:	40cc                	lw	a1,4(s1)
2000379a:	6641                	lui	a2,0x10
2000379c:	0621                	addi	a2,a2,8
2000379e:	fec42623          	sw	a2,-20(s0)
200037a2:	4490                	lw	a2,8(s1)
200037a4:	fec42423          	sw	a2,-24(s0)
200037a8:	55d0                	lw	a2,44(a1)
200037aa:	fe840593          	addi	a1,s0,-24
200037ae:	9602                	jalr	a2
200037b0:	10001537          	lui	a0,0x10001
200037b4:	25850613          	addi	a2,a0,600 # 10001258 <.Lanon.aac08785f9f9f986c730553ee9705282.4>
200037b8:	00492503          	lw	a0,4(s2)
200037bc:	4d54                	lw	a3,28(a0)
200037be:	00092503          	lw	a0,0(s2)
200037c2:	85a6                	mv	a1,s1
200037c4:	9682                	jalr	a3
200037c6:	10001537          	lui	a0,0x10001
200037ca:	26c50613          	addi	a2,a0,620 # 1000126c <.Lanon.aac08785f9f9f986c730553ee9705282.5>
200037ce:	00092503          	lw	a0,0(s2)
200037d2:	00492583          	lw	a1,4(s2)
200037d6:	45dc                	lw	a5,12(a1)
200037d8:	85a6                	mv	a1,s1
200037da:	4942                	lw	s2,16(sp)
200037dc:	44d2                	lw	s1,20(sp)
200037de:	4462                	lw	s0,24(sp)
200037e0:	40f2                	lw	ra,28(sp)
200037e2:	6105                	addi	sp,sp,32
200037e4:	8782                	jr	a5
200037e6:	00001097          	auipc	ra,0x1
200037ea:	674080e7          	jalr	1652(ra) # 20004e5a <core::option::expect_failed>
200037ee:	00009097          	auipc	ra,0x9
200037f2:	93e080e7          	jalr	-1730(ra) # 2000c12c <abort>

200037f6 <core::ptr::real_drop_in_place>:
200037f6:	1141                	addi	sp,sp,-16
200037f8:	c606                	sw	ra,12(sp)
200037fa:	c422                	sw	s0,8(sp)
200037fc:	0800                	addi	s0,sp,16
200037fe:	4422                	lw	s0,8(sp)
20003800:	40b2                	lw	ra,12(sp)
20003802:	0141                	addi	sp,sp,16
20003804:	8082                	ret

20003806 <<components::console::ConsoleComponent as kernel::component::Component>::finalize>:
20003806:	1141                	addi	sp,sp,-16
20003808:	c606                	sw	ra,12(sp)
2000380a:	c422                	sw	s0,8(sp)
2000380c:	0800                	addi	s0,sp,16
2000380e:	4150                	lw	a2,4(a0)
20003810:	100026b7          	lui	a3,0x10002
20003814:	d0c68593          	addi	a1,a3,-756 # 10001d0c <<components::console::ConsoleComponent as kernel::component::Component>::finalize::BUF>
20003818:	10000713          	li	a4,256
2000381c:	02e59c23          	sh	a4,56(a1)
20003820:	4709                	li	a4,2
20003822:	cdd8                	sw	a4,28(a1)
20003824:	d0c6a623          	sw	a2,-756(a3)
20003828:	02058d23          	sb	zero,58(a1)
2000382c:	0205a823          	sw	zero,48(a1)
20003830:	0205a423          	sw	zero,40(a1)
20003834:	0205a223          	sw	zero,36(a1)
20003838:	0005ac23          	sw	zero,24(a1)
2000383c:	0005aa23          	sw	zero,20(a1)
20003840:	0005a623          	sw	zero,12(a1)
20003844:	0005a223          	sw	zero,4(a1)
20003848:	4654                	lw	a3,12(a2)
2000384a:	d1d4                	sw	a3,36(a1)
2000384c:	c64c                	sw	a1,12(a2)
2000384e:	4108                	lw	a0,0(a0)
20003850:	01054603          	lbu	a2,16(a0)
20003854:	e625                	bnez	a2,200038bc <<components::console::ConsoleComponent as kernel::component::Component>::finalize+0xb6>
20003856:	4550                	lw	a2,12(a0)
20003858:	00160693          	addi	a3,a2,1 # 10001 <.Lline_table_start0+0x356>
2000385c:	c554                	sw	a3,12(a0)
2000385e:	100026b7          	lui	a3,0x10002
20003862:	c4868693          	addi	a3,a3,-952 # 10001c48 <capsules::console::READ_BUF>
20003866:	10002737          	lui	a4,0x10002
2000386a:	d4870793          	addi	a5,a4,-696 # 10001d48 <<components::console::ConsoleComponent as kernel::component::Component>::finalize::BUF>
2000386e:	d794                	sw	a3,40(a5)
20003870:	04000693          	li	a3,64
20003874:	d7d4                	sw	a3,44(a5)
20003876:	cfd4                	sw	a3,28(a5)
20003878:	100026b7          	lui	a3,0x10002
2000387c:	c0868693          	addi	a3,a3,-1016 # 10001c08 <_erelocate>
20003880:	cf94                	sw	a3,24(a5)
20003882:	0207a023          	sw	zero,32(a5)
20003886:	0007a823          	sw	zero,16(a5)
2000388a:	c7d0                	sw	a2,12(a5)
2000388c:	c788                	sw	a0,8(a5)
2000388e:	10001537          	lui	a0,0x10001
20003892:	28050513          	addi	a0,a0,640 # 10001280 <.Lanon.aac08785f9f9f986c730553ee9705282.6>
20003896:	c3c8                	sw	a0,4(a5)
20003898:	d4b72423          	sw	a1,-696(a4)
2000389c:	10001537          	lui	a0,0x10001
200038a0:	2ac50513          	addi	a0,a0,684 # 100012ac <.Lanon.aac08785f9f9f986c730553ee9705282.8>
200038a4:	d9c8                	sw	a0,52(a1)
200038a6:	10001537          	lui	a0,0x10001
200038aa:	2c050513          	addi	a0,a0,704 # 100012c0 <.Lanon.aac08785f9f9f986c730553ee9705282.9>
200038ae:	d5c8                	sw	a0,44(a1)
200038b0:	d99c                	sw	a5,48(a1)
200038b2:	d59c                	sw	a5,40(a1)
200038b4:	4422                	lw	s0,8(sp)
200038b6:	40b2                	lw	ra,12(sp)
200038b8:	0141                	addi	sp,sp,16
200038ba:	8082                	ret
200038bc:	2000c537          	lui	a0,0x2000c
200038c0:	f1f50513          	addi	a0,a0,-225 # 2000bf1f <.L__unnamed_42>
200038c4:	100025b7          	lui	a1,0x10002
200038c8:	a0c58613          	addi	a2,a1,-1524 # 10001a0c <.L__unnamed_43>
200038cc:	02c00593          	li	a1,44
200038d0:	00000097          	auipc	ra,0x0
200038d4:	12e080e7          	jalr	302(ra) # 200039fe <core::panicking::panic>
200038d8:	00009097          	auipc	ra,0x9
200038dc:	854080e7          	jalr	-1964(ra) # 2000c12c <abort>

200038e0 <core::ptr::real_drop_in_place>:
200038e0:	1141                	addi	sp,sp,-16
200038e2:	c606                	sw	ra,12(sp)
200038e4:	c422                	sw	s0,8(sp)
200038e6:	0800                	addi	s0,sp,16
200038e8:	4422                	lw	s0,8(sp)
200038ea:	40b2                	lw	ra,12(sp)
200038ec:	0141                	addi	sp,sp,16
200038ee:	8082                	ret

200038f0 <core::ptr::real_drop_in_place>:
200038f0:	1141                	addi	sp,sp,-16
200038f2:	c606                	sw	ra,12(sp)
200038f4:	c422                	sw	s0,8(sp)
200038f6:	0800                	addi	s0,sp,16
200038f8:	4422                	lw	s0,8(sp)
200038fa:	40b2                	lw	ra,12(sp)
200038fc:	0141                	addi	sp,sp,16
200038fe:	8082                	ret

20003900 <<components::debug_writer::DebugWriterComponent as kernel::component::Component>::finalize>:
20003900:	1101                	addi	sp,sp,-32
20003902:	ce06                	sw	ra,28(sp)
20003904:	cc22                	sw	s0,24(sp)
20003906:	ca26                	sw	s1,20(sp)
20003908:	c84a                	sw	s2,16(sp)
2000390a:	c64e                	sw	s3,12(sp)
2000390c:	1000                	addi	s0,sp,32
2000390e:	84aa                	mv	s1,a0
20003910:	10002537          	lui	a0,0x10002
20003914:	d7850913          	addi	s2,a0,-648 # 10001d78 <<components::debug_writer::DebugWriterComponent as kernel::component::Component>::finalize::BUF>
20003918:	854a                	mv	a0,s2
2000391a:	4581                	li	a1,0
2000391c:	40000613          	li	a2,1024
20003920:	00006097          	auipc	ra,0x6
20003924:	d6a080e7          	jalr	-662(ra) # 2000968a <memset>
20003928:	0004a983          	lw	s3,0(s1)
2000392c:	10002537          	lui	a0,0x10002
20003930:	17352c23          	sw	s3,376(a0) # 10002178 <<components::debug_writer::DebugWriterComponent as kernel::component::Component>::finalize::BUF>
20003934:	17850493          	addi	s1,a0,376
20003938:	4509                	li	a0,2
2000393a:	ccc8                	sw	a0,28(s1)
2000393c:	0004a223          	sw	zero,4(s1)
20003940:	0004a623          	sw	zero,12(s1)
20003944:	0004aa23          	sw	zero,20(s1)
20003948:	0004ac23          	sw	zero,24(s1)
2000394c:	02048513          	addi	a0,s1,32
20003950:	4581                	li	a1,0
20003952:	466d                	li	a2,27
20003954:	00006097          	auipc	ra,0x6
20003958:	d36080e7          	jalr	-714(ra) # 2000968a <memset>
2000395c:	00c9a503          	lw	a0,12(s3)
20003960:	d0c8                	sw	a0,36(s1)
20003962:	0099a623          	sw	s1,12(s3)
20003966:	10002537          	lui	a0,0x10002
2000396a:	cd050593          	addi	a1,a0,-816 # 10001cd0 <<components::debug_writer::DebugWriterComponent as kernel::component::Component>::finalize::BUF>
2000396e:	4605                	li	a2,1
20003970:	00c58223          	sb	a2,4(a1)
20003974:	10002637          	lui	a2,0x10002
20003978:	ccb62e23          	sw	a1,-804(a2) # 10001cdc <kernel::debug::DEBUG_WRITER>
2000397c:	100025b7          	lui	a1,0x10002
20003980:	1b458613          	addi	a2,a1,436 # 100021b4 <<components::debug_writer::DebugWriterComponent as kernel::component::Component>::finalize::BUF>
20003984:	3c000693          	li	a3,960
20003988:	c254                	sw	a3,4(a2)
2000398a:	00062623          	sw	zero,12(a2)
2000398e:	00062423          	sw	zero,8(a2)
20003992:	100026b7          	lui	a3,0x10002
20003996:	1c468713          	addi	a4,a3,452 # 100021c4 <<components::debug_writer::DebugWriterComponent as kernel::component::Component>::finalize::BUF>
2000399a:	00072a23          	sw	zero,20(a4)
2000399e:	cb10                	sw	a2,16(a4)
200039a0:	04000613          	li	a2,64
200039a4:	c750                	sw	a2,12(a4)
200039a6:	10001637          	lui	a2,0x10001
200039aa:	2d460613          	addi	a2,a2,724 # 100012d4 <.Lanon.f64a4940a8cea278fae0cba88ab91dc3.0>
200039ae:	c350                	sw	a2,4(a4)
200039b0:	1c96a223          	sw	s1,452(a3)
200039b4:	10001637          	lui	a2,0x10001
200039b8:	2f060613          	addi	a2,a2,752 # 100012f0 <.Lanon.f64a4940a8cea278fae0cba88ab91dc3.1>
200039bc:	d8d0                	sw	a2,52(s1)
200039be:	d898                	sw	a4,48(s1)
200039c0:	cce52823          	sw	a4,-816(a0)
200039c4:	01272423          	sw	s2,8(a4)
200039c8:	04090513          	addi	a0,s2,64
200039cc:	1aa5aa23          	sw	a0,436(a1)
200039d0:	49b2                	lw	s3,12(sp)
200039d2:	4942                	lw	s2,16(sp)
200039d4:	44d2                	lw	s1,20(sp)
200039d6:	4462                	lw	s0,24(sp)
200039d8:	40f2                	lw	ra,28(sp)
200039da:	6105                	addi	sp,sp,32
200039dc:	8082                	ret

200039de <core::ptr::real_drop_in_place>:
200039de:	1141                	addi	sp,sp,-16
200039e0:	c606                	sw	ra,12(sp)
200039e2:	c422                	sw	s0,8(sp)
200039e4:	0800                	addi	s0,sp,16
200039e6:	4422                	lw	s0,8(sp)
200039e8:	40b2                	lw	ra,12(sp)
200039ea:	0141                	addi	sp,sp,16
200039ec:	8082                	ret

200039ee <_ZN4core3ptr18real_drop_in_place17h3efa16506c67010eE.395>:
200039ee:	1141                	addi	sp,sp,-16
200039f0:	c606                	sw	ra,12(sp)
200039f2:	c422                	sw	s0,8(sp)
200039f4:	0800                	addi	s0,sp,16
200039f6:	4422                	lw	s0,8(sp)
200039f8:	40b2                	lw	ra,12(sp)
200039fa:	0141                	addi	sp,sp,16
200039fc:	8082                	ret

200039fe <core::panicking::panic>:
200039fe:	7179                	addi	sp,sp,-48
20003a00:	d606                	sw	ra,44(sp)
20003a02:	d422                	sw	s0,40(sp)
20003a04:	1800                	addi	s0,sp,48
20003a06:	fe042623          	sw	zero,-20(s0)
20003a0a:	fe042023          	sw	zero,-32(s0)
20003a0e:	4685                	li	a3,1
20003a10:	fcd42e23          	sw	a3,-36(s0)
20003a14:	ff040693          	addi	a3,s0,-16
20003a18:	fcd42c23          	sw	a3,-40(s0)
20003a1c:	feb42a23          	sw	a1,-12(s0)
20003a20:	fea42823          	sw	a0,-16(s0)
20003a24:	2000c537          	lui	a0,0x2000c
20003a28:	fa850513          	addi	a0,a0,-88 # 2000bfa8 <.L__unnamed_92>
20003a2c:	fea42423          	sw	a0,-24(s0)
20003a30:	fd840513          	addi	a0,s0,-40
20003a34:	85b2                	mv	a1,a2
20003a36:	00000097          	auipc	ra,0x0
20003a3a:	092080e7          	jalr	146(ra) # 20003ac8 <core::panicking::panic_fmt>
20003a3e:	00008097          	auipc	ra,0x8
20003a42:	6ee080e7          	jalr	1774(ra) # 2000c12c <abort>

20003a46 <core::panicking::panic_bounds_check>:
20003a46:	7139                	addi	sp,sp,-64
20003a48:	de06                	sw	ra,60(sp)
20003a4a:	dc22                	sw	s0,56(sp)
20003a4c:	0080                	addi	s0,sp,64
20003a4e:	86aa                	mv	a3,a0
20003a50:	fcc42623          	sw	a2,-52(s0)
20003a54:	fcb42423          	sw	a1,-56(s0)
20003a58:	fe840513          	addi	a0,s0,-24
20003a5c:	fea42023          	sw	a0,-32(s0)
20003a60:	fc042c23          	sw	zero,-40(s0)
20003a64:	4509                	li	a0,2
20003a66:	fea42223          	sw	a0,-28(s0)
20003a6a:	fca42a23          	sw	a0,-44(s0)
20003a6e:	10001537          	lui	a0,0x10001
20003a72:	30450513          	addi	a0,a0,772 # 10001304 <.Lanon.2c6bb00a6eab53dbfca994608b168c3b.172>
20003a76:	fca42823          	sw	a0,-48(s0)
20003a7a:	fc840513          	addi	a0,s0,-56
20003a7e:	fea42823          	sw	a0,-16(s0)
20003a82:	20004537          	lui	a0,0x20004
20003a86:	ab050513          	addi	a0,a0,-1360 # 20003ab0 <core::fmt::num::imp::<impl core::fmt::Display for u32>::fmt>
20003a8a:	fea42a23          	sw	a0,-12(s0)
20003a8e:	fea42623          	sw	a0,-20(s0)
20003a92:	fcc40513          	addi	a0,s0,-52
20003a96:	fea42423          	sw	a0,-24(s0)
20003a9a:	fd040513          	addi	a0,s0,-48
20003a9e:	85b6                	mv	a1,a3
20003aa0:	00000097          	auipc	ra,0x0
20003aa4:	028080e7          	jalr	40(ra) # 20003ac8 <core::panicking::panic_fmt>
20003aa8:	00008097          	auipc	ra,0x8
20003aac:	684080e7          	jalr	1668(ra) # 2000c12c <abort>

20003ab0 <core::fmt::num::imp::<impl core::fmt::Display for u32>::fmt>:
20003ab0:	1141                	addi	sp,sp,-16
20003ab2:	c606                	sw	ra,12(sp)
20003ab4:	c422                	sw	s0,8(sp)
20003ab6:	0800                	addi	s0,sp,16
20003ab8:	4108                	lw	a0,0(a0)
20003aba:	4422                	lw	s0,8(sp)
20003abc:	40b2                	lw	ra,12(sp)
20003abe:	0141                	addi	sp,sp,16
20003ac0:	00000317          	auipc	t1,0x0
20003ac4:	07430067          	jr	116(t1) # 20003b34 <core::fmt::num::imp::fmt_u32>

20003ac8 <core::panicking::panic_fmt>:
20003ac8:	1101                	addi	sp,sp,-32
20003aca:	ce06                	sw	ra,28(sp)
20003acc:	cc22                	sw	s0,24(sp)
20003ace:	1000                	addi	s0,sp,32
20003ad0:	feb42a23          	sw	a1,-12(s0)
20003ad4:	fea42823          	sw	a0,-16(s0)
20003ad8:	10001537          	lui	a0,0x10001
20003adc:	31450513          	addi	a0,a0,788 # 10001314 <.Lanon.2c6bb00a6eab53dbfca994608b168c3b.163>
20003ae0:	fea42623          	sw	a0,-20(s0)
20003ae4:	2000c537          	lui	a0,0x2000c
20003ae8:	fa850513          	addi	a0,a0,-88 # 2000bfa8 <.L__unnamed_92>
20003aec:	fea42423          	sw	a0,-24(s0)
20003af0:	fe840513          	addi	a0,s0,-24
20003af4:	00003097          	auipc	ra,0x3
20003af8:	fd4080e7          	jalr	-44(ra) # 20006ac8 <rust_begin_unwind>
20003afc:	00008097          	auipc	ra,0x8
20003b00:	630080e7          	jalr	1584(ra) # 2000c12c <abort>

20003b04 <core::ptr::real_drop_in_place>:
20003b04:	1141                	addi	sp,sp,-16
20003b06:	c606                	sw	ra,12(sp)
20003b08:	c422                	sw	s0,8(sp)
20003b0a:	0800                	addi	s0,sp,16
20003b0c:	4422                	lw	s0,8(sp)
20003b0e:	40b2                	lw	ra,12(sp)
20003b10:	0141                	addi	sp,sp,16
20003b12:	8082                	ret

20003b14 <<T as core::any::Any>::type_id>:
20003b14:	1141                	addi	sp,sp,-16
20003b16:	c606                	sw	ra,12(sp)
20003b18:	c422                	sw	s0,8(sp)
20003b1a:	0800                	addi	s0,sp,16
20003b1c:	398db537          	lui	a0,0x398db
20003b20:	33950513          	addi	a0,a0,825 # 398db339 <_sapps+0x198ab339>
20003b24:	774f85b7          	lui	a1,0x774f8
20003b28:	1e458593          	addi	a1,a1,484 # 774f81e4 <_sapps+0x574c81e4>
20003b2c:	4422                	lw	s0,8(sp)
20003b2e:	40b2                	lw	ra,12(sp)
20003b30:	0141                	addi	sp,sp,16
20003b32:	8082                	ret

20003b34 <core::fmt::num::imp::fmt_u32>:
20003b34:	7139                	addi	sp,sp,-64
20003b36:	de06                	sw	ra,60(sp)
20003b38:	dc22                	sw	s0,56(sp)
20003b3a:	da26                	sw	s1,52(sp)
20003b3c:	d84a                	sw	s2,48(sp)
20003b3e:	0080                	addi	s0,sp,64
20003b40:	882e                	mv	a6,a1
20003b42:	02700593          	li	a1,39
20003b46:	00455613          	srli	a2,a0,0x4
20003b4a:	27100693          	li	a3,625
20003b4e:	08d66b63          	bltu	a2,a3,20003be4 <core::fmt::num::imp::fmt_u32+0xb0>
20003b52:	d1b715b7          	lui	a1,0xd1b71
20003b56:	75958293          	addi	t0,a1,1881 # d1b71759 <_sapps+0xb1b41759>
20003b5a:	75f9                	lui	a1,0xffffe
20003b5c:	8f058393          	addi	t2,a1,-1808 # ffffd8f0 <_sapps+0xdffcd8f0>
20003b60:	65c1                	lui	a1,0x10
20003b62:	fff58e13          	addi	t3,a1,-1 # ffff <.Lline_table_start0+0x354>
20003b66:	51eb8637          	lui	a2,0x51eb8
20003b6a:	51f60e93          	addi	t4,a2,1311 # 51eb851f <_sapps+0x31e8851f>
20003b6e:	f9c00893          	li	a7,-100
20003b72:	ffe58f13          	addi	t5,a1,-2
20003b76:	2000b5b7          	lui	a1,0x2000b
20003b7a:	cbc58913          	addi	s2,a1,-836 # 2000acbc <.Lanon.2c6bb00a6eab53dbfca994608b168c3b.202>
20003b7e:	fc940313          	addi	t1,s0,-55
20003b82:	05f5e6b7          	lui	a3,0x5f5e
20003b86:	0ff68f93          	addi	t6,a3,255 # 5f5e0ff <.Lline_table_start0+0x5f4e454>
20003b8a:	4681                	li	a3,0
20003b8c:	87aa                	mv	a5,a0
20003b8e:	02553533          	mulhu	a0,a0,t0
20003b92:	8135                	srli	a0,a0,0xd
20003b94:	02750633          	mul	a2,a0,t2
20003b98:	963e                	add	a2,a2,a5
20003b9a:	01c67733          	and	a4,a2,t3
20003b9e:	03d73733          	mulhu	a4,a4,t4
20003ba2:	8315                	srli	a4,a4,0x5
20003ba4:	031704b3          	mul	s1,a4,a7
20003ba8:	9626                	add	a2,a2,s1
20003baa:	0606                	slli	a2,a2,0x1
20003bac:	01e67633          	and	a2,a2,t5
20003bb0:	0706                	slli	a4,a4,0x1
20003bb2:	964a                	add	a2,a2,s2
20003bb4:	974a                	add	a4,a4,s2
20003bb6:	00d304b3          	add	s1,t1,a3
20003bba:	00170583          	lb	a1,1(a4)
20003bbe:	02b48223          	sb	a1,36(s1)
20003bc2:	00074583          	lbu	a1,0(a4)
20003bc6:	02b481a3          	sb	a1,35(s1)
20003bca:	00160583          	lb	a1,1(a2)
20003bce:	02b48323          	sb	a1,38(s1)
20003bd2:	00064583          	lbu	a1,0(a2)
20003bd6:	02b482a3          	sb	a1,37(s1)
20003bda:	16f1                	addi	a3,a3,-4
20003bdc:	faffe8e3          	bltu	t6,a5,20003b8c <core::fmt::num::imp::fmt_u32+0x58>
20003be0:	02768593          	addi	a1,a3,39
20003be4:	06300613          	li	a2,99
20003be8:	06a65b63          	bge	a2,a0,20003c5e <core::fmt::num::imp::fmt_u32+0x12a>
20003bec:	66c1                	lui	a3,0x10
20003bee:	fff68613          	addi	a2,a3,-1 # ffff <.Lline_table_start0+0x354>
20003bf2:	8e69                	and	a2,a2,a0
20003bf4:	51eb8737          	lui	a4,0x51eb8
20003bf8:	51f70713          	addi	a4,a4,1311 # 51eb851f <_sapps+0x31e8851f>
20003bfc:	02e63633          	mulhu	a2,a2,a4
20003c00:	8215                	srli	a2,a2,0x5
20003c02:	f9c00713          	li	a4,-100
20003c06:	02e60733          	mul	a4,a2,a4
20003c0a:	953a                	add	a0,a0,a4
20003c0c:	0506                	slli	a0,a0,0x1
20003c0e:	16f9                	addi	a3,a3,-2
20003c10:	8d75                	and	a0,a0,a3
20003c12:	2000b6b7          	lui	a3,0x2000b
20003c16:	cbc68693          	addi	a3,a3,-836 # 2000acbc <.Lanon.2c6bb00a6eab53dbfca994608b168c3b.202>
20003c1a:	9536                	add	a0,a0,a3
20003c1c:	15f9                	addi	a1,a1,-2
20003c1e:	fc940693          	addi	a3,s0,-55
20003c22:	96ae                	add	a3,a3,a1
20003c24:	00150703          	lb	a4,1(a0)
20003c28:	00e680a3          	sb	a4,1(a3)
20003c2c:	00054503          	lbu	a0,0(a0)
20003c30:	00a68023          	sb	a0,0(a3)
20003c34:	4529                	li	a0,10
20003c36:	02a64863          	blt	a2,a0,20003c66 <core::fmt::num::imp::fmt_u32+0x132>
20003c3a:	2000b537          	lui	a0,0x2000b
20003c3e:	cbc50513          	addi	a0,a0,-836 # 2000acbc <.Lanon.2c6bb00a6eab53dbfca994608b168c3b.202>
20003c42:	0606                	slli	a2,a2,0x1
20003c44:	962a                	add	a2,a2,a0
20003c46:	ffe58513          	addi	a0,a1,-2
20003c4a:	fc940593          	addi	a1,s0,-55
20003c4e:	95aa                	add	a1,a1,a0
20003c50:	00160683          	lb	a3,1(a2)
20003c54:	00d580a3          	sb	a3,1(a1)
20003c58:	00064603          	lbu	a2,0(a2)
20003c5c:	a821                	j	20003c74 <core::fmt::num::imp::fmt_u32+0x140>
20003c5e:	862a                	mv	a2,a0
20003c60:	4529                	li	a0,10
20003c62:	fca65ce3          	bge	a2,a0,20003c3a <core::fmt::num::imp::fmt_u32+0x106>
20003c66:	fff58513          	addi	a0,a1,-1
20003c6a:	fc940593          	addi	a1,s0,-55
20003c6e:	95aa                	add	a1,a1,a0
20003c70:	03060613          	addi	a2,a2,48
20003c74:	00c58023          	sb	a2,0(a1)
20003c78:	fc940593          	addi	a1,s0,-55
20003c7c:	00a586b3          	add	a3,a1,a0
20003c80:	02700593          	li	a1,39
20003c84:	40a58733          	sub	a4,a1,a0
20003c88:	2000c537          	lui	a0,0x2000c
20003c8c:	fa850593          	addi	a1,a0,-88 # 2000bfa8 <.L__unnamed_92>
20003c90:	8542                	mv	a0,a6
20003c92:	4601                	li	a2,0
20003c94:	00000097          	auipc	ra,0x0
20003c98:	014080e7          	jalr	20(ra) # 20003ca8 <core::fmt::Formatter::pad_integral>
20003c9c:	5942                	lw	s2,48(sp)
20003c9e:	54d2                	lw	s1,52(sp)
20003ca0:	5462                	lw	s0,56(sp)
20003ca2:	50f2                	lw	ra,60(sp)
20003ca4:	6121                	addi	sp,sp,64
20003ca6:	8082                	ret

20003ca8 <core::fmt::Formatter::pad_integral>:
20003ca8:	7139                	addi	sp,sp,-64
20003caa:	de06                	sw	ra,60(sp)
20003cac:	dc22                	sw	s0,56(sp)
20003cae:	da26                	sw	s1,52(sp)
20003cb0:	d84a                	sw	s2,48(sp)
20003cb2:	d64e                	sw	s3,44(sp)
20003cb4:	d452                	sw	s4,40(sp)
20003cb6:	d256                	sw	s5,36(sp)
20003cb8:	d05a                	sw	s6,32(sp)
20003cba:	ce5e                	sw	s7,28(sp)
20003cbc:	cc62                	sw	s8,24(sp)
20003cbe:	ca66                	sw	s9,20(sp)
20003cc0:	c86a                	sw	s10,16(sp)
20003cc2:	c66e                	sw	s11,12(sp)
20003cc4:	0080                	addi	s0,sp,64
20003cc6:	893a                	mv	s2,a4
20003cc8:	89b6                	mv	s3,a3
20003cca:	8a32                	mv	s4,a2
20003ccc:	8aae                	mv	s5,a1
20003cce:	8caa                	mv	s9,a0
20003cd0:	4108                	lw	a0,0(a0)
20003cd2:	00157593          	andi	a1,a0,1
20003cd6:	00110b37          	lui	s6,0x110
20003cda:	c199                	beqz	a1,20003ce0 <core::fmt::Formatter::pad_integral+0x38>
20003cdc:	02b00b13          	li	s6,43
20003ce0:	01258d33          	add	s10,a1,s2
20003ce4:	00457593          	andi	a1,a0,4
20003ce8:	e199                	bnez	a1,20003cee <core::fmt::Formatter::pad_integral+0x46>
20003cea:	4a81                	li	s5,0
20003cec:	a805                	j	20003d1c <core::fmt::Formatter::pad_integral+0x74>
20003cee:	020a0263          	beqz	s4,20003d12 <core::fmt::Formatter::pad_integral+0x6a>
20003cf2:	8652                	mv	a2,s4
20003cf4:	4581                	li	a1,0
20003cf6:	86d6                	mv	a3,s5
20003cf8:	0006c703          	lbu	a4,0(a3)
20003cfc:	0c077713          	andi	a4,a4,192
20003d00:	08074713          	xori	a4,a4,128
20003d04:	00173713          	seqz	a4,a4
20003d08:	95ba                	add	a1,a1,a4
20003d0a:	0685                	addi	a3,a3,1
20003d0c:	167d                	addi	a2,a2,-1
20003d0e:	f66d                	bnez	a2,20003cf8 <core::fmt::Formatter::pad_integral+0x50>
20003d10:	a011                	j	20003d14 <core::fmt::Formatter::pad_integral+0x6c>
20003d12:	4581                	li	a1,0
20003d14:	014d0633          	add	a2,s10,s4
20003d18:	40b60d33          	sub	s10,a2,a1
20003d1c:	008ca583          	lw	a1,8(s9)
20003d20:	4b85                	li	s7,1
20003d22:	03759863          	bne	a1,s7,20003d52 <core::fmt::Formatter::pad_integral+0xaa>
20003d26:	00ccad83          	lw	s11,12(s9)
20003d2a:	03bd7463          	bgeu	s10,s11,20003d52 <core::fmt::Formatter::pad_integral+0xaa>
20003d2e:	8921                	andi	a0,a0,8
20003d30:	e13d                	bnez	a0,20003d96 <core::fmt::Formatter::pad_integral+0xee>
20003d32:	030cc503          	lbu	a0,48(s9)
20003d36:	4605                	li	a2,1
20003d38:	468d                	li	a3,3
20003d3a:	4585                	li	a1,1
20003d3c:	00d50363          	beq	a0,a3,20003d42 <core::fmt::Formatter::pad_integral+0x9a>
20003d40:	85aa                	mv	a1,a0
20003d42:	41ad8533          	sub	a0,s11,s10
20003d46:	08b64d63          	blt	a2,a1,20003de0 <core::fmt::Formatter::pad_integral+0x138>
20003d4a:	edd1                	bnez	a1,20003de6 <core::fmt::Formatter::pad_integral+0x13e>
20003d4c:	8d2a                	mv	s10,a0
20003d4e:	4501                	li	a0,0
20003d50:	a84d                	j	20003e02 <core::fmt::Formatter::pad_integral+0x15a>
20003d52:	8566                	mv	a0,s9
20003d54:	85da                	mv	a1,s6
20003d56:	8656                	mv	a2,s5
20003d58:	86d2                	mv	a3,s4
20003d5a:	00000097          	auipc	ra,0x0
20003d5e:	180080e7          	jalr	384(ra) # 20003eda <core::fmt::Formatter::pad_integral::write_prefix>
20003d62:	e911                	bnez	a0,20003d76 <core::fmt::Formatter::pad_integral+0xce>
20003d64:	018ca503          	lw	a0,24(s9)
20003d68:	01cca583          	lw	a1,28(s9)
20003d6c:	45d4                	lw	a3,12(a1)
20003d6e:	85ce                	mv	a1,s3
20003d70:	864a                	mv	a2,s2
20003d72:	9682                	jalr	a3
20003d74:	8baa                	mv	s7,a0
20003d76:	855e                	mv	a0,s7
20003d78:	4db2                	lw	s11,12(sp)
20003d7a:	4d42                	lw	s10,16(sp)
20003d7c:	4cd2                	lw	s9,20(sp)
20003d7e:	4c62                	lw	s8,24(sp)
20003d80:	4bf2                	lw	s7,28(sp)
20003d82:	5b02                	lw	s6,32(sp)
20003d84:	5a92                	lw	s5,36(sp)
20003d86:	5a22                	lw	s4,40(sp)
20003d88:	59b2                	lw	s3,44(sp)
20003d8a:	5942                	lw	s2,48(sp)
20003d8c:	54d2                	lw	s1,52(sp)
20003d8e:	5462                	lw	s0,56(sp)
20003d90:	50f2                	lw	ra,60(sp)
20003d92:	6121                	addi	sp,sp,64
20003d94:	8082                	ret
20003d96:	004ca483          	lw	s1,4(s9)
20003d9a:	03000513          	li	a0,48
20003d9e:	00aca223          	sw	a0,4(s9)
20003da2:	030ccc03          	lbu	s8,48(s9)
20003da6:	4b85                	li	s7,1
20003da8:	037c8823          	sb	s7,48(s9)
20003dac:	8566                	mv	a0,s9
20003dae:	85da                	mv	a1,s6
20003db0:	8656                	mv	a2,s5
20003db2:	86d2                	mv	a3,s4
20003db4:	00000097          	auipc	ra,0x0
20003db8:	126080e7          	jalr	294(ra) # 20003eda <core::fmt::Formatter::pad_integral::write_prefix>
20003dbc:	fd4d                	bnez	a0,20003d76 <core::fmt::Formatter::pad_integral+0xce>
20003dbe:	030cc503          	lbu	a0,48(s9)
20003dc2:	4605                	li	a2,1
20003dc4:	468d                	li	a3,3
20003dc6:	4585                	li	a1,1
20003dc8:	00d50363          	beq	a0,a3,20003dce <core::fmt::Formatter::pad_integral+0x126>
20003dcc:	85aa                	mv	a1,a0
20003dce:	41ad8533          	sub	a0,s11,s10
20003dd2:	00b64c63          	blt	a2,a1,20003dea <core::fmt::Formatter::pad_integral+0x142>
20003dd6:	ed89                	bnez	a1,20003df0 <core::fmt::Formatter::pad_integral+0x148>
20003dd8:	8b26                	mv	s6,s1
20003dda:	8aaa                	mv	s5,a0
20003ddc:	4501                	li	a0,0
20003dde:	a859                	j	20003e74 <core::fmt::Formatter::pad_integral+0x1cc>
20003de0:	460d                	li	a2,3
20003de2:	00c59a63          	bne	a1,a2,20003df6 <core::fmt::Formatter::pad_integral+0x14e>
20003de6:	4d01                	li	s10,0
20003de8:	a829                	j	20003e02 <core::fmt::Formatter::pad_integral+0x15a>
20003dea:	460d                	li	a2,3
20003dec:	06c59d63          	bne	a1,a2,20003e66 <core::fmt::Formatter::pad_integral+0x1be>
20003df0:	8b26                	mv	s6,s1
20003df2:	4a81                	li	s5,0
20003df4:	a041                	j	20003e74 <core::fmt::Formatter::pad_integral+0x1cc>
20003df6:	00155593          	srli	a1,a0,0x1
20003dfa:	0505                	addi	a0,a0,1
20003dfc:	00155d13          	srli	s10,a0,0x1
20003e00:	852e                	mv	a0,a1
20003e02:	00150493          	addi	s1,a0,1
20003e06:	14fd                	addi	s1,s1,-1
20003e08:	c899                	beqz	s1,20003e1e <core::fmt::Formatter::pad_integral+0x176>
20003e0a:	004ca583          	lw	a1,4(s9)
20003e0e:	018ca503          	lw	a0,24(s9)
20003e12:	01cca603          	lw	a2,28(s9)
20003e16:	4a10                	lw	a2,16(a2)
20003e18:	9602                	jalr	a2
20003e1a:	d575                	beqz	a0,20003e06 <core::fmt::Formatter::pad_integral+0x15e>
20003e1c:	a88d                	j	20003e8e <core::fmt::Formatter::pad_integral+0x1e6>
20003e1e:	004cac03          	lw	s8,4(s9)
20003e22:	8566                	mv	a0,s9
20003e24:	85da                	mv	a1,s6
20003e26:	8656                	mv	a2,s5
20003e28:	86d2                	mv	a3,s4
20003e2a:	00000097          	auipc	ra,0x0
20003e2e:	0b0080e7          	jalr	176(ra) # 20003eda <core::fmt::Formatter::pad_integral::write_prefix>
20003e32:	4b85                	li	s7,1
20003e34:	f129                	bnez	a0,20003d76 <core::fmt::Formatter::pad_integral+0xce>
20003e36:	018ca503          	lw	a0,24(s9)
20003e3a:	01cca583          	lw	a1,28(s9)
20003e3e:	45d4                	lw	a3,12(a1)
20003e40:	85ce                	mv	a1,s3
20003e42:	864a                	mv	a2,s2
20003e44:	9682                	jalr	a3
20003e46:	f905                	bnez	a0,20003d76 <core::fmt::Formatter::pad_integral+0xce>
20003e48:	001d0493          	addi	s1,s10,1
20003e4c:	01cca983          	lw	s3,28(s9)
20003e50:	018ca903          	lw	s2,24(s9)
20003e54:	14fd                	addi	s1,s1,-1
20003e56:	c8b5                	beqz	s1,20003eca <core::fmt::Formatter::pad_integral+0x222>
20003e58:	0109a603          	lw	a2,16(s3)
20003e5c:	854a                	mv	a0,s2
20003e5e:	85e2                	mv	a1,s8
20003e60:	9602                	jalr	a2
20003e62:	d96d                	beqz	a0,20003e54 <core::fmt::Formatter::pad_integral+0x1ac>
20003e64:	bf09                	j	20003d76 <core::fmt::Formatter::pad_integral+0xce>
20003e66:	8b26                	mv	s6,s1
20003e68:	00155593          	srli	a1,a0,0x1
20003e6c:	0505                	addi	a0,a0,1
20003e6e:	00155a93          	srli	s5,a0,0x1
20003e72:	852e                	mv	a0,a1
20003e74:	00150493          	addi	s1,a0,1
20003e78:	14fd                	addi	s1,s1,-1
20003e7a:	cc81                	beqz	s1,20003e92 <core::fmt::Formatter::pad_integral+0x1ea>
20003e7c:	004ca583          	lw	a1,4(s9)
20003e80:	018ca503          	lw	a0,24(s9)
20003e84:	01cca603          	lw	a2,28(s9)
20003e88:	4a10                	lw	a2,16(a2)
20003e8a:	9602                	jalr	a2
20003e8c:	d575                	beqz	a0,20003e78 <core::fmt::Formatter::pad_integral+0x1d0>
20003e8e:	4b85                	li	s7,1
20003e90:	b5dd                	j	20003d76 <core::fmt::Formatter::pad_integral+0xce>
20003e92:	004caa03          	lw	s4,4(s9)
20003e96:	018ca503          	lw	a0,24(s9)
20003e9a:	01cca583          	lw	a1,28(s9)
20003e9e:	45d4                	lw	a3,12(a1)
20003ea0:	85ce                	mv	a1,s3
20003ea2:	864a                	mv	a2,s2
20003ea4:	9682                	jalr	a3
20003ea6:	4b85                	li	s7,1
20003ea8:	ec0517e3          	bnez	a0,20003d76 <core::fmt::Formatter::pad_integral+0xce>
20003eac:	001a8493          	addi	s1,s5,1
20003eb0:	01cca983          	lw	s3,28(s9)
20003eb4:	018ca903          	lw	s2,24(s9)
20003eb8:	14fd                	addi	s1,s1,-1
20003eba:	c891                	beqz	s1,20003ece <core::fmt::Formatter::pad_integral+0x226>
20003ebc:	0109a603          	lw	a2,16(s3)
20003ec0:	854a                	mv	a0,s2
20003ec2:	85d2                	mv	a1,s4
20003ec4:	9602                	jalr	a2
20003ec6:	d96d                	beqz	a0,20003eb8 <core::fmt::Formatter::pad_integral+0x210>
20003ec8:	b57d                	j	20003d76 <core::fmt::Formatter::pad_integral+0xce>
20003eca:	4b81                	li	s7,0
20003ecc:	b56d                	j	20003d76 <core::fmt::Formatter::pad_integral+0xce>
20003ece:	038c8823          	sb	s8,48(s9)
20003ed2:	016ca223          	sw	s6,4(s9)
20003ed6:	4b81                	li	s7,0
20003ed8:	bd79                	j	20003d76 <core::fmt::Formatter::pad_integral+0xce>

20003eda <core::fmt::Formatter::pad_integral::write_prefix>:
20003eda:	1101                	addi	sp,sp,-32
20003edc:	ce06                	sw	ra,28(sp)
20003ede:	cc22                	sw	s0,24(sp)
20003ee0:	ca26                	sw	s1,20(sp)
20003ee2:	c84a                	sw	s2,16(sp)
20003ee4:	c64e                	sw	s3,12(sp)
20003ee6:	1000                	addi	s0,sp,32
20003ee8:	8936                	mv	s2,a3
20003eea:	89b2                	mv	s3,a2
20003eec:	84aa                	mv	s1,a0
20003eee:	00110537          	lui	a0,0x110
20003ef2:	00a58963          	beq	a1,a0,20003f04 <core::fmt::Formatter::pad_integral::write_prefix+0x2a>
20003ef6:	4c88                	lw	a0,24(s1)
20003ef8:	4cd0                	lw	a2,28(s1)
20003efa:	4a10                	lw	a2,16(a2)
20003efc:	9602                	jalr	a2
20003efe:	85aa                	mv	a1,a0
20003f00:	4505                	li	a0,1
20003f02:	e999                	bnez	a1,20003f18 <core::fmt::Formatter::pad_integral::write_prefix+0x3e>
20003f04:	00098963          	beqz	s3,20003f16 <core::fmt::Formatter::pad_integral::write_prefix+0x3c>
20003f08:	4c88                	lw	a0,24(s1)
20003f0a:	4ccc                	lw	a1,28(s1)
20003f0c:	45d4                	lw	a3,12(a1)
20003f0e:	85ce                	mv	a1,s3
20003f10:	864a                	mv	a2,s2
20003f12:	9682                	jalr	a3
20003f14:	a011                	j	20003f18 <core::fmt::Formatter::pad_integral::write_prefix+0x3e>
20003f16:	4501                	li	a0,0
20003f18:	49b2                	lw	s3,12(sp)
20003f1a:	4942                	lw	s2,16(sp)
20003f1c:	44d2                	lw	s1,20(sp)
20003f1e:	4462                	lw	s0,24(sp)
20003f20:	40f2                	lw	ra,28(sp)
20003f22:	6105                	addi	sp,sp,32
20003f24:	8082                	ret

20003f26 <core::slice::slice_index_len_fail>:
20003f26:	7139                	addi	sp,sp,-64
20003f28:	de06                	sw	ra,60(sp)
20003f2a:	dc22                	sw	s0,56(sp)
20003f2c:	0080                	addi	s0,sp,64
20003f2e:	fcb42623          	sw	a1,-52(s0)
20003f32:	fca42423          	sw	a0,-56(s0)
20003f36:	fe840513          	addi	a0,s0,-24
20003f3a:	fea42023          	sw	a0,-32(s0)
20003f3e:	fc042c23          	sw	zero,-40(s0)
20003f42:	4509                	li	a0,2
20003f44:	fea42223          	sw	a0,-28(s0)
20003f48:	fca42a23          	sw	a0,-44(s0)
20003f4c:	10001537          	lui	a0,0x10001
20003f50:	32450513          	addi	a0,a0,804 # 10001324 <.Lanon.2c6bb00a6eab53dbfca994608b168c3b.218>
20003f54:	fca42823          	sw	a0,-48(s0)
20003f58:	fcc40513          	addi	a0,s0,-52
20003f5c:	fea42823          	sw	a0,-16(s0)
20003f60:	20004537          	lui	a0,0x20004
20003f64:	ab050513          	addi	a0,a0,-1360 # 20003ab0 <core::fmt::num::imp::<impl core::fmt::Display for u32>::fmt>
20003f68:	fea42a23          	sw	a0,-12(s0)
20003f6c:	fea42623          	sw	a0,-20(s0)
20003f70:	fc840513          	addi	a0,s0,-56
20003f74:	fea42423          	sw	a0,-24(s0)
20003f78:	10001537          	lui	a0,0x10001
20003f7c:	33450593          	addi	a1,a0,820 # 10001334 <.Lanon.2c6bb00a6eab53dbfca994608b168c3b.219>
20003f80:	fd040513          	addi	a0,s0,-48
20003f84:	00000097          	auipc	ra,0x0
20003f88:	b44080e7          	jalr	-1212(ra) # 20003ac8 <core::panicking::panic_fmt>
20003f8c:	00008097          	auipc	ra,0x8
20003f90:	1a0080e7          	jalr	416(ra) # 2000c12c <abort>

20003f94 <core::slice::slice_index_order_fail>:
20003f94:	7139                	addi	sp,sp,-64
20003f96:	de06                	sw	ra,60(sp)
20003f98:	dc22                	sw	s0,56(sp)
20003f9a:	0080                	addi	s0,sp,64
20003f9c:	fcb42623          	sw	a1,-52(s0)
20003fa0:	fca42423          	sw	a0,-56(s0)
20003fa4:	fe840513          	addi	a0,s0,-24
20003fa8:	fea42023          	sw	a0,-32(s0)
20003fac:	fc042c23          	sw	zero,-40(s0)
20003fb0:	4509                	li	a0,2
20003fb2:	fea42223          	sw	a0,-28(s0)
20003fb6:	fca42a23          	sw	a0,-44(s0)
20003fba:	10001537          	lui	a0,0x10001
20003fbe:	34450513          	addi	a0,a0,836 # 10001344 <.Lanon.2c6bb00a6eab53dbfca994608b168c3b.222>
20003fc2:	fca42823          	sw	a0,-48(s0)
20003fc6:	fcc40513          	addi	a0,s0,-52
20003fca:	fea42823          	sw	a0,-16(s0)
20003fce:	20004537          	lui	a0,0x20004
20003fd2:	ab050513          	addi	a0,a0,-1360 # 20003ab0 <core::fmt::num::imp::<impl core::fmt::Display for u32>::fmt>
20003fd6:	fea42a23          	sw	a0,-12(s0)
20003fda:	fea42623          	sw	a0,-20(s0)
20003fde:	fc840513          	addi	a0,s0,-56
20003fe2:	fea42423          	sw	a0,-24(s0)
20003fe6:	10001537          	lui	a0,0x10001
20003fea:	35450593          	addi	a1,a0,852 # 10001354 <.Lanon.2c6bb00a6eab53dbfca994608b168c3b.223>
20003fee:	fd040513          	addi	a0,s0,-48
20003ff2:	00000097          	auipc	ra,0x0
20003ff6:	ad6080e7          	jalr	-1322(ra) # 20003ac8 <core::panicking::panic_fmt>
20003ffa:	00008097          	auipc	ra,0x8
20003ffe:	132080e7          	jalr	306(ra) # 2000c12c <abort>

20004002 <core::fmt::Formatter::pad>:
20004002:	1101                	addi	sp,sp,-32
20004004:	ce06                	sw	ra,28(sp)
20004006:	cc22                	sw	s0,24(sp)
20004008:	ca26                	sw	s1,20(sp)
2000400a:	c84a                	sw	s2,16(sp)
2000400c:	c64e                	sw	s3,12(sp)
2000400e:	c452                	sw	s4,8(sp)
20004010:	c256                	sw	s5,4(sp)
20004012:	c05a                	sw	s6,0(sp)
20004014:	1000                	addi	s0,sp,32
20004016:	89b2                	mv	s3,a2
20004018:	892e                	mv	s2,a1
2000401a:	8aaa                	mv	s5,a0
2000401c:	4908                	lw	a0,16(a0)
2000401e:	008aa383          	lw	t2,8(s5)
20004022:	4585                	li	a1,1
20004024:	00b39463          	bne	t2,a1,2000402c <core::fmt::Formatter::pad+0x2a>
20004028:	e501                	bnez	a0,20004030 <core::fmt::Formatter::pad+0x2e>
2000402a:	a0d5                	j	2000410e <core::fmt::Formatter::pad+0x10c>
2000402c:	16050363          	beqz	a0,20004192 <core::fmt::Formatter::pad+0x190>
20004030:	0c098c63          	beqz	s3,20004108 <core::fmt::Formatter::pad+0x106>
20004034:	01390fb3          	add	t6,s2,s3
20004038:	014aa503          	lw	a0,20(s5)
2000403c:	00150693          	addi	a3,a0,1
20004040:	5e7d                	li	t3,-1
20004042:	0df00313          	li	t1,223
20004046:	0f000813          	li	a6,240
2000404a:	001c08b7          	lui	a7,0x1c0
2000404e:	001102b7          	lui	t0,0x110
20004052:	4581                	li	a1,0
20004054:	87ca                	mv	a5,s2
20004056:	84ca                	mv	s1,s2
20004058:	00178713          	addi	a4,a5,1
2000405c:	00078603          	lb	a2,0(a5)
20004060:	0ff67513          	andi	a0,a2,255
20004064:	04ce4263          	blt	t3,a2,200040a8 <core::fmt::Formatter::pad+0xa6>
20004068:	03f70763          	beq	a4,t6,20004096 <core::fmt::Formatter::pad+0x94>
2000406c:	00278713          	addi	a4,a5,2
20004070:	0017c603          	lbu	a2,1(a5)
20004074:	03f67793          	andi	a5,a2,63
20004078:	863a                	mv	a2,a4
2000407a:	01f57e93          	andi	t4,a0,31
2000407e:	02a37263          	bgeu	t1,a0,200040a2 <core::fmt::Formatter::pad+0xa0>
20004082:	03f60e63          	beq	a2,t6,200040be <core::fmt::Formatter::pad+0xbc>
20004086:	00160713          	addi	a4,a2,1
2000408a:	00064603          	lbu	a2,0(a2)
2000408e:	03f67613          	andi	a2,a2,63
20004092:	8a3a                	mv	s4,a4
20004094:	a03d                	j	200040c2 <core::fmt::Formatter::pad+0xc0>
20004096:	867e                	mv	a2,t6
20004098:	4781                	li	a5,0
2000409a:	01f57e93          	andi	t4,a0,31
2000409e:	fea362e3          	bltu	t1,a0,20004082 <core::fmt::Formatter::pad+0x80>
200040a2:	006e9513          	slli	a0,t4,0x6
200040a6:	8d5d                	or	a0,a0,a5
200040a8:	87ba                	mv	a5,a4
200040aa:	16fd                	addi	a3,a3,-1
200040ac:	cec5                	beqz	a3,20004164 <core::fmt::Formatter::pad+0x162>
200040ae:	40958533          	sub	a0,a1,s1
200040b2:	00f505b3          	add	a1,a0,a5
200040b6:	84be                	mv	s1,a5
200040b8:	faff90e3          	bne	t6,a5,20004058 <core::fmt::Formatter::pad+0x56>
200040bc:	a8c9                	j	2000418e <core::fmt::Formatter::pad+0x18c>
200040be:	8a7e                	mv	s4,t6
200040c0:	4601                	li	a2,0
200040c2:	079a                	slli	a5,a5,0x6
200040c4:	00f66f33          	or	t5,a2,a5
200040c8:	01056b63          	bltu	a0,a6,200040de <core::fmt::Formatter::pad+0xdc>
200040cc:	03fa0163          	beq	s4,t6,200040ee <core::fmt::Formatter::pad+0xec>
200040d0:	001a0793          	addi	a5,s4,1
200040d4:	000a4503          	lbu	a0,0(s4)
200040d8:	03f57513          	andi	a0,a0,63
200040dc:	a819                	j	200040f2 <core::fmt::Formatter::pad+0xf0>
200040de:	00ce9513          	slli	a0,t4,0xc
200040e2:	00af6533          	or	a0,t5,a0
200040e6:	87ba                	mv	a5,a4
200040e8:	16fd                	addi	a3,a3,-1
200040ea:	f2f1                	bnez	a3,200040ae <core::fmt::Formatter::pad+0xac>
200040ec:	a8a5                	j	20004164 <core::fmt::Formatter::pad+0x162>
200040ee:	87ba                	mv	a5,a4
200040f0:	4501                	li	a0,0
200040f2:	012e9613          	slli	a2,t4,0x12
200040f6:	01167633          	and	a2,a2,a7
200040fa:	006f1713          	slli	a4,t5,0x6
200040fe:	8e59                	or	a2,a2,a4
20004100:	8d51                	or	a0,a0,a2
20004102:	fa5514e3          	bne	a0,t0,200040aa <core::fmt::Formatter::pad+0xa8>
20004106:	a061                	j	2000418e <core::fmt::Formatter::pad+0x18c>
20004108:	4981                	li	s3,0
2000410a:	08038463          	beqz	t2,20004192 <core::fmt::Formatter::pad+0x190>
2000410e:	02098263          	beqz	s3,20004132 <core::fmt::Formatter::pad+0x130>
20004112:	85ce                	mv	a1,s3
20004114:	4501                	li	a0,0
20004116:	864a                	mv	a2,s2
20004118:	00064683          	lbu	a3,0(a2)
2000411c:	0c06f693          	andi	a3,a3,192
20004120:	0806c693          	xori	a3,a3,128
20004124:	0016b693          	seqz	a3,a3
20004128:	9536                	add	a0,a0,a3
2000412a:	0605                	addi	a2,a2,1
2000412c:	15fd                	addi	a1,a1,-1
2000412e:	f5ed                	bnez	a1,20004118 <core::fmt::Formatter::pad+0x116>
20004130:	a011                	j	20004134 <core::fmt::Formatter::pad+0x132>
20004132:	4501                	li	a0,0
20004134:	40a985b3          	sub	a1,s3,a0
20004138:	00caa503          	lw	a0,12(s5)
2000413c:	04a5fb63          	bgeu	a1,a0,20004192 <core::fmt::Formatter::pad+0x190>
20004140:	06098d63          	beqz	s3,200041ba <core::fmt::Formatter::pad+0x1b8>
20004144:	864e                	mv	a2,s3
20004146:	4581                	li	a1,0
20004148:	86ca                	mv	a3,s2
2000414a:	0006c703          	lbu	a4,0(a3)
2000414e:	0c077713          	andi	a4,a4,192
20004152:	08074713          	xori	a4,a4,128
20004156:	00173713          	seqz	a4,a4
2000415a:	95ba                	add	a1,a1,a4
2000415c:	0685                	addi	a3,a3,1
2000415e:	167d                	addi	a2,a2,-1
20004160:	f66d                	bnez	a2,2000414a <core::fmt::Formatter::pad+0x148>
20004162:	a8a9                	j	200041bc <core::fmt::Formatter::pad+0x1ba>
20004164:	00110637          	lui	a2,0x110
20004168:	02c50363          	beq	a0,a2,2000418e <core::fmt::Formatter::pad+0x18c>
2000416c:	cd89                	beqz	a1,20004186 <core::fmt::Formatter::pad+0x184>
2000416e:	01358c63          	beq	a1,s3,20004186 <core::fmt::Formatter::pad+0x184>
20004172:	0d35fd63          	bgeu	a1,s3,2000424c <core::fmt::Formatter::pad+0x24a>
20004176:	00b90533          	add	a0,s2,a1
2000417a:	00050503          	lb	a0,0(a0)
2000417e:	fc000613          	li	a2,-64
20004182:	0cc54563          	blt	a0,a2,2000424c <core::fmt::Formatter::pad+0x24a>
20004186:	854a                	mv	a0,s2
20004188:	c119                	beqz	a0,2000418e <core::fmt::Formatter::pad+0x18c>
2000418a:	89ae                	mv	s3,a1
2000418c:	892a                	mv	s2,a0
2000418e:	f80390e3          	bnez	t2,2000410e <core::fmt::Formatter::pad+0x10c>
20004192:	018aa503          	lw	a0,24(s5)
20004196:	01caa583          	lw	a1,28(s5)
2000419a:	45d4                	lw	a3,12(a1)
2000419c:	85ca                	mv	a1,s2
2000419e:	864e                	mv	a2,s3
200041a0:	9682                	jalr	a3
200041a2:	892a                	mv	s2,a0
200041a4:	854a                	mv	a0,s2
200041a6:	4b02                	lw	s6,0(sp)
200041a8:	4a92                	lw	s5,4(sp)
200041aa:	4a22                	lw	s4,8(sp)
200041ac:	49b2                	lw	s3,12(sp)
200041ae:	4942                	lw	s2,16(sp)
200041b0:	44d2                	lw	s1,20(sp)
200041b2:	4462                	lw	s0,24(sp)
200041b4:	40f2                	lw	ra,28(sp)
200041b6:	6105                	addi	sp,sp,32
200041b8:	8082                	ret
200041ba:	4581                	li	a1,0
200041bc:	030ac683          	lbu	a3,48(s5)
200041c0:	470d                	li	a4,3
200041c2:	4601                	li	a2,0
200041c4:	00e68363          	beq	a3,a4,200041ca <core::fmt::Formatter::pad+0x1c8>
200041c8:	8636                	mv	a2,a3
200041ca:	413585b3          	sub	a1,a1,s3
200041ce:	952e                	add	a0,a0,a1
200041d0:	4585                	li	a1,1
200041d2:	00c5c663          	blt	a1,a2,200041de <core::fmt::Formatter::pad+0x1dc>
200041d6:	e619                	bnez	a2,200041e4 <core::fmt::Formatter::pad+0x1e2>
200041d8:	8b2a                	mv	s6,a0
200041da:	4501                	li	a0,0
200041dc:	a821                	j	200041f4 <core::fmt::Formatter::pad+0x1f2>
200041de:	458d                	li	a1,3
200041e0:	00b61463          	bne	a2,a1,200041e8 <core::fmt::Formatter::pad+0x1e6>
200041e4:	4b01                	li	s6,0
200041e6:	a039                	j	200041f4 <core::fmt::Formatter::pad+0x1f2>
200041e8:	00155593          	srli	a1,a0,0x1
200041ec:	0505                	addi	a0,a0,1
200041ee:	00155b13          	srli	s6,a0,0x1
200041f2:	852e                	mv	a0,a1
200041f4:	00150493          	addi	s1,a0,1
200041f8:	14fd                	addi	s1,s1,-1
200041fa:	cc81                	beqz	s1,20004212 <core::fmt::Formatter::pad+0x210>
200041fc:	004aa583          	lw	a1,4(s5)
20004200:	018aa503          	lw	a0,24(s5)
20004204:	01caa603          	lw	a2,28(s5)
20004208:	4a10                	lw	a2,16(a2)
2000420a:	9602                	jalr	a2
2000420c:	d575                	beqz	a0,200041f8 <core::fmt::Formatter::pad+0x1f6>
2000420e:	4905                	li	s2,1
20004210:	bf51                	j	200041a4 <core::fmt::Formatter::pad+0x1a2>
20004212:	004aaa03          	lw	s4,4(s5)
20004216:	018aa503          	lw	a0,24(s5)
2000421a:	01caa583          	lw	a1,28(s5)
2000421e:	45d4                	lw	a3,12(a1)
20004220:	85ca                	mv	a1,s2
20004222:	864e                	mv	a2,s3
20004224:	9682                	jalr	a3
20004226:	4905                	li	s2,1
20004228:	fd35                	bnez	a0,200041a4 <core::fmt::Formatter::pad+0x1a2>
2000422a:	001b0493          	addi	s1,s6,1 # 110001 <.Lline_table_start0+0x100356>
2000422e:	01caab03          	lw	s6,28(s5)
20004232:	018aa983          	lw	s3,24(s5)
20004236:	14fd                	addi	s1,s1,-1
20004238:	c881                	beqz	s1,20004248 <core::fmt::Formatter::pad+0x246>
2000423a:	010b2603          	lw	a2,16(s6)
2000423e:	854e                	mv	a0,s3
20004240:	85d2                	mv	a1,s4
20004242:	9602                	jalr	a2
20004244:	d96d                	beqz	a0,20004236 <core::fmt::Formatter::pad+0x234>
20004246:	bfb9                	j	200041a4 <core::fmt::Formatter::pad+0x1a2>
20004248:	4901                	li	s2,0
2000424a:	bfa9                	j	200041a4 <core::fmt::Formatter::pad+0x1a2>
2000424c:	4501                	li	a0,0
2000424e:	fd15                	bnez	a0,2000418a <core::fmt::Formatter::pad+0x188>
20004250:	bf3d                	j	2000418e <core::fmt::Formatter::pad+0x18c>

20004252 <core::str::slice_error_fail>:
20004252:	7159                	addi	sp,sp,-112
20004254:	d686                	sw	ra,108(sp)
20004256:	d4a2                	sw	s0,104(sp)
20004258:	1880                	addi	s0,sp,112
2000425a:	f8d42a23          	sw	a3,-108(s0)
2000425e:	f8c42823          	sw	a2,-112(s0)
20004262:	4705                	li	a4,1
20004264:	10100793          	li	a5,257
20004268:	832e                	mv	t1,a1
2000426a:	02f5eb63          	bltu	a1,a5,200042a0 <core::str::slice_error_fail+0x4e>
2000426e:	40b00833          	neg	a6,a1
20004272:	10000793          	li	a5,256
20004276:	fbf00893          	li	a7,-65
2000427a:	4285                	li	t0,1
2000427c:	00b7f863          	bgeu	a5,a1,2000428c <core::str::slice_error_fail+0x3a>
20004280:	00f50733          	add	a4,a0,a5
20004284:	00070703          	lb	a4,0(a4)
20004288:	02e8c363          	blt	a7,a4,200042ae <core::str::slice_error_fail+0x5c>
2000428c:	fff78313          	addi	t1,a5,-1
20004290:	0e578963          	beq	a5,t0,20004382 <core::str::slice_error_fail+0x130>
20004294:	00f803b3          	add	t2,a6,a5
20004298:	879a                	mv	a5,t1
2000429a:	4701                	li	a4,0
2000429c:	fe5390e3          	bne	t2,t0,2000427c <core::str::slice_error_fail+0x2a>
200042a0:	eb11                	bnez	a4,200042b4 <core::str::slice_error_fail+0x62>
200042a2:	2000b737          	lui	a4,0x2000b
200042a6:	de770713          	addi	a4,a4,-537 # 2000ade7 <.Lanon.2c6bb00a6eab53dbfca994608b168c3b.267>
200042aa:	4795                	li	a5,5
200042ac:	a809                	j	200042be <core::str::slice_error_fail+0x6c>
200042ae:	833e                	mv	t1,a5
200042b0:	4701                	li	a4,0
200042b2:	db65                	beqz	a4,200042a2 <core::str::slice_error_fail+0x50>
200042b4:	2000c737          	lui	a4,0x2000c
200042b8:	fa870713          	addi	a4,a4,-88 # 2000bfa8 <.L__unnamed_92>
200042bc:	4781                	li	a5,0
200042be:	f8642e23          	sw	t1,-100(s0)
200042c2:	f8a42c23          	sw	a0,-104(s0)
200042c6:	faf42223          	sw	a5,-92(s0)
200042ca:	fae42023          	sw	a4,-96(s0)
200042ce:	1ec5ec63          	bltu	a1,a2,200044c6 <core::str::slice_error_fail+0x274>
200042d2:	1ed5ea63          	bltu	a1,a3,200044c6 <core::str::slice_error_fail+0x274>
200042d6:	24c6ed63          	bltu	a3,a2,20004530 <core::str::slice_error_fail+0x2de>
200042da:	ce09                	beqz	a2,200042f4 <core::str::slice_error_fail+0xa2>
200042dc:	00c58c63          	beq	a1,a2,200042f4 <core::str::slice_error_fail+0xa2>
200042e0:	00b67b63          	bgeu	a2,a1,200042f6 <core::str::slice_error_fail+0xa4>
200042e4:	00c50733          	add	a4,a0,a2
200042e8:	00070703          	lb	a4,0(a4)
200042ec:	fc000793          	li	a5,-64
200042f0:	00f74363          	blt	a4,a5,200042f6 <core::str::slice_error_fail+0xa4>
200042f4:	8636                	mv	a2,a3
200042f6:	fac42423          	sw	a2,-88(s0)
200042fa:	ca0d                	beqz	a2,2000432c <core::str::slice_error_fail+0xda>
200042fc:	02b60863          	beq	a2,a1,2000432c <core::str::slice_error_fail+0xda>
20004300:	00158693          	addi	a3,a1,1
20004304:	fc000813          	li	a6,-64
20004308:	4785                	li	a5,1
2000430a:	8732                	mv	a4,a2
2000430c:	00b67863          	bgeu	a2,a1,2000431c <core::str::slice_error_fail+0xca>
20004310:	00e50633          	add	a2,a0,a4
20004314:	00060603          	lb	a2,0(a2) # 110000 <.Lline_table_start0+0x100355>
20004318:	01065963          	bge	a2,a6,2000432a <core::str::slice_error_fail+0xd8>
2000431c:	fff70613          	addi	a2,a4,-1
20004320:	00f70663          	beq	a4,a5,2000432c <core::str::slice_error_fail+0xda>
20004324:	fee693e3          	bne	a3,a4,2000430a <core::str::slice_error_fail+0xb8>
20004328:	a011                	j	2000432c <core::str::slice_error_fail+0xda>
2000432a:	863a                	mv	a2,a4
2000432c:	02b61463          	bne	a2,a1,20004354 <core::str::slice_error_fail+0x102>
20004330:	2000b537          	lui	a0,0x2000b
20004334:	dec50513          	addi	a0,a0,-532 # 2000adec <.Lanon.2c6bb00a6eab53dbfca994608b168c3b.159>
20004338:	100015b7          	lui	a1,0x10001
2000433c:	3bc58613          	addi	a2,a1,956 # 100013bc <.Lanon.2c6bb00a6eab53dbfca994608b168c3b.277>
20004340:	02b00593          	li	a1,43
20004344:	fffff097          	auipc	ra,0xfffff
20004348:	6ba080e7          	jalr	1722(ra) # 200039fe <core::panicking::panic>
2000434c:	00008097          	auipc	ra,0x8
20004350:	de0080e7          	jalr	-544(ra) # 2000c12c <abort>
20004354:	00c50733          	add	a4,a0,a2
20004358:	00070783          	lb	a5,0(a4)
2000435c:	0ff7f893          	andi	a7,a5,255
20004360:	56fd                	li	a3,-1
20004362:	00f6d863          	bge	a3,a5,20004372 <core::str::slice_error_fail+0x120>
20004366:	fb142623          	sw	a7,-84(s0)
2000436a:	4585                	li	a1,1
2000436c:	fb040513          	addi	a0,s0,-80
20004370:	a85d                	j	20004426 <core::str::slice_error_fail+0x1d4>
20004372:	952e                	add	a0,a0,a1
20004374:	00170593          	addi	a1,a4,1
20004378:	00a59863          	bne	a1,a0,20004388 <core::str::slice_error_fail+0x136>
2000437c:	87aa                	mv	a5,a0
2000437e:	4701                	li	a4,0
20004380:	a811                	j	20004394 <core::str::slice_error_fail+0x142>
20004382:	4701                	li	a4,0
20004384:	df19                	beqz	a4,200042a2 <core::str::slice_error_fail+0x50>
20004386:	b73d                	j	200042b4 <core::str::slice_error_fail+0x62>
20004388:	00270793          	addi	a5,a4,2
2000438c:	00174583          	lbu	a1,1(a4)
20004390:	03f5f713          	andi	a4,a1,63
20004394:	01f8f593          	andi	a1,a7,31
20004398:	0df00693          	li	a3,223
2000439c:	0116f763          	bgeu	a3,a7,200043aa <core::str::slice_error_fail+0x158>
200043a0:	00a79a63          	bne	a5,a0,200043b4 <core::str::slice_error_fail+0x162>
200043a4:	882a                	mv	a6,a0
200043a6:	4781                	li	a5,0
200043a8:	a821                	j	200043c0 <core::str::slice_error_fail+0x16e>
200043aa:	00659513          	slli	a0,a1,0x6
200043ae:	00a766b3          	or	a3,a4,a0
200043b2:	a889                	j	20004404 <core::str::slice_error_fail+0x1b2>
200043b4:	00178813          	addi	a6,a5,1
200043b8:	0007c683          	lbu	a3,0(a5)
200043bc:	03f6f793          	andi	a5,a3,63
200043c0:	00671693          	slli	a3,a4,0x6
200043c4:	00d7e733          	or	a4,a5,a3
200043c8:	0f000693          	li	a3,240
200043cc:	00d8e663          	bltu	a7,a3,200043d8 <core::str::slice_error_fail+0x186>
200043d0:	00a81963          	bne	a6,a0,200043e2 <core::str::slice_error_fail+0x190>
200043d4:	4501                	li	a0,0
200043d6:	a811                	j	200043ea <core::str::slice_error_fail+0x198>
200043d8:	00c59513          	slli	a0,a1,0xc
200043dc:	00a766b3          	or	a3,a4,a0
200043e0:	a015                	j	20004404 <core::str::slice_error_fail+0x1b2>
200043e2:	00084503          	lbu	a0,0(a6)
200043e6:	03f57513          	andi	a0,a0,63
200043ea:	05ca                	slli	a1,a1,0x12
200043ec:	001c06b7          	lui	a3,0x1c0
200043f0:	8df5                	and	a1,a1,a3
200043f2:	00671693          	slli	a3,a4,0x6
200043f6:	8dd5                	or	a1,a1,a3
200043f8:	00a5e6b3          	or	a3,a1,a0
200043fc:	00110537          	lui	a0,0x110
20004400:	f2a688e3          	beq	a3,a0,20004330 <core::str::slice_error_fail+0xde>
20004404:	4585                	li	a1,1
20004406:	fb040513          	addi	a0,s0,-80
2000440a:	fad42623          	sw	a3,-84(s0)
2000440e:	08000713          	li	a4,128
20004412:	00e6ea63          	bltu	a3,a4,20004426 <core::str::slice_error_fail+0x1d4>
20004416:	4589                	li	a1,2
20004418:	00b6d713          	srli	a4,a3,0xb
2000441c:	c709                	beqz	a4,20004426 <core::str::slice_error_fail+0x1d4>
2000441e:	82c1                	srli	a3,a3,0x10
20004420:	458d                	li	a1,3
20004422:	c291                	beqz	a3,20004426 <core::str::slice_error_fail+0x1d4>
20004424:	4591                	li	a1,4
20004426:	fac42823          	sw	a2,-80(s0)
2000442a:	95b2                	add	a1,a1,a2
2000442c:	fab42a23          	sw	a1,-76(s0)
20004430:	fd040593          	addi	a1,s0,-48
20004434:	fcb42423          	sw	a1,-56(s0)
20004438:	fc042023          	sw	zero,-64(s0)
2000443c:	4595                	li	a1,5
2000443e:	fcb42623          	sw	a1,-52(s0)
20004442:	fab42e23          	sw	a1,-68(s0)
20004446:	100015b7          	lui	a1,0x10001
2000444a:	3cc58593          	addi	a1,a1,972 # 100013cc <.Lanon.2c6bb00a6eab53dbfca994608b168c3b.281>
2000444e:	fab42c23          	sw	a1,-72(s0)
20004452:	fa040593          	addi	a1,s0,-96
20004456:	feb42823          	sw	a1,-16(s0)
2000445a:	200045b7          	lui	a1,0x20004
2000445e:	59c58593          	addi	a1,a1,1436 # 2000459c <<&T as core::fmt::Display>::fmt>
20004462:	feb42a23          	sw	a1,-12(s0)
20004466:	feb42623          	sw	a1,-20(s0)
2000446a:	f9840593          	addi	a1,s0,-104
2000446e:	feb42423          	sw	a1,-24(s0)
20004472:	200055b7          	lui	a1,0x20005
20004476:	92258593          	addi	a1,a1,-1758 # 20004922 <<core::ops::range::Range<Idx> as core::fmt::Debug>::fmt>
2000447a:	feb42223          	sw	a1,-28(s0)
2000447e:	fea42023          	sw	a0,-32(s0)
20004482:	20004537          	lui	a0,0x20004
20004486:	5ba50513          	addi	a0,a0,1466 # 200045ba <<char as core::fmt::Debug>::fmt>
2000448a:	fca42e23          	sw	a0,-36(s0)
2000448e:	fac40513          	addi	a0,s0,-84
20004492:	fca42c23          	sw	a0,-40(s0)
20004496:	20004537          	lui	a0,0x20004
2000449a:	ab050513          	addi	a0,a0,-1360 # 20003ab0 <core::fmt::num::imp::<impl core::fmt::Display for u32>::fmt>
2000449e:	fca42a23          	sw	a0,-44(s0)
200044a2:	fa840513          	addi	a0,s0,-88
200044a6:	fca42823          	sw	a0,-48(s0)
200044aa:	10001537          	lui	a0,0x10001
200044ae:	3f450593          	addi	a1,a0,1012 # 100013f4 <.Lanon.2c6bb00a6eab53dbfca994608b168c3b.282>
200044b2:	fb840513          	addi	a0,s0,-72
200044b6:	fffff097          	auipc	ra,0xfffff
200044ba:	612080e7          	jalr	1554(ra) # 20003ac8 <core::panicking::panic_fmt>
200044be:	00008097          	auipc	ra,0x8
200044c2:	c6e080e7          	jalr	-914(ra) # 2000c12c <abort>
200044c6:	00c5e363          	bltu	a1,a2,200044cc <core::str::slice_error_fail+0x27a>
200044ca:	8636                	mv	a2,a3
200044cc:	fac42823          	sw	a2,-80(s0)
200044d0:	fd040513          	addi	a0,s0,-48
200044d4:	fca42423          	sw	a0,-56(s0)
200044d8:	fc042023          	sw	zero,-64(s0)
200044dc:	450d                	li	a0,3
200044de:	fca42623          	sw	a0,-52(s0)
200044e2:	faa42e23          	sw	a0,-68(s0)
200044e6:	10001537          	lui	a0,0x10001
200044ea:	36450513          	addi	a0,a0,868 # 10001364 <.Lanon.2c6bb00a6eab53dbfca994608b168c3b.270>
200044ee:	faa42c23          	sw	a0,-72(s0)
200044f2:	fa040513          	addi	a0,s0,-96
200044f6:	fea42023          	sw	a0,-32(s0)
200044fa:	20004537          	lui	a0,0x20004
200044fe:	59c50513          	addi	a0,a0,1436 # 2000459c <<&T as core::fmt::Display>::fmt>
20004502:	fea42223          	sw	a0,-28(s0)
20004506:	fca42e23          	sw	a0,-36(s0)
2000450a:	f9840513          	addi	a0,s0,-104
2000450e:	fca42c23          	sw	a0,-40(s0)
20004512:	20004537          	lui	a0,0x20004
20004516:	ab050513          	addi	a0,a0,-1360 # 20003ab0 <core::fmt::num::imp::<impl core::fmt::Display for u32>::fmt>
2000451a:	fca42a23          	sw	a0,-44(s0)
2000451e:	fb040513          	addi	a0,s0,-80
20004522:	fca42823          	sw	a0,-48(s0)
20004526:	10001537          	lui	a0,0x10001
2000452a:	37c50593          	addi	a1,a0,892 # 1000137c <.Lanon.2c6bb00a6eab53dbfca994608b168c3b.271>
2000452e:	b751                	j	200044b2 <core::str::slice_error_fail+0x260>
20004530:	fd040513          	addi	a0,s0,-48
20004534:	fca42423          	sw	a0,-56(s0)
20004538:	fc042023          	sw	zero,-64(s0)
2000453c:	4511                	li	a0,4
2000453e:	fca42623          	sw	a0,-52(s0)
20004542:	faa42e23          	sw	a0,-68(s0)
20004546:	fa040513          	addi	a0,s0,-96
2000454a:	fea42423          	sw	a0,-24(s0)
2000454e:	20004537          	lui	a0,0x20004
20004552:	59c50513          	addi	a0,a0,1436 # 2000459c <<&T as core::fmt::Display>::fmt>
20004556:	fea42623          	sw	a0,-20(s0)
2000455a:	fea42223          	sw	a0,-28(s0)
2000455e:	f9840513          	addi	a0,s0,-104
20004562:	fea42023          	sw	a0,-32(s0)
20004566:	f9440513          	addi	a0,s0,-108
2000456a:	fca42c23          	sw	a0,-40(s0)
2000456e:	20004537          	lui	a0,0x20004
20004572:	ab050513          	addi	a0,a0,-1360 # 20003ab0 <core::fmt::num::imp::<impl core::fmt::Display for u32>::fmt>
20004576:	fca42e23          	sw	a0,-36(s0)
2000457a:	fca42a23          	sw	a0,-44(s0)
2000457e:	f9040513          	addi	a0,s0,-112
20004582:	fca42823          	sw	a0,-48(s0)
20004586:	10001537          	lui	a0,0x10001
2000458a:	38c50513          	addi	a0,a0,908 # 1000138c <.Lanon.2c6bb00a6eab53dbfca994608b168c3b.275>
2000458e:	faa42c23          	sw	a0,-72(s0)
20004592:	10001537          	lui	a0,0x10001
20004596:	3ac50593          	addi	a1,a0,940 # 100013ac <.Lanon.2c6bb00a6eab53dbfca994608b168c3b.276>
2000459a:	bf21                	j	200044b2 <core::str::slice_error_fail+0x260>

2000459c <<&T as core::fmt::Display>::fmt>:
2000459c:	1141                	addi	sp,sp,-16
2000459e:	c606                	sw	ra,12(sp)
200045a0:	c422                	sw	s0,8(sp)
200045a2:	0800                	addi	s0,sp,16
200045a4:	86ae                	mv	a3,a1
200045a6:	4150                	lw	a2,4(a0)
200045a8:	410c                	lw	a1,0(a0)
200045aa:	8536                	mv	a0,a3
200045ac:	4422                	lw	s0,8(sp)
200045ae:	40b2                	lw	ra,12(sp)
200045b0:	0141                	addi	sp,sp,16
200045b2:	00000317          	auipc	t1,0x0
200045b6:	a5030067          	jr	-1456(t1) # 20004002 <core::fmt::Formatter::pad>

200045ba <<char as core::fmt::Debug>::fmt>:
200045ba:	7179                	addi	sp,sp,-48
200045bc:	d606                	sw	ra,44(sp)
200045be:	d422                	sw	s0,40(sp)
200045c0:	d226                	sw	s1,36(sp)
200045c2:	d04a                	sw	s2,32(sp)
200045c4:	ce4e                	sw	s3,28(sp)
200045c6:	cc52                	sw	s4,24(sp)
200045c8:	ca56                	sw	s5,20(sp)
200045ca:	c85a                	sw	s6,16(sp)
200045cc:	c65e                	sw	s7,12(sp)
200045ce:	c462                	sw	s8,8(sp)
200045d0:	c266                	sw	s9,4(sp)
200045d2:	c06a                	sw	s10,0(sp)
200045d4:	1800                	addi	s0,sp,48
200045d6:	89ae                	mv	s3,a1
200045d8:	84aa                	mv	s1,a0
200045da:	4d88                	lw	a0,24(a1)
200045dc:	4dcc                	lw	a1,28(a1)
200045de:	4990                	lw	a2,16(a1)
200045e0:	02700593          	li	a1,39
200045e4:	9602                	jalr	a2
200045e6:	85aa                	mv	a1,a0
200045e8:	4505                	li	a0,1
200045ea:	2e059163          	bnez	a1,200048cc <<char as core::fmt::Debug>::fmt+0x312>
200045ee:	4a09                	li	s4,2
200045f0:	0004a903          	lw	s2,0(s1)
200045f4:	02100513          	li	a0,33
200045f8:	01254e63          	blt	a0,s2,20004614 <<char as core::fmt::Debug>::fmt+0x5a>
200045fc:	4525                	li	a0,9
200045fe:	04a90363          	beq	s2,a0,20004644 <<char as core::fmt::Debug>::fmt+0x8a>
20004602:	4529                	li	a0,10
20004604:	04a90363          	beq	s2,a0,2000464a <<char as core::fmt::Debug>::fmt+0x90>
20004608:	4535                	li	a0,13
2000460a:	02a91163          	bne	s2,a0,2000462c <<char as core::fmt::Debug>::fmt+0x72>
2000460e:	07200913          	li	s2,114
20004612:	ac09                	j	20004824 <<char as core::fmt::Debug>::fmt+0x26a>
20004614:	02200513          	li	a0,34
20004618:	20a90663          	beq	s2,a0,20004824 <<char as core::fmt::Debug>::fmt+0x26a>
2000461c:	02700513          	li	a0,39
20004620:	20a90263          	beq	s2,a0,20004824 <<char as core::fmt::Debug>::fmt+0x26a>
20004624:	05c00513          	li	a0,92
20004628:	1ea90e63          	beq	s2,a0,20004824 <<char as core::fmt::Debug>::fmt+0x26a>
2000462c:	00a95513          	srli	a0,s2,0xa
20004630:	07a00593          	li	a1,122
20004634:	00a5fe63          	bgeu	a1,a0,20004650 <<char as core::fmt::Debug>::fmt+0x96>
20004638:	45f9                	li	a1,30
2000463a:	38000613          	li	a2,896
2000463e:	02c50363          	beq	a0,a2,20004664 <<char as core::fmt::Debug>::fmt+0xaa>
20004642:	a205                	j	20004762 <<char as core::fmt::Debug>::fmt+0x1a8>
20004644:	07400913          	li	s2,116
20004648:	aaf1                	j	20004824 <<char as core::fmt::Debug>::fmt+0x26a>
2000464a:	06e00913          	li	s2,110
2000464e:	aad9                	j	20004824 <<char as core::fmt::Debug>::fmt+0x26a>
20004650:	2000b5b7          	lui	a1,0x2000b
20004654:	e7f58593          	addi	a1,a1,-385 # 2000ae7f <core::unicode::unicode_data::grapheme_extend::BITSET_CHUNKS_MAP>
20004658:	952e                	add	a0,a0,a1
2000465a:	00054583          	lbu	a1,0(a0)
2000465e:	4579                	li	a0,30
20004660:	2ab56463          	bltu	a0,a1,20004908 <<char as core::fmt::Debug>::fmt+0x34e>
20004664:	00695513          	srli	a0,s2,0x6
20004668:	893d                	andi	a0,a0,15
2000466a:	0592                	slli	a1,a1,0x4
2000466c:	8d4d                	or	a0,a0,a1
2000466e:	2000b5b7          	lui	a1,0x2000b
20004672:	efa58593          	addi	a1,a1,-262 # 2000aefa <core::unicode::unicode_data::grapheme_extend::BITSET_INDEX_CHUNKS>
20004676:	952e                	add	a0,a0,a1
20004678:	00054583          	lbu	a1,0(a0)
2000467c:	08b00513          	li	a0,139
20004680:	26a5f663          	bgeu	a1,a0,200048ec <<char as core::fmt::Debug>::fmt+0x332>
20004684:	2000b537          	lui	a0,0x2000b
20004688:	0f050513          	addi	a0,a0,240 # 2000b0f0 <core::unicode::unicode_data::grapheme_extend::BITSET>
2000468c:	058e                	slli	a1,a1,0x3
2000468e:	952e                	add	a0,a0,a1
20004690:	4585                	li	a1,1
20004692:	03f97613          	andi	a2,s2,63
20004696:	1601                	addi	a2,a2,-32
20004698:	00064463          	bltz	a2,200046a0 <<char as core::fmt::Debug>::fmt+0xe6>
2000469c:	4681                	li	a3,0
2000469e:	a019                	j	200046a4 <<char as core::fmt::Debug>::fmt+0xea>
200046a0:	012596b3          	sll	a3,a1,s2
200046a4:	4118                	lw	a4,0(a0)
200046a6:	8ef9                	and	a3,a3,a4
200046a8:	4701                	li	a4,0
200046aa:	00064463          	bltz	a2,200046b2 <<char as core::fmt::Debug>::fmt+0xf8>
200046ae:	00c59733          	sll	a4,a1,a2
200046b2:	4148                	lw	a0,4(a0)
200046b4:	8d79                	and	a0,a0,a4
200046b6:	8d55                	or	a0,a0,a3
200046b8:	c92d                	beqz	a0,2000472a <<char as core::fmt::Debug>::fmt+0x170>
200046ba:	00196513          	ori	a0,s2,1
200046be:	00155593          	srli	a1,a0,0x1
200046c2:	8d4d                	or	a0,a0,a1
200046c4:	00255593          	srli	a1,a0,0x2
200046c8:	8d4d                	or	a0,a0,a1
200046ca:	00455593          	srli	a1,a0,0x4
200046ce:	8d4d                	or	a0,a0,a1
200046d0:	00855593          	srli	a1,a0,0x8
200046d4:	8d4d                	or	a0,a0,a1
200046d6:	01055593          	srli	a1,a0,0x10
200046da:	8d4d                	or	a0,a0,a1
200046dc:	555555b7          	lui	a1,0x55555
200046e0:	55558593          	addi	a1,a1,1365 # 55555555 <_sapps+0x35525555>
200046e4:	fff54513          	not	a0,a0
200046e8:	00155613          	srli	a2,a0,0x1
200046ec:	8df1                	and	a1,a1,a2
200046ee:	8d0d                	sub	a0,a0,a1
200046f0:	333335b7          	lui	a1,0x33333
200046f4:	33358593          	addi	a1,a1,819 # 33333333 <_sapps+0x13303333>
200046f8:	00b57633          	and	a2,a0,a1
200046fc:	8109                	srli	a0,a0,0x2
200046fe:	8d6d                	and	a0,a0,a1
20004700:	9532                	add	a0,a0,a2
20004702:	00455593          	srli	a1,a0,0x4
20004706:	952e                	add	a0,a0,a1
20004708:	0f0f15b7          	lui	a1,0xf0f1
2000470c:	f0f58593          	addi	a1,a1,-241 # f0f0f0f <.Lline_table_start0+0xf0e1264>
20004710:	8d6d                	and	a0,a0,a1
20004712:	010105b7          	lui	a1,0x1010
20004716:	10158593          	addi	a1,a1,257 # 1010101 <.Lline_table_start0+0x1000456>
2000471a:	02b50533          	mul	a0,a0,a1
2000471e:	4a0d                	li	s4,3
20004720:	4495                	li	s1,5
20004722:	8169                	srli	a0,a0,0x1a
20004724:	00754a93          	xori	s5,a0,7
20004728:	a8fd                	j	20004826 <<char as core::fmt::Debug>::fmt+0x26c>
2000472a:	01095513          	srli	a0,s2,0x10
2000472e:	e915                	bnez	a0,20004762 <<char as core::fmt::Debug>::fmt+0x1a8>
20004730:	2000b537          	lui	a0,0x2000b
20004734:	56250593          	addi	a1,a0,1378 # 2000b562 <.Lanon.2c6bb00a6eab53dbfca994608b168c3b.305>
20004738:	2000b537          	lui	a0,0x2000b
2000473c:	5b450693          	addi	a3,a0,1460 # 2000b5b4 <.Lanon.2c6bb00a6eab53dbfca994608b168c3b.306>
20004740:	2000b537          	lui	a0,0x2000b
20004744:	6d950793          	addi	a5,a0,1753 # 2000b6d9 <.Lanon.2c6bb00a6eab53dbfca994608b168c3b.307>
20004748:	854a                	mv	a0,s2
2000474a:	02900613          	li	a2,41
2000474e:	12500713          	li	a4,293
20004752:	13a00813          	li	a6,314
20004756:	00000097          	auipc	ra,0x0
2000475a:	5f4080e7          	jalr	1524(ra) # 20004d4a <core::unicode::printable::check>
2000475e:	e171                	bnez	a0,20004822 <<char as core::fmt::Debug>::fmt+0x268>
20004760:	bfa9                	j	200046ba <<char as core::fmt::Debug>::fmt+0x100>
20004762:	01195513          	srli	a0,s2,0x11
20004766:	e915                	bnez	a0,2000479a <<char as core::fmt::Debug>::fmt+0x1e0>
20004768:	2000c537          	lui	a0,0x2000c
2000476c:	81350593          	addi	a1,a0,-2029 # 2000b813 <.Lanon.2c6bb00a6eab53dbfca994608b168c3b.308>
20004770:	2000c537          	lui	a0,0x2000c
20004774:	85950693          	addi	a3,a0,-1959 # 2000b859 <.Lanon.2c6bb00a6eab53dbfca994608b168c3b.309>
20004778:	2000c537          	lui	a0,0x2000c
2000477c:	8ff50793          	addi	a5,a0,-1793 # 2000b8ff <.Lanon.2c6bb00a6eab53dbfca994608b168c3b.310>
20004780:	854a                	mv	a0,s2
20004782:	02300613          	li	a2,35
20004786:	0a600713          	li	a4,166
2000478a:	19800813          	li	a6,408
2000478e:	00000097          	auipc	ra,0x0
20004792:	5bc080e7          	jalr	1468(ra) # 20004d4a <core::unicode::printable::check>
20004796:	d115                	beqz	a0,200046ba <<char as core::fmt::Debug>::fmt+0x100>
20004798:	a069                	j	20004822 <<char as core::fmt::Debug>::fmt+0x268>
2000479a:	fff20537          	lui	a0,0xfff20
2000479e:	e1050513          	addi	a0,a0,-496 # fff1fe10 <_sapps+0xdfeefe10>
200047a2:	954a                	add	a0,a0,s2
200047a4:	000305b7          	lui	a1,0x30
200047a8:	e1058593          	addi	a1,a1,-496 # 2fe10 <.Lline_table_start0+0x20165>
200047ac:	f0b567e3          	bltu	a0,a1,200046ba <<char as core::fmt::Debug>::fmt+0x100>
200047b0:	fffd0537          	lui	a0,0xfffd0
200047b4:	5e250513          	addi	a0,a0,1506 # fffd05e2 <_sapps+0xdffa05e2>
200047b8:	954a                	add	a0,a0,s2
200047ba:	000b05b7          	lui	a1,0xb0
200047be:	6e258593          	addi	a1,a1,1762 # b06e2 <.Lline_table_start0+0xa0a37>
200047c2:	eeb56ce3          	bltu	a0,a1,200046ba <<char as core::fmt::Debug>::fmt+0x100>
200047c6:	fffd1537          	lui	a0,0xfffd1
200047ca:	41f50513          	addi	a0,a0,1055 # fffd141f <_sapps+0xdffa141f>
200047ce:	954a                	add	a0,a0,s2
200047d0:	6585                	lui	a1,0x1
200047d2:	c1f58593          	addi	a1,a1,-993 # c1f <MPU_MIN_ALIGN+0x81f>
200047d6:	eeb562e3          	bltu	a0,a1,200046ba <<char as core::fmt::Debug>::fmt+0x100>
200047da:	fffd3537          	lui	a0,0xfffd3
200047de:	15e50513          	addi	a0,a0,350 # fffd315e <_sapps+0xdffa315e>
200047e2:	954a                	add	a0,a0,s2
200047e4:	45b9                	li	a1,14
200047e6:	ecb56ae3          	bltu	a0,a1,200046ba <<char as core::fmt::Debug>::fmt+0x100>
200047ea:	00200537          	lui	a0,0x200
200047ee:	1579                	addi	a0,a0,-2
200047f0:	00a97533          	and	a0,s2,a0
200047f4:	0002c5b7          	lui	a1,0x2c
200047f8:	81e58593          	addi	a1,a1,-2018 # 2b81e <.Lline_table_start0+0x1bb73>
200047fc:	eab50fe3          	beq	a0,a1,200046ba <<char as core::fmt::Debug>::fmt+0x100>
20004800:	fffd6537          	lui	a0,0xfffd6
20004804:	92950513          	addi	a0,a0,-1751 # fffd5929 <_sapps+0xdffa5929>
20004808:	954a                	add	a0,a0,s2
2000480a:	02900593          	li	a1,41
2000480e:	eab566e3          	bltu	a0,a1,200046ba <<char as core::fmt::Debug>::fmt+0x100>
20004812:	fffd5537          	lui	a0,0xfffd5
20004816:	8cb50513          	addi	a0,a0,-1845 # fffd48cb <_sapps+0xdffa48cb>
2000481a:	954a                	add	a0,a0,s2
2000481c:	45a9                	li	a1,10
2000481e:	e8a5fee3          	bgeu	a1,a0,200046ba <<char as core::fmt::Debug>::fmt+0x100>
20004822:	4a05                	li	s4,1
20004824:	4481                	li	s1,0
20004826:	4b09                	li	s6,2
20004828:	4b85                	li	s7,1
2000482a:	4c29                	li	s8,10
2000482c:	4c8d                	li	s9,3
2000482e:	4d11                	li	s10,4
20004830:	014bdd63          	bge	s7,s4,2000484a <<char as core::fmt::Debug>::fmt+0x290>
20004834:	a005                	j	20004854 <<char as core::fmt::Debug>::fmt+0x29a>
20004836:	4a05                	li	s4,1
20004838:	0189a503          	lw	a0,24(s3)
2000483c:	01c9a603          	lw	a2,28(s3)
20004840:	4a10                	lw	a2,16(a2)
20004842:	9602                	jalr	a2
20004844:	e155                	bnez	a0,200048e8 <<char as core::fmt::Debug>::fmt+0x32e>
20004846:	014bc763          	blt	s7,s4,20004854 <<char as core::fmt::Debug>::fmt+0x29a>
2000484a:	060a0963          	beqz	s4,200048bc <<char as core::fmt::Debug>::fmt+0x302>
2000484e:	85ca                	mv	a1,s2
20004850:	4a01                	li	s4,0
20004852:	b7dd                	j	20004838 <<char as core::fmt::Debug>::fmt+0x27e>
20004854:	05c00593          	li	a1,92
20004858:	fd6a0fe3          	beq	s4,s6,20004836 <<char as core::fmt::Debug>::fmt+0x27c>
2000485c:	4a0d                	li	s4,3
2000485e:	0ff4f513          	andi	a0,s1,255
20004862:	00ab4963          	blt	s6,a0,20004874 <<char as core::fmt::Debug>::fmt+0x2ba>
20004866:	c939                	beqz	a0,200048bc <<char as core::fmt::Debug>::fmt+0x302>
20004868:	03751463          	bne	a0,s7,20004890 <<char as core::fmt::Debug>::fmt+0x2d6>
2000486c:	07d00593          	li	a1,125
20004870:	4481                	li	s1,0
20004872:	b7d9                	j	20004838 <<char as core::fmt::Debug>::fmt+0x27e>
20004874:	01950a63          	beq	a0,s9,20004888 <<char as core::fmt::Debug>::fmt+0x2ce>
20004878:	4491                	li	s1,4
2000487a:	fba51fe3          	bne	a0,s10,20004838 <<char as core::fmt::Debug>::fmt+0x27e>
2000487e:	4a0d                	li	s4,3
20004880:	07500593          	li	a1,117
20004884:	448d                	li	s1,3
20004886:	bf4d                	j	20004838 <<char as core::fmt::Debug>::fmt+0x27e>
20004888:	4489                	li	s1,2
2000488a:	07b00593          	li	a1,123
2000488e:	b76d                	j	20004838 <<char as core::fmt::Debug>::fmt+0x27e>
20004890:	002a9513          	slli	a0,s5,0x2
20004894:	8971                	andi	a0,a0,28
20004896:	00a95533          	srl	a0,s2,a0
2000489a:	893d                	andi	a0,a0,15
2000489c:	01856563          	bltu	a0,s8,200048a6 <<char as core::fmt::Debug>::fmt+0x2ec>
200048a0:	05750593          	addi	a1,a0,87
200048a4:	a019                	j	200048aa <<char as core::fmt::Debug>::fmt+0x2f0>
200048a6:	03056593          	ori	a1,a0,48
200048aa:	4485                	li	s1,1
200048ac:	4501                	li	a0,0
200048ae:	000a8563          	beqz	s5,200048b8 <<char as core::fmt::Debug>::fmt+0x2fe>
200048b2:	4489                	li	s1,2
200048b4:	fffa8513          	addi	a0,s5,-1
200048b8:	8aaa                	mv	s5,a0
200048ba:	bfbd                	j	20004838 <<char as core::fmt::Debug>::fmt+0x27e>
200048bc:	0189a503          	lw	a0,24(s3)
200048c0:	01c9a583          	lw	a1,28(s3)
200048c4:	4990                	lw	a2,16(a1)
200048c6:	02700593          	li	a1,39
200048ca:	9602                	jalr	a2
200048cc:	4d02                	lw	s10,0(sp)
200048ce:	4c92                	lw	s9,4(sp)
200048d0:	4c22                	lw	s8,8(sp)
200048d2:	4bb2                	lw	s7,12(sp)
200048d4:	4b42                	lw	s6,16(sp)
200048d6:	4ad2                	lw	s5,20(sp)
200048d8:	4a62                	lw	s4,24(sp)
200048da:	49f2                	lw	s3,28(sp)
200048dc:	5902                	lw	s2,32(sp)
200048de:	5492                	lw	s1,36(sp)
200048e0:	5422                	lw	s0,40(sp)
200048e2:	50b2                	lw	ra,44(sp)
200048e4:	6145                	addi	sp,sp,48
200048e6:	8082                	ret
200048e8:	4505                	li	a0,1
200048ea:	b7cd                	j	200048cc <<char as core::fmt::Debug>::fmt+0x312>
200048ec:	10001537          	lui	a0,0x10001
200048f0:	44c50513          	addi	a0,a0,1100 # 1000144c <.Lanon.2c6bb00a6eab53dbfca994608b168c3b.313>
200048f4:	08b00613          	li	a2,139
200048f8:	fffff097          	auipc	ra,0xfffff
200048fc:	14e080e7          	jalr	334(ra) # 20003a46 <core::panicking::panic_bounds_check>
20004900:	00008097          	auipc	ra,0x8
20004904:	82c080e7          	jalr	-2004(ra) # 2000c12c <abort>
20004908:	10001537          	lui	a0,0x10001
2000490c:	43c50513          	addi	a0,a0,1084 # 1000143c <.Lanon.2c6bb00a6eab53dbfca994608b168c3b.312>
20004910:	467d                	li	a2,31
20004912:	fffff097          	auipc	ra,0xfffff
20004916:	134080e7          	jalr	308(ra) # 20003a46 <core::panicking::panic_bounds_check>
2000491a:	00008097          	auipc	ra,0x8
2000491e:	812080e7          	jalr	-2030(ra) # 2000c12c <abort>

20004922 <<core::ops::range::Range<Idx> as core::fmt::Debug>::fmt>:
20004922:	7179                	addi	sp,sp,-48
20004924:	d606                	sw	ra,44(sp)
20004926:	d422                	sw	s0,40(sp)
20004928:	d226                	sw	s1,36(sp)
2000492a:	d04a                	sw	s2,32(sp)
2000492c:	1800                	addi	s0,sp,48
2000492e:	84ae                	mv	s1,a1
20004930:	892a                	mv	s2,a0
20004932:	4108                	lw	a0,0(a0)
20004934:	00000097          	auipc	ra,0x0
20004938:	068080e7          	jalr	104(ra) # 2000499c <_ZN4core3fmt3num52_$LT$impl$u20$core..fmt..Debug$u20$for$u20$usize$GT$3fmt17hc8b62ab7ab2d2943E.409>
2000493c:	ed0d                	bnez	a0,20004976 <<core::ops::range::Range<Idx> as core::fmt::Debug>::fmt+0x54>
2000493e:	4ccc                	lw	a1,28(s1)
20004940:	4c88                	lw	a0,24(s1)
20004942:	2000c637          	lui	a2,0x2000c
20004946:	fa860613          	addi	a2,a2,-88 # 2000bfa8 <.L__unnamed_92>
2000494a:	fec42423          	sw	a2,-24(s0)
2000494e:	fe042623          	sw	zero,-20(s0)
20004952:	fe042023          	sw	zero,-32(s0)
20004956:	4605                	li	a2,1
20004958:	fcc42e23          	sw	a2,-36(s0)
2000495c:	10001637          	lui	a2,0x10001
20004960:	40460613          	addi	a2,a2,1028 # 10001404 <.Lanon.2c6bb00a6eab53dbfca994608b168c3b.126>
20004964:	fcc42c23          	sw	a2,-40(s0)
20004968:	fd840613          	addi	a2,s0,-40
2000496c:	00000097          	auipc	ra,0x0
20004970:	0fa080e7          	jalr	250(ra) # 20004a66 <core::fmt::write>
20004974:	c901                	beqz	a0,20004984 <<core::ops::range::Range<Idx> as core::fmt::Debug>::fmt+0x62>
20004976:	4505                	li	a0,1
20004978:	5902                	lw	s2,32(sp)
2000497a:	5492                	lw	s1,36(sp)
2000497c:	5422                	lw	s0,40(sp)
2000497e:	50b2                	lw	ra,44(sp)
20004980:	6145                	addi	sp,sp,48
20004982:	8082                	ret
20004984:	00492503          	lw	a0,4(s2)
20004988:	85a6                	mv	a1,s1
2000498a:	5902                	lw	s2,32(sp)
2000498c:	5492                	lw	s1,36(sp)
2000498e:	5422                	lw	s0,40(sp)
20004990:	50b2                	lw	ra,44(sp)
20004992:	6145                	addi	sp,sp,48
20004994:	00000317          	auipc	t1,0x0
20004998:	00830067          	jr	8(t1) # 2000499c <_ZN4core3fmt3num52_$LT$impl$u20$core..fmt..Debug$u20$for$u20$usize$GT$3fmt17hc8b62ab7ab2d2943E.409>

2000499c <_ZN4core3fmt3num52_$LT$impl$u20$core..fmt..Debug$u20$for$u20$usize$GT$3fmt17hc8b62ab7ab2d2943E.409>:
2000499c:	7175                	addi	sp,sp,-144
2000499e:	c706                	sw	ra,140(sp)
200049a0:	c522                	sw	s0,136(sp)
200049a2:	0900                	addi	s0,sp,144
200049a4:	4190                	lw	a2,0(a1)
200049a6:	01067693          	andi	a3,a2,16
200049aa:	ea89                	bnez	a3,200049bc <_ZN4core3fmt3num52_$LT$impl$u20$core..fmt..Debug$u20$for$u20$usize$GT$3fmt17hc8b62ab7ab2d2943E.409+0x20>
200049ac:	02067613          	andi	a2,a2,32
200049b0:	ee15                	bnez	a2,200049ec <_ZN4core3fmt3num52_$LT$impl$u20$core..fmt..Debug$u20$for$u20$usize$GT$3fmt17hc8b62ab7ab2d2943E.409+0x50>
200049b2:	fffff097          	auipc	ra,0xfffff
200049b6:	182080e7          	jalr	386(ra) # 20003b34 <core::fmt::num::imp::fmt_u32>
200049ba:	a841                	j	20004a4a <_ZN4core3fmt3num52_$LT$impl$u20$core..fmt..Debug$u20$for$u20$usize$GT$3fmt17hc8b62ab7ab2d2943E.409+0xae>
200049bc:	4729                	li	a4,10
200049be:	f7840813          	addi	a6,s0,-136
200049c2:	4681                	li	a3,0
200049c4:	00f57793          	andi	a5,a0,15
200049c8:	00e7ef63          	bltu	a5,a4,200049e6 <_ZN4core3fmt3num52_$LT$impl$u20$core..fmt..Debug$u20$for$u20$usize$GT$3fmt17hc8b62ab7ab2d2943E.409+0x4a>
200049cc:	05778793          	addi	a5,a5,87
200049d0:	00d80633          	add	a2,a6,a3
200049d4:	06f60fa3          	sb	a5,127(a2)
200049d8:	16fd                	addi	a3,a3,-1
200049da:	8111                	srli	a0,a0,0x4
200049dc:	c121                	beqz	a0,20004a1c <_ZN4core3fmt3num52_$LT$impl$u20$core..fmt..Debug$u20$for$u20$usize$GT$3fmt17hc8b62ab7ab2d2943E.409+0x80>
200049de:	00f57793          	andi	a5,a0,15
200049e2:	fee7f5e3          	bgeu	a5,a4,200049cc <_ZN4core3fmt3num52_$LT$impl$u20$core..fmt..Debug$u20$for$u20$usize$GT$3fmt17hc8b62ab7ab2d2943E.409+0x30>
200049e6:	0307e793          	ori	a5,a5,48
200049ea:	b7dd                	j	200049d0 <_ZN4core3fmt3num52_$LT$impl$u20$core..fmt..Debug$u20$for$u20$usize$GT$3fmt17hc8b62ab7ab2d2943E.409+0x34>
200049ec:	4729                	li	a4,10
200049ee:	f7840813          	addi	a6,s0,-136
200049f2:	4681                	li	a3,0
200049f4:	00f57793          	andi	a5,a0,15
200049f8:	00e7ef63          	bltu	a5,a4,20004a16 <_ZN4core3fmt3num52_$LT$impl$u20$core..fmt..Debug$u20$for$u20$usize$GT$3fmt17hc8b62ab7ab2d2943E.409+0x7a>
200049fc:	03778793          	addi	a5,a5,55
20004a00:	00d80633          	add	a2,a6,a3
20004a04:	06f60fa3          	sb	a5,127(a2)
20004a08:	16fd                	addi	a3,a3,-1
20004a0a:	8111                	srli	a0,a0,0x4
20004a0c:	c901                	beqz	a0,20004a1c <_ZN4core3fmt3num52_$LT$impl$u20$core..fmt..Debug$u20$for$u20$usize$GT$3fmt17hc8b62ab7ab2d2943E.409+0x80>
20004a0e:	00f57793          	andi	a5,a0,15
20004a12:	fee7f5e3          	bgeu	a5,a4,200049fc <_ZN4core3fmt3num52_$LT$impl$u20$core..fmt..Debug$u20$for$u20$usize$GT$3fmt17hc8b62ab7ab2d2943E.409+0x60>
20004a16:	0307e793          	ori	a5,a5,48
20004a1a:	b7dd                	j	20004a00 <_ZN4core3fmt3num52_$LT$impl$u20$core..fmt..Debug$u20$for$u20$usize$GT$3fmt17hc8b62ab7ab2d2943E.409+0x64>
20004a1c:	08068513          	addi	a0,a3,128 # 1c0080 <.Lline_table_start0+0x1b03d5>
20004a20:	08100613          	li	a2,129
20004a24:	02c57763          	bgeu	a0,a2,20004a52 <_ZN4core3fmt3num52_$LT$impl$u20$core..fmt..Debug$u20$for$u20$usize$GT$3fmt17hc8b62ab7ab2d2943E.409+0xb6>
20004a28:	40d00733          	neg	a4,a3
20004a2c:	00d80533          	add	a0,a6,a3
20004a30:	08050693          	addi	a3,a0,128
20004a34:	2000b537          	lui	a0,0x2000b
20004a38:	e7d50613          	addi	a2,a0,-387 # 2000ae7d <.Lanon.2c6bb00a6eab53dbfca994608b168c3b.201>
20004a3c:	852e                	mv	a0,a1
20004a3e:	85b2                	mv	a1,a2
20004a40:	4609                	li	a2,2
20004a42:	fffff097          	auipc	ra,0xfffff
20004a46:	266080e7          	jalr	614(ra) # 20003ca8 <core::fmt::Formatter::pad_integral>
20004a4a:	442a                	lw	s0,136(sp)
20004a4c:	40ba                	lw	ra,140(sp)
20004a4e:	6149                	addi	sp,sp,144
20004a50:	8082                	ret
20004a52:	08000593          	li	a1,128
20004a56:	fffff097          	auipc	ra,0xfffff
20004a5a:	53e080e7          	jalr	1342(ra) # 20003f94 <core::slice::slice_index_order_fail>
20004a5e:	00007097          	auipc	ra,0x7
20004a62:	6ce080e7          	jalr	1742(ra) # 2000c12c <abort>

20004a66 <core::fmt::write>:
20004a66:	7159                	addi	sp,sp,-112
20004a68:	d686                	sw	ra,108(sp)
20004a6a:	d4a2                	sw	s0,104(sp)
20004a6c:	d2a6                	sw	s1,100(sp)
20004a6e:	d0ca                	sw	s2,96(sp)
20004a70:	cece                	sw	s3,92(sp)
20004a72:	ccd2                	sw	s4,88(sp)
20004a74:	cad6                	sw	s5,84(sp)
20004a76:	c8da                	sw	s6,80(sp)
20004a78:	c6de                	sw	s7,76(sp)
20004a7a:	c4e2                	sw	s8,72(sp)
20004a7c:	c2e6                	sw	s9,68(sp)
20004a7e:	c0ea                	sw	s10,64(sp)
20004a80:	de6e                	sw	s11,60(sp)
20004a82:	1880                	addi	s0,sp,112
20004a84:	4a04                	lw	s1,16(a2)
20004a86:	4a54                	lw	a3,20(a2)
20004a88:	470d                	li	a4,3
20004a8a:	fce40423          	sb	a4,-56(s0)
20004a8e:	02000713          	li	a4,32
20004a92:	f8e42e23          	sw	a4,-100(s0)
20004a96:	fab42a23          	sw	a1,-76(s0)
20004a9a:	faa42823          	sw	a0,-80(s0)
20004a9e:	00369713          	slli	a4,a3,0x3
20004aa2:	9726                	add	a4,a4,s1
20004aa4:	fae42e23          	sw	a4,-68(s0)
20004aa8:	fcd42223          	sw	a3,-60(s0)
20004aac:	fc942023          	sw	s1,-64(s0)
20004ab0:	fa942c23          	sw	s1,-72(s0)
20004ab4:	f8042c23          	sw	zero,-104(s0)
20004ab8:	fa042423          	sw	zero,-88(s0)
20004abc:	fa042023          	sw	zero,-96(s0)
20004ac0:	00862903          	lw	s2,8(a2)
20004ac4:	16090c63          	beqz	s2,20004c3c <core::fmt::write+0x1d6>
20004ac8:	4654                	lw	a3,12(a2)
20004aca:	00462983          	lw	s3,4(a2)
20004ace:	8b4e                	mv	s6,s3
20004ad0:	00d9e363          	bltu	s3,a3,20004ad6 <core::fmt::write+0x70>
20004ad4:	8b36                	mv	s6,a3
20004ad6:	00062a03          	lw	s4,0(a2)
20004ada:	1c0b0163          	beqz	s6,20004c9c <core::fmt::write+0x236>
20004ade:	45d4                	lw	a3,12(a1)
20004ae0:	004a2603          	lw	a2,4(s4)
20004ae4:	000a2583          	lw	a1,0(s4)
20004ae8:	9682                	jalr	a3
20004aea:	4a85                	li	s5,1
20004aec:	1c051963          	bnez	a0,20004cbe <core::fmt::write+0x258>
20004af0:	4b85                	li	s7,1
20004af2:	01090493          	addi	s1,s2,16
20004af6:	00ca0c93          	addi	s9,s4,12
20004afa:	20005537          	lui	a0,0x20005
20004afe:	d3250d13          	addi	s10,a0,-718 # 20004d32 <core::fmt::ArgumentV1::show_usize>
20004b02:	f9840913          	addi	s2,s0,-104
20004b06:	4d8d                	li	s11,3
20004b08:	4c05                	li	s8,1
20004b0a:	ff84a503          	lw	a0,-8(s1)
20004b0e:	f8a42e23          	sw	a0,-100(s0)
20004b12:	01048503          	lb	a0,16(s1)
20004b16:	fca40423          	sb	a0,-56(s0)
20004b1a:	ffc4a503          	lw	a0,-4(s1)
20004b1e:	f8a42c23          	sw	a0,-104(s0)
20004b22:	4488                	lw	a0,8(s1)
20004b24:	00abc663          	blt	s7,a0,20004b30 <core::fmt::write+0xca>
20004b28:	e50d                	bnez	a0,20004b52 <core::fmt::write+0xec>
20004b2a:	4505                	li	a0,1
20004b2c:	44cc                	lw	a1,12(s1)
20004b2e:	a091                	j	20004b72 <core::fmt::write+0x10c>
20004b30:	01b50f63          	beq	a0,s11,20004b4e <core::fmt::write+0xe8>
20004b34:	fb842583          	lw	a1,-72(s0)
20004b38:	fbc42503          	lw	a0,-68(s0)
20004b3c:	00a58963          	beq	a1,a0,20004b4e <core::fmt::write+0xe8>
20004b40:	00858513          	addi	a0,a1,8
20004b44:	faa42c23          	sw	a0,-72(s0)
20004b48:	41c8                	lw	a0,4(a1)
20004b4a:	03a50163          	beq	a0,s10,20004b6c <core::fmt::write+0x106>
20004b4e:	4501                	li	a0,0
20004b50:	a00d                	j	20004b72 <core::fmt::write+0x10c>
20004b52:	44cc                	lw	a1,12(s1)
20004b54:	fc442603          	lw	a2,-60(s0)
20004b58:	18c5f363          	bgeu	a1,a2,20004cde <core::fmt::write+0x278>
20004b5c:	00359513          	slli	a0,a1,0x3
20004b60:	fc042583          	lw	a1,-64(s0)
20004b64:	95aa                	add	a1,a1,a0
20004b66:	41c8                	lw	a0,4(a1)
20004b68:	ffa513e3          	bne	a0,s10,20004b4e <core::fmt::write+0xe8>
20004b6c:	4505                	li	a0,1
20004b6e:	418c                	lw	a1,0(a1)
20004b70:	418c                	lw	a1,0(a1)
20004b72:	fab42223          	sw	a1,-92(s0)
20004b76:	faa42023          	sw	a0,-96(s0)
20004b7a:	4088                	lw	a0,0(s1)
20004b7c:	00abc663          	blt	s7,a0,20004b88 <core::fmt::write+0x122>
20004b80:	e50d                	bnez	a0,20004baa <core::fmt::write+0x144>
20004b82:	4505                	li	a0,1
20004b84:	40cc                	lw	a1,4(s1)
20004b86:	a091                	j	20004bca <core::fmt::write+0x164>
20004b88:	01b50f63          	beq	a0,s11,20004ba6 <core::fmt::write+0x140>
20004b8c:	fb842583          	lw	a1,-72(s0)
20004b90:	fbc42503          	lw	a0,-68(s0)
20004b94:	00a58963          	beq	a1,a0,20004ba6 <core::fmt::write+0x140>
20004b98:	00858513          	addi	a0,a1,8
20004b9c:	faa42c23          	sw	a0,-72(s0)
20004ba0:	41c8                	lw	a0,4(a1)
20004ba2:	03a50163          	beq	a0,s10,20004bc4 <core::fmt::write+0x15e>
20004ba6:	4501                	li	a0,0
20004ba8:	a00d                	j	20004bca <core::fmt::write+0x164>
20004baa:	40cc                	lw	a1,4(s1)
20004bac:	fc442603          	lw	a2,-60(s0)
20004bb0:	12c5f763          	bgeu	a1,a2,20004cde <core::fmt::write+0x278>
20004bb4:	00359513          	slli	a0,a1,0x3
20004bb8:	fc042583          	lw	a1,-64(s0)
20004bbc:	95aa                	add	a1,a1,a0
20004bbe:	41c8                	lw	a0,4(a1)
20004bc0:	ffa513e3          	bne	a0,s10,20004ba6 <core::fmt::write+0x140>
20004bc4:	4505                	li	a0,1
20004bc6:	418c                	lw	a1,0(a1)
20004bc8:	418c                	lw	a1,0(a1)
20004bca:	fab42623          	sw	a1,-84(s0)
20004bce:	faa42423          	sw	a0,-88(s0)
20004bd2:	ff04a503          	lw	a0,-16(s1)
20004bd6:	01751e63          	bne	a0,s7,20004bf2 <core::fmt::write+0x18c>
20004bda:	ff44a583          	lw	a1,-12(s1)
20004bde:	fc442603          	lw	a2,-60(s0)
20004be2:	10c5fa63          	bgeu	a1,a2,20004cf6 <core::fmt::write+0x290>
20004be6:	00359513          	slli	a0,a1,0x3
20004bea:	fc042583          	lw	a1,-64(s0)
20004bee:	952e                	add	a0,a0,a1
20004bf0:	a819                	j	20004c06 <core::fmt::write+0x1a0>
20004bf2:	fb842503          	lw	a0,-72(s0)
20004bf6:	fbc42583          	lw	a1,-68(s0)
20004bfa:	10b50a63          	beq	a0,a1,20004d0e <core::fmt::write+0x2a8>
20004bfe:	00850593          	addi	a1,a0,8
20004c02:	fab42c23          	sw	a1,-72(s0)
20004c06:	00450593          	addi	a1,a0,4
20004c0a:	4190                	lw	a2,0(a1)
20004c0c:	4108                	lw	a0,0(a0)
20004c0e:	85ca                	mv	a1,s2
20004c10:	9602                	jalr	a2
20004c12:	4a85                	li	s5,1
20004c14:	e54d                	bnez	a0,20004cbe <core::fmt::write+0x258>
20004c16:	096c7463          	bgeu	s8,s6,20004c9e <core::fmt::write+0x238>
20004c1a:	fb442503          	lw	a0,-76(s0)
20004c1e:	4554                	lw	a3,12(a0)
20004c20:	000ca603          	lw	a2,0(s9)
20004c24:	ffcca583          	lw	a1,-4(s9)
20004c28:	fb042503          	lw	a0,-80(s0)
20004c2c:	9682                	jalr	a3
20004c2e:	02448493          	addi	s1,s1,36
20004c32:	0ca1                	addi	s9,s9,8
20004c34:	0c05                	addi	s8,s8,1
20004c36:	ec050ae3          	beqz	a0,20004b0a <core::fmt::write+0xa4>
20004c3a:	a051                	j	20004cbe <core::fmt::write+0x258>
20004c3c:	00462983          	lw	s3,4(a2)
20004c40:	8b4e                	mv	s6,s3
20004c42:	00d9e363          	bltu	s3,a3,20004c48 <core::fmt::write+0x1e2>
20004c46:	8b36                	mv	s6,a3
20004c48:	00062a03          	lw	s4,0(a2)
20004c4c:	040b0863          	beqz	s6,20004c9c <core::fmt::write+0x236>
20004c50:	45d4                	lw	a3,12(a1)
20004c52:	004a2603          	lw	a2,4(s4)
20004c56:	000a2583          	lw	a1,0(s4)
20004c5a:	9682                	jalr	a3
20004c5c:	4a85                	li	s5,1
20004c5e:	e125                	bnez	a0,20004cbe <core::fmt::write+0x258>
20004c60:	4a85                	li	s5,1
20004c62:	0491                	addi	s1,s1,4
20004c64:	00ca0b93          	addi	s7,s4,12
20004c68:	f9840913          	addi	s2,s0,-104
20004c6c:	4c05                	li	s8,1
20004c6e:	ffc4a503          	lw	a0,-4(s1)
20004c72:	4090                	lw	a2,0(s1)
20004c74:	85ca                	mv	a1,s2
20004c76:	9602                	jalr	a2
20004c78:	e139                	bnez	a0,20004cbe <core::fmt::write+0x258>
20004c7a:	036c7263          	bgeu	s8,s6,20004c9e <core::fmt::write+0x238>
20004c7e:	fb442503          	lw	a0,-76(s0)
20004c82:	4554                	lw	a3,12(a0)
20004c84:	000ba603          	lw	a2,0(s7)
20004c88:	ffcba583          	lw	a1,-4(s7)
20004c8c:	fb042503          	lw	a0,-80(s0)
20004c90:	9682                	jalr	a3
20004c92:	04a1                	addi	s1,s1,8
20004c94:	0ba1                	addi	s7,s7,8
20004c96:	0c05                	addi	s8,s8,1
20004c98:	d979                	beqz	a0,20004c6e <core::fmt::write+0x208>
20004c9a:	a015                	j	20004cbe <core::fmt::write+0x258>
20004c9c:	4c01                	li	s8,0
20004c9e:	013c7f63          	bgeu	s8,s3,20004cbc <core::fmt::write+0x256>
20004ca2:	003c1513          	slli	a0,s8,0x3
20004ca6:	9552                	add	a0,a0,s4
20004ca8:	4150                	lw	a2,4(a0)
20004caa:	410c                	lw	a1,0(a0)
20004cac:	fb442503          	lw	a0,-76(s0)
20004cb0:	4554                	lw	a3,12(a0)
20004cb2:	fb042503          	lw	a0,-80(s0)
20004cb6:	9682                	jalr	a3
20004cb8:	4a85                	li	s5,1
20004cba:	e111                	bnez	a0,20004cbe <core::fmt::write+0x258>
20004cbc:	4a81                	li	s5,0
20004cbe:	8556                	mv	a0,s5
20004cc0:	5df2                	lw	s11,60(sp)
20004cc2:	4d06                	lw	s10,64(sp)
20004cc4:	4c96                	lw	s9,68(sp)
20004cc6:	4c26                	lw	s8,72(sp)
20004cc8:	4bb6                	lw	s7,76(sp)
20004cca:	4b46                	lw	s6,80(sp)
20004ccc:	4ad6                	lw	s5,84(sp)
20004cce:	4a66                	lw	s4,88(sp)
20004cd0:	49f6                	lw	s3,92(sp)
20004cd2:	5906                	lw	s2,96(sp)
20004cd4:	5496                	lw	s1,100(sp)
20004cd6:	5426                	lw	s0,104(sp)
20004cd8:	50b6                	lw	ra,108(sp)
20004cda:	6165                	addi	sp,sp,112
20004cdc:	8082                	ret
20004cde:	10001537          	lui	a0,0x10001
20004ce2:	40c50513          	addi	a0,a0,1036 # 1000140c <.Lanon.2c6bb00a6eab53dbfca994608b168c3b.207>
20004ce6:	fffff097          	auipc	ra,0xfffff
20004cea:	d60080e7          	jalr	-672(ra) # 20003a46 <core::panicking::panic_bounds_check>
20004cee:	00007097          	auipc	ra,0x7
20004cf2:	43e080e7          	jalr	1086(ra) # 2000c12c <abort>
20004cf6:	10001537          	lui	a0,0x10001
20004cfa:	42c50513          	addi	a0,a0,1068 # 1000142c <.Lanon.2c6bb00a6eab53dbfca994608b168c3b.205>
20004cfe:	fffff097          	auipc	ra,0xfffff
20004d02:	d48080e7          	jalr	-696(ra) # 20003a46 <core::panicking::panic_bounds_check>
20004d06:	00007097          	auipc	ra,0x7
20004d0a:	426080e7          	jalr	1062(ra) # 2000c12c <abort>
20004d0e:	2000b537          	lui	a0,0x2000b
20004d12:	dec50513          	addi	a0,a0,-532 # 2000adec <.Lanon.2c6bb00a6eab53dbfca994608b168c3b.159>
20004d16:	100015b7          	lui	a1,0x10001
20004d1a:	41c58613          	addi	a2,a1,1052 # 1000141c <.Lanon.2c6bb00a6eab53dbfca994608b168c3b.206>
20004d1e:	02b00593          	li	a1,43
20004d22:	fffff097          	auipc	ra,0xfffff
20004d26:	cdc080e7          	jalr	-804(ra) # 200039fe <core::panicking::panic>
20004d2a:	00007097          	auipc	ra,0x7
20004d2e:	402080e7          	jalr	1026(ra) # 2000c12c <abort>

20004d32 <core::fmt::ArgumentV1::show_usize>:
20004d32:	1141                	addi	sp,sp,-16
20004d34:	c606                	sw	ra,12(sp)
20004d36:	c422                	sw	s0,8(sp)
20004d38:	0800                	addi	s0,sp,16
20004d3a:	4108                	lw	a0,0(a0)
20004d3c:	4422                	lw	s0,8(sp)
20004d3e:	40b2                	lw	ra,12(sp)
20004d40:	0141                	addi	sp,sp,16
20004d42:	fffff317          	auipc	t1,0xfffff
20004d46:	df230067          	jr	-526(t1) # 20003b34 <core::fmt::num::imp::fmt_u32>

20004d4a <core::unicode::printable::check>:
20004d4a:	1141                	addi	sp,sp,-16
20004d4c:	c606                	sw	ra,12(sp)
20004d4e:	c422                	sw	s0,8(sp)
20004d50:	0800                	addi	s0,sp,16
20004d52:	0606                	slli	a2,a2,0x1
20004d54:	00c582b3          	add	t0,a1,a2
20004d58:	6641                	lui	a2,0x10
20004d5a:	f0060613          	addi	a2,a2,-256 # ff00 <.Lline_table_start0+0x255>
20004d5e:	8e69                	and	a2,a2,a0
20004d60:	00865313          	srli	t1,a2,0x8
20004d64:	0ff57e93          	andi	t4,a0,255
20004d68:	4381                	li	t2,0
20004d6a:	0015c603          	lbu	a2,1(a1)
20004d6e:	00c388b3          	add	a7,t2,a2
20004d72:	00258e13          	addi	t3,a1,2
20004d76:	0005c583          	lbu	a1,0(a1)
20004d7a:	02659263          	bne	a1,t1,20004d9e <core::unicode::printable::check+0x54>
20004d7e:	0878e063          	bltu	a7,t2,20004dfe <core::unicode::printable::check+0xb4>
20004d82:	09176863          	bltu	a4,a7,20004e12 <core::unicode::printable::check+0xc8>
20004d86:	007685b3          	add	a1,a3,t2
20004d8a:	ce01                	beqz	a2,20004da2 <core::unicode::printable::check+0x58>
20004d8c:	167d                	addi	a2,a2,-1
20004d8e:	00158393          	addi	t2,a1,1
20004d92:	0005cf03          	lbu	t5,0(a1)
20004d96:	859e                	mv	a1,t2
20004d98:	ffdf19e3          	bne	t5,t4,20004d8a <core::unicode::printable::check+0x40>
20004d9c:	a899                	j	20004df2 <core::unicode::printable::check+0xa8>
20004d9e:	00b36663          	bltu	t1,a1,20004daa <core::unicode::printable::check+0x60>
20004da2:	83c6                	mv	t2,a7
20004da4:	85f2                	mv	a1,t3
20004da6:	fc5e12e3          	bne	t3,t0,20004d6a <core::unicode::printable::check+0x20>
20004daa:	65c1                	lui	a1,0x10
20004dac:	15fd                	addi	a1,a1,-1
20004dae:	8de9                	and	a1,a1,a0
20004db0:	4505                	li	a0,1
20004db2:	983e                	add	a6,a6,a5
20004db4:	00178713          	addi	a4,a5,1
20004db8:	0007c683          	lbu	a3,0(a5)
20004dbc:	01869613          	slli	a2,a3,0x18
20004dc0:	8661                	srai	a2,a2,0x18
20004dc2:	00064763          	bltz	a2,20004dd0 <core::unicode::printable::check+0x86>
20004dc6:	87ba                	mv	a5,a4
20004dc8:	8d95                	sub	a1,a1,a3
20004dca:	0005df63          	bgez	a1,20004de8 <core::unicode::printable::check+0x9e>
20004dce:	a01d                	j	20004df4 <core::unicode::printable::check+0xaa>
20004dd0:	05070b63          	beq	a4,a6,20004e26 <core::unicode::printable::check+0xdc>
20004dd4:	07f67613          	andi	a2,a2,127
20004dd8:	0622                	slli	a2,a2,0x8
20004dda:	0017c683          	lbu	a3,1(a5)
20004dde:	8ed1                	or	a3,a3,a2
20004de0:	0789                	addi	a5,a5,2
20004de2:	8d95                	sub	a1,a1,a3
20004de4:	0005c863          	bltz	a1,20004df4 <core::unicode::printable::check+0xaa>
20004de8:	00154513          	xori	a0,a0,1
20004dec:	fd0794e3          	bne	a5,a6,20004db4 <core::unicode::printable::check+0x6a>
20004df0:	a011                	j	20004df4 <core::unicode::printable::check+0xaa>
20004df2:	4501                	li	a0,0
20004df4:	8905                	andi	a0,a0,1
20004df6:	4422                	lw	s0,8(sp)
20004df8:	40b2                	lw	ra,12(sp)
20004dfa:	0141                	addi	sp,sp,16
20004dfc:	8082                	ret
20004dfe:	851e                	mv	a0,t2
20004e00:	85c6                	mv	a1,a7
20004e02:	fffff097          	auipc	ra,0xfffff
20004e06:	192080e7          	jalr	402(ra) # 20003f94 <core::slice::slice_index_order_fail>
20004e0a:	00007097          	auipc	ra,0x7
20004e0e:	322080e7          	jalr	802(ra) # 2000c12c <abort>
20004e12:	8546                	mv	a0,a7
20004e14:	85ba                	mv	a1,a4
20004e16:	fffff097          	auipc	ra,0xfffff
20004e1a:	110080e7          	jalr	272(ra) # 20003f26 <core::slice::slice_index_len_fail>
20004e1e:	00007097          	auipc	ra,0x7
20004e22:	30e080e7          	jalr	782(ra) # 2000c12c <abort>
20004e26:	2000b537          	lui	a0,0x2000b
20004e2a:	dec50513          	addi	a0,a0,-532 # 2000adec <.Lanon.2c6bb00a6eab53dbfca994608b168c3b.159>
20004e2e:	100015b7          	lui	a1,0x10001
20004e32:	45c58613          	addi	a2,a1,1116 # 1000145c <.Lanon.2c6bb00a6eab53dbfca994608b168c3b.304>
20004e36:	02b00593          	li	a1,43
20004e3a:	fffff097          	auipc	ra,0xfffff
20004e3e:	bc4080e7          	jalr	-1084(ra) # 200039fe <core::panicking::panic>
20004e42:	00007097          	auipc	ra,0x7
20004e46:	2ea080e7          	jalr	746(ra) # 2000c12c <abort>

20004e4a <<core::ffi::VaListImpl as core::ops::drop::Drop>::drop>:
20004e4a:	1141                	addi	sp,sp,-16
20004e4c:	c606                	sw	ra,12(sp)
20004e4e:	c422                	sw	s0,8(sp)
20004e50:	0800                	addi	s0,sp,16
20004e52:	4422                	lw	s0,8(sp)
20004e54:	40b2                	lw	ra,12(sp)
20004e56:	0141                	addi	sp,sp,16
20004e58:	8082                	ret

20004e5a <core::option::expect_failed>:
20004e5a:	7179                	addi	sp,sp,-48
20004e5c:	d606                	sw	ra,44(sp)
20004e5e:	d422                	sw	s0,40(sp)
20004e60:	1800                	addi	s0,sp,48
20004e62:	02c00513          	li	a0,44
20004e66:	fca42a23          	sw	a0,-44(s0)
20004e6a:	2000b537          	lui	a0,0x2000b
20004e6e:	b4950513          	addi	a0,a0,-1207 # 2000ab49 <.Lanon.aac08785f9f9f986c730553ee9705282.1>
20004e72:	fca42823          	sw	a0,-48(s0)
20004e76:	ff040513          	addi	a0,s0,-16
20004e7a:	fea42423          	sw	a0,-24(s0)
20004e7e:	fe042023          	sw	zero,-32(s0)
20004e82:	4505                	li	a0,1
20004e84:	fea42623          	sw	a0,-20(s0)
20004e88:	fca42e23          	sw	a0,-36(s0)
20004e8c:	10002537          	lui	a0,0x10002
20004e90:	9a850513          	addi	a0,a0,-1624 # 100019a8 <.L__unnamed_34>
20004e94:	fca42c23          	sw	a0,-40(s0)
20004e98:	20004537          	lui	a0,0x20004
20004e9c:	59c50513          	addi	a0,a0,1436 # 2000459c <<&T as core::fmt::Display>::fmt>
20004ea0:	fea42a23          	sw	a0,-12(s0)
20004ea4:	fd040513          	addi	a0,s0,-48
20004ea8:	fea42823          	sw	a0,-16(s0)
20004eac:	10001537          	lui	a0,0x10001
20004eb0:	24850593          	addi	a1,a0,584 # 10001248 <.Lanon.aac08785f9f9f986c730553ee9705282.3>
20004eb4:	fd840513          	addi	a0,s0,-40
20004eb8:	fffff097          	auipc	ra,0xfffff
20004ebc:	c10080e7          	jalr	-1008(ra) # 20003ac8 <core::panicking::panic_fmt>
20004ec0:	00007097          	auipc	ra,0x7
20004ec4:	26c080e7          	jalr	620(ra) # 2000c12c <abort>

20004ec8 <<core::fmt::builders::PadAdapter as core::fmt::Write>::write_str>:
20004ec8:	711d                	addi	sp,sp,-96
20004eca:	ce86                	sw	ra,92(sp)
20004ecc:	cca2                	sw	s0,88(sp)
20004ece:	caa6                	sw	s1,84(sp)
20004ed0:	c8ca                	sw	s2,80(sp)
20004ed2:	c6ce                	sw	s3,76(sp)
20004ed4:	c4d2                	sw	s4,72(sp)
20004ed6:	c2d6                	sw	s5,68(sp)
20004ed8:	c0da                	sw	s6,64(sp)
20004eda:	de5e                	sw	s7,60(sp)
20004edc:	dc62                	sw	s8,56(sp)
20004ede:	da66                	sw	s9,52(sp)
20004ee0:	d86a                	sw	s10,48(sp)
20004ee2:	d66e                	sw	s11,44(sp)
20004ee4:	1080                	addi	s0,sp,96
20004ee6:	16060363          	beqz	a2,2000504c <<core::fmt::builders::PadAdapter as core::fmt::Write>::write_str+0x184>
20004eea:	8b32                	mv	s6,a2
20004eec:	892e                	mv	s2,a1
20004eee:	89aa                	mv	s3,a0
20004ef0:	fc840a13          	addi	s4,s0,-56
20004ef4:	4ba9                	li	s7,10
20004ef6:	4c05                	li	s8,1
20004ef8:	fb040c93          	addi	s9,s0,-80
20004efc:	2000a537          	lui	a0,0x2000a
20004f00:	f2c50513          	addi	a0,a0,-212 # 20009f2c <.L__unnamed_73+0x3>
20004f04:	faa42623          	sw	a0,-84(s0)
20004f08:	a031                	j	20004f14 <<core::fmt::builders::PadAdapter as core::fmt::Write>::write_str+0x4c>
20004f0a:	409b0b33          	sub	s6,s6,s1
20004f0e:	8956                	mv	s2,s5
20004f10:	120b0e63          	beqz	s6,2000504c <<core::fmt::builders::PadAdapter as core::fmt::Write>::write_str+0x184>
20004f14:	0089a503          	lw	a0,8(s3)
20004f18:	00054503          	lbu	a0,0(a0)
20004f1c:	cd01                	beqz	a0,20004f34 <<core::fmt::builders::PadAdapter as core::fmt::Write>::write_str+0x6c>
20004f1e:	0009a503          	lw	a0,0(s3)
20004f22:	0049a583          	lw	a1,4(s3)
20004f26:	45d4                	lw	a3,12(a1)
20004f28:	fac42583          	lw	a1,-84(s0)
20004f2c:	4611                	li	a2,4
20004f2e:	9682                	jalr	a3
20004f30:	12051063          	bnez	a0,20005050 <<core::fmt::builders::PadAdapter as core::fmt::Write>::write_str+0x188>
20004f34:	fa042c23          	sw	zero,-72(s0)
20004f38:	fd742423          	sw	s7,-56(s0)
20004f3c:	fd842223          	sw	s8,-60(s0)
20004f40:	fd742023          	sw	s7,-64(s0)
20004f44:	fb642e23          	sw	s6,-68(s0)
20004f48:	fb642a23          	sw	s6,-76(s0)
20004f4c:	fb242823          	sw	s2,-80(s0)
20004f50:	4529                	li	a0,10
20004f52:	85ca                	mv	a1,s2
20004f54:	865a                	mv	a2,s6
20004f56:	00000097          	auipc	ra,0x0
20004f5a:	15e080e7          	jalr	350(ra) # 200050b4 <core::slice::memchr::memchr>
20004f5e:	07851f63          	bne	a0,s8,20004fdc <<core::fmt::builders::PadAdapter as core::fmt::Write>::write_str+0x114>
20004f62:	fb842503          	lw	a0,-72(s0)
20004f66:	952e                	add	a0,a0,a1
20004f68:	00150d93          	addi	s11,a0,1
20004f6c:	fbb42c23          	sw	s11,-72(s0)
20004f70:	fc442483          	lw	s1,-60(s0)
20004f74:	029dfa63          	bgeu	s11,s1,20004fa8 <<core::fmt::builders::PadAdapter as core::fmt::Write>::write_str+0xe0>
20004f78:	fb442a83          	lw	s5,-76(s0)
20004f7c:	fbc42503          	lw	a0,-68(s0)
20004f80:	07b56263          	bltu	a0,s11,20004fe4 <<core::fmt::builders::PadAdapter as core::fmt::Write>::write_str+0x11c>
20004f84:	06aae063          	bltu	s5,a0,20004fe4 <<core::fmt::builders::PadAdapter as core::fmt::Write>::write_str+0x11c>
20004f88:	fb042583          	lw	a1,-80(s0)
20004f8c:	95ee                	add	a1,a1,s11
20004f8e:	41b50633          	sub	a2,a0,s11
20004f92:	01948533          	add	a0,s1,s9
20004f96:	01750503          	lb	a0,23(a0)
20004f9a:	00000097          	auipc	ra,0x0
20004f9e:	11a080e7          	jalr	282(ra) # 200050b4 <core::slice::memchr::memchr>
20004fa2:	fd8500e3          	beq	a0,s8,20004f62 <<core::fmt::builders::PadAdapter as core::fmt::Write>::write_str+0x9a>
20004fa6:	a81d                	j	20004fdc <<core::fmt::builders::PadAdapter as core::fmt::Write>::write_str+0x114>
20004fa8:	fb442a83          	lw	s5,-76(s0)
20004fac:	03bae363          	bltu	s5,s11,20004fd2 <<core::fmt::builders::PadAdapter as core::fmt::Write>::write_str+0x10a>
20004fb0:	4515                	li	a0,5
20004fb2:	0aa4ff63          	bgeu	s1,a0,20005070 <<core::fmt::builders::PadAdapter as core::fmt::Write>::write_str+0x1a8>
20004fb6:	409d8d33          	sub	s10,s11,s1
20004fba:	fb042503          	lw	a0,-80(s0)
20004fbe:	956a                	add	a0,a0,s10
20004fc0:	07450f63          	beq	a0,s4,2000503e <<core::fmt::builders::PadAdapter as core::fmt::Write>::write_str+0x176>
20004fc4:	85d2                	mv	a1,s4
20004fc6:	8626                	mv	a2,s1
20004fc8:	00004097          	auipc	ra,0x4
20004fcc:	6e0080e7          	jalr	1760(ra) # 200096a8 <bcmp>
20004fd0:	c53d                	beqz	a0,2000503e <<core::fmt::builders::PadAdapter as core::fmt::Write>::write_str+0x176>
20004fd2:	fbc42503          	lw	a0,-68(s0)
20004fd6:	fbb577e3          	bgeu	a0,s11,20004f84 <<core::fmt::builders::PadAdapter as core::fmt::Write>::write_str+0xbc>
20004fda:	a029                	j	20004fe4 <<core::fmt::builders::PadAdapter as core::fmt::Write>::write_str+0x11c>
20004fdc:	fbc42503          	lw	a0,-68(s0)
20004fe0:	faa42c23          	sw	a0,-72(s0)
20004fe4:	0089a503          	lw	a0,8(s3)
20004fe8:	00050023          	sb	zero,0(a0)
20004fec:	84da                	mv	s1,s6
20004fee:	009b4533          	xor	a0,s6,s1
20004ff2:	00153513          	seqz	a0,a0
20004ff6:	0014b593          	seqz	a1,s1
20004ffa:	00a5edb3          	or	s11,a1,a0
20004ffe:	0049a583          	lw	a1,4(s3)
20005002:	0009a503          	lw	a0,0(s3)
20005006:	00990ab3          	add	s5,s2,s1
2000500a:	000d9a63          	bnez	s11,2000501e <<core::fmt::builders::PadAdapter as core::fmt::Write>::write_str+0x156>
2000500e:	0764fb63          	bgeu	s1,s6,20005084 <<core::fmt::builders::PadAdapter as core::fmt::Write>::write_str+0x1bc>
20005012:	000a8603          	lb	a2,0(s5)
20005016:	fbf00693          	li	a3,-65
2000501a:	06c6d563          	bge	a3,a2,20005084 <<core::fmt::builders::PadAdapter as core::fmt::Write>::write_str+0x1bc>
2000501e:	45d4                	lw	a3,12(a1)
20005020:	85ca                	mv	a1,s2
20005022:	8626                	mv	a2,s1
20005024:	9682                	jalr	a3
20005026:	e50d                	bnez	a0,20005050 <<core::fmt::builders::PadAdapter as core::fmt::Write>::write_str+0x188>
20005028:	ee0d91e3          	bnez	s11,20004f0a <<core::fmt::builders::PadAdapter as core::fmt::Write>::write_str+0x42>
2000502c:	0764f863          	bgeu	s1,s6,2000509c <<core::fmt::builders::PadAdapter as core::fmt::Write>::write_str+0x1d4>
20005030:	000a8503          	lb	a0,0(s5)
20005034:	fbf00593          	li	a1,-65
20005038:	eca5c9e3          	blt	a1,a0,20004f0a <<core::fmt::builders::PadAdapter as core::fmt::Write>::write_str+0x42>
2000503c:	a085                	j	2000509c <<core::fmt::builders::PadAdapter as core::fmt::Write>::write_str+0x1d4>
2000503e:	0089a503          	lw	a0,8(s3)
20005042:	01850023          	sb	s8,0(a0)
20005046:	001d0493          	addi	s1,s10,1
2000504a:	b755                	j	20004fee <<core::fmt::builders::PadAdapter as core::fmt::Write>::write_str+0x126>
2000504c:	4501                	li	a0,0
2000504e:	a011                	j	20005052 <<core::fmt::builders::PadAdapter as core::fmt::Write>::write_str+0x18a>
20005050:	4505                	li	a0,1
20005052:	5db2                	lw	s11,44(sp)
20005054:	5d42                	lw	s10,48(sp)
20005056:	5cd2                	lw	s9,52(sp)
20005058:	5c62                	lw	s8,56(sp)
2000505a:	5bf2                	lw	s7,60(sp)
2000505c:	4b06                	lw	s6,64(sp)
2000505e:	4a96                	lw	s5,68(sp)
20005060:	4a26                	lw	s4,72(sp)
20005062:	49b6                	lw	s3,76(sp)
20005064:	4946                	lw	s2,80(sp)
20005066:	44d6                	lw	s1,84(sp)
20005068:	4466                	lw	s0,88(sp)
2000506a:	40f6                	lw	ra,92(sp)
2000506c:	6125                	addi	sp,sp,96
2000506e:	8082                	ret
20005070:	8526                	mv	a0,s1
20005072:	4591                	li	a1,4
20005074:	fffff097          	auipc	ra,0xfffff
20005078:	eb2080e7          	jalr	-334(ra) # 20003f26 <core::slice::slice_index_len_fail>
2000507c:	00007097          	auipc	ra,0x7
20005080:	0b0080e7          	jalr	176(ra) # 2000c12c <abort>
20005084:	854a                	mv	a0,s2
20005086:	85da                	mv	a1,s6
20005088:	4601                	li	a2,0
2000508a:	86a6                	mv	a3,s1
2000508c:	fffff097          	auipc	ra,0xfffff
20005090:	1c6080e7          	jalr	454(ra) # 20004252 <core::str::slice_error_fail>
20005094:	00007097          	auipc	ra,0x7
20005098:	098080e7          	jalr	152(ra) # 2000c12c <abort>
2000509c:	854a                	mv	a0,s2
2000509e:	85da                	mv	a1,s6
200050a0:	8626                	mv	a2,s1
200050a2:	86da                	mv	a3,s6
200050a4:	fffff097          	auipc	ra,0xfffff
200050a8:	1ae080e7          	jalr	430(ra) # 20004252 <core::str::slice_error_fail>
200050ac:	00007097          	auipc	ra,0x7
200050b0:	080080e7          	jalr	128(ra) # 2000c12c <abort>

200050b4 <core::slice::memchr::memchr>:
200050b4:	1141                	addi	sp,sp,-16
200050b6:	c606                	sw	ra,12(sp)
200050b8:	c422                	sw	s0,8(sp)
200050ba:	0800                	addi	s0,sp,16
200050bc:	86aa                	mv	a3,a0
200050be:	0035f713          	andi	a4,a1,3
200050c2:	4501                	li	a0,0
200050c4:	0ff6f393          	andi	t2,a3,255
200050c8:	cf15                	beqz	a4,20005104 <core::slice::memchr::memchr+0x50>
200050ca:	4791                	li	a5,4
200050cc:	40e78733          	sub	a4,a5,a4
200050d0:	cb15                	beqz	a4,20005104 <core::slice::memchr::memchr+0x50>
200050d2:	8532                	mv	a0,a2
200050d4:	00e66363          	bltu	a2,a4,200050da <core::slice::memchr::memchr+0x26>
200050d8:	853a                	mv	a0,a4
200050da:	4701                	li	a4,0
200050dc:	02e50463          	beq	a0,a4,20005104 <core::slice::memchr::memchr+0x50>
200050e0:	00e587b3          	add	a5,a1,a4
200050e4:	0705                	addi	a4,a4,1
200050e6:	0007c783          	lbu	a5,0(a5)
200050ea:	fe7799e3          	bne	a5,t2,200050dc <core::slice::memchr::memchr+0x28>
200050ee:	0077c533          	xor	a0,a5,t2
200050f2:	00153513          	seqz	a0,a0
200050f6:	0505                	addi	a0,a0,1
200050f8:	8905                	andi	a0,a0,1
200050fa:	953a                	add	a0,a0,a4
200050fc:	4605                	li	a2,1
200050fe:	fff50593          	addi	a1,a0,-1
20005102:	a861                	j	2000519a <core::slice::memchr::memchr+0xe6>
20005104:	4721                	li	a4,8
20005106:	06e66163          	bltu	a2,a4,20005168 <core::slice::memchr::memchr+0xb4>
2000510a:	ff860813          	addi	a6,a2,-8
2000510e:	04a86d63          	bltu	a6,a0,20005168 <core::slice::memchr::memchr+0xb4>
20005112:	01010737          	lui	a4,0x1010
20005116:	10170713          	addi	a4,a4,257 # 1010101 <.Lline_table_start0+0x1000456>
2000511a:	02e388b3          	mul	a7,t2,a4
2000511e:	80808737          	lui	a4,0x80808
20005122:	08070293          	addi	t0,a4,128 # 80808080 <_sapps+0x607d8080>
20005126:	feff07b7          	lui	a5,0xfeff0
2000512a:	eff78313          	addi	t1,a5,-257 # fefefeff <_sapps+0xdefbfeff>
2000512e:	00a58733          	add	a4,a1,a0
20005132:	431c                	lw	a5,0(a4)
20005134:	0117c7b3          	xor	a5,a5,a7
20005138:	006786b3          	add	a3,a5,t1
2000513c:	fff7c793          	not	a5,a5
20005140:	0057f7b3          	and	a5,a5,t0
20005144:	8efd                	and	a3,a3,a5
20005146:	4358                	lw	a4,4(a4)
20005148:	01174733          	xor	a4,a4,a7
2000514c:	006707b3          	add	a5,a4,t1
20005150:	fff74713          	not	a4,a4
20005154:	00577733          	and	a4,a4,t0
20005158:	8f7d                	and	a4,a4,a5
2000515a:	8ed9                	or	a3,a3,a4
2000515c:	e681                	bnez	a3,20005164 <core::slice::memchr::memchr+0xb0>
2000515e:	0521                	addi	a0,a0,8
20005160:	fca877e3          	bgeu	a6,a0,2000512e <core::slice::memchr::memchr+0x7a>
20005164:	04a66063          	bltu	a2,a0,200051a4 <core::slice::memchr::memchr+0xf0>
20005168:	8e09                	sub	a2,a2,a0
2000516a:	00a58733          	add	a4,a1,a0
2000516e:	4581                	li	a1,0
20005170:	02b60363          	beq	a2,a1,20005196 <core::slice::memchr::memchr+0xe2>
20005174:	00b706b3          	add	a3,a4,a1
20005178:	0585                	addi	a1,a1,1
2000517a:	0006c783          	lbu	a5,0(a3)
2000517e:	fe7799e3          	bne	a5,t2,20005170 <core::slice::memchr::memchr+0xbc>
20005182:	0077c633          	xor	a2,a5,t2
20005186:	00163613          	seqz	a2,a2
2000518a:	0605                	addi	a2,a2,1
2000518c:	8a05                	andi	a2,a2,1
2000518e:	95b2                	add	a1,a1,a2
20005190:	4605                	li	a2,1
20005192:	15fd                	addi	a1,a1,-1
20005194:	a011                	j	20005198 <core::slice::memchr::memchr+0xe4>
20005196:	4601                	li	a2,0
20005198:	95aa                	add	a1,a1,a0
2000519a:	8532                	mv	a0,a2
2000519c:	4422                	lw	s0,8(sp)
2000519e:	40b2                	lw	ra,12(sp)
200051a0:	0141                	addi	sp,sp,16
200051a2:	8082                	ret
200051a4:	85b2                	mv	a1,a2
200051a6:	fffff097          	auipc	ra,0xfffff
200051aa:	dee080e7          	jalr	-530(ra) # 20003f94 <core::slice::slice_index_order_fail>
200051ae:	00007097          	auipc	ra,0x7
200051b2:	f7e080e7          	jalr	-130(ra) # 2000c12c <abort>

200051b6 <core::fmt::builders::DebugStruct::field>:
200051b6:	7159                	addi	sp,sp,-112
200051b8:	d686                	sw	ra,108(sp)
200051ba:	d4a2                	sw	s0,104(sp)
200051bc:	d2a6                	sw	s1,100(sp)
200051be:	d0ca                	sw	s2,96(sp)
200051c0:	cece                	sw	s3,92(sp)
200051c2:	ccd2                	sw	s4,88(sp)
200051c4:	cad6                	sw	s5,84(sp)
200051c6:	c8da                	sw	s6,80(sp)
200051c8:	c6de                	sw	s7,76(sp)
200051ca:	1880                	addi	s0,sp,112
200051cc:	84aa                	mv	s1,a0
200051ce:	4b85                	li	s7,1
200051d0:	00454503          	lbu	a0,4(a0)
200051d4:	4b05                	li	s6,1
200051d6:	c10d                	beqz	a0,200051f8 <core::fmt::builders::DebugStruct::field+0x42>
200051d8:	017482a3          	sb	s7,5(s1)
200051dc:	01648223          	sb	s6,4(s1)
200051e0:	8526                	mv	a0,s1
200051e2:	4bb6                	lw	s7,76(sp)
200051e4:	4b46                	lw	s6,80(sp)
200051e6:	4ad6                	lw	s5,84(sp)
200051e8:	4a66                	lw	s4,88(sp)
200051ea:	49f6                	lw	s3,92(sp)
200051ec:	5906                	lw	s2,96(sp)
200051ee:	5496                	lw	s1,100(sp)
200051f0:	5426                	lw	s0,104(sp)
200051f2:	50b6                	lw	ra,108(sp)
200051f4:	6165                	addi	sp,sp,112
200051f6:	8082                	ret
200051f8:	89ba                	mv	s3,a4
200051fa:	8936                	mv	s2,a3
200051fc:	8a32                	mv	s4,a2
200051fe:	8aae                	mv	s5,a1
20005200:	0054c503          	lbu	a0,5(s1)
20005204:	4094                	lw	a3,0(s1)
20005206:	0006c583          	lbu	a1,0(a3)
2000520a:	8991                	andi	a1,a1,4
2000520c:	e981                	bnez	a1,2000521c <core::fmt::builders::DebugStruct::field+0x66>
2000520e:	c96d                	beqz	a0,20005300 <core::fmt::builders::DebugStruct::field+0x14a>
20005210:	4609                	li	a2,2
20005212:	2000c537          	lui	a0,0x2000c
20005216:	ac050593          	addi	a1,a0,-1344 # 2000bac0 <.Lanon.2c6bb00a6eab53dbfca994608b168c3b.178>
2000521a:	a8c5                	j	2000530a <core::fmt::builders::DebugStruct::field+0x154>
2000521c:	ed09                	bnez	a0,20005236 <core::fmt::builders::DebugStruct::field+0x80>
2000521e:	4e88                	lw	a0,24(a3)
20005220:	4ecc                	lw	a1,28(a3)
20005222:	45d4                	lw	a3,12(a1)
20005224:	2000c5b7          	lui	a1,0x2000c
20005228:	ac258593          	addi	a1,a1,-1342 # 2000bac2 <.Lanon.2c6bb00a6eab53dbfca994608b168c3b.176>
2000522c:	460d                	li	a2,3
2000522e:	9682                	jalr	a3
20005230:	4b05                	li	s6,1
20005232:	f15d                	bnez	a0,200051d8 <core::fmt::builders::DebugStruct::field+0x22>
20005234:	4094                	lw	a3,0(s1)
20005236:	4b05                	li	s6,1
20005238:	fb6403a3          	sb	s6,-89(s0)
2000523c:	4e88                	lw	a0,24(a3)
2000523e:	4ecc                	lw	a1,28(a3)
20005240:	fa740613          	addi	a2,s0,-89
20005244:	fac42023          	sw	a2,-96(s0)
20005248:	f8b42e23          	sw	a1,-100(s0)
2000524c:	f8a42c23          	sw	a0,-104(s0)
20005250:	0086a803          	lw	a6,8(a3)
20005254:	00c6a883          	lw	a7,12(a3)
20005258:	0106a283          	lw	t0,16(a3)
2000525c:	0146a303          	lw	t1,20(a3)
20005260:	0206a383          	lw	t2,32(a3)
20005264:	52c8                	lw	a0,36(a3)
20005266:	568c                	lw	a1,40(a3)
20005268:	56d0                	lw	a2,44(a3)
2000526a:	4298                	lw	a4,0(a3)
2000526c:	42dc                	lw	a5,4(a3)
2000526e:	03068683          	lb	a3,48(a3)
20005272:	fcd40c23          	sb	a3,-40(s0)
20005276:	faf42623          	sw	a5,-84(s0)
2000527a:	fae42423          	sw	a4,-88(s0)
2000527e:	fcc42a23          	sw	a2,-44(s0)
20005282:	fcb42823          	sw	a1,-48(s0)
20005286:	fca42623          	sw	a0,-52(s0)
2000528a:	fc742423          	sw	t2,-56(s0)
2000528e:	10001537          	lui	a0,0x10001
20005292:	46c50513          	addi	a0,a0,1132 # 1000146c <.Lanon.2c6bb00a6eab53dbfca994608b168c3b.174>
20005296:	fca42223          	sw	a0,-60(s0)
2000529a:	fa642e23          	sw	t1,-68(s0)
2000529e:	fa542c23          	sw	t0,-72(s0)
200052a2:	fb142a23          	sw	a7,-76(s0)
200052a6:	fb042823          	sw	a6,-80(s0)
200052aa:	f9840513          	addi	a0,s0,-104
200052ae:	fca42023          	sw	a0,-64(s0)
200052b2:	85d6                	mv	a1,s5
200052b4:	8652                	mv	a2,s4
200052b6:	00000097          	auipc	ra,0x0
200052ba:	c12080e7          	jalr	-1006(ra) # 20004ec8 <<core::fmt::builders::PadAdapter as core::fmt::Write>::write_str>
200052be:	fd09                	bnez	a0,200051d8 <core::fmt::builders::DebugStruct::field+0x22>
200052c0:	2000c537          	lui	a0,0x2000c
200052c4:	abb50593          	addi	a1,a0,-1349 # 2000babb <.Lanon.2c6bb00a6eab53dbfca994608b168c3b.161>
200052c8:	f9840513          	addi	a0,s0,-104
200052cc:	4609                	li	a2,2
200052ce:	00000097          	auipc	ra,0x0
200052d2:	bfa080e7          	jalr	-1030(ra) # 20004ec8 <<core::fmt::builders::PadAdapter as core::fmt::Write>::write_str>
200052d6:	f109                	bnez	a0,200051d8 <core::fmt::builders::DebugStruct::field+0x22>
200052d8:	00c9a603          	lw	a2,12(s3)
200052dc:	fa840593          	addi	a1,s0,-88
200052e0:	854a                	mv	a0,s2
200052e2:	9602                	jalr	a2
200052e4:	ee051ae3          	bnez	a0,200051d8 <core::fmt::builders::DebugStruct::field+0x22>
200052e8:	fc442503          	lw	a0,-60(s0)
200052ec:	4554                	lw	a3,12(a0)
200052ee:	fc042503          	lw	a0,-64(s0)
200052f2:	2000c5b7          	lui	a1,0x2000c
200052f6:	ac558593          	addi	a1,a1,-1339 # 2000bac5 <.Lanon.2c6bb00a6eab53dbfca994608b168c3b.177>
200052fa:	4609                	li	a2,2
200052fc:	9682                	jalr	a3
200052fe:	a889                	j	20005350 <core::fmt::builders::DebugStruct::field+0x19a>
20005300:	460d                	li	a2,3
20005302:	2000c537          	lui	a0,0x2000c
20005306:	abd50593          	addi	a1,a0,-1347 # 2000babd <.Lanon.2c6bb00a6eab53dbfca994608b168c3b.179>
2000530a:	4e88                	lw	a0,24(a3)
2000530c:	4ed4                	lw	a3,28(a3)
2000530e:	46d4                	lw	a3,12(a3)
20005310:	9682                	jalr	a3
20005312:	4b05                	li	s6,1
20005314:	ec0512e3          	bnez	a0,200051d8 <core::fmt::builders::DebugStruct::field+0x22>
20005318:	408c                	lw	a1,0(s1)
2000531a:	4d88                	lw	a0,24(a1)
2000531c:	4dcc                	lw	a1,28(a1)
2000531e:	45d4                	lw	a3,12(a1)
20005320:	85d6                	mv	a1,s5
20005322:	8652                	mv	a2,s4
20005324:	9682                	jalr	a3
20005326:	4b05                	li	s6,1
20005328:	ea0518e3          	bnez	a0,200051d8 <core::fmt::builders::DebugStruct::field+0x22>
2000532c:	408c                	lw	a1,0(s1)
2000532e:	4d88                	lw	a0,24(a1)
20005330:	4dcc                	lw	a1,28(a1)
20005332:	45d4                	lw	a3,12(a1)
20005334:	2000c5b7          	lui	a1,0x2000c
20005338:	abb58593          	addi	a1,a1,-1349 # 2000babb <.Lanon.2c6bb00a6eab53dbfca994608b168c3b.161>
2000533c:	4609                	li	a2,2
2000533e:	9682                	jalr	a3
20005340:	4b05                	li	s6,1
20005342:	e8051be3          	bnez	a0,200051d8 <core::fmt::builders::DebugStruct::field+0x22>
20005346:	00c9a603          	lw	a2,12(s3)
2000534a:	408c                	lw	a1,0(s1)
2000534c:	854a                	mv	a0,s2
2000534e:	9602                	jalr	a2
20005350:	8b2a                	mv	s6,a0
20005352:	b559                	j	200051d8 <core::fmt::builders::DebugStruct::field+0x22>

20005354 <core::ptr::real_drop_in_place>:
20005354:	1141                	addi	sp,sp,-16
20005356:	c606                	sw	ra,12(sp)
20005358:	c422                	sw	s0,8(sp)
2000535a:	0800                	addi	s0,sp,16
2000535c:	4422                	lw	s0,8(sp)
2000535e:	40b2                	lw	ra,12(sp)
20005360:	0141                	addi	sp,sp,16
20005362:	8082                	ret

20005364 <core::fmt::Write::write_char>:
20005364:	1141                	addi	sp,sp,-16
20005366:	c606                	sw	ra,12(sp)
20005368:	c422                	sw	s0,8(sp)
2000536a:	0800                	addi	s0,sp,16
2000536c:	862e                	mv	a2,a1
2000536e:	fe042a23          	sw	zero,-12(s0)
20005372:	08000593          	li	a1,128
20005376:	00b67863          	bgeu	a2,a1,20005386 <core::fmt::Write::write_char+0x22>
2000537a:	fec40a23          	sb	a2,-12(s0)
2000537e:	ff440593          	addi	a1,s0,-12
20005382:	4605                	li	a2,1
20005384:	a861                	j	2000541c <core::fmt::Write::write_char+0xb8>
20005386:	00b65593          	srli	a1,a2,0xb
2000538a:	e195                	bnez	a1,200053ae <core::fmt::Write::write_char+0x4a>
2000538c:	03f67593          	andi	a1,a2,63
20005390:	0805e593          	ori	a1,a1,128
20005394:	feb40aa3          	sb	a1,-11(s0)
20005398:	00665593          	srli	a1,a2,0x6
2000539c:	89fd                	andi	a1,a1,31
2000539e:	0c05e593          	ori	a1,a1,192
200053a2:	feb40a23          	sb	a1,-12(s0)
200053a6:	ff440593          	addi	a1,s0,-12
200053aa:	4609                	li	a2,2
200053ac:	a885                	j	2000541c <core::fmt::Write::write_char+0xb8>
200053ae:	ff440593          	addi	a1,s0,-12
200053b2:	01065693          	srli	a3,a2,0x10
200053b6:	e69d                	bnez	a3,200053e4 <core::fmt::Write::write_char+0x80>
200053b8:	03f67693          	andi	a3,a2,63
200053bc:	0806e693          	ori	a3,a3,128
200053c0:	fed40b23          	sb	a3,-10(s0)
200053c4:	00665693          	srli	a3,a2,0x6
200053c8:	03f6f693          	andi	a3,a3,63
200053cc:	0806e693          	ori	a3,a3,128
200053d0:	fed40aa3          	sb	a3,-11(s0)
200053d4:	8231                	srli	a2,a2,0xc
200053d6:	8a3d                	andi	a2,a2,15
200053d8:	0e066613          	ori	a2,a2,224
200053dc:	fec40a23          	sb	a2,-12(s0)
200053e0:	460d                	li	a2,3
200053e2:	a82d                	j	2000541c <core::fmt::Write::write_char+0xb8>
200053e4:	03f67693          	andi	a3,a2,63
200053e8:	0806e693          	ori	a3,a3,128
200053ec:	fed40ba3          	sb	a3,-9(s0)
200053f0:	01265693          	srli	a3,a2,0x12
200053f4:	0f06e693          	ori	a3,a3,240
200053f8:	fed40a23          	sb	a3,-12(s0)
200053fc:	00665693          	srli	a3,a2,0x6
20005400:	03f6f693          	andi	a3,a3,63
20005404:	0806e693          	ori	a3,a3,128
20005408:	fed40b23          	sb	a3,-10(s0)
2000540c:	8231                	srli	a2,a2,0xc
2000540e:	03f67613          	andi	a2,a2,63
20005412:	08066613          	ori	a2,a2,128
20005416:	fec40aa3          	sb	a2,-11(s0)
2000541a:	4611                	li	a2,4
2000541c:	00000097          	auipc	ra,0x0
20005420:	aac080e7          	jalr	-1364(ra) # 20004ec8 <<core::fmt::builders::PadAdapter as core::fmt::Write>::write_str>
20005424:	4422                	lw	s0,8(sp)
20005426:	40b2                	lw	ra,12(sp)
20005428:	0141                	addi	sp,sp,16
2000542a:	8082                	ret

2000542c <core::fmt::Write::write_fmt>:
2000542c:	7179                	addi	sp,sp,-48
2000542e:	d606                	sw	ra,44(sp)
20005430:	d422                	sw	s0,40(sp)
20005432:	1800                	addi	s0,sp,48
20005434:	fca42e23          	sw	a0,-36(s0)
20005438:	49c8                	lw	a0,20(a1)
2000543a:	fea42a23          	sw	a0,-12(s0)
2000543e:	4988                	lw	a0,16(a1)
20005440:	fea42823          	sw	a0,-16(s0)
20005444:	45c8                	lw	a0,12(a1)
20005446:	fea42623          	sw	a0,-20(s0)
2000544a:	4588                	lw	a0,8(a1)
2000544c:	fea42423          	sw	a0,-24(s0)
20005450:	41c8                	lw	a0,4(a1)
20005452:	fea42223          	sw	a0,-28(s0)
20005456:	4188                	lw	a0,0(a1)
20005458:	fea42023          	sw	a0,-32(s0)
2000545c:	10001537          	lui	a0,0x10001
20005460:	48450593          	addi	a1,a0,1156 # 10001484 <.Lanon.2c6bb00a6eab53dbfca994608b168c3b.203>
20005464:	fdc40513          	addi	a0,s0,-36
20005468:	fe040613          	addi	a2,s0,-32
2000546c:	fffff097          	auipc	ra,0xfffff
20005470:	5fa080e7          	jalr	1530(ra) # 20004a66 <core::fmt::write>
20005474:	5422                	lw	s0,40(sp)
20005476:	50b2                	lw	ra,44(sp)
20005478:	6145                	addi	sp,sp,48
2000547a:	8082                	ret

2000547c <<&mut W as core::fmt::Write>::write_str>:
2000547c:	1141                	addi	sp,sp,-16
2000547e:	c606                	sw	ra,12(sp)
20005480:	c422                	sw	s0,8(sp)
20005482:	0800                	addi	s0,sp,16
20005484:	4108                	lw	a0,0(a0)
20005486:	4422                	lw	s0,8(sp)
20005488:	40b2                	lw	ra,12(sp)
2000548a:	0141                	addi	sp,sp,16
2000548c:	00000317          	auipc	t1,0x0
20005490:	a3c30067          	jr	-1476(t1) # 20004ec8 <<core::fmt::builders::PadAdapter as core::fmt::Write>::write_str>

20005494 <<&mut W as core::fmt::Write>::write_char>:
20005494:	1141                	addi	sp,sp,-16
20005496:	c606                	sw	ra,12(sp)
20005498:	c422                	sw	s0,8(sp)
2000549a:	0800                	addi	s0,sp,16
2000549c:	4108                	lw	a0,0(a0)
2000549e:	4422                	lw	s0,8(sp)
200054a0:	40b2                	lw	ra,12(sp)
200054a2:	0141                	addi	sp,sp,16
200054a4:	00000317          	auipc	t1,0x0
200054a8:	ec030067          	jr	-320(t1) # 20005364 <core::fmt::Write::write_char>

200054ac <<&mut W as core::fmt::Write>::write_fmt>:
200054ac:	7179                	addi	sp,sp,-48
200054ae:	d606                	sw	ra,44(sp)
200054b0:	d422                	sw	s0,40(sp)
200054b2:	1800                	addi	s0,sp,48
200054b4:	4108                	lw	a0,0(a0)
200054b6:	fca42e23          	sw	a0,-36(s0)
200054ba:	49c8                	lw	a0,20(a1)
200054bc:	fea42a23          	sw	a0,-12(s0)
200054c0:	4988                	lw	a0,16(a1)
200054c2:	fea42823          	sw	a0,-16(s0)
200054c6:	45c8                	lw	a0,12(a1)
200054c8:	fea42623          	sw	a0,-20(s0)
200054cc:	4588                	lw	a0,8(a1)
200054ce:	fea42423          	sw	a0,-24(s0)
200054d2:	41c8                	lw	a0,4(a1)
200054d4:	fea42223          	sw	a0,-28(s0)
200054d8:	4188                	lw	a0,0(a1)
200054da:	fea42023          	sw	a0,-32(s0)
200054de:	10001537          	lui	a0,0x10001
200054e2:	48450593          	addi	a1,a0,1156 # 10001484 <.Lanon.2c6bb00a6eab53dbfca994608b168c3b.203>
200054e6:	fdc40513          	addi	a0,s0,-36
200054ea:	fe040613          	addi	a2,s0,-32
200054ee:	fffff097          	auipc	ra,0xfffff
200054f2:	578080e7          	jalr	1400(ra) # 20004a66 <core::fmt::write>
200054f6:	5422                	lw	s0,40(sp)
200054f8:	50b2                	lw	ra,44(sp)
200054fa:	6145                	addi	sp,sp,48
200054fc:	8082                	ret

200054fe <core::fmt::builders::DebugStruct::finish>:
200054fe:	1141                	addi	sp,sp,-16
20005500:	c606                	sw	ra,12(sp)
20005502:	c422                	sw	s0,8(sp)
20005504:	c226                	sw	s1,4(sp)
20005506:	0800                	addi	s0,sp,16
20005508:	84aa                	mv	s1,a0
2000550a:	00454583          	lbu	a1,4(a0)
2000550e:	00554503          	lbu	a0,5(a0)
20005512:	c10d                	beqz	a0,20005534 <core::fmt::builders::DebugStruct::finish+0x36>
20005514:	4505                	li	a0,1
20005516:	e59d                	bnez	a1,20005544 <core::fmt::builders::DebugStruct::finish+0x46>
20005518:	408c                	lw	a1,0(s1)
2000551a:	4d88                	lw	a0,24(a1)
2000551c:	4dd0                	lw	a2,28(a1)
2000551e:	4654                	lw	a3,12(a2)
20005520:	0005c583          	lbu	a1,0(a1)
20005524:	8991                	andi	a1,a1,4
20005526:	e989                	bnez	a1,20005538 <core::fmt::builders::DebugStruct::finish+0x3a>
20005528:	2000c5b7          	lui	a1,0x2000c
2000552c:	ac758593          	addi	a1,a1,-1337 # 2000bac7 <.Lanon.2c6bb00a6eab53dbfca994608b168c3b.181>
20005530:	4609                	li	a2,2
20005532:	a801                	j	20005542 <core::fmt::builders::DebugStruct::finish+0x44>
20005534:	852e                	mv	a0,a1
20005536:	a809                	j	20005548 <core::fmt::builders::DebugStruct::finish+0x4a>
20005538:	2000c5b7          	lui	a1,0x2000c
2000553c:	ac958593          	addi	a1,a1,-1335 # 2000bac9 <.Lanon.2c6bb00a6eab53dbfca994608b168c3b.180>
20005540:	4605                	li	a2,1
20005542:	9682                	jalr	a3
20005544:	00a48223          	sb	a0,4(s1)
20005548:	00a03533          	snez	a0,a0
2000554c:	4492                	lw	s1,4(sp)
2000554e:	4422                	lw	s0,8(sp)
20005550:	40b2                	lw	ra,12(sp)
20005552:	0141                	addi	sp,sp,16
20005554:	8082                	ret

20005556 <core::fmt::builders::DebugTuple::finish>:
20005556:	1141                	addi	sp,sp,-16
20005558:	c606                	sw	ra,12(sp)
2000555a:	c422                	sw	s0,8(sp)
2000555c:	c226                	sw	s1,4(sp)
2000555e:	c04a                	sw	s2,0(sp)
20005560:	0800                	addi	s0,sp,16
20005562:	892a                	mv	s2,a0
20005564:	00854583          	lbu	a1,8(a0)
20005568:	4148                	lw	a0,4(a0)
2000556a:	c929                	beqz	a0,200055bc <core::fmt::builders::DebugTuple::finish+0x66>
2000556c:	4485                	li	s1,1
2000556e:	e5a1                	bnez	a1,200055b6 <core::fmt::builders::DebugTuple::finish+0x60>
20005570:	4585                	li	a1,1
20005572:	02b51663          	bne	a0,a1,2000559e <core::fmt::builders::DebugTuple::finish+0x48>
20005576:	00994503          	lbu	a0,9(s2)
2000557a:	c115                	beqz	a0,2000559e <core::fmt::builders::DebugTuple::finish+0x48>
2000557c:	00092583          	lw	a1,0(s2)
20005580:	0005c503          	lbu	a0,0(a1)
20005584:	8911                	andi	a0,a0,4
20005586:	ed01                	bnez	a0,2000559e <core::fmt::builders::DebugTuple::finish+0x48>
20005588:	4d88                	lw	a0,24(a1)
2000558a:	4dcc                	lw	a1,28(a1)
2000558c:	45d4                	lw	a3,12(a1)
2000558e:	2000c5b7          	lui	a1,0x2000c
20005592:	acd58593          	addi	a1,a1,-1331 # 2000bacd <.Lanon.2c6bb00a6eab53dbfca994608b168c3b.184>
20005596:	4485                	li	s1,1
20005598:	4605                	li	a2,1
2000559a:	9682                	jalr	a3
2000559c:	ed09                	bnez	a0,200055b6 <core::fmt::builders::DebugTuple::finish+0x60>
2000559e:	00092583          	lw	a1,0(s2)
200055a2:	4d88                	lw	a0,24(a1)
200055a4:	4dcc                	lw	a1,28(a1)
200055a6:	45d4                	lw	a3,12(a1)
200055a8:	2000c5b7          	lui	a1,0x2000c
200055ac:	ace58593          	addi	a1,a1,-1330 # 2000bace <.Lanon.2c6bb00a6eab53dbfca994608b168c3b.185>
200055b0:	4605                	li	a2,1
200055b2:	9682                	jalr	a3
200055b4:	84aa                	mv	s1,a0
200055b6:	00990423          	sb	s1,8(s2)
200055ba:	a011                	j	200055be <core::fmt::builders::DebugTuple::finish+0x68>
200055bc:	84ae                	mv	s1,a1
200055be:	00903533          	snez	a0,s1
200055c2:	4902                	lw	s2,0(sp)
200055c4:	4492                	lw	s1,4(sp)
200055c6:	4422                	lw	s0,8(sp)
200055c8:	40b2                	lw	ra,12(sp)
200055ca:	0141                	addi	sp,sp,16
200055cc:	8082                	ret

200055ce <core::fmt::num::<impl core::fmt::LowerHex for i32>::fmt>:
200055ce:	7175                	addi	sp,sp,-144
200055d0:	c706                	sw	ra,140(sp)
200055d2:	c522                	sw	s0,136(sp)
200055d4:	0900                	addi	s0,sp,144
200055d6:	882e                	mv	a6,a1
200055d8:	4108                	lw	a0,0(a0)
200055da:	4729                	li	a4,10
200055dc:	f7840593          	addi	a1,s0,-136
200055e0:	4681                	li	a3,0
200055e2:	00f57793          	andi	a5,a0,15
200055e6:	00e7ef63          	bltu	a5,a4,20005604 <core::fmt::num::<impl core::fmt::LowerHex for i32>::fmt+0x36>
200055ea:	05778793          	addi	a5,a5,87
200055ee:	00d58633          	add	a2,a1,a3
200055f2:	06f60fa3          	sb	a5,127(a2)
200055f6:	16fd                	addi	a3,a3,-1
200055f8:	8111                	srli	a0,a0,0x4
200055fa:	c901                	beqz	a0,2000560a <core::fmt::num::<impl core::fmt::LowerHex for i32>::fmt+0x3c>
200055fc:	00f57793          	andi	a5,a0,15
20005600:	fee7f5e3          	bgeu	a5,a4,200055ea <core::fmt::num::<impl core::fmt::LowerHex for i32>::fmt+0x1c>
20005604:	0307e793          	ori	a5,a5,48
20005608:	b7dd                	j	200055ee <core::fmt::num::<impl core::fmt::LowerHex for i32>::fmt+0x20>
2000560a:	08068513          	addi	a0,a3,128
2000560e:	08100613          	li	a2,129
20005612:	02c57663          	bgeu	a0,a2,2000563e <core::fmt::num::<impl core::fmt::LowerHex for i32>::fmt+0x70>
20005616:	40d00733          	neg	a4,a3
2000561a:	00d58533          	add	a0,a1,a3
2000561e:	08050693          	addi	a3,a0,128
20005622:	2000b537          	lui	a0,0x2000b
20005626:	e7d50593          	addi	a1,a0,-387 # 2000ae7d <.Lanon.2c6bb00a6eab53dbfca994608b168c3b.201>
2000562a:	8542                	mv	a0,a6
2000562c:	4609                	li	a2,2
2000562e:	ffffe097          	auipc	ra,0xffffe
20005632:	67a080e7          	jalr	1658(ra) # 20003ca8 <core::fmt::Formatter::pad_integral>
20005636:	442a                	lw	s0,136(sp)
20005638:	40ba                	lw	ra,140(sp)
2000563a:	6149                	addi	sp,sp,144
2000563c:	8082                	ret
2000563e:	08000593          	li	a1,128
20005642:	fffff097          	auipc	ra,0xfffff
20005646:	952080e7          	jalr	-1710(ra) # 20003f94 <core::slice::slice_index_order_fail>
2000564a:	00007097          	auipc	ra,0x7
2000564e:	ae2080e7          	jalr	-1310(ra) # 2000c12c <abort>

20005652 <core::fmt::num::<impl core::fmt::UpperHex for i32>::fmt>:
20005652:	7175                	addi	sp,sp,-144
20005654:	c706                	sw	ra,140(sp)
20005656:	c522                	sw	s0,136(sp)
20005658:	0900                	addi	s0,sp,144
2000565a:	882e                	mv	a6,a1
2000565c:	4108                	lw	a0,0(a0)
2000565e:	4729                	li	a4,10
20005660:	f7840593          	addi	a1,s0,-136
20005664:	4681                	li	a3,0
20005666:	00f57793          	andi	a5,a0,15
2000566a:	00e7ef63          	bltu	a5,a4,20005688 <core::fmt::num::<impl core::fmt::UpperHex for i32>::fmt+0x36>
2000566e:	03778793          	addi	a5,a5,55
20005672:	00d58633          	add	a2,a1,a3
20005676:	06f60fa3          	sb	a5,127(a2)
2000567a:	16fd                	addi	a3,a3,-1
2000567c:	8111                	srli	a0,a0,0x4
2000567e:	c901                	beqz	a0,2000568e <core::fmt::num::<impl core::fmt::UpperHex for i32>::fmt+0x3c>
20005680:	00f57793          	andi	a5,a0,15
20005684:	fee7f5e3          	bgeu	a5,a4,2000566e <core::fmt::num::<impl core::fmt::UpperHex for i32>::fmt+0x1c>
20005688:	0307e793          	ori	a5,a5,48
2000568c:	b7dd                	j	20005672 <core::fmt::num::<impl core::fmt::UpperHex for i32>::fmt+0x20>
2000568e:	08068513          	addi	a0,a3,128
20005692:	08100613          	li	a2,129
20005696:	02c57663          	bgeu	a0,a2,200056c2 <core::fmt::num::<impl core::fmt::UpperHex for i32>::fmt+0x70>
2000569a:	40d00733          	neg	a4,a3
2000569e:	00d58533          	add	a0,a1,a3
200056a2:	08050693          	addi	a3,a0,128
200056a6:	2000b537          	lui	a0,0x2000b
200056aa:	e7d50593          	addi	a1,a0,-387 # 2000ae7d <.Lanon.2c6bb00a6eab53dbfca994608b168c3b.201>
200056ae:	8542                	mv	a0,a6
200056b0:	4609                	li	a2,2
200056b2:	ffffe097          	auipc	ra,0xffffe
200056b6:	5f6080e7          	jalr	1526(ra) # 20003ca8 <core::fmt::Formatter::pad_integral>
200056ba:	442a                	lw	s0,136(sp)
200056bc:	40ba                	lw	ra,140(sp)
200056be:	6149                	addi	sp,sp,144
200056c0:	8082                	ret
200056c2:	08000593          	li	a1,128
200056c6:	fffff097          	auipc	ra,0xfffff
200056ca:	8ce080e7          	jalr	-1842(ra) # 20003f94 <core::slice::slice_index_order_fail>
200056ce:	00007097          	auipc	ra,0x7
200056d2:	a5e080e7          	jalr	-1442(ra) # 2000c12c <abort>

200056d6 <ibex::chip::Ibex::enable_plic_interrupts>:
200056d6:	1141                	addi	sp,sp,-16
200056d8:	c606                	sw	ra,12(sp)
200056da:	c422                	sw	s0,8(sp)
200056dc:	0800                	addi	s0,sp,16
200056de:	2000a537          	lui	a0,0x2000a
200056e2:	f3452503          	lw	a0,-204(a0) # 20009f34 <anon.276ed4515cb7bdbddaae8aa26a9a7e5e.0.llvm.3197837188720883966>
200056e6:	20050593          	addi	a1,a0,512
200056ea:	4631                	li	a2,12
200056ec:	4681                	li	a3,0
200056ee:	00c68963          	beq	a3,a2,20005700 <ibex::chip::Ibex::enable_plic_interrupts+0x2a>
200056f2:	00d58733          	add	a4,a1,a3
200056f6:	00072023          	sw	zero,0(a4)
200056fa:	0691                	addi	a3,a3,4
200056fc:	fec69be3          	bne	a3,a2,200056f2 <ibex::chip::Ibex::enable_plic_interrupts+0x1c>
20005700:	4631                	li	a2,12
20005702:	56fd                	li	a3,-1
20005704:	4701                	li	a4,0
20005706:	00c70863          	beq	a4,a2,20005716 <ibex::chip::Ibex::enable_plic_interrupts+0x40>
2000570a:	00e587b3          	add	a5,a1,a4
2000570e:	c394                	sw	a3,0(a5)
20005710:	0711                	addi	a4,a4,4
20005712:	fec71ce3          	bne	a4,a2,2000570a <ibex::chip::Ibex::enable_plic_interrupts+0x34>
20005716:	45e1                	li	a1,24
20005718:	15400613          	li	a2,340
2000571c:	468d                	li	a3,3
2000571e:	00c58863          	beq	a1,a2,2000572e <ibex::chip::Ibex::enable_plic_interrupts+0x58>
20005722:	00b50733          	add	a4,a0,a1
20005726:	c314                	sw	a3,0(a4)
20005728:	0591                	addi	a1,a1,4
2000572a:	fec59ce3          	bne	a1,a2,20005722 <ibex::chip::Ibex::enable_plic_interrupts+0x4c>
2000572e:	4585                	li	a1,1
20005730:	20b52623          	sw	a1,524(a0)
20005734:	4422                	lw	s0,8(sp)
20005736:	40b2                	lw	ra,12(sp)
20005738:	0141                	addi	sp,sp,16
2000573a:	8082                	ret

2000573c <_start_trap_rust>:
2000573c:	7179                	addi	sp,sp,-48
2000573e:	d606                	sw	ra,44(sp)
20005740:	d422                	sw	s0,40(sp)
20005742:	1800                	addi	s0,sp,48
20005744:	34202573          	csrr	a0,mcause
20005748:	00004097          	auipc	ra,0x4
2000574c:	e22080e7          	jalr	-478(ra) # 2000956a <<rv32i::csr::mcause::Trap as core::convert::From<tock_registers::registers::LocalRegisterCopy<u32,rv32i::csr::mcause::mcause::Register>>>::from>
20005750:	8905                	andi	a0,a0,1
20005752:	e519                	bnez	a0,20005760 <_start_trap_rust+0x24>
20005754:	852e                	mv	a0,a1
20005756:	00000097          	auipc	ra,0x0
2000575a:	376080e7          	jalr	886(ra) # 20005acc <ibex::chip::handle_interrupt>
2000575e:	a881                	j	200057ae <_start_trap_rust+0x72>
20005760:	34302573          	csrr	a0,mtval
20005764:	fca42a23          	sw	a0,-44(s0)
20005768:	0ff5f513          	andi	a0,a1,255
2000576c:	ff850593          	addi	a1,a0,-8
20005770:	4609                	li	a2,2
20005772:	02c5ee63          	bltu	a1,a2,200057ae <_start_trap_rust+0x72>
20005776:	458d                	li	a1,3
20005778:	02b51f63          	bne	a0,a1,200057b6 <_start_trap_rust+0x7a>
2000577c:	fe042623          	sw	zero,-20(s0)
20005780:	fe042023          	sw	zero,-32(s0)
20005784:	4505                	li	a0,1
20005786:	fca42e23          	sw	a0,-36(s0)
2000578a:	2000c537          	lui	a0,0x2000c
2000578e:	fa850513          	addi	a0,a0,-88 # 2000bfa8 <.L__unnamed_92>
20005792:	fea42423          	sw	a0,-24(s0)
20005796:	10001537          	lui	a0,0x10001
2000579a:	51450513          	addi	a0,a0,1300 # 10001514 <.Lanon.10dee966009b08f571f6f372f9df6397.31>
2000579e:	fca42c23          	sw	a0,-40(s0)
200057a2:	fd840513          	addi	a0,s0,-40
200057a6:	00001097          	auipc	ra,0x1
200057aa:	89c080e7          	jalr	-1892(ra) # 20006042 <kernel::debug::begin_debug_fmt>
200057ae:	5422                	lw	s0,40(sp)
200057b0:	50b2                	lw	ra,44(sp)
200057b2:	6145                	addi	sp,sp,48
200057b4:	8082                	ret
200057b6:	c929                	beqz	a0,20005808 <_start_trap_rust+0xcc>
200057b8:	4585                	li	a1,1
200057ba:	08b50863          	beq	a0,a1,2000584a <_start_trap_rust+0x10e>
200057be:	4589                	li	a1,2
200057c0:	0cb50563          	beq	a0,a1,2000588a <_start_trap_rust+0x14e>
200057c4:	4591                	li	a1,4
200057c6:	10b50263          	beq	a0,a1,200058ca <_start_trap_rust+0x18e>
200057ca:	4595                	li	a1,5
200057cc:	14b50063          	beq	a0,a1,2000590c <_start_trap_rust+0x1d0>
200057d0:	4599                	li	a1,6
200057d2:	16b50e63          	beq	a0,a1,2000594e <_start_trap_rust+0x212>
200057d6:	459d                	li	a1,7
200057d8:	1ab50c63          	beq	a0,a1,20005990 <_start_trap_rust+0x254>
200057dc:	45a9                	li	a1,10
200057de:	1eb50a63          	beq	a0,a1,200059d2 <_start_trap_rust+0x296>
200057e2:	45ad                	li	a1,11
200057e4:	20b50863          	beq	a0,a1,200059f4 <_start_trap_rust+0x2b8>
200057e8:	45b1                	li	a1,12
200057ea:	24b50663          	beq	a0,a1,20005a36 <_start_trap_rust+0x2fa>
200057ee:	45b5                	li	a1,13
200057f0:	28b50463          	beq	a0,a1,20005a78 <_start_trap_rust+0x33c>
200057f4:	2000c537          	lui	a0,0x2000c
200057f8:	ad450513          	addi	a0,a0,-1324 # 2000bad4 <.Lanon.10dee966009b08f571f6f372f9df6397.3>
200057fc:	100015b7          	lui	a1,0x10001
20005800:	4a458613          	addi	a2,a1,1188 # 100014a4 <.Lanon.10dee966009b08f571f6f372f9df6397.5>
20005804:	45d9                	li	a1,22
20005806:	aaf9                	j	200059e4 <_start_trap_rust+0x2a8>
20005808:	4505                	li	a0,1
2000580a:	fea42623          	sw	a0,-20(s0)
2000580e:	ff040513          	addi	a0,s0,-16
20005812:	fea42423          	sw	a0,-24(s0)
20005816:	fe042023          	sw	zero,-32(s0)
2000581a:	4509                	li	a0,2
2000581c:	fca42e23          	sw	a0,-36(s0)
20005820:	20005537          	lui	a0,0x20005
20005824:	5ce50513          	addi	a0,a0,1486 # 200055ce <core::fmt::num::<impl core::fmt::LowerHex for i32>::fmt>
20005828:	fea42a23          	sw	a0,-12(s0)
2000582c:	fd440513          	addi	a0,s0,-44
20005830:	fea42823          	sw	a0,-16(s0)
20005834:	10001537          	lui	a0,0x10001
20005838:	4b450513          	addi	a0,a0,1204 # 100014b4 <.Lanon.10dee966009b08f571f6f372f9df6397.39>
2000583c:	fca42c23          	sw	a0,-40(s0)
20005840:	10001537          	lui	a0,0x10001
20005844:	4c450593          	addi	a1,a0,1220 # 100014c4 <.Lanon.10dee966009b08f571f6f372f9df6397.40>
20005848:	ac85                	j	20005ab8 <_start_trap_rust+0x37c>
2000584a:	feb42623          	sw	a1,-20(s0)
2000584e:	ff040513          	addi	a0,s0,-16
20005852:	fea42423          	sw	a0,-24(s0)
20005856:	fe042023          	sw	zero,-32(s0)
2000585a:	4509                	li	a0,2
2000585c:	fca42e23          	sw	a0,-36(s0)
20005860:	20005537          	lui	a0,0x20005
20005864:	5ce50513          	addi	a0,a0,1486 # 200055ce <core::fmt::num::<impl core::fmt::LowerHex for i32>::fmt>
20005868:	fea42a23          	sw	a0,-12(s0)
2000586c:	fd440513          	addi	a0,s0,-44
20005870:	fea42823          	sw	a0,-16(s0)
20005874:	10001537          	lui	a0,0x10001
20005878:	4d450513          	addi	a0,a0,1236 # 100014d4 <.Lanon.10dee966009b08f571f6f372f9df6397.36>
2000587c:	fca42c23          	sw	a0,-40(s0)
20005880:	10001537          	lui	a0,0x10001
20005884:	4e450593          	addi	a1,a0,1252 # 100014e4 <.Lanon.10dee966009b08f571f6f372f9df6397.37>
20005888:	ac05                	j	20005ab8 <_start_trap_rust+0x37c>
2000588a:	4505                	li	a0,1
2000588c:	fea42623          	sw	a0,-20(s0)
20005890:	ff040513          	addi	a0,s0,-16
20005894:	fea42423          	sw	a0,-24(s0)
20005898:	fe042023          	sw	zero,-32(s0)
2000589c:	fcb42e23          	sw	a1,-36(s0)
200058a0:	20005537          	lui	a0,0x20005
200058a4:	5ce50513          	addi	a0,a0,1486 # 200055ce <core::fmt::num::<impl core::fmt::LowerHex for i32>::fmt>
200058a8:	fea42a23          	sw	a0,-12(s0)
200058ac:	fd440513          	addi	a0,s0,-44
200058b0:	fea42823          	sw	a0,-16(s0)
200058b4:	10001537          	lui	a0,0x10001
200058b8:	4f450513          	addi	a0,a0,1268 # 100014f4 <.Lanon.10dee966009b08f571f6f372f9df6397.33>
200058bc:	fca42c23          	sw	a0,-40(s0)
200058c0:	10001537          	lui	a0,0x10001
200058c4:	50450593          	addi	a1,a0,1284 # 10001504 <.Lanon.10dee966009b08f571f6f372f9df6397.34>
200058c8:	aac5                	j	20005ab8 <_start_trap_rust+0x37c>
200058ca:	4505                	li	a0,1
200058cc:	fea42623          	sw	a0,-20(s0)
200058d0:	ff040513          	addi	a0,s0,-16
200058d4:	fea42423          	sw	a0,-24(s0)
200058d8:	fe042023          	sw	zero,-32(s0)
200058dc:	4509                	li	a0,2
200058de:	fca42e23          	sw	a0,-36(s0)
200058e2:	20005537          	lui	a0,0x20005
200058e6:	5ce50513          	addi	a0,a0,1486 # 200055ce <core::fmt::num::<impl core::fmt::LowerHex for i32>::fmt>
200058ea:	fea42a23          	sw	a0,-12(s0)
200058ee:	fd440513          	addi	a0,s0,-44
200058f2:	fea42823          	sw	a0,-16(s0)
200058f6:	10001537          	lui	a0,0x10001
200058fa:	51c50513          	addi	a0,a0,1308 # 1000151c <.Lanon.10dee966009b08f571f6f372f9df6397.28>
200058fe:	fca42c23          	sw	a0,-40(s0)
20005902:	10001537          	lui	a0,0x10001
20005906:	52c50593          	addi	a1,a0,1324 # 1000152c <.Lanon.10dee966009b08f571f6f372f9df6397.29>
2000590a:	a27d                	j	20005ab8 <_start_trap_rust+0x37c>
2000590c:	4505                	li	a0,1
2000590e:	fea42623          	sw	a0,-20(s0)
20005912:	ff040513          	addi	a0,s0,-16
20005916:	fea42423          	sw	a0,-24(s0)
2000591a:	fe042023          	sw	zero,-32(s0)
2000591e:	4509                	li	a0,2
20005920:	fca42e23          	sw	a0,-36(s0)
20005924:	20005537          	lui	a0,0x20005
20005928:	5ce50513          	addi	a0,a0,1486 # 200055ce <core::fmt::num::<impl core::fmt::LowerHex for i32>::fmt>
2000592c:	fea42a23          	sw	a0,-12(s0)
20005930:	fd440513          	addi	a0,s0,-44
20005934:	fea42823          	sw	a0,-16(s0)
20005938:	10001537          	lui	a0,0x10001
2000593c:	53c50513          	addi	a0,a0,1340 # 1000153c <.Lanon.10dee966009b08f571f6f372f9df6397.25>
20005940:	fca42c23          	sw	a0,-40(s0)
20005944:	10001537          	lui	a0,0x10001
20005948:	54c50593          	addi	a1,a0,1356 # 1000154c <.Lanon.10dee966009b08f571f6f372f9df6397.26>
2000594c:	a2b5                	j	20005ab8 <_start_trap_rust+0x37c>
2000594e:	4505                	li	a0,1
20005950:	fea42623          	sw	a0,-20(s0)
20005954:	ff040513          	addi	a0,s0,-16
20005958:	fea42423          	sw	a0,-24(s0)
2000595c:	fe042023          	sw	zero,-32(s0)
20005960:	4509                	li	a0,2
20005962:	fca42e23          	sw	a0,-36(s0)
20005966:	20005537          	lui	a0,0x20005
2000596a:	5ce50513          	addi	a0,a0,1486 # 200055ce <core::fmt::num::<impl core::fmt::LowerHex for i32>::fmt>
2000596e:	fea42a23          	sw	a0,-12(s0)
20005972:	fd440513          	addi	a0,s0,-44
20005976:	fea42823          	sw	a0,-16(s0)
2000597a:	10001537          	lui	a0,0x10001
2000597e:	55c50513          	addi	a0,a0,1372 # 1000155c <.Lanon.10dee966009b08f571f6f372f9df6397.22>
20005982:	fca42c23          	sw	a0,-40(s0)
20005986:	10001537          	lui	a0,0x10001
2000598a:	56c50593          	addi	a1,a0,1388 # 1000156c <.Lanon.10dee966009b08f571f6f372f9df6397.23>
2000598e:	a22d                	j	20005ab8 <_start_trap_rust+0x37c>
20005990:	4505                	li	a0,1
20005992:	fea42623          	sw	a0,-20(s0)
20005996:	ff040513          	addi	a0,s0,-16
2000599a:	fea42423          	sw	a0,-24(s0)
2000599e:	fe042023          	sw	zero,-32(s0)
200059a2:	4509                	li	a0,2
200059a4:	fca42e23          	sw	a0,-36(s0)
200059a8:	20005537          	lui	a0,0x20005
200059ac:	5ce50513          	addi	a0,a0,1486 # 200055ce <core::fmt::num::<impl core::fmt::LowerHex for i32>::fmt>
200059b0:	fea42a23          	sw	a0,-12(s0)
200059b4:	fd440513          	addi	a0,s0,-44
200059b8:	fea42823          	sw	a0,-16(s0)
200059bc:	10001537          	lui	a0,0x10001
200059c0:	57c50513          	addi	a0,a0,1404 # 1000157c <.Lanon.10dee966009b08f571f6f372f9df6397.19>
200059c4:	fca42c23          	sw	a0,-40(s0)
200059c8:	10001537          	lui	a0,0x10001
200059cc:	58c50593          	addi	a1,a0,1420 # 1000158c <.Lanon.10dee966009b08f571f6f372f9df6397.20>
200059d0:	a0e5                	j	20005ab8 <_start_trap_rust+0x37c>
200059d2:	2000c537          	lui	a0,0x2000c
200059d6:	aea50513          	addi	a0,a0,-1302 # 2000baea <.Lanon.10dee966009b08f571f6f372f9df6397.16>
200059da:	100015b7          	lui	a1,0x10001
200059de:	59c58613          	addi	a2,a1,1436 # 1000159c <.Lanon.10dee966009b08f571f6f372f9df6397.17>
200059e2:	45f9                	li	a1,30
200059e4:	ffffe097          	auipc	ra,0xffffe
200059e8:	01a080e7          	jalr	26(ra) # 200039fe <core::panicking::panic>
200059ec:	00006097          	auipc	ra,0x6
200059f0:	740080e7          	jalr	1856(ra) # 2000c12c <abort>
200059f4:	4505                	li	a0,1
200059f6:	fea42623          	sw	a0,-20(s0)
200059fa:	ff040513          	addi	a0,s0,-16
200059fe:	fea42423          	sw	a0,-24(s0)
20005a02:	fe042023          	sw	zero,-32(s0)
20005a06:	4509                	li	a0,2
20005a08:	fca42e23          	sw	a0,-36(s0)
20005a0c:	20005537          	lui	a0,0x20005
20005a10:	5ce50513          	addi	a0,a0,1486 # 200055ce <core::fmt::num::<impl core::fmt::LowerHex for i32>::fmt>
20005a14:	fea42a23          	sw	a0,-12(s0)
20005a18:	fd440513          	addi	a0,s0,-44
20005a1c:	fea42823          	sw	a0,-16(s0)
20005a20:	10001537          	lui	a0,0x10001
20005a24:	5ac50513          	addi	a0,a0,1452 # 100015ac <.Lanon.10dee966009b08f571f6f372f9df6397.14>
20005a28:	fca42c23          	sw	a0,-40(s0)
20005a2c:	10001537          	lui	a0,0x10001
20005a30:	5bc50593          	addi	a1,a0,1468 # 100015bc <.Lanon.10dee966009b08f571f6f372f9df6397.15>
20005a34:	a051                	j	20005ab8 <_start_trap_rust+0x37c>
20005a36:	4505                	li	a0,1
20005a38:	fea42623          	sw	a0,-20(s0)
20005a3c:	ff040513          	addi	a0,s0,-16
20005a40:	fea42423          	sw	a0,-24(s0)
20005a44:	fe042023          	sw	zero,-32(s0)
20005a48:	4509                	li	a0,2
20005a4a:	fca42e23          	sw	a0,-36(s0)
20005a4e:	20005537          	lui	a0,0x20005
20005a52:	5ce50513          	addi	a0,a0,1486 # 200055ce <core::fmt::num::<impl core::fmt::LowerHex for i32>::fmt>
20005a56:	fea42a23          	sw	a0,-12(s0)
20005a5a:	fd440513          	addi	a0,s0,-44
20005a5e:	fea42823          	sw	a0,-16(s0)
20005a62:	10001537          	lui	a0,0x10001
20005a66:	5cc50513          	addi	a0,a0,1484 # 100015cc <.Lanon.10dee966009b08f571f6f372f9df6397.11>
20005a6a:	fca42c23          	sw	a0,-40(s0)
20005a6e:	10001537          	lui	a0,0x10001
20005a72:	5dc50593          	addi	a1,a0,1500 # 100015dc <.Lanon.10dee966009b08f571f6f372f9df6397.12>
20005a76:	a089                	j	20005ab8 <_start_trap_rust+0x37c>
20005a78:	4505                	li	a0,1
20005a7a:	fea42623          	sw	a0,-20(s0)
20005a7e:	ff040513          	addi	a0,s0,-16
20005a82:	fea42423          	sw	a0,-24(s0)
20005a86:	fe042023          	sw	zero,-32(s0)
20005a8a:	4509                	li	a0,2
20005a8c:	fca42e23          	sw	a0,-36(s0)
20005a90:	20005537          	lui	a0,0x20005
20005a94:	5ce50513          	addi	a0,a0,1486 # 200055ce <core::fmt::num::<impl core::fmt::LowerHex for i32>::fmt>
20005a98:	fea42a23          	sw	a0,-12(s0)
20005a9c:	fd440513          	addi	a0,s0,-44
20005aa0:	fea42823          	sw	a0,-16(s0)
20005aa4:	10001537          	lui	a0,0x10001
20005aa8:	5ec50513          	addi	a0,a0,1516 # 100015ec <.Lanon.10dee966009b08f571f6f372f9df6397.8>
20005aac:	fca42c23          	sw	a0,-40(s0)
20005ab0:	10001537          	lui	a0,0x10001
20005ab4:	5fc50593          	addi	a1,a0,1532 # 100015fc <.Lanon.10dee966009b08f571f6f372f9df6397.9>
20005ab8:	fd840513          	addi	a0,s0,-40
20005abc:	ffffe097          	auipc	ra,0xffffe
20005ac0:	00c080e7          	jalr	12(ra) # 20003ac8 <core::panicking::panic_fmt>
20005ac4:	00006097          	auipc	ra,0x6
20005ac8:	668080e7          	jalr	1640(ra) # 2000c12c <abort>

20005acc <ibex::chip::handle_interrupt>:
20005acc:	1101                	addi	sp,sp,-32
20005ace:	ce06                	sw	ra,28(sp)
20005ad0:	cc22                	sw	s0,24(sp)
20005ad2:	1000                	addi	s0,sp,32
20005ad4:	0ff57513          	andi	a0,a0,255
20005ad8:	c939                	beqz	a0,20005b2e <ibex::chip::handle_interrupt+0x62>
20005ada:	4585                	li	a1,1
20005adc:	06b50b63          	beq	a0,a1,20005b52 <ibex::chip::handle_interrupt+0x86>
20005ae0:	4609                	li	a2,2
20005ae2:	0ac50463          	beq	a0,a2,20005b8a <ibex::chip::handle_interrupt+0xbe>
20005ae6:	460d                	li	a2,3
20005ae8:	04c50363          	beq	a0,a2,20005b2e <ibex::chip::handle_interrupt+0x62>
20005aec:	4611                	li	a2,4
20005aee:	06c50263          	beq	a0,a2,20005b52 <ibex::chip::handle_interrupt+0x86>
20005af2:	4615                	li	a2,5
20005af4:	0ac50163          	beq	a0,a2,20005b96 <ibex::chip::handle_interrupt+0xca>
20005af8:	4619                	li	a2,6
20005afa:	02c50a63          	beq	a0,a2,20005b2e <ibex::chip::handle_interrupt+0x62>
20005afe:	461d                	li	a2,7
20005b00:	04c50963          	beq	a0,a2,20005b52 <ibex::chip::handle_interrupt+0x86>
20005b04:	45a1                	li	a1,8
20005b06:	08b50f63          	beq	a0,a1,20005ba4 <ibex::chip::handle_interrupt+0xd8>
20005b0a:	fe042a23          	sw	zero,-12(s0)
20005b0e:	fe042423          	sw	zero,-24(s0)
20005b12:	4505                	li	a0,1
20005b14:	fea42223          	sw	a0,-28(s0)
20005b18:	2000c537          	lui	a0,0x2000c
20005b1c:	fa850513          	addi	a0,a0,-88 # 2000bfa8 <.L__unnamed_92>
20005b20:	fea42823          	sw	a0,-16(s0)
20005b24:	10001537          	lui	a0,0x10001
20005b28:	60c50513          	addi	a0,a0,1548 # 1000160c <.Lanon.10dee966009b08f571f6f372f9df6397.42>
20005b2c:	a099                	j	20005b72 <ibex::chip::handle_interrupt+0xa6>
20005b2e:	fe042a23          	sw	zero,-12(s0)
20005b32:	fe042423          	sw	zero,-24(s0)
20005b36:	4505                	li	a0,1
20005b38:	fea42223          	sw	a0,-28(s0)
20005b3c:	2000c537          	lui	a0,0x2000c
20005b40:	fa850513          	addi	a0,a0,-88 # 2000bfa8 <.L__unnamed_92>
20005b44:	fea42823          	sw	a0,-16(s0)
20005b48:	10001537          	lui	a0,0x10001
20005b4c:	61450513          	addi	a0,a0,1556 # 10001614 <.Lanon.10dee966009b08f571f6f372f9df6397.46>
20005b50:	a00d                	j	20005b72 <ibex::chip::handle_interrupt+0xa6>
20005b52:	fe042a23          	sw	zero,-12(s0)
20005b56:	fe042423          	sw	zero,-24(s0)
20005b5a:	feb42223          	sw	a1,-28(s0)
20005b5e:	2000c537          	lui	a0,0x2000c
20005b62:	fa850513          	addi	a0,a0,-88 # 2000bfa8 <.L__unnamed_92>
20005b66:	fea42823          	sw	a0,-16(s0)
20005b6a:	10001537          	lui	a0,0x10001
20005b6e:	61c50513          	addi	a0,a0,1564 # 1000161c <.Lanon.10dee966009b08f571f6f372f9df6397.44>
20005b72:	fea42023          	sw	a0,-32(s0)
20005b76:	fe040513          	addi	a0,s0,-32
20005b7a:	00000097          	auipc	ra,0x0
20005b7e:	4c8080e7          	jalr	1224(ra) # 20006042 <kernel::debug::begin_debug_fmt>
20005b82:	4462                	lw	s0,24(sp)
20005b84:	40f2                	lw	ra,28(sp)
20005b86:	6105                	addi	sp,sp,32
20005b88:	8082                	ret
20005b8a:	30402573          	csrr	a0,mie
20005b8e:	995d                	andi	a0,a0,-9
20005b90:	30451073          	csrw	mie,a0
20005b94:	b7fd                	j	20005b82 <ibex::chip::handle_interrupt+0xb6>
20005b96:	30402573          	csrr	a0,mie
20005b9a:	f7f57513          	andi	a0,a0,-129
20005b9e:	30451073          	csrw	mie,a0
20005ba2:	b7c5                	j	20005b82 <ibex::chip::handle_interrupt+0xb6>
20005ba4:	757d                	lui	a0,0xfffff
20005ba6:	7ff50513          	addi	a0,a0,2047 # fffff7ff <_sapps+0xdffcf7ff>
20005baa:	304025f3          	csrr	a1,mie
20005bae:	8d6d                	and	a0,a0,a1
20005bb0:	30451073          	csrw	mie,a0
20005bb4:	b7f9                	j	20005b82 <ibex::chip::handle_interrupt+0xb6>

20005bb6 <_disable_interrupt_trap_handler>:
20005bb6:	1141                	addi	sp,sp,-16
20005bb8:	c606                	sw	ra,12(sp)
20005bba:	c422                	sw	s0,8(sp)
20005bbc:	0800                	addi	s0,sp,16
20005bbe:	00004097          	auipc	ra,0x4
20005bc2:	a8e080e7          	jalr	-1394(ra) # 2000964c <<rv32i::csr::mcause::Trap as core::convert::From<u32>>::from>
20005bc6:	862a                	mv	a2,a0
20005bc8:	852e                	mv	a0,a1
20005bca:	00167593          	andi	a1,a2,1
20005bce:	e981                	bnez	a1,20005bde <_disable_interrupt_trap_handler+0x28>
20005bd0:	4422                	lw	s0,8(sp)
20005bd2:	40b2                	lw	ra,12(sp)
20005bd4:	0141                	addi	sp,sp,16
20005bd6:	00000317          	auipc	t1,0x0
20005bda:	ef630067          	jr	-266(t1) # 20005acc <ibex::chip::handle_interrupt>
20005bde:	2000c537          	lui	a0,0x2000c
20005be2:	c2850513          	addi	a0,a0,-984 # 2000bc28 <.Lanon.10dee966009b08f571f6f372f9df6397.47>
20005be6:	100015b7          	lui	a1,0x10001
20005bea:	62458613          	addi	a2,a1,1572 # 10001624 <.Lanon.10dee966009b08f571f6f372f9df6397.48>
20005bee:	45e5                	li	a1,25
20005bf0:	ffffe097          	auipc	ra,0xffffe
20005bf4:	e0e080e7          	jalr	-498(ra) # 200039fe <core::panicking::panic>
20005bf8:	00006097          	auipc	ra,0x6
20005bfc:	534080e7          	jalr	1332(ra) # 2000c12c <abort>

20005c00 <<ibex::gpio::Port as core::ops::index::Index<usize>>::index>:
20005c00:	1141                	addi	sp,sp,-16
20005c02:	c606                	sw	ra,12(sp)
20005c04:	c422                	sw	s0,8(sp)
20005c06:	0800                	addi	s0,sp,16
20005c08:	85aa                	mv	a1,a0
20005c0a:	457d                	li	a0,31
20005c0c:	00b56e63          	bltu	a0,a1,20005c28 <<ibex::gpio::Port as core::ops::index::Index<usize>>::index+0x28>
20005c10:	4551                	li	a0,20
20005c12:	02a58533          	mul	a0,a1,a0
20005c16:	100015b7          	lui	a1,0x10001
20005c1a:	65058593          	addi	a1,a1,1616 # 10001650 <ibex::gpio::PORT>
20005c1e:	952e                	add	a0,a0,a1
20005c20:	4422                	lw	s0,8(sp)
20005c22:	40b2                	lw	ra,12(sp)
20005c24:	0141                	addi	sp,sp,16
20005c26:	8082                	ret
20005c28:	10001537          	lui	a0,0x10001
20005c2c:	64050513          	addi	a0,a0,1600 # 10001640 <anon.158bb79f4270ca9a74ec1df0723b76c4.1.llvm.13665477445900911102>
20005c30:	02000613          	li	a2,32
20005c34:	ffffe097          	auipc	ra,0xffffe
20005c38:	e12080e7          	jalr	-494(ra) # 20003a46 <core::panicking::panic_bounds_check>
20005c3c:	00006097          	auipc	ra,0x6
20005c40:	4f0080e7          	jalr	1264(ra) # 2000c12c <abort>

20005c44 <kernel::tbfheader::TbfHeader::get_protected_size>:
20005c44:	1141                	addi	sp,sp,-16
20005c46:	c606                	sw	ra,12(sp)
20005c48:	c422                	sw	s0,8(sp)
20005c4a:	0800                	addi	s0,sp,16
20005c4c:	4110                	lw	a2,0(a0)
20005c4e:	4581                	li	a1,0
20005c50:	ea11                	bnez	a2,20005c64 <kernel::tbfheader::TbfHeader::get_protected_size+0x20>
20005c52:	414c                	lw	a1,4(a0)
20005c54:	4508                	lw	a0,8(a0)
20005c56:	c119                	beqz	a0,20005c5c <kernel::tbfheader::TbfHeader::get_protected_size+0x18>
20005c58:	4148                	lw	a0,4(a0)
20005c5a:	a011                	j	20005c5e <kernel::tbfheader::TbfHeader::get_protected_size+0x1a>
20005c5c:	4501                	li	a0,0
20005c5e:	0025d583          	lhu	a1,2(a1)
20005c62:	95aa                	add	a1,a1,a0
20005c64:	852e                	mv	a0,a1
20005c66:	4422                	lw	s0,8(sp)
20005c68:	40b2                	lw	ra,12(sp)
20005c6a:	0141                	addi	sp,sp,16
20005c6c:	8082                	ret

20005c6e <kernel::tbfheader::TbfHeader::get_init_function_offset>:
20005c6e:	1141                	addi	sp,sp,-16
20005c70:	c606                	sw	ra,12(sp)
20005c72:	c422                	sw	s0,8(sp)
20005c74:	0800                	addi	s0,sp,16
20005c76:	4110                	lw	a2,0(a0)
20005c78:	4581                	li	a1,0
20005c7a:	ea11                	bnez	a2,20005c8e <kernel::tbfheader::TbfHeader::get_init_function_offset+0x20>
20005c7c:	414c                	lw	a1,4(a0)
20005c7e:	4508                	lw	a0,8(a0)
20005c80:	c119                	beqz	a0,20005c86 <kernel::tbfheader::TbfHeader::get_init_function_offset+0x18>
20005c82:	4108                	lw	a0,0(a0)
20005c84:	a011                	j	20005c88 <kernel::tbfheader::TbfHeader::get_init_function_offset+0x1a>
20005c86:	4501                	li	a0,0
20005c88:	0025d583          	lhu	a1,2(a1)
20005c8c:	95aa                	add	a1,a1,a0
20005c8e:	852e                	mv	a0,a1
20005c90:	4422                	lw	s0,8(sp)
20005c92:	40b2                	lw	ra,12(sp)
20005c94:	0141                	addi	sp,sp,16
20005c96:	8082                	ret

20005c98 <core::fmt::Write::write_char>:
20005c98:	1141                	addi	sp,sp,-16
20005c9a:	c606                	sw	ra,12(sp)
20005c9c:	c422                	sw	s0,8(sp)
20005c9e:	0800                	addi	s0,sp,16
20005ca0:	fe042a23          	sw	zero,-12(s0)
20005ca4:	08000613          	li	a2,128
20005ca8:	00c5f663          	bgeu	a1,a2,20005cb4 <core::fmt::Write::write_char+0x1c>
20005cac:	feb40a23          	sb	a1,-12(s0)
20005cb0:	4605                	li	a2,1
20005cb2:	a079                	j	20005d40 <core::fmt::Write::write_char+0xa8>
20005cb4:	00b5d613          	srli	a2,a1,0xb
20005cb8:	ee19                	bnez	a2,20005cd6 <core::fmt::Write::write_char+0x3e>
20005cba:	03f5f613          	andi	a2,a1,63
20005cbe:	08066613          	ori	a2,a2,128
20005cc2:	fec40aa3          	sb	a2,-11(s0)
20005cc6:	8199                	srli	a1,a1,0x6
20005cc8:	89fd                	andi	a1,a1,31
20005cca:	0c05e593          	ori	a1,a1,192
20005cce:	feb40a23          	sb	a1,-12(s0)
20005cd2:	4609                	li	a2,2
20005cd4:	a0b5                	j	20005d40 <core::fmt::Write::write_char+0xa8>
20005cd6:	0105d613          	srli	a2,a1,0x10
20005cda:	e61d                	bnez	a2,20005d08 <core::fmt::Write::write_char+0x70>
20005cdc:	03f5f613          	andi	a2,a1,63
20005ce0:	08066613          	ori	a2,a2,128
20005ce4:	fec40b23          	sb	a2,-10(s0)
20005ce8:	0065d613          	srli	a2,a1,0x6
20005cec:	03f67613          	andi	a2,a2,63
20005cf0:	08066613          	ori	a2,a2,128
20005cf4:	fec40aa3          	sb	a2,-11(s0)
20005cf8:	81b1                	srli	a1,a1,0xc
20005cfa:	89bd                	andi	a1,a1,15
20005cfc:	0e05e593          	ori	a1,a1,224
20005d00:	feb40a23          	sb	a1,-12(s0)
20005d04:	460d                	li	a2,3
20005d06:	a82d                	j	20005d40 <core::fmt::Write::write_char+0xa8>
20005d08:	03f5f613          	andi	a2,a1,63
20005d0c:	08066613          	ori	a2,a2,128
20005d10:	fec40ba3          	sb	a2,-9(s0)
20005d14:	0125d613          	srli	a2,a1,0x12
20005d18:	0f066613          	ori	a2,a2,240
20005d1c:	fec40a23          	sb	a2,-12(s0)
20005d20:	0065d613          	srli	a2,a1,0x6
20005d24:	03f67613          	andi	a2,a2,63
20005d28:	08066613          	ori	a2,a2,128
20005d2c:	fec40b23          	sb	a2,-10(s0)
20005d30:	81b1                	srli	a1,a1,0xc
20005d32:	03f5f593          	andi	a1,a1,63
20005d36:	0805e593          	ori	a1,a1,128
20005d3a:	feb40aa3          	sb	a1,-11(s0)
20005d3e:	4611                	li	a2,4
20005d40:	ff440593          	addi	a1,s0,-12
20005d44:	00000097          	auipc	ra,0x0
20005d48:	012080e7          	jalr	18(ra) # 20005d56 <<kernel::debug::DebugWriterWrapper as core::fmt::Write>::write_str>
20005d4c:	4501                	li	a0,0
20005d4e:	4422                	lw	s0,8(sp)
20005d50:	40b2                	lw	ra,12(sp)
20005d52:	0141                	addi	sp,sp,16
20005d54:	8082                	ret

20005d56 <<kernel::debug::DebugWriterWrapper as core::fmt::Write>::write_str>:
20005d56:	1101                	addi	sp,sp,-32
20005d58:	ce06                	sw	ra,28(sp)
20005d5a:	cc22                	sw	s0,24(sp)
20005d5c:	ca26                	sw	s1,20(sp)
20005d5e:	c84a                	sw	s2,16(sp)
20005d60:	c64e                	sw	s3,12(sp)
20005d62:	c452                	sw	s4,8(sp)
20005d64:	c256                	sw	s5,4(sp)
20005d66:	c05a                	sw	s6,0(sp)
20005d68:	1000                	addi	s0,sp,32
20005d6a:	892a                	mv	s2,a0
20005d6c:	00454503          	lbu	a0,4(a0)
20005d70:	c169                	beqz	a0,20005e32 <<kernel::debug::DebugWriterWrapper as core::fmt::Write>::write_str+0xdc>
20005d72:	00090223          	sb	zero,4(s2)
20005d76:	00092a83          	lw	s5,0(s2)
20005d7a:	010aa983          	lw	s3,16(s5)
20005d7e:	000aa823          	sw	zero,16(s5)
20005d82:	0a098563          	beqz	s3,20005e2c <<kernel::debug::DebugWriterWrapper as core::fmt::Write>::write_str+0xd6>
20005d86:	8a32                	mv	s4,a2
20005d88:	8b2e                	mv	s6,a1
20005d8a:	0049a503          	lw	a0,4(s3)
20005d8e:	0089a583          	lw	a1,8(s3)
20005d92:	00c9a603          	lw	a2,12(s3)
20005d96:	00c5f563          	bgeu	a1,a2,20005da0 <<kernel::debug::DebugWriterWrapper as core::fmt::Write>::write_str+0x4a>
20005d9a:	40b605b3          	sub	a1,a2,a1
20005d9e:	a801                	j	20005dae <<kernel::debug::DebugWriterWrapper as core::fmt::Write>::write_str+0x58>
20005da0:	00b67663          	bgeu	a2,a1,20005dac <<kernel::debug::DebugWriterWrapper as core::fmt::Write>::write_str+0x56>
20005da4:	40b605b3          	sub	a1,a2,a1
20005da8:	95aa                	add	a1,a1,a0
20005daa:	a011                	j	20005dae <<kernel::debug::DebugWriterWrapper as core::fmt::Write>::write_str+0x58>
20005dac:	4581                	li	a1,0
20005dae:	fff5c593          	not	a1,a1
20005db2:	95aa                	add	a1,a1,a0
20005db4:	00b53633          	sltu	a2,a0,a1
20005db8:	4501                	li	a0,0
20005dba:	e211                	bnez	a2,20005dbe <<kernel::debug::DebugWriterWrapper as core::fmt::Write>::write_str+0x68>
20005dbc:	852e                	mv	a0,a1
20005dbe:	fe550593          	addi	a1,a0,-27
20005dc2:	00b53533          	sltu	a0,a0,a1
20005dc6:	4481                	li	s1,0
20005dc8:	e111                	bnez	a0,20005dcc <<kernel::debug::DebugWriterWrapper as core::fmt::Write>::write_str+0x76>
20005dca:	84ae                	mv	s1,a1
20005dcc:	0544f263          	bgeu	s1,s4,20005e10 <<kernel::debug::DebugWriterWrapper as core::fmt::Write>::write_str+0xba>
20005dd0:	c899                	beqz	s1,20005de6 <<kernel::debug::DebugWriterWrapper as core::fmt::Write>::write_str+0x90>
20005dd2:	000b0583          	lb	a1,0(s6)
20005dd6:	854e                	mv	a0,s3
20005dd8:	00000097          	auipc	ra,0x0
20005ddc:	5c4080e7          	jalr	1476(ra) # 2000639c <<kernel::common::ring_buffer::RingBuffer<T> as kernel::common::queue::Queue<T>>::enqueue>
20005de0:	14fd                	addi	s1,s1,-1
20005de2:	0b05                	addi	s6,s6,1
20005de4:	f4fd                	bnez	s1,20005dd2 <<kernel::debug::DebugWriterWrapper as core::fmt::Write>::write_str+0x7c>
20005de6:	2000c537          	lui	a0,0x2000c
20005dea:	cab50b13          	addi	s6,a0,-853 # 2000bcab <anon.256fed964ce233b9fbfd79ab1a902450.0.llvm.11971274571581109580>
20005dee:	4a6d                	li	s4,27
20005df0:	4481                	li	s1,0
20005df2:	03448b63          	beq	s1,s4,20005e28 <<kernel::debug::DebugWriterWrapper as core::fmt::Write>::write_str+0xd2>
20005df6:	01648533          	add	a0,s1,s6
20005dfa:	00050583          	lb	a1,0(a0)
20005dfe:	854e                	mv	a0,s3
20005e00:	00000097          	auipc	ra,0x0
20005e04:	59c080e7          	jalr	1436(ra) # 2000639c <<kernel::common::ring_buffer::RingBuffer<T> as kernel::common::queue::Queue<T>>::enqueue>
20005e08:	0485                	addi	s1,s1,1
20005e0a:	ff4496e3          	bne	s1,s4,20005df6 <<kernel::debug::DebugWriterWrapper as core::fmt::Write>::write_str+0xa0>
20005e0e:	a829                	j	20005e28 <<kernel::debug::DebugWriterWrapper as core::fmt::Write>::write_str+0xd2>
20005e10:	000a0c63          	beqz	s4,20005e28 <<kernel::debug::DebugWriterWrapper as core::fmt::Write>::write_str+0xd2>
20005e14:	000b0583          	lb	a1,0(s6)
20005e18:	854e                	mv	a0,s3
20005e1a:	00000097          	auipc	ra,0x0
20005e1e:	582080e7          	jalr	1410(ra) # 2000639c <<kernel::common::ring_buffer::RingBuffer<T> as kernel::common::queue::Queue<T>>::enqueue>
20005e22:	1a7d                	addi	s4,s4,-1
20005e24:	0b05                	addi	s6,s6,1
20005e26:	b7ed                	j	20005e10 <<kernel::debug::DebugWriterWrapper as core::fmt::Write>::write_str+0xba>
20005e28:	013aa823          	sw	s3,16(s5)
20005e2c:	4505                	li	a0,1
20005e2e:	00a90223          	sb	a0,4(s2)
20005e32:	4501                	li	a0,0
20005e34:	4b02                	lw	s6,0(sp)
20005e36:	4a92                	lw	s5,4(sp)
20005e38:	4a22                	lw	s4,8(sp)
20005e3a:	49b2                	lw	s3,12(sp)
20005e3c:	4942                	lw	s2,16(sp)
20005e3e:	44d2                	lw	s1,20(sp)
20005e40:	4462                	lw	s0,24(sp)
20005e42:	40f2                	lw	ra,28(sp)
20005e44:	6105                	addi	sp,sp,32
20005e46:	8082                	ret

20005e48 <core::fmt::Write::write_fmt>:
20005e48:	7179                	addi	sp,sp,-48
20005e4a:	d606                	sw	ra,44(sp)
20005e4c:	d422                	sw	s0,40(sp)
20005e4e:	d226                	sw	s1,36(sp)
20005e50:	1800                	addi	s0,sp,48
20005e52:	fca42a23          	sw	a0,-44(s0)
20005e56:	fd840493          	addi	s1,s0,-40
20005e5a:	8526                	mv	a0,s1
20005e5c:	4661                	li	a2,24
20005e5e:	00004097          	auipc	ra,0x4
20005e62:	808080e7          	jalr	-2040(ra) # 20009666 <memcpy>
20005e66:	10002537          	lui	a0,0x10002
20005e6a:	90850593          	addi	a1,a0,-1784 # 10001908 <.Lanon.af89b0d07c615f4c0637c8c29e22e2f7.0>
20005e6e:	fd440513          	addi	a0,s0,-44
20005e72:	8626                	mv	a2,s1
20005e74:	fffff097          	auipc	ra,0xfffff
20005e78:	bf2080e7          	jalr	-1038(ra) # 20004a66 <core::fmt::write>
20005e7c:	5492                	lw	s1,36(sp)
20005e7e:	5422                	lw	s0,40(sp)
20005e80:	50b2                	lw	ra,44(sp)
20005e82:	6145                	addi	sp,sp,48
20005e84:	8082                	ret

20005e86 <core::ptr::real_drop_in_place>:
20005e86:	1141                	addi	sp,sp,-16
20005e88:	c606                	sw	ra,12(sp)
20005e8a:	c422                	sw	s0,8(sp)
20005e8c:	0800                	addi	s0,sp,16
20005e8e:	4422                	lw	s0,8(sp)
20005e90:	40b2                	lw	ra,12(sp)
20005e92:	0141                	addi	sp,sp,16
20005e94:	8082                	ret

20005e96 <<&mut W as core::fmt::Write>::write_str>:
20005e96:	1141                	addi	sp,sp,-16
20005e98:	c606                	sw	ra,12(sp)
20005e9a:	c422                	sw	s0,8(sp)
20005e9c:	0800                	addi	s0,sp,16
20005e9e:	4108                	lw	a0,0(a0)
20005ea0:	00000097          	auipc	ra,0x0
20005ea4:	eb6080e7          	jalr	-330(ra) # 20005d56 <<kernel::debug::DebugWriterWrapper as core::fmt::Write>::write_str>
20005ea8:	4501                	li	a0,0
20005eaa:	4422                	lw	s0,8(sp)
20005eac:	40b2                	lw	ra,12(sp)
20005eae:	0141                	addi	sp,sp,16
20005eb0:	8082                	ret

20005eb2 <<&mut W as core::fmt::Write>::write_char>:
20005eb2:	1141                	addi	sp,sp,-16
20005eb4:	c606                	sw	ra,12(sp)
20005eb6:	c422                	sw	s0,8(sp)
20005eb8:	0800                	addi	s0,sp,16
20005eba:	4108                	lw	a0,0(a0)
20005ebc:	00000097          	auipc	ra,0x0
20005ec0:	ddc080e7          	jalr	-548(ra) # 20005c98 <core::fmt::Write::write_char>
20005ec4:	4501                	li	a0,0
20005ec6:	4422                	lw	s0,8(sp)
20005ec8:	40b2                	lw	ra,12(sp)
20005eca:	0141                	addi	sp,sp,16
20005ecc:	8082                	ret

20005ece <<&mut W as core::fmt::Write>::write_fmt>:
20005ece:	7179                	addi	sp,sp,-48
20005ed0:	d606                	sw	ra,44(sp)
20005ed2:	d422                	sw	s0,40(sp)
20005ed4:	d226                	sw	s1,36(sp)
20005ed6:	d04a                	sw	s2,32(sp)
20005ed8:	1800                	addi	s0,sp,48
20005eda:	4104                	lw	s1,0(a0)
20005edc:	fd840913          	addi	s2,s0,-40
20005ee0:	854a                	mv	a0,s2
20005ee2:	4661                	li	a2,24
20005ee4:	00003097          	auipc	ra,0x3
20005ee8:	782080e7          	jalr	1922(ra) # 20009666 <memcpy>
20005eec:	8526                	mv	a0,s1
20005eee:	85ca                	mv	a1,s2
20005ef0:	00000097          	auipc	ra,0x0
20005ef4:	f58080e7          	jalr	-168(ra) # 20005e48 <core::fmt::Write::write_fmt>
20005ef8:	5902                	lw	s2,32(sp)
20005efa:	5492                	lw	s1,36(sp)
20005efc:	5422                	lw	s0,40(sp)
20005efe:	50b2                	lw	ra,44(sp)
20005f00:	6145                	addi	sp,sp,48
20005f02:	8082                	ret

20005f04 <kernel::debug::panic_begin>:
20005f04:	1141                	addi	sp,sp,-16
20005f06:	c606                	sw	ra,12(sp)
20005f08:	c422                	sw	s0,8(sp)
20005f0a:	0800                	addi	s0,sp,16
20005f0c:	00031537          	lui	a0,0x31
20005f10:	d4050513          	addi	a0,a0,-704 # 30d40 <.Lline_table_start0+0x21095>
20005f14:	c501                	beqz	a0,20005f1c <kernel::debug::panic_begin+0x18>
20005f16:	157d                	addi	a0,a0,-1
20005f18:	0001                	nop
20005f1a:	fd75                	bnez	a0,20005f16 <kernel::debug::panic_begin+0x12>
20005f1c:	4422                	lw	s0,8(sp)
20005f1e:	40b2                	lw	ra,12(sp)
20005f20:	0141                	addi	sp,sp,16
20005f22:	8082                	ret

20005f24 <kernel::debug::get_debug_writer>:
20005f24:	1141                	addi	sp,sp,-16
20005f26:	c606                	sw	ra,12(sp)
20005f28:	c422                	sw	s0,8(sp)
20005f2a:	0800                	addi	s0,sp,16
20005f2c:	10002537          	lui	a0,0x10002
20005f30:	cdc52503          	lw	a0,-804(a0) # 10001cdc <kernel::debug::DEBUG_WRITER>
20005f34:	c509                	beqz	a0,20005f3e <kernel::debug::get_debug_writer+0x1a>
20005f36:	4422                	lw	s0,8(sp)
20005f38:	40b2                	lw	ra,12(sp)
20005f3a:	0141                	addi	sp,sp,16
20005f3c:	8082                	ret
20005f3e:	2000c537          	lui	a0,0x2000c
20005f42:	cc650513          	addi	a0,a0,-826 # 2000bcc6 <.Lanon.af89b0d07c615f4c0637c8c29e22e2f7.1>
20005f46:	100025b7          	lui	a1,0x10002
20005f4a:	92058613          	addi	a2,a1,-1760 # 10001920 <.Lanon.af89b0d07c615f4c0637c8c29e22e2f7.3>
20005f4e:	03d00593          	li	a1,61
20005f52:	ffffe097          	auipc	ra,0xffffe
20005f56:	aac080e7          	jalr	-1364(ra) # 200039fe <core::panicking::panic>
20005f5a:	00006097          	auipc	ra,0x6
20005f5e:	1d2080e7          	jalr	466(ra) # 2000c12c <abort>

20005f62 <kernel::debug::DebugWriter::publish_str>:
20005f62:	1101                	addi	sp,sp,-32
20005f64:	ce06                	sw	ra,28(sp)
20005f66:	cc22                	sw	s0,24(sp)
20005f68:	ca26                	sw	s1,20(sp)
20005f6a:	c84a                	sw	s2,16(sp)
20005f6c:	1000                	addi	s0,sp,32
20005f6e:	4904                	lw	s1,16(a0)
20005f70:	00052823          	sw	zero,16(a0)
20005f74:	c4ad                	beqz	s1,20005fde <kernel::debug::DebugWriter::publish_str+0x7c>
20005f76:	892a                	mv	s2,a0
20005f78:	4510                	lw	a2,8(a0)
20005f7a:	00052423          	sw	zero,8(a0)
20005f7e:	ce31                	beqz	a2,20005fda <kernel::debug::DebugWriter::publish_str+0x78>
20005f80:	00c92683          	lw	a3,12(s2)
20005f84:	4701                	li	a4,0
20005f86:	02e68963          	beq	a3,a4,20005fb8 <kernel::debug::DebugWriter::publish_str+0x56>
20005f8a:	448c                	lw	a1,8(s1)
20005f8c:	44c8                	lw	a0,12(s1)
20005f8e:	02a58563          	beq	a1,a0,20005fb8 <kernel::debug::DebugWriter::publish_str+0x56>
20005f92:	40dc                	lw	a5,4(s1)
20005f94:	04f5fb63          	bgeu	a1,a5,20005fea <kernel::debug::DebugWriter::publish_str+0x88>
20005f98:	00e60833          	add	a6,a2,a4
20005f9c:	00158513          	addi	a0,a1,1
20005fa0:	02f57533          	remu	a0,a0,a5
20005fa4:	409c                	lw	a5,0(s1)
20005fa6:	95be                	add	a1,a1,a5
20005fa8:	00058583          	lb	a1,0(a1)
20005fac:	c488                	sw	a0,8(s1)
20005fae:	00b80023          	sb	a1,0(a6)
20005fb2:	0705                	addi	a4,a4,1
20005fb4:	fce69be3          	bne	a3,a4,20005f8a <kernel::debug::DebugWriter::publish_str+0x28>
20005fb8:	c30d                	beqz	a4,20005fda <kernel::debug::DebugWriter::publish_str+0x78>
20005fba:	00492503          	lw	a0,4(s2)
20005fbe:	491c                	lw	a5,16(a0)
20005fc0:	00092583          	lw	a1,0(s2)
20005fc4:	fe040513          	addi	a0,s0,-32
20005fc8:	9782                	jalr	a5
20005fca:	fe842503          	lw	a0,-24(s0)
20005fce:	fec42583          	lw	a1,-20(s0)
20005fd2:	00b92623          	sw	a1,12(s2)
20005fd6:	00a92423          	sw	a0,8(s2)
20005fda:	00992823          	sw	s1,16(s2)
20005fde:	4942                	lw	s2,16(sp)
20005fe0:	44d2                	lw	s1,20(sp)
20005fe2:	4462                	lw	s0,24(sp)
20005fe4:	40f2                	lw	ra,28(sp)
20005fe6:	6105                	addi	sp,sp,32
20005fe8:	8082                	ret
20005fea:	10002537          	lui	a0,0x10002
20005fee:	ba850513          	addi	a0,a0,-1112 # 10001ba8 <.L__unnamed_15>
20005ff2:	863e                	mv	a2,a5
20005ff4:	ffffe097          	auipc	ra,0xffffe
20005ff8:	a52080e7          	jalr	-1454(ra) # 20003a46 <core::panicking::panic_bounds_check>
20005ffc:	00006097          	auipc	ra,0x6
20006000:	130080e7          	jalr	304(ra) # 2000c12c <abort>

20006004 <<kernel::debug::DebugWriter as kernel::hil::uart::TransmitClient>::transmitted_buffer>:
20006004:	1141                	addi	sp,sp,-16
20006006:	c606                	sw	ra,12(sp)
20006008:	c422                	sw	s0,8(sp)
2000600a:	0800                	addi	s0,sp,16
2000600c:	c550                	sw	a2,12(a0)
2000600e:	c50c                	sw	a1,8(a0)
20006010:	490c                	lw	a1,16(a0)
20006012:	00052823          	sw	zero,16(a0)
20006016:	c991                	beqz	a1,2000602a <<kernel::debug::DebugWriter as kernel::hil::uart::TransmitClient>::transmitted_buffer+0x26>
20006018:	45d0                	lw	a2,12(a1)
2000601a:	4594                	lw	a3,8(a1)
2000601c:	c90c                	sw	a1,16(a0)
2000601e:	00c68663          	beq	a3,a2,2000602a <<kernel::debug::DebugWriter as kernel::hil::uart::TransmitClient>::transmitted_buffer+0x26>
20006022:	00000097          	auipc	ra,0x0
20006026:	f40080e7          	jalr	-192(ra) # 20005f62 <kernel::debug::DebugWriter::publish_str>
2000602a:	4422                	lw	s0,8(sp)
2000602c:	40b2                	lw	ra,12(sp)
2000602e:	0141                	addi	sp,sp,16
20006030:	8082                	ret

20006032 <<kernel::debug::DebugWriter as kernel::hil::uart::TransmitClient>::transmitted_word>:
20006032:	1141                	addi	sp,sp,-16
20006034:	c606                	sw	ra,12(sp)
20006036:	c422                	sw	s0,8(sp)
20006038:	0800                	addi	s0,sp,16
2000603a:	4422                	lw	s0,8(sp)
2000603c:	40b2                	lw	ra,12(sp)
2000603e:	0141                	addi	sp,sp,16
20006040:	8082                	ret

20006042 <kernel::debug::begin_debug_fmt>:
20006042:	7179                	addi	sp,sp,-48
20006044:	d606                	sw	ra,44(sp)
20006046:	d422                	sw	s0,40(sp)
20006048:	d226                	sw	s1,36(sp)
2000604a:	d04a                	sw	s2,32(sp)
2000604c:	ce4e                	sw	s3,28(sp)
2000604e:	1800                	addi	s0,sp,48
20006050:	892a                	mv	s2,a0
20006052:	00000097          	auipc	ra,0x0
20006056:	ed2080e7          	jalr	-302(ra) # 20005f24 <kernel::debug::get_debug_writer>
2000605a:	84aa                	mv	s1,a0
2000605c:	fd040993          	addi	s3,s0,-48
20006060:	854e                	mv	a0,s3
20006062:	85ca                	mv	a1,s2
20006064:	4661                	li	a2,24
20006066:	00003097          	auipc	ra,0x3
2000606a:	600080e7          	jalr	1536(ra) # 20009666 <memcpy>
2000606e:	10002537          	lui	a0,0x10002
20006072:	93050593          	addi	a1,a0,-1744 # 10001930 <.Lanon.af89b0d07c615f4c0637c8c29e22e2f7.4>
20006076:	8526                	mv	a0,s1
20006078:	864e                	mv	a2,s3
2000607a:	fffff097          	auipc	ra,0xfffff
2000607e:	9ec080e7          	jalr	-1556(ra) # 20004a66 <core::fmt::write>
20006082:	2000c537          	lui	a0,0x2000c
20006086:	05950593          	addi	a1,a0,89 # 2000c059 <.L__unnamed_44>
2000608a:	8526                	mv	a0,s1
2000608c:	4609                	li	a2,2
2000608e:	00000097          	auipc	ra,0x0
20006092:	cc8080e7          	jalr	-824(ra) # 20005d56 <<kernel::debug::DebugWriterWrapper as core::fmt::Write>::write_str>
20006096:	0044c503          	lbu	a0,4(s1)
2000609a:	c919                	beqz	a0,200060b0 <kernel::debug::begin_debug_fmt+0x6e>
2000609c:	00048223          	sb	zero,4(s1)
200060a0:	4088                	lw	a0,0(s1)
200060a2:	00000097          	auipc	ra,0x0
200060a6:	ec0080e7          	jalr	-320(ra) # 20005f62 <kernel::debug::DebugWriter::publish_str>
200060aa:	4505                	li	a0,1
200060ac:	00a48223          	sb	a0,4(s1)
200060b0:	49f2                	lw	s3,28(sp)
200060b2:	5902                	lw	s2,32(sp)
200060b4:	5492                	lw	s1,36(sp)
200060b6:	5422                	lw	s0,40(sp)
200060b8:	50b2                	lw	ra,44(sp)
200060ba:	6145                	addi	sp,sp,48
200060bc:	8082                	ret

200060be <core::ptr::real_drop_in_place>:
200060be:	1141                	addi	sp,sp,-16
200060c0:	c606                	sw	ra,12(sp)
200060c2:	c422                	sw	s0,8(sp)
200060c4:	0800                	addi	s0,sp,16
200060c6:	4422                	lw	s0,8(sp)
200060c8:	40b2                	lw	ra,12(sp)
200060ca:	0141                	addi	sp,sp,16
200060cc:	8082                	ret

200060ce <kernel::callback::Callback::schedule>:
200060ce:	7179                	addi	sp,sp,-48
200060d0:	d606                	sw	ra,44(sp)
200060d2:	d422                	sw	s0,40(sp)
200060d4:	1800                	addi	s0,sp,48
200060d6:	86aa                	mv	a3,a0
200060d8:	4158                	lw	a4,4(a0)
200060da:	4108                	lw	a0,0(a0)
200060dc:	451c                	lw	a5,8(a0)
200060de:	04e7e863          	bltu	a5,a4,2000612e <kernel::callback::Callback::schedule+0x60>
200060e2:	04f77a63          	bgeu	a4,a5,20006136 <kernel::callback::Callback::schedule+0x68>
200060e6:	070e                	slli	a4,a4,0x3
200060e8:	4148                	lw	a0,4(a0)
200060ea:	972a                	add	a4,a4,a0
200060ec:	4308                	lw	a0,0(a4)
200060ee:	c121                	beqz	a0,2000612e <kernel::callback::Callback::schedule+0x60>
200060f0:	00472803          	lw	a6,4(a4)
200060f4:	0086a883          	lw	a7,8(a3)
200060f8:	46d8                	lw	a4,12(a3)
200060fa:	4a9c                	lw	a5,16(a3)
200060fc:	4ad4                	lw	a3,20(a3)
200060fe:	fed42823          	sw	a3,-16(s0)
20006102:	fef42623          	sw	a5,-20(s0)
20006106:	fec42223          	sw	a2,-28(s0)
2000610a:	feb42023          	sw	a1,-32(s0)
2000610e:	fce42e23          	sw	a4,-36(s0)
20006112:	fd142c23          	sw	a7,-40(s0)
20006116:	4585                	li	a1,1
20006118:	fcb42a23          	sw	a1,-44(s0)
2000611c:	fe042423          	sw	zero,-24(s0)
20006120:	fc042823          	sw	zero,-48(s0)
20006124:	01082603          	lw	a2,16(a6)
20006128:	fd040593          	addi	a1,s0,-48
2000612c:	9602                	jalr	a2
2000612e:	5422                	lw	s0,40(sp)
20006130:	50b2                	lw	ra,44(sp)
20006132:	6145                	addi	sp,sp,48
20006134:	8082                	ret
20006136:	10002537          	lui	a0,0x10002
2000613a:	a1c50513          	addi	a0,a0,-1508 # 10001a1c <.L__unnamed_41>
2000613e:	85ba                	mv	a1,a4
20006140:	863e                	mv	a2,a5
20006142:	ffffe097          	auipc	ra,0xffffe
20006146:	904080e7          	jalr	-1788(ra) # 20003a46 <core::panicking::panic_bounds_check>
2000614a:	00006097          	auipc	ra,0x6
2000614e:	fe2080e7          	jalr	-30(ra) # 2000c12c <abort>

20006152 <<kernel::mem::AppPtr<L,T> as core::ops::drop::Drop>::drop>:
20006152:	1141                	addi	sp,sp,-16
20006154:	c606                	sw	ra,12(sp)
20006156:	c422                	sw	s0,8(sp)
20006158:	0800                	addi	s0,sp,16
2000615a:	450c                	lw	a1,8(a0)
2000615c:	4154                	lw	a3,4(a0)
2000615e:	4690                	lw	a2,8(a3)
20006160:	00b66e63          	bltu	a2,a1,2000617c <<kernel::mem::AppPtr<L,T> as core::ops::drop::Drop>::drop+0x2a>
20006164:	02c5f063          	bgeu	a1,a2,20006184 <<kernel::mem::AppPtr<L,T> as core::ops::drop::Drop>::drop+0x32>
20006168:	058e                	slli	a1,a1,0x3
2000616a:	42d0                	lw	a2,4(a3)
2000616c:	95b2                	add	a1,a1,a2
2000616e:	4190                	lw	a2,0(a1)
20006170:	c611                	beqz	a2,2000617c <<kernel::mem::AppPtr<L,T> as core::ops::drop::Drop>::drop+0x2a>
20006172:	41cc                	lw	a1,4(a1)
20006174:	59f4                	lw	a3,116(a1)
20006176:	410c                	lw	a1,0(a0)
20006178:	8532                	mv	a0,a2
2000617a:	9682                	jalr	a3
2000617c:	4422                	lw	s0,8(sp)
2000617e:	40b2                	lw	ra,12(sp)
20006180:	0141                	addi	sp,sp,16
20006182:	8082                	ret
20006184:	10002537          	lui	a0,0x10002
20006188:	a1c50513          	addi	a0,a0,-1508 # 10001a1c <.L__unnamed_41>
2000618c:	ffffe097          	auipc	ra,0xffffe
20006190:	8ba080e7          	jalr	-1862(ra) # 20003a46 <core::panicking::panic_bounds_check>
20006194:	00006097          	auipc	ra,0x6
20006198:	f98080e7          	jalr	-104(ra) # 2000c12c <abort>

2000619c <<&T as core::fmt::Debug>::fmt>:
2000619c:	1101                	addi	sp,sp,-32
2000619e:	ce06                	sw	ra,28(sp)
200061a0:	cc22                	sw	s0,24(sp)
200061a2:	ca26                	sw	s1,20(sp)
200061a4:	c84a                	sw	s2,16(sp)
200061a6:	c64e                	sw	s3,12(sp)
200061a8:	c452                	sw	s4,8(sp)
200061aa:	1000                	addi	s0,sp,32
200061ac:	84ae                	mv	s1,a1
200061ae:	00c5a983          	lw	s3,12(a1)
200061b2:	0085a903          	lw	s2,8(a1)
200061b6:	4108                	lw	a0,0(a0)
200061b8:	4108                	lw	a0,0(a0)
200061ba:	0005aa03          	lw	s4,0(a1)
200061be:	004a7613          	andi	a2,s4,4
200061c2:	85d2                	mv	a1,s4
200061c4:	ca11                	beqz	a2,200061d8 <<&T as core::fmt::Debug>::fmt+0x3c>
200061c6:	008a6593          	ori	a1,s4,8
200061ca:	c08c                	sw	a1,0(s1)
200061cc:	00091663          	bnez	s2,200061d8 <<&T as core::fmt::Debug>::fmt+0x3c>
200061d0:	4629                	li	a2,10
200061d2:	c4d0                	sw	a2,12(s1)
200061d4:	4605                	li	a2,1
200061d6:	c490                	sw	a2,8(s1)
200061d8:	0045e593          	ori	a1,a1,4
200061dc:	c08c                	sw	a1,0(s1)
200061de:	fea42223          	sw	a0,-28(s0)
200061e2:	fe440513          	addi	a0,s0,-28
200061e6:	85a6                	mv	a1,s1
200061e8:	fffff097          	auipc	ra,0xfffff
200061ec:	3e6080e7          	jalr	998(ra) # 200055ce <core::fmt::num::<impl core::fmt::LowerHex for i32>::fmt>
200061f0:	0134a623          	sw	s3,12(s1)
200061f4:	0124a423          	sw	s2,8(s1)
200061f8:	0144a023          	sw	s4,0(s1)
200061fc:	4a22                	lw	s4,8(sp)
200061fe:	49b2                	lw	s3,12(sp)
20006200:	4942                	lw	s2,16(sp)
20006202:	44d2                	lw	s1,20(sp)
20006204:	4462                	lw	s0,24(sp)
20006206:	40f2                	lw	ra,28(sp)
20006208:	6105                	addi	sp,sp,32
2000620a:	8082                	ret

2000620c <<&T as core::fmt::Debug>::fmt>:
2000620c:	1141                	addi	sp,sp,-16
2000620e:	c606                	sw	ra,12(sp)
20006210:	c422                	sw	s0,8(sp)
20006212:	0800                	addi	s0,sp,16
20006214:	4108                	lw	a0,0(a0)
20006216:	4190                	lw	a2,0(a1)
20006218:	01067693          	andi	a3,a2,16
2000621c:	ea89                	bnez	a3,2000622e <<&T as core::fmt::Debug>::fmt+0x22>
2000621e:	02067613          	andi	a2,a2,32
20006222:	ea19                	bnez	a2,20006238 <<&T as core::fmt::Debug>::fmt+0x2c>
20006224:	ffffe097          	auipc	ra,0xffffe
20006228:	88c080e7          	jalr	-1908(ra) # 20003ab0 <core::fmt::num::imp::<impl core::fmt::Display for u32>::fmt>
2000622c:	a811                	j	20006240 <<&T as core::fmt::Debug>::fmt+0x34>
2000622e:	fffff097          	auipc	ra,0xfffff
20006232:	3a0080e7          	jalr	928(ra) # 200055ce <core::fmt::num::<impl core::fmt::LowerHex for i32>::fmt>
20006236:	a029                	j	20006240 <<&T as core::fmt::Debug>::fmt+0x34>
20006238:	fffff097          	auipc	ra,0xfffff
2000623c:	41a080e7          	jalr	1050(ra) # 20005652 <core::fmt::num::<impl core::fmt::UpperHex for i32>::fmt>
20006240:	4422                	lw	s0,8(sp)
20006242:	40b2                	lw	ra,12(sp)
20006244:	0141                	addi	sp,sp,16
20006246:	8082                	ret

20006248 <<&T as core::fmt::Debug>::fmt>:
20006248:	1101                	addi	sp,sp,-32
2000624a:	ce06                	sw	ra,28(sp)
2000624c:	cc22                	sw	s0,24(sp)
2000624e:	ca26                	sw	s1,20(sp)
20006250:	c84a                	sw	s2,16(sp)
20006252:	c64e                	sw	s3,12(sp)
20006254:	c452                	sw	s4,8(sp)
20006256:	1000                	addi	s0,sp,32
20006258:	84ae                	mv	s1,a1
2000625a:	00c5a983          	lw	s3,12(a1)
2000625e:	0085a903          	lw	s2,8(a1)
20006262:	4108                	lw	a0,0(a0)
20006264:	4108                	lw	a0,0(a0)
20006266:	0005aa03          	lw	s4,0(a1)
2000626a:	004a7613          	andi	a2,s4,4
2000626e:	85d2                	mv	a1,s4
20006270:	ca11                	beqz	a2,20006284 <<&T as core::fmt::Debug>::fmt+0x3c>
20006272:	008a6593          	ori	a1,s4,8
20006276:	c08c                	sw	a1,0(s1)
20006278:	00091663          	bnez	s2,20006284 <<&T as core::fmt::Debug>::fmt+0x3c>
2000627c:	4629                	li	a2,10
2000627e:	c4d0                	sw	a2,12(s1)
20006280:	4605                	li	a2,1
20006282:	c490                	sw	a2,8(s1)
20006284:	0045e593          	ori	a1,a1,4
20006288:	c08c                	sw	a1,0(s1)
2000628a:	fea42223          	sw	a0,-28(s0)
2000628e:	fe440513          	addi	a0,s0,-28
20006292:	85a6                	mv	a1,s1
20006294:	fffff097          	auipc	ra,0xfffff
20006298:	33a080e7          	jalr	826(ra) # 200055ce <core::fmt::num::<impl core::fmt::LowerHex for i32>::fmt>
2000629c:	0134a623          	sw	s3,12(s1)
200062a0:	0124a423          	sw	s2,8(s1)
200062a4:	0144a023          	sw	s4,0(s1)
200062a8:	4a22                	lw	s4,8(sp)
200062aa:	49b2                	lw	s3,12(sp)
200062ac:	4942                	lw	s2,16(sp)
200062ae:	44d2                	lw	s1,20(sp)
200062b0:	4462                	lw	s0,24(sp)
200062b2:	40f2                	lw	ra,28(sp)
200062b4:	6105                	addi	sp,sp,32
200062b6:	8082                	ret

200062b8 <<&T as core::fmt::Display>::fmt>:
200062b8:	1141                	addi	sp,sp,-16
200062ba:	c606                	sw	ra,12(sp)
200062bc:	c422                	sw	s0,8(sp)
200062be:	0800                	addi	s0,sp,16
200062c0:	86ae                	mv	a3,a1
200062c2:	4150                	lw	a2,4(a0)
200062c4:	410c                	lw	a1,0(a0)
200062c6:	8536                	mv	a0,a3
200062c8:	4422                	lw	s0,8(sp)
200062ca:	40b2                	lw	ra,12(sp)
200062cc:	0141                	addi	sp,sp,16
200062ce:	ffffe317          	auipc	t1,0xffffe
200062d2:	d3430067          	jr	-716(t1) # 20004002 <core::fmt::Formatter::pad>

200062d6 <kernel::returncode::<impl core::convert::From<kernel::returncode::ReturnCode> for isize>::from>:
200062d6:	1141                	addi	sp,sp,-16
200062d8:	c606                	sw	ra,12(sp)
200062da:	c422                	sw	s0,8(sp)
200062dc:	0800                	addi	s0,sp,16
200062de:	c151                	beqz	a0,20006362 <kernel::returncode::<impl core::convert::From<kernel::returncode::ReturnCode> for isize>::from+0x8c>
200062e0:	4585                	li	a1,1
200062e2:	04b50963          	beq	a0,a1,20006334 <kernel::returncode::<impl core::convert::From<kernel::returncode::ReturnCode> for isize>::from+0x5e>
200062e6:	4589                	li	a1,2
200062e8:	04b50863          	beq	a0,a1,20006338 <kernel::returncode::<impl core::convert::From<kernel::returncode::ReturnCode> for isize>::from+0x62>
200062ec:	458d                	li	a1,3
200062ee:	04b50763          	beq	a0,a1,2000633c <kernel::returncode::<impl core::convert::From<kernel::returncode::ReturnCode> for isize>::from+0x66>
200062f2:	4591                	li	a1,4
200062f4:	04b50663          	beq	a0,a1,20006340 <kernel::returncode::<impl core::convert::From<kernel::returncode::ReturnCode> for isize>::from+0x6a>
200062f8:	4595                	li	a1,5
200062fa:	04b50563          	beq	a0,a1,20006344 <kernel::returncode::<impl core::convert::From<kernel::returncode::ReturnCode> for isize>::from+0x6e>
200062fe:	4599                	li	a1,6
20006300:	04b50463          	beq	a0,a1,20006348 <kernel::returncode::<impl core::convert::From<kernel::returncode::ReturnCode> for isize>::from+0x72>
20006304:	459d                	li	a1,7
20006306:	04b50363          	beq	a0,a1,2000634c <kernel::returncode::<impl core::convert::From<kernel::returncode::ReturnCode> for isize>::from+0x76>
2000630a:	45a1                	li	a1,8
2000630c:	04b50263          	beq	a0,a1,20006350 <kernel::returncode::<impl core::convert::From<kernel::returncode::ReturnCode> for isize>::from+0x7a>
20006310:	45a5                	li	a1,9
20006312:	04b50163          	beq	a0,a1,20006354 <kernel::returncode::<impl core::convert::From<kernel::returncode::ReturnCode> for isize>::from+0x7e>
20006316:	45a9                	li	a1,10
20006318:	04b50063          	beq	a0,a1,20006358 <kernel::returncode::<impl core::convert::From<kernel::returncode::ReturnCode> for isize>::from+0x82>
2000631c:	45ad                	li	a1,11
2000631e:	02b50f63          	beq	a0,a1,2000635c <kernel::returncode::<impl core::convert::From<kernel::returncode::ReturnCode> for isize>::from+0x86>
20006322:	45b1                	li	a1,12
20006324:	02b50e63          	beq	a0,a1,20006360 <kernel::returncode::<impl core::convert::From<kernel::returncode::ReturnCode> for isize>::from+0x8a>
20006328:	55cd                	li	a1,-13
2000632a:	4635                	li	a2,13
2000632c:	02c51b63          	bne	a0,a2,20006362 <kernel::returncode::<impl core::convert::From<kernel::returncode::ReturnCode> for isize>::from+0x8c>
20006330:	55d1                	li	a1,-12
20006332:	a805                	j	20006362 <kernel::returncode::<impl core::convert::From<kernel::returncode::ReturnCode> for isize>::from+0x8c>
20006334:	4581                	li	a1,0
20006336:	a035                	j	20006362 <kernel::returncode::<impl core::convert::From<kernel::returncode::ReturnCode> for isize>::from+0x8c>
20006338:	55fd                	li	a1,-1
2000633a:	a025                	j	20006362 <kernel::returncode::<impl core::convert::From<kernel::returncode::ReturnCode> for isize>::from+0x8c>
2000633c:	55f9                	li	a1,-2
2000633e:	a015                	j	20006362 <kernel::returncode::<impl core::convert::From<kernel::returncode::ReturnCode> for isize>::from+0x8c>
20006340:	55f5                	li	a1,-3
20006342:	a005                	j	20006362 <kernel::returncode::<impl core::convert::From<kernel::returncode::ReturnCode> for isize>::from+0x8c>
20006344:	55f1                	li	a1,-4
20006346:	a831                	j	20006362 <kernel::returncode::<impl core::convert::From<kernel::returncode::ReturnCode> for isize>::from+0x8c>
20006348:	55ed                	li	a1,-5
2000634a:	a821                	j	20006362 <kernel::returncode::<impl core::convert::From<kernel::returncode::ReturnCode> for isize>::from+0x8c>
2000634c:	55e9                	li	a1,-6
2000634e:	a811                	j	20006362 <kernel::returncode::<impl core::convert::From<kernel::returncode::ReturnCode> for isize>::from+0x8c>
20006350:	55e5                	li	a1,-7
20006352:	a801                	j	20006362 <kernel::returncode::<impl core::convert::From<kernel::returncode::ReturnCode> for isize>::from+0x8c>
20006354:	55e1                	li	a1,-8
20006356:	a031                	j	20006362 <kernel::returncode::<impl core::convert::From<kernel::returncode::ReturnCode> for isize>::from+0x8c>
20006358:	55dd                	li	a1,-9
2000635a:	a021                	j	20006362 <kernel::returncode::<impl core::convert::From<kernel::returncode::ReturnCode> for isize>::from+0x8c>
2000635c:	55d9                	li	a1,-10
2000635e:	a011                	j	20006362 <kernel::returncode::<impl core::convert::From<kernel::returncode::ReturnCode> for isize>::from+0x8c>
20006360:	55d5                	li	a1,-11
20006362:	852e                	mv	a0,a1
20006364:	4422                	lw	s0,8(sp)
20006366:	40b2                	lw	ra,12(sp)
20006368:	0141                	addi	sp,sp,16
2000636a:	8082                	ret

2000636c <core::ptr::real_drop_in_place>:
2000636c:	1141                	addi	sp,sp,-16
2000636e:	c606                	sw	ra,12(sp)
20006370:	c422                	sw	s0,8(sp)
20006372:	0800                	addi	s0,sp,16
20006374:	4422                	lw	s0,8(sp)
20006376:	40b2                	lw	ra,12(sp)
20006378:	0141                	addi	sp,sp,16
2000637a:	8082                	ret

2000637c <core::ptr::real_drop_in_place>:
2000637c:	1141                	addi	sp,sp,-16
2000637e:	c606                	sw	ra,12(sp)
20006380:	c422                	sw	s0,8(sp)
20006382:	0800                	addi	s0,sp,16
20006384:	4422                	lw	s0,8(sp)
20006386:	40b2                	lw	ra,12(sp)
20006388:	0141                	addi	sp,sp,16
2000638a:	8082                	ret

2000638c <_ZN4core3ptr18real_drop_in_place17h9e60c6283e674551E.653>:
2000638c:	1141                	addi	sp,sp,-16
2000638e:	c606                	sw	ra,12(sp)
20006390:	c422                	sw	s0,8(sp)
20006392:	0800                	addi	s0,sp,16
20006394:	4422                	lw	s0,8(sp)
20006396:	40b2                	lw	ra,12(sp)
20006398:	0141                	addi	sp,sp,16
2000639a:	8082                	ret

2000639c <<kernel::common::ring_buffer::RingBuffer<T> as kernel::common::queue::Queue<T>>::enqueue>:
2000639c:	1141                	addi	sp,sp,-16
2000639e:	c606                	sw	ra,12(sp)
200063a0:	c422                	sw	s0,8(sp)
200063a2:	0800                	addi	s0,sp,16
200063a4:	4150                	lw	a2,4(a0)
200063a6:	ca15                	beqz	a2,200063da <<kernel::common::ring_buffer::RingBuffer<T> as kernel::common::queue::Queue<T>>::enqueue+0x3e>
200063a8:	4554                	lw	a3,12(a0)
200063aa:	00168713          	addi	a4,a3,1
200063ae:	02c77733          	remu	a4,a4,a2
200063b2:	451c                	lw	a5,8(a0)
200063b4:	00f70f63          	beq	a4,a5,200063d2 <<kernel::common::ring_buffer::RingBuffer<T> as kernel::common::queue::Queue<T>>::enqueue+0x36>
200063b8:	02c6fa63          	bgeu	a3,a2,200063ec <<kernel::common::ring_buffer::RingBuffer<T> as kernel::common::queue::Queue<T>>::enqueue+0x50>
200063bc:	4110                	lw	a2,0(a0)
200063be:	9636                	add	a2,a2,a3
200063c0:	00b60023          	sb	a1,0(a2)
200063c4:	414c                	lw	a1,4(a0)
200063c6:	c1a1                	beqz	a1,20006406 <<kernel::common::ring_buffer::RingBuffer<T> as kernel::common::queue::Queue<T>>::enqueue+0x6a>
200063c8:	4550                	lw	a2,12(a0)
200063ca:	0605                	addi	a2,a2,1
200063cc:	02b675b3          	remu	a1,a2,a1
200063d0:	c54c                	sw	a1,12(a0)
200063d2:	4422                	lw	s0,8(sp)
200063d4:	40b2                	lw	ra,12(sp)
200063d6:	0141                	addi	sp,sp,16
200063d8:	8082                	ret
200063da:	2000c537          	lui	a0,0x2000c
200063de:	d6050513          	addi	a0,a0,-672 # 2000bd60 <str.0.llvm.14638293206970330585>
200063e2:	100025b7          	lui	a1,0x10002
200063e6:	bb858613          	addi	a2,a1,-1096 # 10001bb8 <.L__unnamed_45>
200063ea:	a035                	j	20006416 <<kernel::common::ring_buffer::RingBuffer<T> as kernel::common::queue::Queue<T>>::enqueue+0x7a>
200063ec:	10002537          	lui	a0,0x10002
200063f0:	bc850513          	addi	a0,a0,-1080 # 10001bc8 <.L__unnamed_46>
200063f4:	85b6                	mv	a1,a3
200063f6:	ffffd097          	auipc	ra,0xffffd
200063fa:	650080e7          	jalr	1616(ra) # 20003a46 <core::panicking::panic_bounds_check>
200063fe:	00006097          	auipc	ra,0x6
20006402:	d2e080e7          	jalr	-722(ra) # 2000c12c <abort>
20006406:	2000c537          	lui	a0,0x2000c
2000640a:	d6050513          	addi	a0,a0,-672 # 2000bd60 <str.0.llvm.14638293206970330585>
2000640e:	100025b7          	lui	a1,0x10002
20006412:	bd858613          	addi	a2,a1,-1064 # 10001bd8 <.L__unnamed_47>
20006416:	03900593          	li	a1,57
2000641a:	ffffd097          	auipc	ra,0xffffd
2000641e:	5e4080e7          	jalr	1508(ra) # 200039fe <core::panicking::panic>
20006422:	00006097          	auipc	ra,0x6
20006426:	d0a080e7          	jalr	-758(ra) # 2000c12c <abort>

2000642a <<kernel::process::State as core::fmt::Debug>::fmt>:
2000642a:	1101                	addi	sp,sp,-32
2000642c:	ce06                	sw	ra,28(sp)
2000642e:	cc22                	sw	s0,24(sp)
20006430:	ca26                	sw	s1,20(sp)
20006432:	1000                	addi	s0,sp,32
20006434:	84ae                	mv	s1,a1
20006436:	00054503          	lbu	a0,0(a0)
2000643a:	c90d                	beqz	a0,2000646c <<kernel::process::State as core::fmt::Debug>::fmt+0x42>
2000643c:	4585                	li	a1,1
2000643e:	02b50f63          	beq	a0,a1,2000647c <<kernel::process::State as core::fmt::Debug>::fmt+0x52>
20006442:	4589                	li	a1,2
20006444:	04b50563          	beq	a0,a1,2000648e <<kernel::process::State as core::fmt::Debug>::fmt+0x64>
20006448:	458d                	li	a1,3
2000644a:	04b50a63          	beq	a0,a1,2000649e <<kernel::process::State as core::fmt::Debug>::fmt+0x74>
2000644e:	4591                	li	a1,4
20006450:	04b50f63          	beq	a0,a1,200064ae <<kernel::process::State as core::fmt::Debug>::fmt+0x84>
20006454:	4595                	li	a1,5
20006456:	06b50563          	beq	a0,a1,200064c0 <<kernel::process::State as core::fmt::Debug>::fmt+0x96>
2000645a:	4cc8                	lw	a0,28(s1)
2000645c:	4554                	lw	a3,12(a0)
2000645e:	4c88                	lw	a0,24(s1)
20006460:	2000c5b7          	lui	a1,0x2000c
20006464:	dad58593          	addi	a1,a1,-595 # 2000bdad <.Lanon.a2d937e2433298631c704dcdf44b3a07.6>
20006468:	4625                	li	a2,9
2000646a:	a09d                	j	200064d0 <<kernel::process::State as core::fmt::Debug>::fmt+0xa6>
2000646c:	4cc8                	lw	a0,28(s1)
2000646e:	4554                	lw	a3,12(a0)
20006470:	4c88                	lw	a0,24(s1)
20006472:	2000c5b7          	lui	a1,0x2000c
20006476:	db658593          	addi	a1,a1,-586 # 2000bdb6 <.Lanon.a2d937e2433298631c704dcdf44b3a07.12>
2000647a:	a801                	j	2000648a <<kernel::process::State as core::fmt::Debug>::fmt+0x60>
2000647c:	4cc8                	lw	a0,28(s1)
2000647e:	4554                	lw	a3,12(a0)
20006480:	4c88                	lw	a0,24(s1)
20006482:	2000c5b7          	lui	a1,0x2000c
20006486:	dbd58593          	addi	a1,a1,-579 # 2000bdbd <.Lanon.a2d937e2433298631c704dcdf44b3a07.11>
2000648a:	461d                	li	a2,7
2000648c:	a091                	j	200064d0 <<kernel::process::State as core::fmt::Debug>::fmt+0xa6>
2000648e:	4cc8                	lw	a0,28(s1)
20006490:	4554                	lw	a3,12(a0)
20006492:	4c88                	lw	a0,24(s1)
20006494:	2000c5b7          	lui	a1,0x2000c
20006498:	dc458593          	addi	a1,a1,-572 # 2000bdc4 <.Lanon.a2d937e2433298631c704dcdf44b3a07.10>
2000649c:	a005                	j	200064bc <<kernel::process::State as core::fmt::Debug>::fmt+0x92>
2000649e:	4cc8                	lw	a0,28(s1)
200064a0:	4554                	lw	a3,12(a0)
200064a2:	4c88                	lw	a0,24(s1)
200064a4:	2000c5b7          	lui	a1,0x2000c
200064a8:	dd258593          	addi	a1,a1,-558 # 2000bdd2 <.Lanon.a2d937e2433298631c704dcdf44b3a07.9>
200064ac:	a801                	j	200064bc <<kernel::process::State as core::fmt::Debug>::fmt+0x92>
200064ae:	4cc8                	lw	a0,28(s1)
200064b0:	4554                	lw	a3,12(a0)
200064b2:	4c88                	lw	a0,24(s1)
200064b4:	2000c5b7          	lui	a1,0x2000c
200064b8:	de058593          	addi	a1,a1,-544 # 2000bde0 <.Lanon.a2d937e2433298631c704dcdf44b3a07.8>
200064bc:	4639                	li	a2,14
200064be:	a809                	j	200064d0 <<kernel::process::State as core::fmt::Debug>::fmt+0xa6>
200064c0:	4cc8                	lw	a0,28(s1)
200064c2:	4554                	lw	a3,12(a0)
200064c4:	4c88                	lw	a0,24(s1)
200064c6:	2000c5b7          	lui	a1,0x2000c
200064ca:	dee58593          	addi	a1,a1,-530 # 2000bdee <.Lanon.a2d937e2433298631c704dcdf44b3a07.7>
200064ce:	4615                	li	a2,5
200064d0:	9682                	jalr	a3
200064d2:	fea40823          	sb	a0,-16(s0)
200064d6:	fe942423          	sw	s1,-24(s0)
200064da:	fe0408a3          	sb	zero,-15(s0)
200064de:	fe042623          	sw	zero,-20(s0)
200064e2:	fe840513          	addi	a0,s0,-24
200064e6:	fffff097          	auipc	ra,0xfffff
200064ea:	070080e7          	jalr	112(ra) # 20005556 <core::fmt::builders::DebugTuple::finish>
200064ee:	44d2                	lw	s1,20(sp)
200064f0:	4462                	lw	s0,24(sp)
200064f2:	40f2                	lw	ra,28(sp)
200064f4:	6105                	addi	sp,sp,32
200064f6:	8082                	ret

200064f8 <lowrisc::uart::Uart::tx_progress>:
200064f8:	1141                	addi	sp,sp,-16
200064fa:	c606                	sw	ra,12(sp)
200064fc:	c422                	sw	s0,8(sp)
200064fe:	0800                	addi	s0,sp,16
20006500:	510c                	lw	a1,32(a0)
20006502:	02452303          	lw	t1,36(a0)
20006506:	06b37b63          	bgeu	t1,a1,2000657c <lowrisc::uart::Uart::tx_progress+0x84>
2000650a:	4114                	lw	a3,0(a0)
2000650c:	01852803          	lw	a6,24(a0)
20006510:	00052c23          	sw	zero,24(a0)
20006514:	04080163          	beqz	a6,20006556 <lowrisc::uart::Uart::tx_progress+0x5e>
20006518:	4d50                	lw	a2,28(a0)
2000651a:	006808b3          	add	a7,a6,t1
2000651e:	406582b3          	sub	t0,a1,t1
20006522:	4781                	li	a5,0
20006524:	0257f663          	bgeu	a5,t0,20006550 <lowrisc::uart::Uart::tx_progress+0x58>
20006528:	00178713          	addi	a4,a5,1
2000652c:	02f76263          	bltu	a4,a5,20006550 <lowrisc::uart::Uart::tx_progress+0x58>
20006530:	4a8c                	lw	a1,16(a3)
20006532:	8985                	andi	a1,a1,1
20006534:	ed91                	bnez	a1,20006550 <lowrisc::uart::Uart::tx_progress+0x58>
20006536:	00f305b3          	add	a1,t1,a5
2000653a:	06c5f563          	bgeu	a1,a2,200065a4 <lowrisc::uart::Uart::tx_progress+0xac>
2000653e:	97c6                	add	a5,a5,a7
20006540:	0007c783          	lbu	a5,0(a5)
20006544:	ce9c                	sw	a5,24(a3)
20006546:	0585                	addi	a1,a1,1
20006548:	d14c                	sw	a1,36(a0)
2000654a:	87ba                	mv	a5,a4
2000654c:	fc57eee3          	bltu	a5,t0,20006528 <lowrisc::uart::Uart::tx_progress+0x30>
20006550:	cd50                	sw	a2,28(a0)
20006552:	01052c23          	sw	a6,24(a0)
20006556:	4591                	li	a1,4
20006558:	c28c                	sw	a1,0(a3)
2000655a:	4a8c                	lw	a1,16(a3)
2000655c:	8991                	andi	a1,a1,4
2000655e:	ed99                	bnez	a1,2000657c <lowrisc::uart::Uart::tx_progress+0x84>
20006560:	410c                	lw	a1,0(a0)
20006562:	41d0                	lw	a2,4(a1)
20006564:	00466613          	ori	a2,a2,4
20006568:	c1d0                	sw	a2,4(a1)
2000656a:	4a8c                	lw	a1,16(a3)
2000656c:	8991                	andi	a1,a1,4
2000656e:	c59d                	beqz	a1,2000659c <lowrisc::uart::Uart::tx_progress+0xa4>
20006570:	410c                	lw	a1,0(a0)
20006572:	41d0                	lw	a2,4(a1)
20006574:	9a6d                	andi	a2,a2,-5
20006576:	c1d0                	sw	a2,4(a1)
20006578:	4611                	li	a2,4
2000657a:	c190                	sw	a2,0(a1)
2000657c:	5154                	lw	a3,36(a0)
2000657e:	510c                	lw	a1,32(a0)
20006580:	00b69e63          	bne	a3,a1,2000659c <lowrisc::uart::Uart::tx_progress+0xa4>
20006584:	4518                	lw	a4,8(a0)
20006586:	cb19                	beqz	a4,2000659c <lowrisc::uart::Uart::tx_progress+0xa4>
20006588:	455c                	lw	a5,12(a0)
2000658a:	4d0c                	lw	a1,24(a0)
2000658c:	00052c23          	sw	zero,24(a0)
20006590:	c591                	beqz	a1,2000659c <lowrisc::uart::Uart::tx_progress+0xa4>
20006592:	4d50                	lw	a2,28(a0)
20006594:	4b9c                	lw	a5,16(a5)
20006596:	853a                	mv	a0,a4
20006598:	4705                	li	a4,1
2000659a:	9782                	jalr	a5
2000659c:	4422                	lw	s0,8(sp)
2000659e:	40b2                	lw	ra,12(sp)
200065a0:	0141                	addi	sp,sp,16
200065a2:	8082                	ret
200065a4:	10002537          	lui	a0,0x10002
200065a8:	99850513          	addi	a0,a0,-1640 # 10001998 <anon.73c417997358ba0c0c07bbb0db8bfabc.2.llvm.3978030418488051151>
200065ac:	ffffd097          	auipc	ra,0xffffd
200065b0:	49a080e7          	jalr	1178(ra) # 20003a46 <core::panicking::panic_bounds_check>
200065b4:	00006097          	auipc	ra,0x6
200065b8:	b78080e7          	jalr	-1160(ra) # 2000c12c <abort>

200065bc <lowrisc::uart::Uart::transmit_sync>:
200065bc:	1141                	addi	sp,sp,-16
200065be:	c606                	sw	ra,12(sp)
200065c0:	c422                	sw	s0,8(sp)
200065c2:	0800                	addi	s0,sp,16
200065c4:	95aa                	add	a1,a1,a0
200065c6:	10002637          	lui	a2,0x10002
200065ca:	8d062603          	lw	a2,-1840(a2) # 100018d0 <ibex::uart::UART0>
200065ce:	00b50b63          	beq	a0,a1,200065e4 <lowrisc::uart::Uart::transmit_sync+0x28>
200065d2:	4a14                	lw	a3,16(a2)
200065d4:	8a85                	andi	a3,a3,1
200065d6:	fef5                	bnez	a3,200065d2 <lowrisc::uart::Uart::transmit_sync+0x16>
200065d8:	00054683          	lbu	a3,0(a0)
200065dc:	ce14                	sw	a3,24(a2)
200065de:	0505                	addi	a0,a0,1
200065e0:	feb519e3          	bne	a0,a1,200065d2 <lowrisc::uart::Uart::transmit_sync+0x16>
200065e4:	4422                	lw	s0,8(sp)
200065e6:	40b2                	lw	ra,12(sp)
200065e8:	0141                	addi	sp,sp,16
200065ea:	8082                	ret

200065ec <<lowrisc::uart::Uart as kernel::hil::uart::Configure>::configure>:
200065ec:	1141                	addi	sp,sp,-16
200065ee:	c606                	sw	ra,12(sp)
200065f0:	c422                	sw	s0,8(sp)
200065f2:	c226                	sw	s1,4(sp)
200065f4:	0800                	addi	s0,sp,16
200065f6:	4150                	lw	a2,4(a0)
200065f8:	ce0d                	beqz	a2,20006632 <<lowrisc::uart::Uart as kernel::hil::uart::Configure>::configure+0x46>
200065fa:	84aa                	mv	s1,a0
200065fc:	418c                	lw	a1,0(a1)
200065fe:	01459513          	slli	a0,a1,0x14
20006602:	81b1                	srli	a1,a1,0xc
20006604:	4681                	li	a3,0
20006606:	00003097          	auipc	ra,0x3
2000660a:	0d0080e7          	jalr	208(ra) # 200096d6 <__udivdi3>
2000660e:	0542                	slli	a0,a0,0x10
20006610:	408c                	lw	a1,0(s1)
20006612:	c5c8                	sw	a0,12(a1)
20006614:	45c8                	lw	a0,12(a1)
20006616:	00356513          	ori	a0,a0,3
2000661a:	c5c8                	sw	a0,12(a1)
2000661c:	450d                	li	a0,3
2000661e:	cdc8                	sw	a0,28(a1)
20006620:	cdc8                	sw	a0,28(a1)
20006622:	0005a223          	sw	zero,4(a1)
20006626:	4505                	li	a0,1
20006628:	4492                	lw	s1,4(sp)
2000662a:	4422                	lw	s0,8(sp)
2000662c:	40b2                	lw	ra,12(sp)
2000662e:	0141                	addi	sp,sp,16
20006630:	8082                	ret
20006632:	2000c537          	lui	a0,0x2000c
20006636:	e0050513          	addi	a0,a0,-512 # 2000be00 <str.0.675>
2000663a:	100025b7          	lui	a1,0x10002
2000663e:	97858613          	addi	a2,a1,-1672 # 10001978 <.Lanon.3553fae4be80e8e79bf3c7feebc6caff.1>
20006642:	45e5                	li	a1,25
20006644:	ffffd097          	auipc	ra,0xffffd
20006648:	3ba080e7          	jalr	954(ra) # 200039fe <core::panicking::panic>
2000664c:	00006097          	auipc	ra,0x6
20006650:	ae0080e7          	jalr	-1312(ra) # 2000c12c <abort>

20006654 <<lowrisc::uart::Uart as kernel::hil::uart::Transmit>::set_transmit_client>:
20006654:	1141                	addi	sp,sp,-16
20006656:	c606                	sw	ra,12(sp)
20006658:	c422                	sw	s0,8(sp)
2000665a:	0800                	addi	s0,sp,16
2000665c:	c550                	sw	a2,12(a0)
2000665e:	c50c                	sw	a1,8(a0)
20006660:	4422                	lw	s0,8(sp)
20006662:	40b2                	lw	ra,12(sp)
20006664:	0141                	addi	sp,sp,16
20006666:	8082                	ret

20006668 <<lowrisc::uart::Uart as kernel::hil::uart::Transmit>::transmit_buffer>:
20006668:	1141                	addi	sp,sp,-16
2000666a:	c606                	sw	ra,12(sp)
2000666c:	c422                	sw	s0,8(sp)
2000666e:	c226                	sw	s1,4(sp)
20006670:	0800                	addi	s0,sp,16
20006672:	84aa                	mv	s1,a0
20006674:	c719                	beqz	a4,20006682 <<lowrisc::uart::Uart as kernel::hil::uart::Transmit>::transmit_buffer+0x1a>
20006676:	4d88                	lw	a0,24(a1)
20006678:	c909                	beqz	a0,2000668a <<lowrisc::uart::Uart as kernel::hil::uart::Transmit>::transmit_buffer+0x22>
2000667a:	c4d4                	sw	a3,12(s1)
2000667c:	c490                	sw	a2,8(s1)
2000667e:	450d                	li	a0,3
20006680:	a015                	j	200066a4 <<lowrisc::uart::Uart as kernel::hil::uart::Transmit>::transmit_buffer+0x3c>
20006682:	c4d4                	sw	a3,12(s1)
20006684:	c490                	sw	a2,8(s1)
20006686:	4521                	li	a0,8
20006688:	a831                	j	200066a4 <<lowrisc::uart::Uart as kernel::hil::uart::Transmit>::transmit_buffer+0x3c>
2000668a:	d198                	sw	a4,32(a1)
2000668c:	cdd4                	sw	a3,28(a1)
2000668e:	cd90                	sw	a2,24(a1)
20006690:	0205a223          	sw	zero,36(a1)
20006694:	852e                	mv	a0,a1
20006696:	00000097          	auipc	ra,0x0
2000669a:	e62080e7          	jalr	-414(ra) # 200064f8 <lowrisc::uart::Uart::tx_progress>
2000669e:	0004a423          	sw	zero,8(s1)
200066a2:	4505                	li	a0,1
200066a4:	c088                	sw	a0,0(s1)
200066a6:	4492                	lw	s1,4(sp)
200066a8:	4422                	lw	s0,8(sp)
200066aa:	40b2                	lw	ra,12(sp)
200066ac:	0141                	addi	sp,sp,16
200066ae:	8082                	ret

200066b0 <<lowrisc::uart::Uart as kernel::hil::uart::Transmit>::transmit_abort>:
200066b0:	1141                	addi	sp,sp,-16
200066b2:	c606                	sw	ra,12(sp)
200066b4:	c422                	sw	s0,8(sp)
200066b6:	0800                	addi	s0,sp,16
200066b8:	4509                	li	a0,2
200066ba:	4422                	lw	s0,8(sp)
200066bc:	40b2                	lw	ra,12(sp)
200066be:	0141                	addi	sp,sp,16
200066c0:	8082                	ret

200066c2 <<lowrisc::uart::Uart as kernel::hil::uart::Transmit>::transmit_word>:
200066c2:	1141                	addi	sp,sp,-16
200066c4:	c606                	sw	ra,12(sp)
200066c6:	c422                	sw	s0,8(sp)
200066c8:	0800                	addi	s0,sp,16
200066ca:	4509                	li	a0,2
200066cc:	4422                	lw	s0,8(sp)
200066ce:	40b2                	lw	ra,12(sp)
200066d0:	0141                	addi	sp,sp,16
200066d2:	8082                	ret

200066d4 <<lowrisc::uart::Uart as kernel::hil::uart::Receive>::set_receive_client>:
200066d4:	1141                	addi	sp,sp,-16
200066d6:	c606                	sw	ra,12(sp)
200066d8:	c422                	sw	s0,8(sp)
200066da:	0800                	addi	s0,sp,16
200066dc:	c950                	sw	a2,20(a0)
200066de:	c90c                	sw	a1,16(a0)
200066e0:	4422                	lw	s0,8(sp)
200066e2:	40b2                	lw	ra,12(sp)
200066e4:	0141                	addi	sp,sp,16
200066e6:	8082                	ret

200066e8 <<lowrisc::uart::Uart as kernel::hil::uart::Receive>::receive_buffer>:
200066e8:	1141                	addi	sp,sp,-16
200066ea:	c606                	sw	ra,12(sp)
200066ec:	c422                	sw	s0,8(sp)
200066ee:	0800                	addi	s0,sp,16
200066f0:	418c                	lw	a1,0(a1)
200066f2:	41d0                	lw	a2,4(a1)
200066f4:	00266613          	ori	a2,a2,2
200066f8:	c1d0                	sw	a2,4(a1)
200066fa:	0005ae23          	sw	zero,28(a1)
200066fe:	00052423          	sw	zero,8(a0)
20006702:	4589                	li	a1,2
20006704:	c10c                	sw	a1,0(a0)
20006706:	4422                	lw	s0,8(sp)
20006708:	40b2                	lw	ra,12(sp)
2000670a:	0141                	addi	sp,sp,16
2000670c:	8082                	ret

2000670e <<lowrisc::uart::Uart as kernel::hil::uart::Receive>::receive_abort>:
2000670e:	1141                	addi	sp,sp,-16
20006710:	c606                	sw	ra,12(sp)
20006712:	c422                	sw	s0,8(sp)
20006714:	0800                	addi	s0,sp,16
20006716:	4509                	li	a0,2
20006718:	4422                	lw	s0,8(sp)
2000671a:	40b2                	lw	ra,12(sp)
2000671c:	0141                	addi	sp,sp,16
2000671e:	8082                	ret

20006720 <<lowrisc::uart::Uart as kernel::hil::uart::Receive>::receive_word>:
20006720:	1141                	addi	sp,sp,-16
20006722:	c606                	sw	ra,12(sp)
20006724:	c422                	sw	s0,8(sp)
20006726:	0800                	addi	s0,sp,16
20006728:	4509                	li	a0,2
2000672a:	4422                	lw	s0,8(sp)
2000672c:	40b2                	lw	ra,12(sp)
2000672e:	0141                	addi	sp,sp,16
20006730:	8082                	ret

20006732 <<lowrisc::gpio::GpioPin as kernel::hil::gpio::Configure>::configuration>:
20006732:	1141                	addi	sp,sp,-16
20006734:	c606                	sw	ra,12(sp)
20006736:	c422                	sw	s0,8(sp)
20006738:	0800                	addi	s0,sp,16
2000673a:	450c                	lw	a1,8(a0)
2000673c:	4150                	lw	a2,4(a0)
2000673e:	00b61633          	sll	a2,a2,a1
20006742:	4108                	lw	a0,0(a0)
20006744:	4d48                	lw	a0,28(a0)
20006746:	8d71                	and	a0,a0,a2
20006748:	00b555b3          	srl	a1,a0,a1
2000674c:	4505                	li	a0,1
2000674e:	c191                	beqz	a1,20006752 <<lowrisc::gpio::GpioPin as kernel::hil::gpio::Configure>::configuration+0x20>
20006750:	450d                	li	a0,3
20006752:	4422                	lw	s0,8(sp)
20006754:	40b2                	lw	ra,12(sp)
20006756:	0141                	addi	sp,sp,16
20006758:	8082                	ret

2000675a <<lowrisc::gpio::GpioPin as kernel::hil::gpio::Configure>::set_floating_state>:
2000675a:	1141                	addi	sp,sp,-16
2000675c:	c606                	sw	ra,12(sp)
2000675e:	c422                	sw	s0,8(sp)
20006760:	0800                	addi	s0,sp,16
20006762:	2000c537          	lui	a0,0x2000c
20006766:	e1950513          	addi	a0,a0,-487 # 2000be19 <.Lanon.9793cf1973a40496647baa5d788496cb.2>
2000676a:	100025b7          	lui	a1,0x10002
2000676e:	98858613          	addi	a2,a1,-1656 # 10001988 <.Lanon.9793cf1973a40496647baa5d788496cb.4>
20006772:	03800593          	li	a1,56
20006776:	ffffd097          	auipc	ra,0xffffd
2000677a:	288080e7          	jalr	648(ra) # 200039fe <core::panicking::panic>
2000677e:	00006097          	auipc	ra,0x6
20006782:	9ae080e7          	jalr	-1618(ra) # 2000c12c <abort>

20006786 <<lowrisc::gpio::GpioPin as kernel::hil::gpio::Configure>::floating_state>:
20006786:	1141                	addi	sp,sp,-16
20006788:	c606                	sw	ra,12(sp)
2000678a:	c422                	sw	s0,8(sp)
2000678c:	0800                	addi	s0,sp,16
2000678e:	4509                	li	a0,2
20006790:	4422                	lw	s0,8(sp)
20006792:	40b2                	lw	ra,12(sp)
20006794:	0141                	addi	sp,sp,16
20006796:	8082                	ret

20006798 <<lowrisc::gpio::GpioPin as kernel::hil::gpio::Configure>::deactivate_to_low_power>:
20006798:	1141                	addi	sp,sp,-16
2000679a:	c606                	sw	ra,12(sp)
2000679c:	c422                	sw	s0,8(sp)
2000679e:	c226                	sw	s1,4(sp)
200067a0:	0800                	addi	s0,sp,16
200067a2:	84aa                	mv	s1,a0
200067a4:	00000097          	auipc	ra,0x0
200067a8:	f8e080e7          	jalr	-114(ra) # 20006732 <<lowrisc::gpio::GpioPin as kernel::hil::gpio::Configure>::configuration>
200067ac:	8526                	mv	a0,s1
200067ae:	4492                	lw	s1,4(sp)
200067b0:	4422                	lw	s0,8(sp)
200067b2:	40b2                	lw	ra,12(sp)
200067b4:	0141                	addi	sp,sp,16
200067b6:	00000317          	auipc	t1,0x0
200067ba:	00830067          	jr	8(t1) # 200067be <<lowrisc::gpio::GpioPin as kernel::hil::gpio::Configure>::disable_output>

200067be <<lowrisc::gpio::GpioPin as kernel::hil::gpio::Configure>::disable_output>:
200067be:	1141                	addi	sp,sp,-16
200067c0:	c606                	sw	ra,12(sp)
200067c2:	c422                	sw	s0,8(sp)
200067c4:	0800                	addi	s0,sp,16
200067c6:	450c                	lw	a1,8(a0)
200067c8:	02000613          	li	a2,32
200067cc:	46c1                	li	a3,16
200067ce:	00d5e563          	bltu	a1,a3,200067d8 <<lowrisc::gpio::GpioPin as kernel::hil::gpio::Configure>::disable_output+0x1a>
200067d2:	02400613          	li	a2,36
200067d6:	05c1                	addi	a1,a1,16
200067d8:	4108                	lw	a0,0(a0)
200067da:	9532                	add	a0,a0,a2
200067dc:	6641                	lui	a2,0x10
200067de:	00b615b3          	sll	a1,a2,a1
200067e2:	c10c                	sw	a1,0(a0)
200067e4:	4505                	li	a0,1
200067e6:	4422                	lw	s0,8(sp)
200067e8:	40b2                	lw	ra,12(sp)
200067ea:	0141                	addi	sp,sp,16
200067ec:	8082                	ret

200067ee <<lowrisc::gpio::GpioPin as kernel::hil::gpio::Configure>::make_output>:
200067ee:	1141                	addi	sp,sp,-16
200067f0:	c606                	sw	ra,12(sp)
200067f2:	c422                	sw	s0,8(sp)
200067f4:	0800                	addi	s0,sp,16
200067f6:	450c                	lw	a1,8(a0)
200067f8:	02000613          	li	a2,32
200067fc:	46c1                	li	a3,16
200067fe:	00d5e563          	bltu	a1,a3,20006808 <<lowrisc::gpio::GpioPin as kernel::hil::gpio::Configure>::make_output+0x1a>
20006802:	02400613          	li	a2,36
20006806:	05c1                	addi	a1,a1,16
20006808:	4108                	lw	a0,0(a0)
2000680a:	9532                	add	a0,a0,a2
2000680c:	4605                	li	a2,1
2000680e:	00b615b3          	sll	a1,a2,a1
20006812:	6641                	lui	a2,0x10
20006814:	167d                	addi	a2,a2,-1
20006816:	8e6d                	and	a2,a2,a1
20006818:	05c2                	slli	a1,a1,0x10
2000681a:	8dd1                	or	a1,a1,a2
2000681c:	c10c                	sw	a1,0(a0)
2000681e:	450d                	li	a0,3
20006820:	4422                	lw	s0,8(sp)
20006822:	40b2                	lw	ra,12(sp)
20006824:	0141                	addi	sp,sp,16
20006826:	8082                	ret

20006828 <<lowrisc::gpio::GpioPin as kernel::hil::gpio::Configure>::make_input>:
20006828:	1141                	addi	sp,sp,-16
2000682a:	c606                	sw	ra,12(sp)
2000682c:	c422                	sw	s0,8(sp)
2000682e:	0800                	addi	s0,sp,16
20006830:	4422                	lw	s0,8(sp)
20006832:	40b2                	lw	ra,12(sp)
20006834:	0141                	addi	sp,sp,16
20006836:	00000317          	auipc	t1,0x0
2000683a:	efc30067          	jr	-260(t1) # 20006732 <<lowrisc::gpio::GpioPin as kernel::hil::gpio::Configure>::configuration>

2000683e <<lowrisc::gpio::GpioPin as kernel::hil::gpio::Configure>::disable_input>:
2000683e:	1141                	addi	sp,sp,-16
20006840:	c606                	sw	ra,12(sp)
20006842:	c422                	sw	s0,8(sp)
20006844:	0800                	addi	s0,sp,16
20006846:	4422                	lw	s0,8(sp)
20006848:	40b2                	lw	ra,12(sp)
2000684a:	0141                	addi	sp,sp,16
2000684c:	00000317          	auipc	t1,0x0
20006850:	ee630067          	jr	-282(t1) # 20006732 <<lowrisc::gpio::GpioPin as kernel::hil::gpio::Configure>::configuration>

20006854 <<lowrisc::gpio::GpioPin as kernel::hil::gpio::Input>::read>:
20006854:	1141                	addi	sp,sp,-16
20006856:	c606                	sw	ra,12(sp)
20006858:	c422                	sw	s0,8(sp)
2000685a:	0800                	addi	s0,sp,16
2000685c:	450c                	lw	a1,8(a0)
2000685e:	4150                	lw	a2,4(a0)
20006860:	00b61633          	sll	a2,a2,a1
20006864:	4108                	lw	a0,0(a0)
20006866:	4548                	lw	a0,12(a0)
20006868:	8d71                	and	a0,a0,a2
2000686a:	00b55533          	srl	a0,a0,a1
2000686e:	00a03533          	snez	a0,a0
20006872:	4422                	lw	s0,8(sp)
20006874:	40b2                	lw	ra,12(sp)
20006876:	0141                	addi	sp,sp,16
20006878:	8082                	ret

2000687a <<lowrisc::gpio::GpioPin as kernel::hil::gpio::Output>::toggle>:
2000687a:	1141                	addi	sp,sp,-16
2000687c:	c606                	sw	ra,12(sp)
2000687e:	c422                	sw	s0,8(sp)
20006880:	0800                	addi	s0,sp,16
20006882:	4510                	lw	a2,8(a0)
20006884:	45c1                	li	a1,16
20006886:	00b66763          	bltu	a2,a1,20006894 <<lowrisc::gpio::GpioPin as kernel::hil::gpio::Output>::toggle+0x1a>
2000688a:	45e1                	li	a1,24
2000688c:	01060693          	addi	a3,a2,16 # 10010 <.Lline_table_start0+0x365>
20006890:	8afd                	andi	a3,a3,31
20006892:	a021                	j	2000689a <<lowrisc::gpio::GpioPin as kernel::hil::gpio::Output>::toggle+0x20>
20006894:	45d1                	li	a1,20
20006896:	01f67693          	andi	a3,a2,31
2000689a:	4158                	lw	a4,4(a0)
2000689c:	00c71733          	sll	a4,a4,a2
200068a0:	411c                	lw	a5,0(a0)
200068a2:	4b88                	lw	a0,16(a5)
200068a4:	8d79                	and	a0,a0,a4
200068a6:	00c55533          	srl	a0,a0,a2
200068aa:	00153513          	seqz	a0,a0
200068ae:	6641                	lui	a2,0x10
200068b0:	00d61733          	sll	a4,a2,a3
200068b4:	00d516b3          	sll	a3,a0,a3
200068b8:	167d                	addi	a2,a2,-1
200068ba:	8e75                	and	a2,a2,a3
200068bc:	8e59                	or	a2,a2,a4
200068be:	95be                	add	a1,a1,a5
200068c0:	c190                	sw	a2,0(a1)
200068c2:	4422                	lw	s0,8(sp)
200068c4:	40b2                	lw	ra,12(sp)
200068c6:	0141                	addi	sp,sp,16
200068c8:	8082                	ret

200068ca <<lowrisc::gpio::GpioPin as kernel::hil::gpio::Output>::set>:
200068ca:	1141                	addi	sp,sp,-16
200068cc:	c606                	sw	ra,12(sp)
200068ce:	c422                	sw	s0,8(sp)
200068d0:	0800                	addi	s0,sp,16
200068d2:	450c                	lw	a1,8(a0)
200068d4:	4651                	li	a2,20
200068d6:	46c1                	li	a3,16
200068d8:	00d5e463          	bltu	a1,a3,200068e0 <<lowrisc::gpio::GpioPin as kernel::hil::gpio::Output>::set+0x16>
200068dc:	4661                	li	a2,24
200068de:	05c1                	addi	a1,a1,16
200068e0:	4108                	lw	a0,0(a0)
200068e2:	9532                	add	a0,a0,a2
200068e4:	4605                	li	a2,1
200068e6:	00b615b3          	sll	a1,a2,a1
200068ea:	6641                	lui	a2,0x10
200068ec:	167d                	addi	a2,a2,-1
200068ee:	8e6d                	and	a2,a2,a1
200068f0:	05c2                	slli	a1,a1,0x10
200068f2:	8dd1                	or	a1,a1,a2
200068f4:	c10c                	sw	a1,0(a0)
200068f6:	4422                	lw	s0,8(sp)
200068f8:	40b2                	lw	ra,12(sp)
200068fa:	0141                	addi	sp,sp,16
200068fc:	8082                	ret

200068fe <<lowrisc::gpio::GpioPin as kernel::hil::gpio::Output>::clear>:
200068fe:	1141                	addi	sp,sp,-16
20006900:	c606                	sw	ra,12(sp)
20006902:	c422                	sw	s0,8(sp)
20006904:	0800                	addi	s0,sp,16
20006906:	450c                	lw	a1,8(a0)
20006908:	4651                	li	a2,20
2000690a:	46c1                	li	a3,16
2000690c:	00d5e463          	bltu	a1,a3,20006914 <<lowrisc::gpio::GpioPin as kernel::hil::gpio::Output>::clear+0x16>
20006910:	4661                	li	a2,24
20006912:	05c1                	addi	a1,a1,16
20006914:	4108                	lw	a0,0(a0)
20006916:	9532                	add	a0,a0,a2
20006918:	6641                	lui	a2,0x10
2000691a:	00b615b3          	sll	a1,a2,a1
2000691e:	c10c                	sw	a1,0(a0)
20006920:	4422                	lw	s0,8(sp)
20006922:	40b2                	lw	ra,12(sp)
20006924:	0141                	addi	sp,sp,16
20006926:	8082                	ret

20006928 <core::fmt::Write::write_char>:
20006928:	1141                	addi	sp,sp,-16
2000692a:	c606                	sw	ra,12(sp)
2000692c:	c422                	sw	s0,8(sp)
2000692e:	0800                	addi	s0,sp,16
20006930:	fe042a23          	sw	zero,-12(s0)
20006934:	08000513          	li	a0,128
20006938:	00a5f663          	bgeu	a1,a0,20006944 <core::fmt::Write::write_char+0x1c>
2000693c:	feb40a23          	sb	a1,-12(s0)
20006940:	4585                	li	a1,1
20006942:	a851                	j	200069d6 <core::fmt::Write::write_char+0xae>
20006944:	00b5d513          	srli	a0,a1,0xb
20006948:	e105                	bnez	a0,20006968 <core::fmt::Write::write_char+0x40>
2000694a:	03f5f513          	andi	a0,a1,63
2000694e:	08056513          	ori	a0,a0,128
20006952:	fea40aa3          	sb	a0,-11(s0)
20006956:	0065d513          	srli	a0,a1,0x6
2000695a:	897d                	andi	a0,a0,31
2000695c:	0c056513          	ori	a0,a0,192
20006960:	fea40a23          	sb	a0,-12(s0)
20006964:	4589                	li	a1,2
20006966:	a885                	j	200069d6 <core::fmt::Write::write_char+0xae>
20006968:	0105d513          	srli	a0,a1,0x10
2000696c:	e905                	bnez	a0,2000699c <core::fmt::Write::write_char+0x74>
2000696e:	03f5f513          	andi	a0,a1,63
20006972:	08056513          	ori	a0,a0,128
20006976:	fea40b23          	sb	a0,-10(s0)
2000697a:	0065d513          	srli	a0,a1,0x6
2000697e:	03f57513          	andi	a0,a0,63
20006982:	08056513          	ori	a0,a0,128
20006986:	fea40aa3          	sb	a0,-11(s0)
2000698a:	00c5d513          	srli	a0,a1,0xc
2000698e:	893d                	andi	a0,a0,15
20006990:	0e056513          	ori	a0,a0,224
20006994:	fea40a23          	sb	a0,-12(s0)
20006998:	458d                	li	a1,3
2000699a:	a835                	j	200069d6 <core::fmt::Write::write_char+0xae>
2000699c:	03f5f513          	andi	a0,a1,63
200069a0:	08056513          	ori	a0,a0,128
200069a4:	fea40ba3          	sb	a0,-9(s0)
200069a8:	0125d513          	srli	a0,a1,0x12
200069ac:	0f056513          	ori	a0,a0,240
200069b0:	fea40a23          	sb	a0,-12(s0)
200069b4:	0065d513          	srli	a0,a1,0x6
200069b8:	03f57513          	andi	a0,a0,63
200069bc:	08056513          	ori	a0,a0,128
200069c0:	fea40b23          	sb	a0,-10(s0)
200069c4:	00c5d513          	srli	a0,a1,0xc
200069c8:	03f57513          	andi	a0,a0,63
200069cc:	08056513          	ori	a0,a0,128
200069d0:	fea40aa3          	sb	a0,-11(s0)
200069d4:	4591                	li	a1,4
200069d6:	ff440513          	addi	a0,s0,-12
200069da:	00000097          	auipc	ra,0x0
200069de:	be2080e7          	jalr	-1054(ra) # 200065bc <lowrisc::uart::Uart::transmit_sync>
200069e2:	4501                	li	a0,0
200069e4:	4422                	lw	s0,8(sp)
200069e6:	40b2                	lw	ra,12(sp)
200069e8:	0141                	addi	sp,sp,16
200069ea:	8082                	ret

200069ec <core::fmt::Write::write_fmt>:
200069ec:	7179                	addi	sp,sp,-48
200069ee:	d606                	sw	ra,44(sp)
200069f0:	d422                	sw	s0,40(sp)
200069f2:	d226                	sw	s1,36(sp)
200069f4:	1800                	addi	s0,sp,48
200069f6:	fca42a23          	sw	a0,-44(s0)
200069fa:	fd840493          	addi	s1,s0,-40
200069fe:	8526                	mv	a0,s1
20006a00:	4661                	li	a2,24
20006a02:	00003097          	auipc	ra,0x3
20006a06:	c64080e7          	jalr	-924(ra) # 20009666 <memcpy>
20006a0a:	10002537          	lui	a0,0x10002
20006a0e:	9b050593          	addi	a1,a0,-1616 # 100019b0 <.L__unnamed_2>
20006a12:	fd440513          	addi	a0,s0,-44
20006a16:	8626                	mv	a2,s1
20006a18:	ffffe097          	auipc	ra,0xffffe
20006a1c:	04e080e7          	jalr	78(ra) # 20004a66 <core::fmt::write>
20006a20:	5492                	lw	s1,36(sp)
20006a22:	5422                	lw	s0,40(sp)
20006a24:	50b2                	lw	ra,44(sp)
20006a26:	6145                	addi	sp,sp,48
20006a28:	8082                	ret

20006a2a <core::ptr::real_drop_in_place>:
20006a2a:	1141                	addi	sp,sp,-16
20006a2c:	c606                	sw	ra,12(sp)
20006a2e:	c422                	sw	s0,8(sp)
20006a30:	0800                	addi	s0,sp,16
20006a32:	4422                	lw	s0,8(sp)
20006a34:	40b2                	lw	ra,12(sp)
20006a36:	0141                	addi	sp,sp,16
20006a38:	8082                	ret

20006a3a <<&mut W as core::fmt::Write>::write_str>:
20006a3a:	1141                	addi	sp,sp,-16
20006a3c:	c606                	sw	ra,12(sp)
20006a3e:	c422                	sw	s0,8(sp)
20006a40:	0800                	addi	s0,sp,16
20006a42:	852e                	mv	a0,a1
20006a44:	85b2                	mv	a1,a2
20006a46:	00000097          	auipc	ra,0x0
20006a4a:	b76080e7          	jalr	-1162(ra) # 200065bc <lowrisc::uart::Uart::transmit_sync>
20006a4e:	4501                	li	a0,0
20006a50:	4422                	lw	s0,8(sp)
20006a52:	40b2                	lw	ra,12(sp)
20006a54:	0141                	addi	sp,sp,16
20006a56:	8082                	ret

20006a58 <<&mut W as core::fmt::Write>::write_char>:
20006a58:	1141                	addi	sp,sp,-16
20006a5a:	c606                	sw	ra,12(sp)
20006a5c:	c422                	sw	s0,8(sp)
20006a5e:	0800                	addi	s0,sp,16
20006a60:	4108                	lw	a0,0(a0)
20006a62:	00000097          	auipc	ra,0x0
20006a66:	ec6080e7          	jalr	-314(ra) # 20006928 <core::fmt::Write::write_char>
20006a6a:	4501                	li	a0,0
20006a6c:	4422                	lw	s0,8(sp)
20006a6e:	40b2                	lw	ra,12(sp)
20006a70:	0141                	addi	sp,sp,16
20006a72:	8082                	ret

20006a74 <<&mut W as core::fmt::Write>::write_fmt>:
20006a74:	7179                	addi	sp,sp,-48
20006a76:	d606                	sw	ra,44(sp)
20006a78:	d422                	sw	s0,40(sp)
20006a7a:	d226                	sw	s1,36(sp)
20006a7c:	d04a                	sw	s2,32(sp)
20006a7e:	1800                	addi	s0,sp,48
20006a80:	4104                	lw	s1,0(a0)
20006a82:	fd840913          	addi	s2,s0,-40
20006a86:	854a                	mv	a0,s2
20006a88:	4661                	li	a2,24
20006a8a:	00003097          	auipc	ra,0x3
20006a8e:	bdc080e7          	jalr	-1060(ra) # 20009666 <memcpy>
20006a92:	8526                	mv	a0,s1
20006a94:	85ca                	mv	a1,s2
20006a96:	00000097          	auipc	ra,0x0
20006a9a:	f56080e7          	jalr	-170(ra) # 200069ec <core::fmt::Write::write_fmt>
20006a9e:	5902                	lw	s2,32(sp)
20006aa0:	5492                	lw	s1,36(sp)
20006aa2:	5422                	lw	s0,40(sp)
20006aa4:	50b2                	lw	ra,44(sp)
20006aa6:	6145                	addi	sp,sp,48
20006aa8:	8082                	ret

20006aaa <<opentitan::io::Writer as core::fmt::Write>::write_str>:
20006aaa:	1141                	addi	sp,sp,-16
20006aac:	c606                	sw	ra,12(sp)
20006aae:	c422                	sw	s0,8(sp)
20006ab0:	0800                	addi	s0,sp,16
20006ab2:	852e                	mv	a0,a1
20006ab4:	85b2                	mv	a1,a2
20006ab6:	00000097          	auipc	ra,0x0
20006aba:	b06080e7          	jalr	-1274(ra) # 200065bc <lowrisc::uart::Uart::transmit_sync>
20006abe:	4501                	li	a0,0
20006ac0:	4422                	lw	s0,8(sp)
20006ac2:	40b2                	lw	ra,12(sp)
20006ac4:	0141                	addi	sp,sp,16
20006ac6:	8082                	ret

20006ac8 <rust_begin_unwind>:
20006ac8:	1101                	addi	sp,sp,-32
20006aca:	ce06                	sw	ra,28(sp)
20006acc:	cc22                	sw	s0,24(sp)
20006ace:	ca26                	sw	s1,20(sp)
20006ad0:	1000                	addi	s0,sp,32
20006ad2:	84aa                	mv	s1,a0
20006ad4:	10002537          	lui	a0,0x10002
20006ad8:	9c850513          	addi	a0,a0,-1592 # 100019c8 <.L__unnamed_3>
20006adc:	fea42623          	sw	a0,-20(s0)
20006ae0:	10001537          	lui	a0,0x10001
20006ae4:	6dc50513          	addi	a0,a0,1756 # 100016dc <ibex::gpio::PORT+0x8c>
20006ae8:	fea42423          	sw	a0,-24(s0)
20006aec:	00000097          	auipc	ra,0x0
20006af0:	d02080e7          	jalr	-766(ra) # 200067ee <<lowrisc::gpio::GpioPin as kernel::hil::gpio::Configure>::make_output>
20006af4:	fe840513          	addi	a0,s0,-24
20006af8:	fea42823          	sw	a0,-16(s0)
20006afc:	ff040513          	addi	a0,s0,-16
20006b00:	85a6                	mv	a1,s1
20006b02:	00002097          	auipc	ra,0x2
20006b06:	8e8080e7          	jalr	-1816(ra) # 200083ea <kernel::debug::panic>
20006b0a:	00005097          	auipc	ra,0x5
20006b0e:	622080e7          	jalr	1570(ra) # 2000c12c <abort>

20006b12 <core::ptr::real_drop_in_place>:
20006b12:	1141                	addi	sp,sp,-16
20006b14:	c606                	sw	ra,12(sp)
20006b16:	c422                	sw	s0,8(sp)
20006b18:	0800                	addi	s0,sp,16
20006b1a:	4422                	lw	s0,8(sp)
20006b1c:	40b2                	lw	ra,12(sp)
20006b1e:	0141                	addi	sp,sp,16
20006b20:	8082                	ret

20006b22 <kernel::hil::gpio::Configure::is_input>:
20006b22:	1141                	addi	sp,sp,-16
20006b24:	c606                	sw	ra,12(sp)
20006b26:	c422                	sw	s0,8(sp)
20006b28:	0800                	addi	s0,sp,16
20006b2a:	00000097          	auipc	ra,0x0
20006b2e:	c08080e7          	jalr	-1016(ra) # 20006732 <<lowrisc::gpio::GpioPin as kernel::hil::gpio::Configure>::configuration>
20006b32:	0fd57513          	andi	a0,a0,253
20006b36:	00256513          	ori	a0,a0,2
20006b3a:	458d                	li	a1,3
20006b3c:	00b51463          	bne	a0,a1,20006b44 <kernel::hil::gpio::Configure::is_input+0x22>
20006b40:	4505                	li	a0,1
20006b42:	a011                	j	20006b46 <kernel::hil::gpio::Configure::is_input+0x24>
20006b44:	4501                	li	a0,0
20006b46:	4422                	lw	s0,8(sp)
20006b48:	40b2                	lw	ra,12(sp)
20006b4a:	0141                	addi	sp,sp,16
20006b4c:	8082                	ret

20006b4e <kernel::hil::gpio::Configure::is_output>:
20006b4e:	1141                	addi	sp,sp,-16
20006b50:	c606                	sw	ra,12(sp)
20006b52:	c422                	sw	s0,8(sp)
20006b54:	0800                	addi	s0,sp,16
20006b56:	00000097          	auipc	ra,0x0
20006b5a:	bdc080e7          	jalr	-1060(ra) # 20006732 <<lowrisc::gpio::GpioPin as kernel::hil::gpio::Configure>::configuration>
20006b5e:	0fe57513          	andi	a0,a0,254
20006b62:	00254513          	xori	a0,a0,2
20006b66:	00153513          	seqz	a0,a0
20006b6a:	4422                	lw	s0,8(sp)
20006b6c:	40b2                	lw	ra,12(sp)
20006b6e:	0141                	addi	sp,sp,16
20006b70:	8082                	ret

20006b72 <opentitan::alarm_test::TestAlarm<A>::run>:
20006b72:	1141                	addi	sp,sp,-16
20006b74:	c606                	sw	ra,12(sp)
20006b76:	c422                	sw	s0,8(sp)
20006b78:	0800                	addi	s0,sp,16
20006b7a:	10002537          	lui	a0,0x10002
20006b7e:	38450513          	addi	a0,a0,900 # 10002384 <opentitan::reset_handler::BUF>
20006b82:	7d000593          	li	a1,2000
20006b86:	c50c                	sw	a1,8(a0)
20006b88:	06400593          	li	a1,100
20006b8c:	c14c                	sw	a1,4(a0)
20006b8e:	3e800593          	li	a1,1000
20006b92:	4422                	lw	s0,8(sp)
20006b94:	40b2                	lw	ra,12(sp)
20006b96:	0141                	addi	sp,sp,16
20006b98:	00000317          	auipc	t1,0x0
20006b9c:	00830067          	jr	8(t1) # 20006ba0 <opentitan::alarm_test::TestAlarm<A>::set_next_alarm>

20006ba0 <opentitan::alarm_test::TestAlarm<A>::set_next_alarm>:
20006ba0:	1141                	addi	sp,sp,-16
20006ba2:	c606                	sw	ra,12(sp)
20006ba4:	c422                	sw	s0,8(sp)
20006ba6:	0800                	addi	s0,sp,16
20006ba8:	4108                	lw	a0,0(a0)
20006baa:	4422                	lw	s0,8(sp)
20006bac:	40b2                	lw	ra,12(sp)
20006bae:	0141                	addi	sp,sp,16
20006bb0:	00002317          	auipc	t1,0x2
20006bb4:	eee30067          	jr	-274(t1) # 20008a9e <<capsules::virtual_alarm::VirtualMuxAlarm<A> as kernel::hil::time::Alarm>::set_alarm>

20006bb8 <<opentitan::alarm_test::TestAlarm<A> as kernel::hil::time::AlarmClient>::fired>:
20006bb8:	1141                	addi	sp,sp,-16
20006bba:	c606                	sw	ra,12(sp)
20006bbc:	c422                	sw	s0,8(sp)
20006bbe:	c226                	sw	s1,4(sp)
20006bc0:	0800                	addi	s0,sp,16
20006bc2:	84aa                	mv	s1,a0
20006bc4:	4548                	lw	a0,12(a0)
20006bc6:	c501                	beqz	a0,20006bce <<opentitan::alarm_test::TestAlarm<A> as kernel::hil::time::AlarmClient>::fired+0x16>
20006bc8:	488c                	lw	a1,16(s1)
20006bca:	4d8c                	lw	a1,24(a1)
20006bcc:	9582                	jalr	a1
20006bce:	40c8                	lw	a0,4(s1)
20006bd0:	c105                	beqz	a0,20006bf0 <<opentitan::alarm_test::TestAlarm<A> as kernel::hil::time::AlarmClient>::fired+0x38>
20006bd2:	157d                	addi	a0,a0,-1
20006bd4:	c0c8                	sw	a0,4(s1)
20006bd6:	4088                	lw	a0,0(s1)
20006bd8:	4108                	lw	a0,0(a0)
20006bda:	4548                	lw	a0,12(a0)
20006bdc:	4108                	lw	a0,0(a0)
20006bde:	10452503          	lw	a0,260(a0)
20006be2:	448c                	lw	a1,8(s1)
20006be4:	95aa                	add	a1,a1,a0
20006be6:	8526                	mv	a0,s1
20006be8:	00000097          	auipc	ra,0x0
20006bec:	fb8080e7          	jalr	-72(ra) # 20006ba0 <opentitan::alarm_test::TestAlarm<A>::set_next_alarm>
20006bf0:	4492                	lw	s1,4(sp)
20006bf2:	4422                	lw	s0,8(sp)
20006bf4:	40b2                	lw	ra,12(sp)
20006bf6:	0141                	addi	sp,sp,16
20006bf8:	8082                	ret

20006bfa <<core::option::Option<T> as core::fmt::Debug>::fmt>:
20006bfa:	7159                	addi	sp,sp,-112
20006bfc:	d686                	sw	ra,108(sp)
20006bfe:	d4a2                	sw	s0,104(sp)
20006c00:	d2a6                	sw	s1,100(sp)
20006c02:	d0ca                	sw	s2,96(sp)
20006c04:	cece                	sw	s3,92(sp)
20006c06:	ccd2                	sw	s4,88(sp)
20006c08:	1880                	addi	s0,sp,112
20006c0a:	84ae                	mv	s1,a1
20006c0c:	892a                	mv	s2,a0
20006c0e:	4108                	lw	a0,0(a0)
20006c10:	4595                	li	a1,5
20006c12:	02b51663          	bne	a0,a1,20006c3e <<core::option::Option<T> as core::fmt::Debug>::fmt+0x44>
20006c16:	4cc8                	lw	a0,28(s1)
20006c18:	4554                	lw	a3,12(a0)
20006c1a:	4c88                	lw	a0,24(s1)
20006c1c:	2000a5b7          	lui	a1,0x2000a
20006c20:	f4858593          	addi	a1,a1,-184 # 20009f48 <anon.276ed4515cb7bdbddaae8aa26a9a7e5e.0.llvm.3197837188720883966+0x14>
20006c24:	4611                	li	a2,4
20006c26:	9682                	jalr	a3
20006c28:	faa40c23          	sb	a0,-72(s0)
20006c2c:	fa942823          	sw	s1,-80(s0)
20006c30:	fa040ca3          	sb	zero,-71(s0)
20006c34:	fa042a23          	sw	zero,-76(s0)
20006c38:	fb040513          	addi	a0,s0,-80
20006c3c:	aa11                	j	20006d50 <<core::option::Option<T> as core::fmt::Debug>::fmt+0x156>
20006c3e:	4cc8                	lw	a0,28(s1)
20006c40:	4554                	lw	a3,12(a0)
20006c42:	4c88                	lw	a0,24(s1)
20006c44:	2000a5b7          	lui	a1,0x2000a
20006c48:	f3058593          	addi	a1,a1,-208 # 20009f30 <.L__unnamed_73+0x7>
20006c4c:	4611                	li	a2,4
20006c4e:	9682                	jalr	a3
20006c50:	f8942823          	sw	s1,-112(s0)
20006c54:	f8040ca3          	sb	zero,-103(s0)
20006c58:	f8042a23          	sw	zero,-108(s0)
20006c5c:	4a05                	li	s4,1
20006c5e:	f8a40c23          	sb	a0,-104(s0)
20006c62:	4985                	li	s3,1
20006c64:	e165                	bnez	a0,20006d44 <<core::option::Option<T> as core::fmt::Debug>::fmt+0x14a>
20006c66:	4c88                	lw	a0,24(s1)
20006c68:	4ccc                	lw	a1,28(s1)
20006c6a:	45d4                	lw	a3,12(a1)
20006c6c:	0004c583          	lbu	a1,0(s1)
20006c70:	8991                	andi	a1,a1,4
20006c72:	e185                	bnez	a1,20006c92 <<core::option::Option<T> as core::fmt::Debug>::fmt+0x98>
20006c74:	2000c5b7          	lui	a1,0x2000c
20006c78:	aca58593          	addi	a1,a1,-1334 # 2000baca <.Lanon.2c6bb00a6eab53dbfca994608b168c3b.183>
20006c7c:	4985                	li	s3,1
20006c7e:	4605                	li	a2,1
20006c80:	9682                	jalr	a3
20006c82:	e169                	bnez	a0,20006d44 <<core::option::Option<T> as core::fmt::Debug>::fmt+0x14a>
20006c84:	854a                	mv	a0,s2
20006c86:	85a6                	mv	a1,s1
20006c88:	00000097          	auipc	ra,0x0
20006c8c:	0e0080e7          	jalr	224(ra) # 20006d68 <<&T as core::fmt::Debug>::fmt>
20006c90:	a84d                	j	20006d42 <<core::option::Option<T> as core::fmt::Debug>::fmt+0x148>
20006c92:	2000c5b7          	lui	a1,0x2000c
20006c96:	acb58593          	addi	a1,a1,-1333 # 2000bacb <.Lanon.2c6bb00a6eab53dbfca994608b168c3b.182>
20006c9a:	4609                	li	a2,2
20006c9c:	9682                	jalr	a3
20006c9e:	4985                	li	s3,1
20006ca0:	e155                	bnez	a0,20006d44 <<core::option::Option<T> as core::fmt::Debug>::fmt+0x14a>
20006ca2:	0004a283          	lw	t0,0(s1)
20006ca6:	4985                	li	s3,1
20006ca8:	fb3407a3          	sb	s3,-81(s0)
20006cac:	4c8c                	lw	a1,24(s1)
20006cae:	4cd0                	lw	a2,28(s1)
20006cb0:	faf40693          	addi	a3,s0,-81
20006cb4:	fad42423          	sw	a3,-88(s0)
20006cb8:	fac42223          	sw	a2,-92(s0)
20006cbc:	fab42023          	sw	a1,-96(s0)
20006cc0:	0084a803          	lw	a6,8(s1)
20006cc4:	00c4a883          	lw	a7,12(s1)
20006cc8:	0104a303          	lw	t1,16(s1)
20006ccc:	48d8                	lw	a4,20(s1)
20006cce:	509c                	lw	a5,32(s1)
20006cd0:	50cc                	lw	a1,36(s1)
20006cd2:	5490                	lw	a2,40(s1)
20006cd4:	54c8                	lw	a0,44(s1)
20006cd6:	40d4                	lw	a3,4(s1)
20006cd8:	03048483          	lb	s1,48(s1)
20006cdc:	fe940023          	sb	s1,-32(s0)
20006ce0:	fad42a23          	sw	a3,-76(s0)
20006ce4:	fa542823          	sw	t0,-80(s0)
20006ce8:	fca42e23          	sw	a0,-36(s0)
20006cec:	fcc42c23          	sw	a2,-40(s0)
20006cf0:	fcb42a23          	sw	a1,-44(s0)
20006cf4:	fcf42823          	sw	a5,-48(s0)
20006cf8:	10001537          	lui	a0,0x10001
20006cfc:	46c50513          	addi	a0,a0,1132 # 1000146c <.Lanon.2c6bb00a6eab53dbfca994608b168c3b.174>
20006d00:	fca42623          	sw	a0,-52(s0)
20006d04:	fa040513          	addi	a0,s0,-96
20006d08:	fca42423          	sw	a0,-56(s0)
20006d0c:	fce42223          	sw	a4,-60(s0)
20006d10:	fc642023          	sw	t1,-64(s0)
20006d14:	fb142e23          	sw	a7,-68(s0)
20006d18:	fb042c23          	sw	a6,-72(s0)
20006d1c:	fb040593          	addi	a1,s0,-80
20006d20:	854a                	mv	a0,s2
20006d22:	00000097          	auipc	ra,0x0
20006d26:	046080e7          	jalr	70(ra) # 20006d68 <<&T as core::fmt::Debug>::fmt>
20006d2a:	ed09                	bnez	a0,20006d44 <<core::option::Option<T> as core::fmt::Debug>::fmt+0x14a>
20006d2c:	fcc42503          	lw	a0,-52(s0)
20006d30:	4554                	lw	a3,12(a0)
20006d32:	fc842503          	lw	a0,-56(s0)
20006d36:	2000c5b7          	lui	a1,0x2000c
20006d3a:	ac558593          	addi	a1,a1,-1339 # 2000bac5 <.Lanon.2c6bb00a6eab53dbfca994608b168c3b.177>
20006d3e:	4609                	li	a2,2
20006d40:	9682                	jalr	a3
20006d42:	89aa                	mv	s3,a0
20006d44:	f9442a23          	sw	s4,-108(s0)
20006d48:	f9340c23          	sb	s3,-104(s0)
20006d4c:	f9040513          	addi	a0,s0,-112
20006d50:	fffff097          	auipc	ra,0xfffff
20006d54:	806080e7          	jalr	-2042(ra) # 20005556 <core::fmt::builders::DebugTuple::finish>
20006d58:	4a66                	lw	s4,88(sp)
20006d5a:	49f6                	lw	s3,92(sp)
20006d5c:	5906                	lw	s2,96(sp)
20006d5e:	5496                	lw	s1,100(sp)
20006d60:	5426                	lw	s0,104(sp)
20006d62:	50b6                	lw	ra,108(sp)
20006d64:	6165                	addi	sp,sp,112
20006d66:	8082                	ret

20006d68 <<&T as core::fmt::Debug>::fmt>:
20006d68:	7179                	addi	sp,sp,-48
20006d6a:	d606                	sw	ra,44(sp)
20006d6c:	d422                	sw	s0,40(sp)
20006d6e:	d226                	sw	s1,36(sp)
20006d70:	d04a                	sw	s2,32(sp)
20006d72:	ce4e                	sw	s3,28(sp)
20006d74:	1800                	addi	s0,sp,48
20006d76:	84ae                	mv	s1,a1
20006d78:	892a                	mv	s2,a0
20006d7a:	4108                	lw	a0,0(a0)
20006d7c:	28050f63          	beqz	a0,2000701a <<&T as core::fmt::Debug>::fmt+0x2b2>
20006d80:	4585                	li	a1,1
20006d82:	06b50763          	beq	a0,a1,20006df0 <<&T as core::fmt::Debug>::fmt+0x88>
20006d86:	4589                	li	a1,2
20006d88:	10b50c63          	beq	a0,a1,20006ea0 <<&T as core::fmt::Debug>::fmt+0x138>
20006d8c:	458d                	li	a1,3
20006d8e:	1ab50e63          	beq	a0,a1,20006f4a <<&T as core::fmt::Debug>::fmt+0x1e2>
20006d92:	4cc8                	lw	a0,28(s1)
20006d94:	4554                	lw	a3,12(a0)
20006d96:	4c88                	lw	a0,24(s1)
20006d98:	2000c5b7          	lui	a1,0x2000c
20006d9c:	d5458593          	addi	a1,a1,-684 # 2000bd54 <.Lanon.cae71dd81ce574ee85bcd97c1d00dd97.0>
20006da0:	4615                	li	a2,5
20006da2:	9682                	jalr	a3
20006da4:	fc040ea3          	sb	zero,-35(s0)
20006da8:	fca40e23          	sb	a0,-36(s0)
20006dac:	fc942c23          	sw	s1,-40(s0)
20006db0:	00490513          	addi	a0,s2,4
20006db4:	fea42423          	sw	a0,-24(s0)
20006db8:	2000c537          	lui	a0,0x2000c
20006dbc:	d5950593          	addi	a1,a0,-679 # 2000bd59 <.Lanon.cae71dd81ce574ee85bcd97c1d00dd97.1>
20006dc0:	10002537          	lui	a0,0x10002
20006dc4:	94850493          	addi	s1,a0,-1720 # 10001948 <.Lanon.cae71dd81ce574ee85bcd97c1d00dd97.2>
20006dc8:	fd840993          	addi	s3,s0,-40
20006dcc:	fe840693          	addi	a3,s0,-24
20006dd0:	854e                	mv	a0,s3
20006dd2:	461d                	li	a2,7
20006dd4:	8726                	mv	a4,s1
20006dd6:	ffffe097          	auipc	ra,0xffffe
20006dda:	3e0080e7          	jalr	992(ra) # 200051b6 <core::fmt::builders::DebugStruct::field>
20006dde:	00890513          	addi	a0,s2,8
20006de2:	fea42423          	sw	a0,-24(s0)
20006de6:	2000a537          	lui	a0,0x2000a
20006dea:	f4450593          	addi	a1,a0,-188 # 20009f44 <anon.276ed4515cb7bdbddaae8aa26a9a7e5e.0.llvm.3197837188720883966+0x10>
20006dee:	aa89                	j	20006f40 <<&T as core::fmt::Debug>::fmt+0x1d8>
20006df0:	4cc8                	lw	a0,28(s1)
20006df2:	4554                	lw	a3,12(a0)
20006df4:	4c88                	lw	a0,24(s1)
20006df6:	2000c5b7          	lui	a1,0x2000c
20006dfa:	d0858593          	addi	a1,a1,-760 # 2000bd08 <.Lanon.cae71dd81ce574ee85bcd97c1d00dd97.12>
20006dfe:	4625                	li	a2,9
20006e00:	9682                	jalr	a3
20006e02:	fc040ea3          	sb	zero,-35(s0)
20006e06:	fca40e23          	sb	a0,-36(s0)
20006e0a:	fc942c23          	sw	s1,-40(s0)
20006e0e:	00490513          	addi	a0,s2,4
20006e12:	fea42423          	sw	a0,-24(s0)
20006e16:	2000c537          	lui	a0,0x2000c
20006e1a:	d1150593          	addi	a1,a0,-751 # 2000bd11 <.Lanon.cae71dd81ce574ee85bcd97c1d00dd97.5>
20006e1e:	10002537          	lui	a0,0x10002
20006e22:	94850493          	addi	s1,a0,-1720 # 10001948 <.Lanon.cae71dd81ce574ee85bcd97c1d00dd97.2>
20006e26:	fd840993          	addi	s3,s0,-40
20006e2a:	fe840693          	addi	a3,s0,-24
20006e2e:	854e                	mv	a0,s3
20006e30:	4635                	li	a2,13
20006e32:	8726                	mv	a4,s1
20006e34:	ffffe097          	auipc	ra,0xffffe
20006e38:	382080e7          	jalr	898(ra) # 200051b6 <core::fmt::builders::DebugStruct::field>
20006e3c:	00890513          	addi	a0,s2,8
20006e40:	fea42423          	sw	a0,-24(s0)
20006e44:	2000a537          	lui	a0,0x2000a
20006e48:	46850593          	addi	a1,a0,1128 # 2000a468 <.L__unnamed_28+0x102>
20006e4c:	fe840693          	addi	a3,s0,-24
20006e50:	854e                	mv	a0,s3
20006e52:	4641                	li	a2,16
20006e54:	8726                	mv	a4,s1
20006e56:	ffffe097          	auipc	ra,0xffffe
20006e5a:	360080e7          	jalr	864(ra) # 200051b6 <core::fmt::builders::DebugStruct::field>
20006e5e:	00c90513          	addi	a0,s2,12
20006e62:	fea42423          	sw	a0,-24(s0)
20006e66:	2000c537          	lui	a0,0x2000c
20006e6a:	d1e50593          	addi	a1,a0,-738 # 2000bd1e <.Lanon.cae71dd81ce574ee85bcd97c1d00dd97.13>
20006e6e:	10002537          	lui	a0,0x10002
20006e72:	95850713          	addi	a4,a0,-1704 # 10001958 <.Lanon.cae71dd81ce574ee85bcd97c1d00dd97.14>
20006e76:	fe840693          	addi	a3,s0,-24
20006e7a:	854e                	mv	a0,s3
20006e7c:	4631                	li	a2,12
20006e7e:	ffffe097          	auipc	ra,0xffffe
20006e82:	338080e7          	jalr	824(ra) # 200051b6 <core::fmt::builders::DebugStruct::field>
20006e86:	01090513          	addi	a0,s2,16
20006e8a:	fea42423          	sw	a0,-24(s0)
20006e8e:	2000c537          	lui	a0,0x2000c
20006e92:	d2a50593          	addi	a1,a0,-726 # 2000bd2a <.Lanon.cae71dd81ce574ee85bcd97c1d00dd97.15>
20006e96:	fe840693          	addi	a3,s0,-24
20006e9a:	854e                	mv	a0,s3
20006e9c:	461d                	li	a2,7
20006e9e:	aaa9                	j	20006ff8 <<&T as core::fmt::Debug>::fmt+0x290>
20006ea0:	4cc8                	lw	a0,28(s1)
20006ea2:	4554                	lw	a3,12(a0)
20006ea4:	4c88                	lw	a0,24(s1)
20006ea6:	2000c5b7          	lui	a1,0x2000c
20006eaa:	d3158593          	addi	a1,a1,-719 # 2000bd31 <.Lanon.cae71dd81ce574ee85bcd97c1d00dd97.10>
20006eae:	461d                	li	a2,7
20006eb0:	9682                	jalr	a3
20006eb2:	fc040ea3          	sb	zero,-35(s0)
20006eb6:	fca40e23          	sb	a0,-36(s0)
20006eba:	fc942c23          	sw	s1,-40(s0)
20006ebe:	00490513          	addi	a0,s2,4
20006ec2:	fea42423          	sw	a0,-24(s0)
20006ec6:	2000c537          	lui	a0,0x2000c
20006eca:	d1150593          	addi	a1,a0,-751 # 2000bd11 <.Lanon.cae71dd81ce574ee85bcd97c1d00dd97.5>
20006ece:	10002537          	lui	a0,0x10002
20006ed2:	94850493          	addi	s1,a0,-1720 # 10001948 <.Lanon.cae71dd81ce574ee85bcd97c1d00dd97.2>
20006ed6:	fd840993          	addi	s3,s0,-40
20006eda:	fe840693          	addi	a3,s0,-24
20006ede:	854e                	mv	a0,s3
20006ee0:	4635                	li	a2,13
20006ee2:	8726                	mv	a4,s1
20006ee4:	ffffe097          	auipc	ra,0xffffe
20006ee8:	2d2080e7          	jalr	722(ra) # 200051b6 <core::fmt::builders::DebugStruct::field>
20006eec:	00890513          	addi	a0,s2,8
20006ef0:	fea42423          	sw	a0,-24(s0)
20006ef4:	2000a537          	lui	a0,0x2000a
20006ef8:	46850593          	addi	a1,a0,1128 # 2000a468 <.L__unnamed_28+0x102>
20006efc:	fe840693          	addi	a3,s0,-24
20006f00:	854e                	mv	a0,s3
20006f02:	4641                	li	a2,16
20006f04:	8726                	mv	a4,s1
20006f06:	ffffe097          	auipc	ra,0xffffe
20006f0a:	2b0080e7          	jalr	688(ra) # 200051b6 <core::fmt::builders::DebugStruct::field>
20006f0e:	00c90513          	addi	a0,s2,12
20006f12:	fea42423          	sw	a0,-24(s0)
20006f16:	2000a537          	lui	a0,0x2000a
20006f1a:	f4450593          	addi	a1,a0,-188 # 20009f44 <anon.276ed4515cb7bdbddaae8aa26a9a7e5e.0.llvm.3197837188720883966+0x10>
20006f1e:	fe840693          	addi	a3,s0,-24
20006f22:	854e                	mv	a0,s3
20006f24:	4611                	li	a2,4
20006f26:	8726                	mv	a4,s1
20006f28:	ffffe097          	auipc	ra,0xffffe
20006f2c:	28e080e7          	jalr	654(ra) # 200051b6 <core::fmt::builders::DebugStruct::field>
20006f30:	01090513          	addi	a0,s2,16
20006f34:	fea42423          	sw	a0,-24(s0)
20006f38:	2000a537          	lui	a0,0x2000a
20006f3c:	f4050593          	addi	a1,a0,-192 # 20009f40 <anon.276ed4515cb7bdbddaae8aa26a9a7e5e.0.llvm.3197837188720883966+0xc>
20006f40:	fe840693          	addi	a3,s0,-24
20006f44:	854e                	mv	a0,s3
20006f46:	4611                	li	a2,4
20006f48:	a845                	j	20006ff8 <<&T as core::fmt::Debug>::fmt+0x290>
20006f4a:	4cc8                	lw	a0,28(s1)
20006f4c:	4554                	lw	a3,12(a0)
20006f4e:	4c88                	lw	a0,24(s1)
20006f50:	2000c5b7          	lui	a1,0x2000c
20006f54:	d3858593          	addi	a1,a1,-712 # 2000bd38 <.Lanon.cae71dd81ce574ee85bcd97c1d00dd97.4>
20006f58:	4615                	li	a2,5
20006f5a:	9682                	jalr	a3
20006f5c:	fc040ea3          	sb	zero,-35(s0)
20006f60:	fca40e23          	sb	a0,-36(s0)
20006f64:	fc942c23          	sw	s1,-40(s0)
20006f68:	00490513          	addi	a0,s2,4
20006f6c:	fea42423          	sw	a0,-24(s0)
20006f70:	2000c537          	lui	a0,0x2000c
20006f74:	d1150593          	addi	a1,a0,-751 # 2000bd11 <.Lanon.cae71dd81ce574ee85bcd97c1d00dd97.5>
20006f78:	10002537          	lui	a0,0x10002
20006f7c:	94850493          	addi	s1,a0,-1720 # 10001948 <.Lanon.cae71dd81ce574ee85bcd97c1d00dd97.2>
20006f80:	fd840993          	addi	s3,s0,-40
20006f84:	fe840693          	addi	a3,s0,-24
20006f88:	854e                	mv	a0,s3
20006f8a:	4635                	li	a2,13
20006f8c:	8726                	mv	a4,s1
20006f8e:	ffffe097          	auipc	ra,0xffffe
20006f92:	228080e7          	jalr	552(ra) # 200051b6 <core::fmt::builders::DebugStruct::field>
20006f96:	00890513          	addi	a0,s2,8
20006f9a:	fea42423          	sw	a0,-24(s0)
20006f9e:	2000a537          	lui	a0,0x2000a
20006fa2:	46850593          	addi	a1,a0,1128 # 2000a468 <.L__unnamed_28+0x102>
20006fa6:	fe840693          	addi	a3,s0,-24
20006faa:	854e                	mv	a0,s3
20006fac:	4641                	li	a2,16
20006fae:	8726                	mv	a4,s1
20006fb0:	ffffe097          	auipc	ra,0xffffe
20006fb4:	206080e7          	jalr	518(ra) # 200051b6 <core::fmt::builders::DebugStruct::field>
20006fb8:	00c90513          	addi	a0,s2,12
20006fbc:	fea42423          	sw	a0,-24(s0)
20006fc0:	2000c537          	lui	a0,0x2000c
20006fc4:	d3d50593          	addi	a1,a0,-707 # 2000bd3d <.Lanon.cae71dd81ce574ee85bcd97c1d00dd97.7>
20006fc8:	10002537          	lui	a0,0x10002
20006fcc:	96850713          	addi	a4,a0,-1688 # 10001968 <.Lanon.cae71dd81ce574ee85bcd97c1d00dd97.8>
20006fd0:	fe840693          	addi	a3,s0,-24
20006fd4:	854e                	mv	a0,s3
20006fd6:	4635                	li	a2,13
20006fd8:	ffffe097          	auipc	ra,0xffffe
20006fdc:	1de080e7          	jalr	478(ra) # 200051b6 <core::fmt::builders::DebugStruct::field>
20006fe0:	01090513          	addi	a0,s2,16
20006fe4:	fea42423          	sw	a0,-24(s0)
20006fe8:	2000c537          	lui	a0,0x2000c
20006fec:	d4a50593          	addi	a1,a0,-694 # 2000bd4a <.Lanon.cae71dd81ce574ee85bcd97c1d00dd97.9>
20006ff0:	fe840693          	addi	a3,s0,-24
20006ff4:	854e                	mv	a0,s3
20006ff6:	4629                	li	a2,10
20006ff8:	8726                	mv	a4,s1
20006ffa:	ffffe097          	auipc	ra,0xffffe
20006ffe:	1bc080e7          	jalr	444(ra) # 200051b6 <core::fmt::builders::DebugStruct::field>
20007002:	854e                	mv	a0,s3
20007004:	ffffe097          	auipc	ra,0xffffe
20007008:	4fa080e7          	jalr	1274(ra) # 200054fe <core::fmt::builders::DebugStruct::finish>
2000700c:	49f2                	lw	s3,28(sp)
2000700e:	5902                	lw	s2,32(sp)
20007010:	5492                	lw	s1,36(sp)
20007012:	5422                	lw	s0,40(sp)
20007014:	50b2                	lw	ra,44(sp)
20007016:	6145                	addi	sp,sp,48
20007018:	8082                	ret
2000701a:	4cc8                	lw	a0,28(s1)
2000701c:	4554                	lw	a3,12(a0)
2000701e:	4c88                	lw	a0,24(s1)
20007020:	2000c5b7          	lui	a1,0x2000c
20007024:	d0358593          	addi	a1,a1,-765 # 2000bd03 <.Lanon.cae71dd81ce574ee85bcd97c1d00dd97.16>
20007028:	4615                	li	a2,5
2000702a:	9682                	jalr	a3
2000702c:	fea40023          	sb	a0,-32(s0)
20007030:	fc942c23          	sw	s1,-40(s0)
20007034:	fe0400a3          	sb	zero,-31(s0)
20007038:	fc042e23          	sw	zero,-36(s0)
2000703c:	fd840513          	addi	a0,s0,-40
20007040:	ffffe097          	auipc	ra,0xffffe
20007044:	516080e7          	jalr	1302(ra) # 20005556 <core::fmt::builders::DebugTuple::finish>
20007048:	b7d1                	j	2000700c <<&T as core::fmt::Debug>::fmt+0x2a4>

2000704a <<&mut T as core::fmt::Display>::fmt>:
2000704a:	1141                	addi	sp,sp,-16
2000704c:	c606                	sw	ra,12(sp)
2000704e:	c422                	sw	s0,8(sp)
20007050:	0800                	addi	s0,sp,16
20007052:	4501                	li	a0,0
20007054:	4422                	lw	s0,8(sp)
20007056:	40b2                	lw	ra,12(sp)
20007058:	0141                	addi	sp,sp,16
2000705a:	8082                	ret

2000705c <kernel::driver::Driver::allow>:
2000705c:	1141                	addi	sp,sp,-16
2000705e:	c606                	sw	ra,12(sp)
20007060:	c422                	sw	s0,8(sp)
20007062:	0800                	addi	s0,sp,16
20007064:	4308                	lw	a0,0(a4)
20007066:	c511                	beqz	a0,20007072 <kernel::driver::Driver::allow+0x16>
20007068:	853a                	mv	a0,a4
2000706a:	fffff097          	auipc	ra,0xfffff
2000706e:	0e8080e7          	jalr	232(ra) # 20006152 <<kernel::mem::AppPtr<L,T> as core::ops::drop::Drop>::drop>
20007072:	452d                	li	a0,11
20007074:	4422                	lw	s0,8(sp)
20007076:	40b2                	lw	ra,12(sp)
20007078:	0141                	addi	sp,sp,16
2000707a:	8082                	ret

2000707c <kernel::driver::Driver::subscribe>:
2000707c:	1141                	addi	sp,sp,-16
2000707e:	c606                	sw	ra,12(sp)
20007080:	c422                	sw	s0,8(sp)
20007082:	0800                	addi	s0,sp,16
20007084:	452d                	li	a0,11
20007086:	4422                	lw	s0,8(sp)
20007088:	40b2                	lw	ra,12(sp)
2000708a:	0141                	addi	sp,sp,16
2000708c:	8082                	ret

2000708e <kernel::sched::Kernel::kernel_loop>:
2000708e:	712d                	addi	sp,sp,-288
20007090:	10112e23          	sw	ra,284(sp)
20007094:	10812c23          	sw	s0,280(sp)
20007098:	10912a23          	sw	s1,276(sp)
2000709c:	11212823          	sw	s2,272(sp)
200070a0:	11312623          	sw	s3,268(sp)
200070a4:	11412423          	sw	s4,264(sp)
200070a8:	11512223          	sw	s5,260(sp)
200070ac:	11612023          	sw	s6,256(sp)
200070b0:	dfde                	sw	s7,252(sp)
200070b2:	dde2                	sw	s8,248(sp)
200070b4:	dbe6                	sw	s9,244(sp)
200070b6:	d9ea                	sw	s10,240(sp)
200070b8:	d7ee                	sw	s11,236(sp)
200070ba:	1200                	addi	s0,sp,288
200070bc:	f0a42023          	sw	a0,-256(s0)
200070c0:	2000a537          	lui	a0,0x2000a
200070c4:	f3452983          	lw	s3,-204(a0) # 20009f34 <anon.276ed4515cb7bdbddaae8aa26a9a7e5e.0.llvm.3197837188720883966>
200070c8:	6505                	lui	a0,0x1
200070ca:	88050b13          	addi	s6,a0,-1920 # 880 <MPU_MIN_ALIGN+0x480>
200070ce:	80000537          	lui	a0,0x80000
200070d2:	157d                	addi	a0,a0,-1
200070d4:	f2a42e23          	sw	a0,-196(s0)
200070d8:	e8000537          	lui	a0,0xe8000
200070dc:	157d                	addi	a0,a0,-1
200070de:	f2a42c23          	sw	a0,-200(s0)
200070e2:	fc000537          	lui	a0,0xfc000
200070e6:	157d                	addi	a0,a0,-1
200070e8:	f2a42a23          	sw	a0,-204(s0)
200070ec:	fe000537          	lui	a0,0xfe000
200070f0:	157d                	addi	a0,a0,-1
200070f2:	f2a42823          	sw	a0,-208(s0)
200070f6:	ff000537          	lui	a0,0xff000
200070fa:	157d                	addi	a0,a0,-1
200070fc:	f2a42623          	sw	a0,-212(s0)
20007100:	ff800537          	lui	a0,0xff800
20007104:	157d                	addi	a0,a0,-1
20007106:	f2a42423          	sw	a0,-216(s0)
2000710a:	ffe80537          	lui	a0,0xffe80
2000710e:	157d                	addi	a0,a0,-1
20007110:	f2a42223          	sw	a0,-220(s0)
20007114:	fffc0537          	lui	a0,0xfffc0
20007118:	157d                	addi	a0,a0,-1
2000711a:	f2a42023          	sw	a0,-224(s0)
2000711e:	7501                	lui	a0,0xfffe0
20007120:	157d                	addi	a0,a0,-1
20007122:	f0a42e23          	sw	a0,-228(s0)
20007126:	7541                	lui	a0,0xffff0
20007128:	157d                	addi	a0,a0,-1
2000712a:	f0a42c23          	sw	a0,-232(s0)
2000712e:	7561                	lui	a0,0xffff8
20007130:	157d                	addi	a0,a0,-1
20007132:	f0a42a23          	sw	a0,-236(s0)
20007136:	7579                	lui	a0,0xffffe
20007138:	7ff50513          	addi	a0,a0,2047 # ffffe7ff <_sapps+0xdffce7ff>
2000713c:	f0a42823          	sw	a0,-240(s0)
20007140:	f80b0d13          	addi	s10,s6,-128
20007144:	10002ab7          	lui	s5,0x10002
20007148:	10002537          	lui	a0,0x10002
2000714c:	1fc50513          	addi	a0,a0,508 # 100021fc <opentitan::reset_handler::BUF>
20007150:	eea42e23          	sw	a0,-260(s0)
20007154:	4d89                	li	s11,2
20007156:	4c05                	li	s8,1
20007158:	10002537          	lui	a0,0x10002
2000715c:	a5c50513          	addi	a0,a0,-1444 # 10001a5c <.L__unnamed_4>
20007160:	eea42623          	sw	a0,-276(s0)
20007164:	10002537          	lui	a0,0x10002
20007168:	a4450513          	addi	a0,a0,-1468 # 10001a44 <.L__unnamed_5>
2000716c:	eea42423          	sw	a0,-280(s0)
20007170:	10002537          	lui	a0,0x10002
20007174:	a2c50513          	addi	a0,a0,-1492 # 10001a2c <.L__unnamed_6>
20007178:	eea42223          	sw	a0,-284(s0)
2000717c:	4a1d                	li	s4,7
2000717e:	40000537          	lui	a0,0x40000
20007182:	157d                	addi	a0,a0,-1
20007184:	eea42a23          	sw	a0,-268(s0)
20007188:	10002cb7          	lui	s9,0x10002
2000718c:	20004537          	lui	a0,0x20004
20007190:	ab050513          	addi	a0,a0,-1360 # 20003ab0 <core::fmt::num::imp::<impl core::fmt::Display for u32>::fmt>
20007194:	f4a42623          	sw	a0,-180(s0)
20007198:	10001537          	lui	a0,0x10001
2000719c:	49c50513          	addi	a0,a0,1180 # 1000149c <.Lanon.10dee966009b08f571f6f372f9df6397.1>
200071a0:	f4a42423          	sw	a0,-184(s0)
200071a4:	4481                	li	s1,0
200071a6:	4b81                	li	s7,0
200071a8:	34402973          	csrr	s2,mip
200071ac:	08097513          	andi	a0,s2,128
200071b0:	c505                	beqz	a0,200071d8 <kernel::sched::Kernel::kernel_loop+0x14a>
200071b2:	100015b7          	lui	a1,0x10001
200071b6:	6345a503          	lw	a0,1588(a1) # 10001634 <ibex::timer::TIMER>
200071ba:	10052a23          	sw	zero,276(a0)
200071be:	11852c23          	sw	s8,280(a0)
200071c2:	63458593          	addi	a1,a1,1588
200071c6:	41c8                	lw	a0,4(a1)
200071c8:	c501                	beqz	a0,200071d0 <kernel::sched::Kernel::kernel_loop+0x142>
200071ca:	458c                	lw	a1,8(a1)
200071cc:	45cc                	lw	a1,12(a1)
200071ce:	9582                	jalr	a1
200071d0:	0804e493          	ori	s1,s1,128
200071d4:	080beb93          	ori	s7,s7,128
200071d8:	01a97533          	and	a0,s2,s10
200071dc:	e571                	bnez	a0,200072a8 <kernel::sched::Kernel::kernel_loop+0x21a>
200071de:	a8e1                	j	200072b6 <kernel::sched::Kernel::kernel_loop+0x228>
200071e0:	f8a42823          	sw	a0,-112(s0)
200071e4:	fdf50593          	addi	a1,a0,-33
200071e8:	02ba6063          	bltu	s4,a1,20007208 <kernel::sched::Kernel::kernel_loop+0x17a>
200071ec:	8d0ca503          	lw	a0,-1840(s9) # 100018d0 <ibex::uart::UART0>
200071f0:	410c                	lw	a1,0(a0)
200071f2:	0045f613          	andi	a2,a1,4
200071f6:	ee29                	bnez	a2,20007250 <kernel::sched::Kernel::kernel_loop+0x1c2>
200071f8:	8989                	andi	a1,a1,2
200071fa:	c1dd                	beqz	a1,200072a0 <kernel::sched::Kernel::kernel_loop+0x212>
200071fc:	414c                	lw	a1,4(a0)
200071fe:	99f5                	andi	a1,a1,-3
20007200:	c14c                	sw	a1,4(a0)
20007202:	01b52023          	sw	s11,0(a0)
20007206:	a869                	j	200072a0 <kernel::sched::Kernel::kernel_loop+0x212>
20007208:	157d                	addi	a0,a0,-1
2000720a:	02000593          	li	a1,32
2000720e:	04b57d63          	bgeu	a0,a1,20007268 <kernel::sched::Kernel::kernel_loop+0x1da>
20007212:	fffff097          	auipc	ra,0xfffff
20007216:	9ee080e7          	jalr	-1554(ra) # 20005c00 <<ibex::gpio::Port as core::ops::index::Index<usize>>::index>
2000721a:	4514                	lw	a3,8(a0)
2000721c:	414c                	lw	a1,4(a0)
2000721e:	00d59633          	sll	a2,a1,a3
20007222:	410c                	lw	a1,0(a0)
20007224:	4198                	lw	a4,0(a1)
20007226:	8f71                	and	a4,a4,a2
20007228:	00d75733          	srl	a4,a4,a3
2000722c:	cb35                	beqz	a4,200072a0 <kernel::sched::Kernel::kernel_loop+0x212>
2000722e:	8afd                	andi	a3,a3,31
20007230:	00dc16b3          	sll	a3,s8,a3
20007234:	8ef1                	and	a3,a3,a2
20007236:	fff64613          	not	a2,a2
2000723a:	4198                	lw	a4,0(a1)
2000723c:	8e79                	and	a2,a2,a4
2000723e:	8e55                	or	a2,a2,a3
20007240:	c190                	sw	a2,0(a1)
20007242:	454c                	lw	a1,12(a0)
20007244:	cdb1                	beqz	a1,200072a0 <kernel::sched::Kernel::kernel_loop+0x212>
20007246:	4908                	lw	a0,16(a0)
20007248:	4550                	lw	a2,12(a0)
2000724a:	852e                	mv	a0,a1
2000724c:	9602                	jalr	a2
2000724e:	a889                	j	200072a0 <kernel::sched::Kernel::kernel_loop+0x212>
20007250:	414c                	lw	a1,4(a0)
20007252:	99ed                	andi	a1,a1,-5
20007254:	c14c                	sw	a1,4(a0)
20007256:	4591                	li	a1,4
20007258:	c10c                	sw	a1,0(a0)
2000725a:	8d0c8513          	addi	a0,s9,-1840
2000725e:	fffff097          	auipc	ra,0xfffff
20007262:	29a080e7          	jalr	666(ra) # 200064f8 <lowrisc::uart::Uart::tx_progress>
20007266:	a82d                	j	200072a0 <kernel::sched::Kernel::kernel_loop+0x212>
20007268:	fa840513          	addi	a0,s0,-88
2000726c:	f6a42c23          	sw	a0,-136(s0)
20007270:	f6042823          	sw	zero,-144(s0)
20007274:	f7842e23          	sw	s8,-132(s0)
20007278:	f7842623          	sw	s8,-148(s0)
2000727c:	f4c42503          	lw	a0,-180(s0)
20007280:	faa42623          	sw	a0,-84(s0)
20007284:	f9040513          	addi	a0,s0,-112
20007288:	faa42423          	sw	a0,-88(s0)
2000728c:	f4842503          	lw	a0,-184(s0)
20007290:	f6a42423          	sw	a0,-152(s0)
20007294:	f6840513          	addi	a0,s0,-152
20007298:	fffff097          	auipc	ra,0xfffff
2000729c:	daa080e7          	jalr	-598(ra) # 20006042 <kernel::debug::begin_debug_fmt>
200072a0:	f9042503          	lw	a0,-112(s0)
200072a4:	20a9a823          	sw	a0,528(s3)
200072a8:	2109a503          	lw	a0,528(s3)
200072ac:	f915                	bnez	a0,200071e0 <kernel::sched::Kernel::kernel_loop+0x152>
200072ae:	01a4e4b3          	or	s1,s1,s10
200072b2:	01abebb3          	or	s7,s7,s10
200072b6:	01697533          	and	a0,s2,s6
200072ba:	ee0517e3          	bnez	a0,200071a8 <kernel::sched::Kernel::kernel_loop+0x11a>
200072be:	fffbc513          	not	a0,s7
200072c2:	304025f3          	csrr	a1,mie
200072c6:	8d6d                	and	a0,a0,a1
200072c8:	8d45                	or	a0,a0,s1
200072ca:	30451073          	csrw	mie,a0
200072ce:	cd8aa503          	lw	a0,-808(s5) # 10001cd8 <kernel::common::dynamic_deferred_call::DYNAMIC_DEFERRED_CALL>
200072d2:	c539                	beqz	a0,20007320 <kernel::sched::Kernel::kernel_loop+0x292>
200072d4:	00c54583          	lbu	a1,12(a0)
200072d8:	c5a1                	beqz	a1,20007320 <kernel::sched::Kernel::kernel_loop+0x292>
200072da:	414c                	lw	a1,4(a0)
200072dc:	ef442603          	lw	a2,-268(s0)
200072e0:	00c5f933          	and	s2,a1,a2
200072e4:	00050623          	sb	zero,12(a0)
200072e8:	4108                	lw	a0,0(a0)
200072ea:	00850493          	addi	s1,a0,8
200072ee:	4b81                	li	s7,0
200072f0:	03790863          	beq	s2,s7,20007320 <kernel::sched::Kernel::kernel_loop+0x292>
200072f4:	0004c503          	lbu	a0,0(s1)
200072f8:	c105                	beqz	a0,20007318 <kernel::sched::Kernel::kernel_loop+0x28a>
200072fa:	ff84a503          	lw	a0,-8(s1)
200072fe:	cd09                	beqz	a0,20007318 <kernel::sched::Kernel::kernel_loop+0x28a>
20007300:	ffc4a583          	lw	a1,-4(s1)
20007304:	34402673          	csrr	a2,mip
20007308:	01667633          	and	a2,a2,s6
2000730c:	ea11                	bnez	a2,20007320 <kernel::sched::Kernel::kernel_loop+0x292>
2000730e:	00048023          	sb	zero,0(s1)
20007312:	45d0                	lw	a2,12(a1)
20007314:	85de                	mv	a1,s7
20007316:	9602                	jalr	a2
20007318:	04b1                	addi	s1,s1,12
2000731a:	0b85                	addi	s7,s7,1
2000731c:	fd791ce3          	bne	s2,s7,200072f4 <kernel::sched::Kernel::kernel_loop+0x266>
20007320:	efc42503          	lw	a0,-260(s0)
20007324:	414c                	lw	a1,4(a0)
20007326:	4508                	lw	a0,8(a0)
20007328:	050e                	slli	a0,a0,0x3
2000732a:	952e                	add	a0,a0,a1
2000732c:	f4a42023          	sw	a0,-192(s0)
20007330:	490d                	li	s2,3
20007332:	4bc1                	li	s7,16
20007334:	44a1                	li	s1,8
20007336:	f4042503          	lw	a0,-192(s0)
2000733a:	26a58ae3          	beq	a1,a0,20007dae <kernel::sched::Kernel::kernel_loop+0xd20>
2000733e:	852e                	mv	a0,a1
20007340:	41cc                	lw	a1,4(a1)
20007342:	f4a42223          	sw	a0,-188(s0)
20007346:	4108                	lw	a0,0(a0)
20007348:	22050fe3          	beqz	a0,20007d86 <kernel::sched::Kernel::kernel_loop+0xcf8>
2000734c:	f4b42a23          	sw	a1,-172(s0)
20007350:	f4a42823          	sw	a0,-176(s0)
20007354:	45cc                	lw	a1,12(a1)
20007356:	9582                	jalr	a1
20007358:	f4b42e23          	sw	a1,-164(s0)
2000735c:	f4a42c23          	sw	a0,-168(s0)
20007360:	f0042503          	lw	a0,-256(s0)
20007364:	410c                	lw	a1,0(a0)
20007366:	f0b42623          	sw	a1,-244(s0)
2000736a:	414c                	lw	a1,4(a0)
2000736c:	f0b42423          	sw	a1,-248(s0)
20007370:	4508                	lw	a0,8(a0)
20007372:	f0a42223          	sw	a0,-252(s0)
20007376:	34402573          	csrr	a0,mip
2000737a:	01657533          	and	a0,a0,s6
2000737e:	200514e3          	bnez	a0,20007d86 <kernel::sched::Kernel::kernel_loop+0xcf8>
20007382:	f5442503          	lw	a0,-172(s0)
20007386:	4d4c                	lw	a1,28(a0)
20007388:	f5042503          	lw	a0,-176(s0)
2000738c:	9582                	jalr	a1
2000738e:	0ff57513          	andi	a0,a0,255
20007392:	ffe50593          	addi	a1,a0,-2
20007396:	1f25e8e3          	bltu	a1,s2,20007d86 <kernel::sched::Kernel::kernel_loop+0xcf8>
2000739a:	c559                	beqz	a0,20007428 <kernel::sched::Kernel::kernel_loop+0x39a>
2000739c:	01850563          	beq	a0,s8,200073a6 <kernel::sched::Kernel::kernel_loop+0x318>
200073a0:	4599                	li	a1,6
200073a2:	24b51ce3          	bne	a0,a1,20007dfa <kernel::sched::Kernel::kernel_loop+0xd6c>
200073a6:	f5442503          	lw	a0,-172(s0)
200073aa:	4950                	lw	a2,20(a0)
200073ac:	f5042583          	lw	a1,-176(s0)
200073b0:	f6840513          	addi	a0,s0,-152
200073b4:	9602                	jalr	a2
200073b6:	f6842483          	lw	s1,-152(s0)
200073ba:	1db485e3          	beq	s1,s11,20007d84 <kernel::sched::Kernel::kernel_loop+0xcf6>
200073be:	8aea                	mv	s5,s10
200073c0:	8d5a                	mv	s10,s6
200073c2:	f6c42b83          	lw	s7,-148(s0)
200073c6:	f7042b03          	lw	s6,-144(s0)
200073ca:	f7444d83          	lbu	s11,-140(s0)
200073ce:	f9040913          	addi	s2,s0,-112
200073d2:	854a                	mv	a0,s2
200073d4:	f7540593          	addi	a1,s0,-139
200073d8:	465d                	li	a2,23
200073da:	00002097          	auipc	ra,0x2
200073de:	28c080e7          	jalr	652(ra) # 20009666 <memcpy>
200073e2:	22049ee3          	bnez	s1,20007e1e <kernel::sched::Kernel::kernel_loop+0xd90>
200073e6:	85ca                	mv	a1,s2
200073e8:	f5042903          	lw	s2,-176(s0)
200073ec:	f5442483          	lw	s1,-172(s0)
200073f0:	fbb40823          	sb	s11,-80(s0)
200073f4:	fb642623          	sw	s6,-84(s0)
200073f8:	fb742423          	sw	s7,-88(s0)
200073fc:	fb140513          	addi	a0,s0,-79
20007400:	465d                	li	a2,23
20007402:	00002097          	auipc	ra,0x2
20007406:	264080e7          	jalr	612(ra) # 20009666 <memcpy>
2000740a:	0804a603          	lw	a2,128(s1)
2000740e:	854a                	mv	a0,s2
20007410:	490d                	li	s2,3
20007412:	fa840593          	addi	a1,s0,-88
20007416:	9602                	jalr	a2
20007418:	8b6a                	mv	s6,s10
2000741a:	8d56                	mv	s10,s5
2000741c:	10002ab7          	lui	s5,0x10002
20007420:	4d89                	li	s11,2
20007422:	4bc1                	li	s7,16
20007424:	44a1                	li	s1,8
20007426:	bf81                	j	20007376 <kernel::sched::Kernel::kernel_loop+0x2e8>
20007428:	f5442503          	lw	a0,-172(s0)
2000742c:	552c                	lw	a1,104(a0)
2000742e:	f5042503          	lw	a0,-176(s0)
20007432:	9582                	jalr	a1
20007434:	f5442503          	lw	a0,-172(s0)
20007438:	08452603          	lw	a2,132(a0)
2000743c:	f5042583          	lw	a1,-176(s0)
20007440:	fa840513          	addi	a0,s0,-88
20007444:	9602                	jalr	a2
20007446:	4581                	li	a1,0
20007448:	51758d63          	beq	a1,s7,20007962 <kernel::sched::Kernel::kernel_loop+0x8d4>
2000744c:	00158513          	addi	a0,a1,1
20007450:	463d                	li	a2,15
20007452:	26c58063          	beq	a1,a2,200076b2 <kernel::sched::Kernel::kernel_loop+0x624>
20007456:	2b858763          	beq	a1,s8,20007704 <kernel::sched::Kernel::kernel_loop+0x676>
2000745a:	4bb58c63          	beq	a1,s11,20007912 <kernel::sched::Kernel::kernel_loop+0x884>
2000745e:	47258163          	beq	a1,s2,200078c0 <kernel::sched::Kernel::kernel_loop+0x832>
20007462:	4611                	li	a2,4
20007464:	0cc58663          	beq	a1,a2,20007530 <kernel::sched::Kernel::kernel_loop+0x4a2>
20007468:	4615                	li	a2,5
2000746a:	2ec58363          	beq	a1,a2,20007750 <kernel::sched::Kernel::kernel_loop+0x6c2>
2000746e:	4619                	li	a2,6
20007470:	10c58063          	beq	a1,a2,20007570 <kernel::sched::Kernel::kernel_loop+0x4e2>
20007474:	3b458d63          	beq	a1,s4,2000782e <kernel::sched::Kernel::kernel_loop+0x7a0>
20007478:	40958463          	beq	a1,s1,20007880 <kernel::sched::Kernel::kernel_loop+0x7f2>
2000747c:	4625                	li	a2,9
2000747e:	06c58363          	beq	a1,a2,200074e4 <kernel::sched::Kernel::kernel_loop+0x456>
20007482:	4629                	li	a2,10
20007484:	30c58c63          	beq	a1,a2,2000779c <kernel::sched::Kernel::kernel_loop+0x70e>
20007488:	462d                	li	a2,11
2000748a:	18c58563          	beq	a1,a2,20007614 <kernel::sched::Kernel::kernel_loop+0x586>
2000748e:	4631                	li	a2,12
20007490:	34c58f63          	beq	a1,a2,200077ee <kernel::sched::Kernel::kernel_loop+0x760>
20007494:	4635                	li	a2,13
20007496:	1cc58863          	beq	a1,a2,20007666 <kernel::sched::Kernel::kernel_loop+0x5d8>
2000749a:	4639                	li	a2,14
2000749c:	12c58363          	beq	a1,a2,200075c2 <kernel::sched::Kernel::kernel_loop+0x534>
200074a0:	4c059163          	bnez	a1,20007962 <kernel::sched::Kernel::kernel_loop+0x8d4>
200074a4:	3a0025f3          	csrr	a1,pmpcfg0
200074a8:	99f9                	andi	a1,a1,-2
200074aa:	3a059073          	csrw	pmpcfg0,a1
200074ae:	3a0025f3          	csrr	a1,pmpcfg0
200074b2:	99f5                	andi	a1,a1,-3
200074b4:	3a059073          	csrw	pmpcfg0,a1
200074b8:	3a0025f3          	csrr	a1,pmpcfg0
200074bc:	99ed                	andi	a1,a1,-5
200074be:	3a059073          	csrw	pmpcfg0,a1
200074c2:	3a0025f3          	csrr	a1,pmpcfg0
200074c6:	999d                	andi	a1,a1,-25
200074c8:	3a059073          	csrw	pmpcfg0,a1
200074cc:	3a0025f3          	csrr	a1,pmpcfg0
200074d0:	f7f5f593          	andi	a1,a1,-129
200074d4:	3a059073          	csrw	pmpcfg0,a1
200074d8:	3b001073          	csrw	pmpaddr0,zero
200074dc:	85aa                	mv	a1,a0
200074de:	f77597e3          	bne	a1,s7,2000744c <kernel::sched::Kernel::kernel_loop+0x3be>
200074e2:	a141                	j	20007962 <kernel::sched::Kernel::kernel_loop+0x8d4>
200074e4:	3a2025f3          	csrr	a1,pmpcfg2
200074e8:	eff5f593          	andi	a1,a1,-257
200074ec:	3a259073          	csrw	pmpcfg2,a1
200074f0:	3a2025f3          	csrr	a1,pmpcfg2
200074f4:	dff5f593          	andi	a1,a1,-513
200074f8:	3a259073          	csrw	pmpcfg2,a1
200074fc:	3a2025f3          	csrr	a1,pmpcfg2
20007500:	bff5f593          	andi	a1,a1,-1025
20007504:	3a259073          	csrw	pmpcfg2,a1
20007508:	3a2025f3          	csrr	a1,pmpcfg2
2000750c:	f1042603          	lw	a2,-240(s0)
20007510:	8df1                	and	a1,a1,a2
20007512:	3a259073          	csrw	pmpcfg2,a1
20007516:	3a2025f3          	csrr	a1,pmpcfg2
2000751a:	f1442603          	lw	a2,-236(s0)
2000751e:	8df1                	and	a1,a1,a2
20007520:	3a259073          	csrw	pmpcfg2,a1
20007524:	3b901073          	csrw	pmpaddr9,zero
20007528:	85aa                	mv	a1,a0
2000752a:	f37591e3          	bne	a1,s7,2000744c <kernel::sched::Kernel::kernel_loop+0x3be>
2000752e:	a915                	j	20007962 <kernel::sched::Kernel::kernel_loop+0x8d4>
20007530:	3a1025f3          	csrr	a1,pmpcfg1
20007534:	99f9                	andi	a1,a1,-2
20007536:	3a159073          	csrw	pmpcfg1,a1
2000753a:	3a1025f3          	csrr	a1,pmpcfg1
2000753e:	99f5                	andi	a1,a1,-3
20007540:	3a159073          	csrw	pmpcfg1,a1
20007544:	3a1025f3          	csrr	a1,pmpcfg1
20007548:	99ed                	andi	a1,a1,-5
2000754a:	3a159073          	csrw	pmpcfg1,a1
2000754e:	3a1025f3          	csrr	a1,pmpcfg1
20007552:	999d                	andi	a1,a1,-25
20007554:	3a159073          	csrw	pmpcfg1,a1
20007558:	3a1025f3          	csrr	a1,pmpcfg1
2000755c:	f7f5f593          	andi	a1,a1,-129
20007560:	3a159073          	csrw	pmpcfg1,a1
20007564:	3b401073          	csrw	pmpaddr4,zero
20007568:	85aa                	mv	a1,a0
2000756a:	ef7591e3          	bne	a1,s7,2000744c <kernel::sched::Kernel::kernel_loop+0x3be>
2000756e:	aed5                	j	20007962 <kernel::sched::Kernel::kernel_loop+0x8d4>
20007570:	3a1025f3          	csrr	a1,pmpcfg1
20007574:	f1842603          	lw	a2,-232(s0)
20007578:	8df1                	and	a1,a1,a2
2000757a:	3a159073          	csrw	pmpcfg1,a1
2000757e:	3a1025f3          	csrr	a1,pmpcfg1
20007582:	f1c42603          	lw	a2,-228(s0)
20007586:	8df1                	and	a1,a1,a2
20007588:	3a159073          	csrw	pmpcfg1,a1
2000758c:	3a1025f3          	csrr	a1,pmpcfg1
20007590:	f2042603          	lw	a2,-224(s0)
20007594:	8df1                	and	a1,a1,a2
20007596:	3a159073          	csrw	pmpcfg1,a1
2000759a:	3a1025f3          	csrr	a1,pmpcfg1
2000759e:	f2442603          	lw	a2,-220(s0)
200075a2:	8df1                	and	a1,a1,a2
200075a4:	3a159073          	csrw	pmpcfg1,a1
200075a8:	3a1025f3          	csrr	a1,pmpcfg1
200075ac:	f2842603          	lw	a2,-216(s0)
200075b0:	8df1                	and	a1,a1,a2
200075b2:	3a159073          	csrw	pmpcfg1,a1
200075b6:	3b601073          	csrw	pmpaddr6,zero
200075ba:	85aa                	mv	a1,a0
200075bc:	e97598e3          	bne	a1,s7,2000744c <kernel::sched::Kernel::kernel_loop+0x3be>
200075c0:	a64d                	j	20007962 <kernel::sched::Kernel::kernel_loop+0x8d4>
200075c2:	3a3025f3          	csrr	a1,pmpcfg3
200075c6:	f1842603          	lw	a2,-232(s0)
200075ca:	8df1                	and	a1,a1,a2
200075cc:	3a359073          	csrw	pmpcfg3,a1
200075d0:	3a3025f3          	csrr	a1,pmpcfg3
200075d4:	f1c42603          	lw	a2,-228(s0)
200075d8:	8df1                	and	a1,a1,a2
200075da:	3a359073          	csrw	pmpcfg3,a1
200075de:	3a3025f3          	csrr	a1,pmpcfg3
200075e2:	f2042603          	lw	a2,-224(s0)
200075e6:	8df1                	and	a1,a1,a2
200075e8:	3a359073          	csrw	pmpcfg3,a1
200075ec:	3a3025f3          	csrr	a1,pmpcfg3
200075f0:	f2442603          	lw	a2,-220(s0)
200075f4:	8df1                	and	a1,a1,a2
200075f6:	3a359073          	csrw	pmpcfg3,a1
200075fa:	3a3025f3          	csrr	a1,pmpcfg3
200075fe:	f2842603          	lw	a2,-216(s0)
20007602:	8df1                	and	a1,a1,a2
20007604:	3a359073          	csrw	pmpcfg3,a1
20007608:	3be01073          	csrw	pmpaddr14,zero
2000760c:	85aa                	mv	a1,a0
2000760e:	e3759fe3          	bne	a1,s7,2000744c <kernel::sched::Kernel::kernel_loop+0x3be>
20007612:	ae81                	j	20007962 <kernel::sched::Kernel::kernel_loop+0x8d4>
20007614:	3a2025f3          	csrr	a1,pmpcfg2
20007618:	f2c42603          	lw	a2,-212(s0)
2000761c:	8df1                	and	a1,a1,a2
2000761e:	3a259073          	csrw	pmpcfg2,a1
20007622:	3a2025f3          	csrr	a1,pmpcfg2
20007626:	f3042603          	lw	a2,-208(s0)
2000762a:	8df1                	and	a1,a1,a2
2000762c:	3a259073          	csrw	pmpcfg2,a1
20007630:	3a2025f3          	csrr	a1,pmpcfg2
20007634:	f3442603          	lw	a2,-204(s0)
20007638:	8df1                	and	a1,a1,a2
2000763a:	3a259073          	csrw	pmpcfg2,a1
2000763e:	3a2025f3          	csrr	a1,pmpcfg2
20007642:	f3842603          	lw	a2,-200(s0)
20007646:	8df1                	and	a1,a1,a2
20007648:	3a259073          	csrw	pmpcfg2,a1
2000764c:	3a2025f3          	csrr	a1,pmpcfg2
20007650:	f3c42603          	lw	a2,-196(s0)
20007654:	8df1                	and	a1,a1,a2
20007656:	3a259073          	csrw	pmpcfg2,a1
2000765a:	3bb01073          	csrw	pmpaddr11,zero
2000765e:	85aa                	mv	a1,a0
20007660:	df7596e3          	bne	a1,s7,2000744c <kernel::sched::Kernel::kernel_loop+0x3be>
20007664:	acfd                	j	20007962 <kernel::sched::Kernel::kernel_loop+0x8d4>
20007666:	3a3025f3          	csrr	a1,pmpcfg3
2000766a:	eff5f593          	andi	a1,a1,-257
2000766e:	3a359073          	csrw	pmpcfg3,a1
20007672:	3a3025f3          	csrr	a1,pmpcfg3
20007676:	dff5f593          	andi	a1,a1,-513
2000767a:	3a359073          	csrw	pmpcfg3,a1
2000767e:	3a3025f3          	csrr	a1,pmpcfg3
20007682:	bff5f593          	andi	a1,a1,-1025
20007686:	3a359073          	csrw	pmpcfg3,a1
2000768a:	3a3025f3          	csrr	a1,pmpcfg3
2000768e:	f1042603          	lw	a2,-240(s0)
20007692:	8df1                	and	a1,a1,a2
20007694:	3a359073          	csrw	pmpcfg3,a1
20007698:	3a3025f3          	csrr	a1,pmpcfg3
2000769c:	f1442603          	lw	a2,-236(s0)
200076a0:	8df1                	and	a1,a1,a2
200076a2:	3a359073          	csrw	pmpcfg3,a1
200076a6:	3bd01073          	csrw	pmpaddr13,zero
200076aa:	85aa                	mv	a1,a0
200076ac:	db7590e3          	bne	a1,s7,2000744c <kernel::sched::Kernel::kernel_loop+0x3be>
200076b0:	ac4d                	j	20007962 <kernel::sched::Kernel::kernel_loop+0x8d4>
200076b2:	3a3025f3          	csrr	a1,pmpcfg3
200076b6:	f2c42603          	lw	a2,-212(s0)
200076ba:	8df1                	and	a1,a1,a2
200076bc:	3a359073          	csrw	pmpcfg3,a1
200076c0:	3a3025f3          	csrr	a1,pmpcfg3
200076c4:	f3042603          	lw	a2,-208(s0)
200076c8:	8df1                	and	a1,a1,a2
200076ca:	3a359073          	csrw	pmpcfg3,a1
200076ce:	3a3025f3          	csrr	a1,pmpcfg3
200076d2:	f3442603          	lw	a2,-204(s0)
200076d6:	8df1                	and	a1,a1,a2
200076d8:	3a359073          	csrw	pmpcfg3,a1
200076dc:	3a3025f3          	csrr	a1,pmpcfg3
200076e0:	f3842603          	lw	a2,-200(s0)
200076e4:	8df1                	and	a1,a1,a2
200076e6:	3a359073          	csrw	pmpcfg3,a1
200076ea:	3a3025f3          	csrr	a1,pmpcfg3
200076ee:	f3c42603          	lw	a2,-196(s0)
200076f2:	8df1                	and	a1,a1,a2
200076f4:	3a359073          	csrw	pmpcfg3,a1
200076f8:	3bf01073          	csrw	pmpaddr15,zero
200076fc:	85aa                	mv	a1,a0
200076fe:	d57597e3          	bne	a1,s7,2000744c <kernel::sched::Kernel::kernel_loop+0x3be>
20007702:	a485                	j	20007962 <kernel::sched::Kernel::kernel_loop+0x8d4>
20007704:	3a0025f3          	csrr	a1,pmpcfg0
20007708:	eff5f593          	andi	a1,a1,-257
2000770c:	3a059073          	csrw	pmpcfg0,a1
20007710:	3a0025f3          	csrr	a1,pmpcfg0
20007714:	dff5f593          	andi	a1,a1,-513
20007718:	3a059073          	csrw	pmpcfg0,a1
2000771c:	3a0025f3          	csrr	a1,pmpcfg0
20007720:	bff5f593          	andi	a1,a1,-1025
20007724:	3a059073          	csrw	pmpcfg0,a1
20007728:	3a0025f3          	csrr	a1,pmpcfg0
2000772c:	f1042603          	lw	a2,-240(s0)
20007730:	8df1                	and	a1,a1,a2
20007732:	3a059073          	csrw	pmpcfg0,a1
20007736:	3a0025f3          	csrr	a1,pmpcfg0
2000773a:	f1442603          	lw	a2,-236(s0)
2000773e:	8df1                	and	a1,a1,a2
20007740:	3a059073          	csrw	pmpcfg0,a1
20007744:	3b101073          	csrw	pmpaddr1,zero
20007748:	85aa                	mv	a1,a0
2000774a:	d17591e3          	bne	a1,s7,2000744c <kernel::sched::Kernel::kernel_loop+0x3be>
2000774e:	ac11                	j	20007962 <kernel::sched::Kernel::kernel_loop+0x8d4>
20007750:	3a1025f3          	csrr	a1,pmpcfg1
20007754:	eff5f593          	andi	a1,a1,-257
20007758:	3a159073          	csrw	pmpcfg1,a1
2000775c:	3a1025f3          	csrr	a1,pmpcfg1
20007760:	dff5f593          	andi	a1,a1,-513
20007764:	3a159073          	csrw	pmpcfg1,a1
20007768:	3a1025f3          	csrr	a1,pmpcfg1
2000776c:	bff5f593          	andi	a1,a1,-1025
20007770:	3a159073          	csrw	pmpcfg1,a1
20007774:	3a1025f3          	csrr	a1,pmpcfg1
20007778:	f1042603          	lw	a2,-240(s0)
2000777c:	8df1                	and	a1,a1,a2
2000777e:	3a159073          	csrw	pmpcfg1,a1
20007782:	3a1025f3          	csrr	a1,pmpcfg1
20007786:	f1442603          	lw	a2,-236(s0)
2000778a:	8df1                	and	a1,a1,a2
2000778c:	3a159073          	csrw	pmpcfg1,a1
20007790:	3b501073          	csrw	pmpaddr5,zero
20007794:	85aa                	mv	a1,a0
20007796:	cb759be3          	bne	a1,s7,2000744c <kernel::sched::Kernel::kernel_loop+0x3be>
2000779a:	a2e1                	j	20007962 <kernel::sched::Kernel::kernel_loop+0x8d4>
2000779c:	3a2025f3          	csrr	a1,pmpcfg2
200077a0:	f1842603          	lw	a2,-232(s0)
200077a4:	8df1                	and	a1,a1,a2
200077a6:	3a259073          	csrw	pmpcfg2,a1
200077aa:	3a2025f3          	csrr	a1,pmpcfg2
200077ae:	f1c42603          	lw	a2,-228(s0)
200077b2:	8df1                	and	a1,a1,a2
200077b4:	3a259073          	csrw	pmpcfg2,a1
200077b8:	3a2025f3          	csrr	a1,pmpcfg2
200077bc:	f2042603          	lw	a2,-224(s0)
200077c0:	8df1                	and	a1,a1,a2
200077c2:	3a259073          	csrw	pmpcfg2,a1
200077c6:	3a2025f3          	csrr	a1,pmpcfg2
200077ca:	f2442603          	lw	a2,-220(s0)
200077ce:	8df1                	and	a1,a1,a2
200077d0:	3a259073          	csrw	pmpcfg2,a1
200077d4:	3a2025f3          	csrr	a1,pmpcfg2
200077d8:	f2842603          	lw	a2,-216(s0)
200077dc:	8df1                	and	a1,a1,a2
200077de:	3a259073          	csrw	pmpcfg2,a1
200077e2:	3ba01073          	csrw	pmpaddr10,zero
200077e6:	85aa                	mv	a1,a0
200077e8:	c77592e3          	bne	a1,s7,2000744c <kernel::sched::Kernel::kernel_loop+0x3be>
200077ec:	aa9d                	j	20007962 <kernel::sched::Kernel::kernel_loop+0x8d4>
200077ee:	3a3025f3          	csrr	a1,pmpcfg3
200077f2:	99f9                	andi	a1,a1,-2
200077f4:	3a359073          	csrw	pmpcfg3,a1
200077f8:	3a3025f3          	csrr	a1,pmpcfg3
200077fc:	99f5                	andi	a1,a1,-3
200077fe:	3a359073          	csrw	pmpcfg3,a1
20007802:	3a3025f3          	csrr	a1,pmpcfg3
20007806:	99ed                	andi	a1,a1,-5
20007808:	3a359073          	csrw	pmpcfg3,a1
2000780c:	3a3025f3          	csrr	a1,pmpcfg3
20007810:	999d                	andi	a1,a1,-25
20007812:	3a359073          	csrw	pmpcfg3,a1
20007816:	3a3025f3          	csrr	a1,pmpcfg3
2000781a:	f7f5f593          	andi	a1,a1,-129
2000781e:	3a359073          	csrw	pmpcfg3,a1
20007822:	3bc01073          	csrw	pmpaddr12,zero
20007826:	85aa                	mv	a1,a0
20007828:	c37592e3          	bne	a1,s7,2000744c <kernel::sched::Kernel::kernel_loop+0x3be>
2000782c:	aa1d                	j	20007962 <kernel::sched::Kernel::kernel_loop+0x8d4>
2000782e:	3a1025f3          	csrr	a1,pmpcfg1
20007832:	f2c42603          	lw	a2,-212(s0)
20007836:	8df1                	and	a1,a1,a2
20007838:	3a159073          	csrw	pmpcfg1,a1
2000783c:	3a1025f3          	csrr	a1,pmpcfg1
20007840:	f3042603          	lw	a2,-208(s0)
20007844:	8df1                	and	a1,a1,a2
20007846:	3a159073          	csrw	pmpcfg1,a1
2000784a:	3a1025f3          	csrr	a1,pmpcfg1
2000784e:	f3442603          	lw	a2,-204(s0)
20007852:	8df1                	and	a1,a1,a2
20007854:	3a159073          	csrw	pmpcfg1,a1
20007858:	3a1025f3          	csrr	a1,pmpcfg1
2000785c:	f3842603          	lw	a2,-200(s0)
20007860:	8df1                	and	a1,a1,a2
20007862:	3a159073          	csrw	pmpcfg1,a1
20007866:	3a1025f3          	csrr	a1,pmpcfg1
2000786a:	f3c42603          	lw	a2,-196(s0)
2000786e:	8df1                	and	a1,a1,a2
20007870:	3a159073          	csrw	pmpcfg1,a1
20007874:	3b701073          	csrw	pmpaddr7,zero
20007878:	85aa                	mv	a1,a0
2000787a:	bd7599e3          	bne	a1,s7,2000744c <kernel::sched::Kernel::kernel_loop+0x3be>
2000787e:	a0d5                	j	20007962 <kernel::sched::Kernel::kernel_loop+0x8d4>
20007880:	3a2025f3          	csrr	a1,pmpcfg2
20007884:	99f9                	andi	a1,a1,-2
20007886:	3a259073          	csrw	pmpcfg2,a1
2000788a:	3a2025f3          	csrr	a1,pmpcfg2
2000788e:	99f5                	andi	a1,a1,-3
20007890:	3a259073          	csrw	pmpcfg2,a1
20007894:	3a2025f3          	csrr	a1,pmpcfg2
20007898:	99ed                	andi	a1,a1,-5
2000789a:	3a259073          	csrw	pmpcfg2,a1
2000789e:	3a2025f3          	csrr	a1,pmpcfg2
200078a2:	999d                	andi	a1,a1,-25
200078a4:	3a259073          	csrw	pmpcfg2,a1
200078a8:	3a2025f3          	csrr	a1,pmpcfg2
200078ac:	f7f5f593          	andi	a1,a1,-129
200078b0:	3a259073          	csrw	pmpcfg2,a1
200078b4:	3b801073          	csrw	pmpaddr8,zero
200078b8:	85aa                	mv	a1,a0
200078ba:	b97599e3          	bne	a1,s7,2000744c <kernel::sched::Kernel::kernel_loop+0x3be>
200078be:	a055                	j	20007962 <kernel::sched::Kernel::kernel_loop+0x8d4>
200078c0:	3a0025f3          	csrr	a1,pmpcfg0
200078c4:	f2c42603          	lw	a2,-212(s0)
200078c8:	8df1                	and	a1,a1,a2
200078ca:	3a059073          	csrw	pmpcfg0,a1
200078ce:	3a0025f3          	csrr	a1,pmpcfg0
200078d2:	f3042603          	lw	a2,-208(s0)
200078d6:	8df1                	and	a1,a1,a2
200078d8:	3a059073          	csrw	pmpcfg0,a1
200078dc:	3a0025f3          	csrr	a1,pmpcfg0
200078e0:	f3442603          	lw	a2,-204(s0)
200078e4:	8df1                	and	a1,a1,a2
200078e6:	3a059073          	csrw	pmpcfg0,a1
200078ea:	3a0025f3          	csrr	a1,pmpcfg0
200078ee:	f3842603          	lw	a2,-200(s0)
200078f2:	8df1                	and	a1,a1,a2
200078f4:	3a059073          	csrw	pmpcfg0,a1
200078f8:	3a0025f3          	csrr	a1,pmpcfg0
200078fc:	f3c42603          	lw	a2,-196(s0)
20007900:	8df1                	and	a1,a1,a2
20007902:	3a059073          	csrw	pmpcfg0,a1
20007906:	3b301073          	csrw	pmpaddr3,zero
2000790a:	85aa                	mv	a1,a0
2000790c:	b57590e3          	bne	a1,s7,2000744c <kernel::sched::Kernel::kernel_loop+0x3be>
20007910:	a889                	j	20007962 <kernel::sched::Kernel::kernel_loop+0x8d4>
20007912:	3a0025f3          	csrr	a1,pmpcfg0
20007916:	f1842603          	lw	a2,-232(s0)
2000791a:	8df1                	and	a1,a1,a2
2000791c:	3a059073          	csrw	pmpcfg0,a1
20007920:	3a0025f3          	csrr	a1,pmpcfg0
20007924:	f1c42603          	lw	a2,-228(s0)
20007928:	8df1                	and	a1,a1,a2
2000792a:	3a059073          	csrw	pmpcfg0,a1
2000792e:	3a0025f3          	csrr	a1,pmpcfg0
20007932:	f2042603          	lw	a2,-224(s0)
20007936:	8df1                	and	a1,a1,a2
20007938:	3a059073          	csrw	pmpcfg0,a1
2000793c:	3a0025f3          	csrr	a1,pmpcfg0
20007940:	f2442603          	lw	a2,-220(s0)
20007944:	8df1                	and	a1,a1,a2
20007946:	3a059073          	csrw	pmpcfg0,a1
2000794a:	3a0025f3          	csrr	a1,pmpcfg0
2000794e:	f2842603          	lw	a2,-216(s0)
20007952:	8df1                	and	a1,a1,a2
20007954:	3a059073          	csrw	pmpcfg0,a1
20007958:	3b201073          	csrw	pmpaddr2,zero
2000795c:	85aa                	mv	a1,a0
2000795e:	af7597e3          	bne	a1,s7,2000744c <kernel::sched::Kernel::kernel_loop+0x3be>
20007962:	557d                	li	a0,-1
20007964:	3b051073          	csrw	pmpaddr0,a0
20007968:	3a002573          	csrr	a0,pmpcfg0
2000796c:	00156513          	ori	a0,a0,1
20007970:	3a051073          	csrw	pmpcfg0,a0
20007974:	3a002573          	csrr	a0,pmpcfg0
20007978:	00256513          	ori	a0,a0,2
2000797c:	3a051073          	csrw	pmpcfg0,a0
20007980:	3a002573          	csrr	a0,pmpcfg0
20007984:	00456513          	ori	a0,a0,4
20007988:	3a051073          	csrw	pmpcfg0,a0
2000798c:	3a002573          	csrr	a0,pmpcfg0
20007990:	991d                	andi	a0,a0,-25
20007992:	3a051073          	csrw	pmpcfg0,a0
20007996:	4521                	li	a0,8
20007998:	fa842483          	lw	s1,-88(s0)
2000799c:	00a49a63          	bne	s1,a0,200079b0 <kernel::sched::Kernel::kernel_loop+0x922>
200079a0:	f5442503          	lw	a0,-172(s0)
200079a4:	554c                	lw	a1,44(a0)
200079a6:	f5042503          	lw	a0,-176(s0)
200079aa:	9582                	jalr	a1
200079ac:	44a1                	li	s1,8
200079ae:	b2e1                	j	20007376 <kernel::sched::Kernel::kernel_loop+0x2e8>
200079b0:	ffb48513          	addi	a0,s1,-5
200079b4:	01256463          	bltu	a0,s2,200079bc <kernel::sched::Kernel::kernel_loop+0x92e>
200079b8:	4501                	li	a0,0
200079ba:	a019                	j	200079c0 <kernel::sched::Kernel::kernel_loop+0x932>
200079bc:	ffc48513          	addi	a0,s1,-4
200079c0:	ffe50593          	addi	a1,a0,-2
200079c4:	3db5e063          	bltu	a1,s11,20007d84 <kernel::sched::Kernel::kernel_loop+0xcf6>
200079c8:	fd61                	bnez	a0,200079a0 <kernel::sched::Kernel::kernel_loop+0x912>
200079ca:	f5442503          	lw	a0,-172(s0)
200079ce:	0a452583          	lw	a1,164(a0)
200079d2:	fb842503          	lw	a0,-72(s0)
200079d6:	eea42823          	sw	a0,-272(s0)
200079da:	fb442903          	lw	s2,-76(s0)
200079de:	fb042503          	lw	a0,-80(s0)
200079e2:	eea42c23          	sw	a0,-264(s0)
200079e6:	fac42b83          	lw	s7,-84(s0)
200079ea:	f5042503          	lw	a0,-176(s0)
200079ee:	9582                	jalr	a1
200079f0:	10048963          	beqz	s1,20007b02 <kernel::sched::Kernel::kernel_loop+0xa74>
200079f4:	07848a63          	beq	s1,s8,20007a68 <kernel::sched::Kernel::kernel_loop+0x9da>
200079f8:	11b48c63          	beq	s1,s11,20007b10 <kernel::sched::Kernel::kernel_loop+0xa82>
200079fc:	450d                	li	a0,3
200079fe:	0aa48663          	beq	s1,a0,20007aaa <kernel::sched::Kernel::kernel_loop+0xa1c>
20007a02:	f5442903          	lw	s2,-172(s0)
20007a06:	f5042483          	lw	s1,-176(s0)
20007a0a:	452d                	li	a0,11
20007a0c:	2aab8963          	beq	s7,a0,20007cbe <kernel::sched::Kernel::kernel_loop+0xc30>
20007a10:	2b8b8a63          	beq	s7,s8,20007cc4 <kernel::sched::Kernel::kernel_loop+0xc36>
20007a14:	2dbb8663          	beq	s7,s11,20007ce0 <kernel::sched::Kernel::kernel_loop+0xc52>
20007a18:	458d                	li	a1,3
20007a1a:	2cbb8663          	beq	s7,a1,20007ce6 <kernel::sched::Kernel::kernel_loop+0xc58>
20007a1e:	4591                	li	a1,4
20007a20:	2cbb8663          	beq	s7,a1,20007cec <kernel::sched::Kernel::kernel_loop+0xc5e>
20007a24:	4595                	li	a1,5
20007a26:	2cbb8663          	beq	s7,a1,20007cf2 <kernel::sched::Kernel::kernel_loop+0xc64>
20007a2a:	4599                	li	a1,6
20007a2c:	2cbb8663          	beq	s7,a1,20007cf8 <kernel::sched::Kernel::kernel_loop+0xc6a>
20007a30:	2d4b8763          	beq	s7,s4,20007cfe <kernel::sched::Kernel::kernel_loop+0xc70>
20007a34:	45a1                	li	a1,8
20007a36:	2cbb8b63          	beq	s7,a1,20007d0c <kernel::sched::Kernel::kernel_loop+0xc7e>
20007a3a:	45a5                	li	a1,9
20007a3c:	2ebb8a63          	beq	s7,a1,20007d30 <kernel::sched::Kernel::kernel_loop+0xca2>
20007a40:	45a9                	li	a1,10
20007a42:	30bb8663          	beq	s7,a1,20007d4e <kernel::sched::Kernel::kernel_loop+0xcc0>
20007a46:	300b9b63          	bnez	s7,20007d5c <kernel::sched::Kernel::kernel_loop+0xcce>
20007a4a:	03492683          	lw	a3,52(s2)
20007a4e:	f6840513          	addi	a0,s0,-152
20007a52:	85a6                	mv	a1,s1
20007a54:	ef842603          	lw	a2,-264(s0)
20007a58:	9682                	jalr	a3
20007a5a:	4529                	li	a0,10
20007a5c:	4585                	li	a1,1
20007a5e:	f6844603          	lbu	a2,-152(s0)
20007a62:	2eb61c63          	bne	a2,a1,20007d5a <kernel::sched::Kernel::kernel_loop+0xccc>
20007a66:	acdd                	j	20007d5c <kernel::sched::Kernel::kernel_loop+0xcce>
20007a68:	ef842483          	lw	s1,-264(s0)
20007a6c:	f6942223          	sw	s1,-156(s0)
20007a70:	f5442503          	lw	a0,-172(s0)
20007a74:	4d14                	lw	a3,24(a0)
20007a76:	f5042503          	lw	a0,-176(s0)
20007a7a:	85de                	mv	a1,s7
20007a7c:	8626                	mv	a2,s1
20007a7e:	9682                	jalr	a3
20007a80:	0e090063          	beqz	s2,20007b60 <kernel::sched::Kernel::kernel_loop+0xad2>
20007a84:	f7242e23          	sw	s2,-132(s0)
20007a88:	ef042503          	lw	a0,-272(s0)
20007a8c:	f6a42c23          	sw	a0,-136(s0)
20007a90:	f6942a23          	sw	s1,-140(s0)
20007a94:	f7742823          	sw	s7,-144(s0)
20007a98:	f5c42503          	lw	a0,-164(s0)
20007a9c:	f6a42623          	sw	a0,-148(s0)
20007aa0:	f5842503          	lw	a0,-168(s0)
20007aa4:	f6a42423          	sw	a0,-152(s0)
20007aa8:	a875                	j	20007b64 <kernel::sched::Kernel::kernel_loop+0xad6>
20007aaa:	ef842503          	lw	a0,-264(s0)
20007aae:	f6a42023          	sw	a0,-160(s0)
20007ab2:	f7242223          	sw	s2,-156(s0)
20007ab6:	ef042503          	lw	a0,-272(s0)
20007aba:	f8a42823          	sw	a0,-112(s0)
20007abe:	0c0b8e63          	beqz	s7,20007b9a <kernel::sched::Kernel::kernel_loop+0xb0c>
20007ac2:	118b8763          	beq	s7,s8,20007bd0 <kernel::sched::Kernel::kernel_loop+0xb42>
20007ac6:	4531                	li	a0,12
20007ac8:	29bb9a63          	bne	s7,s11,20007d5c <kernel::sched::Kernel::kernel_loop+0xcce>
20007acc:	f6040513          	addi	a0,s0,-160
20007ad0:	f6a42c23          	sw	a0,-136(s0)
20007ad4:	f5840513          	addi	a0,s0,-168
20007ad8:	f6a42a23          	sw	a0,-140(s0)
20007adc:	f9040513          	addi	a0,s0,-112
20007ae0:	f6a42823          	sw	a0,-144(s0)
20007ae4:	f6440513          	addi	a0,s0,-156
20007ae8:	f6a42623          	sw	a0,-148(s0)
20007aec:	f5040513          	addi	a0,s0,-176
20007af0:	f6a42423          	sw	a0,-152(s0)
20007af4:	f6840513          	addi	a0,s0,-152
20007af8:	f0c42583          	lw	a1,-244(s0)
20007afc:	ee442603          	lw	a2,-284(s0)
20007b00:	a211                	j	20007c04 <kernel::sched::Kernel::kernel_loop+0xb76>
20007b02:	f5442503          	lw	a0,-172(s0)
20007b06:	510c                	lw	a1,32(a0)
20007b08:	f5042503          	lw	a0,-176(s0)
20007b0c:	9582                	jalr	a1
20007b0e:	a49d                	j	20007d74 <kernel::sched::Kernel::kernel_loop+0xce6>
20007b10:	ef842503          	lw	a0,-264(s0)
20007b14:	f6a42023          	sw	a0,-160(s0)
20007b18:	f7242223          	sw	s2,-156(s0)
20007b1c:	ef042503          	lw	a0,-272(s0)
20007b20:	f8a42823          	sw	a0,-112(s0)
20007b24:	0e0b8563          	beqz	s7,20007c0e <kernel::sched::Kernel::kernel_loop+0xb80>
20007b28:	f9040613          	addi	a2,s0,-112
20007b2c:	118b8863          	beq	s7,s8,20007c3c <kernel::sched::Kernel::kernel_loop+0xbae>
20007b30:	4531                	li	a0,12
20007b32:	23bb9563          	bne	s7,s11,20007d5c <kernel::sched::Kernel::kernel_loop+0xcce>
20007b36:	f5840513          	addi	a0,s0,-168
20007b3a:	f6a42a23          	sw	a0,-140(s0)
20007b3e:	f6c42823          	sw	a2,-144(s0)
20007b42:	f6440513          	addi	a0,s0,-156
20007b46:	f6a42623          	sw	a0,-148(s0)
20007b4a:	f6040513          	addi	a0,s0,-160
20007b4e:	f6a42423          	sw	a0,-152(s0)
20007b52:	f6840513          	addi	a0,s0,-152
20007b56:	f0c42583          	lw	a1,-244(s0)
20007b5a:	ee442603          	lw	a2,-284(s0)
20007b5e:	a219                	j	20007c64 <kernel::sched::Kernel::kernel_loop+0xbd6>
20007b60:	f6042423          	sw	zero,-152(s0)
20007b64:	f9040613          	addi	a2,s0,-112
20007b68:	100b8363          	beqz	s7,20007c6e <kernel::sched::Kernel::kernel_loop+0xbe0>
20007b6c:	138b8363          	beq	s7,s8,20007c92 <kernel::sched::Kernel::kernel_loop+0xc04>
20007b70:	4531                	li	a0,12
20007b72:	1fbb9563          	bne	s7,s11,20007d5c <kernel::sched::Kernel::kernel_loop+0xcce>
20007b76:	f5840513          	addi	a0,s0,-168
20007b7a:	f8a42c23          	sw	a0,-104(s0)
20007b7e:	f6840513          	addi	a0,s0,-152
20007b82:	f8a42a23          	sw	a0,-108(s0)
20007b86:	f6440513          	addi	a0,s0,-156
20007b8a:	f8a42823          	sw	a0,-112(s0)
20007b8e:	8532                	mv	a0,a2
20007b90:	f0c42583          	lw	a1,-244(s0)
20007b94:	ee442603          	lw	a2,-284(s0)
20007b98:	aa31                	j	20007cb4 <kernel::sched::Kernel::kernel_loop+0xc26>
20007b9a:	f6040513          	addi	a0,s0,-160
20007b9e:	f6a42c23          	sw	a0,-136(s0)
20007ba2:	f5840513          	addi	a0,s0,-168
20007ba6:	f6a42a23          	sw	a0,-140(s0)
20007baa:	f9040513          	addi	a0,s0,-112
20007bae:	f6a42823          	sw	a0,-144(s0)
20007bb2:	f6440513          	addi	a0,s0,-156
20007bb6:	f6a42623          	sw	a0,-148(s0)
20007bba:	f5040513          	addi	a0,s0,-176
20007bbe:	f6a42423          	sw	a0,-152(s0)
20007bc2:	f6840513          	addi	a0,s0,-152
20007bc6:	f0442583          	lw	a1,-252(s0)
20007bca:	eec42603          	lw	a2,-276(s0)
20007bce:	a81d                	j	20007c04 <kernel::sched::Kernel::kernel_loop+0xb76>
20007bd0:	f6040513          	addi	a0,s0,-160
20007bd4:	f6a42c23          	sw	a0,-136(s0)
20007bd8:	f5840513          	addi	a0,s0,-168
20007bdc:	f6a42a23          	sw	a0,-140(s0)
20007be0:	f9040513          	addi	a0,s0,-112
20007be4:	f6a42823          	sw	a0,-144(s0)
20007be8:	f6440513          	addi	a0,s0,-156
20007bec:	f6a42623          	sw	a0,-148(s0)
20007bf0:	f5040513          	addi	a0,s0,-176
20007bf4:	f6a42423          	sw	a0,-152(s0)
20007bf8:	f6840513          	addi	a0,s0,-152
20007bfc:	f0842583          	lw	a1,-248(s0)
20007c00:	ee842603          	lw	a2,-280(s0)
20007c04:	00000097          	auipc	ra,0x0
20007c08:	2a0080e7          	jalr	672(ra) # 20007ea4 <kernel::sched::Kernel::do_process::{{closure}}>
20007c0c:	aa81                	j	20007d5c <kernel::sched::Kernel::kernel_loop+0xcce>
20007c0e:	f5840513          	addi	a0,s0,-168
20007c12:	f6a42a23          	sw	a0,-140(s0)
20007c16:	f9040513          	addi	a0,s0,-112
20007c1a:	f6a42823          	sw	a0,-144(s0)
20007c1e:	f6440513          	addi	a0,s0,-156
20007c22:	f6a42623          	sw	a0,-148(s0)
20007c26:	f6040513          	addi	a0,s0,-160
20007c2a:	f6a42423          	sw	a0,-152(s0)
20007c2e:	f6840513          	addi	a0,s0,-152
20007c32:	f0442583          	lw	a1,-252(s0)
20007c36:	eec42603          	lw	a2,-276(s0)
20007c3a:	a02d                	j	20007c64 <kernel::sched::Kernel::kernel_loop+0xbd6>
20007c3c:	f5840513          	addi	a0,s0,-168
20007c40:	f6a42a23          	sw	a0,-140(s0)
20007c44:	f6c42823          	sw	a2,-144(s0)
20007c48:	f6440513          	addi	a0,s0,-156
20007c4c:	f6a42623          	sw	a0,-148(s0)
20007c50:	f6040513          	addi	a0,s0,-160
20007c54:	f6a42423          	sw	a0,-152(s0)
20007c58:	f6840513          	addi	a0,s0,-152
20007c5c:	f0842583          	lw	a1,-248(s0)
20007c60:	ee842603          	lw	a2,-280(s0)
20007c64:	00000097          	auipc	ra,0x0
20007c68:	352080e7          	jalr	850(ra) # 20007fb6 <kernel::sched::Kernel::do_process::{{closure}}>
20007c6c:	a8c5                	j	20007d5c <kernel::sched::Kernel::kernel_loop+0xcce>
20007c6e:	f5840513          	addi	a0,s0,-168
20007c72:	f8a42c23          	sw	a0,-104(s0)
20007c76:	f6840513          	addi	a0,s0,-152
20007c7a:	f8a42a23          	sw	a0,-108(s0)
20007c7e:	f6440513          	addi	a0,s0,-156
20007c82:	f8a42823          	sw	a0,-112(s0)
20007c86:	8532                	mv	a0,a2
20007c88:	f0442583          	lw	a1,-252(s0)
20007c8c:	eec42603          	lw	a2,-276(s0)
20007c90:	a015                	j	20007cb4 <kernel::sched::Kernel::kernel_loop+0xc26>
20007c92:	f5840513          	addi	a0,s0,-168
20007c96:	f8a42c23          	sw	a0,-104(s0)
20007c9a:	f6840513          	addi	a0,s0,-152
20007c9e:	f8a42a23          	sw	a0,-108(s0)
20007ca2:	f6440513          	addi	a0,s0,-156
20007ca6:	f8a42823          	sw	a0,-112(s0)
20007caa:	8532                	mv	a0,a2
20007cac:	f0842583          	lw	a1,-248(s0)
20007cb0:	ee842603          	lw	a2,-280(s0)
20007cb4:	00000097          	auipc	ra,0x0
20007cb8:	2a8080e7          	jalr	680(ra) # 20007f5c <kernel::sched::Kernel::do_process::{{closure}}>
20007cbc:	a045                	j	20007d5c <kernel::sched::Kernel::kernel_loop+0xcce>
20007cbe:	05c92603          	lw	a2,92(s2)
20007cc2:	a841                	j	20007d52 <kernel::sched::Kernel::kernel_loop+0xcc4>
20007cc4:	03892683          	lw	a3,56(s2)
20007cc8:	f6840513          	addi	a0,s0,-152
20007ccc:	85a6                	mv	a1,s1
20007cce:	ef842603          	lw	a2,-264(s0)
20007cd2:	9682                	jalr	a3
20007cd4:	f6844503          	lbu	a0,-152(s0)
20007cd8:	0b851163          	bne	a0,s8,20007d7a <kernel::sched::Kernel::kernel_loop+0xcec>
20007cdc:	4529                	li	a0,10
20007cde:	a8bd                	j	20007d5c <kernel::sched::Kernel::kernel_loop+0xcce>
20007ce0:	03c92583          	lw	a1,60(s2)
20007ce4:	a839                	j	20007d02 <kernel::sched::Kernel::kernel_loop+0xc74>
20007ce6:	04092583          	lw	a1,64(s2)
20007cea:	a821                	j	20007d02 <kernel::sched::Kernel::kernel_loop+0xc74>
20007cec:	04492583          	lw	a1,68(s2)
20007cf0:	a809                	j	20007d02 <kernel::sched::Kernel::kernel_loop+0xc74>
20007cf2:	04892583          	lw	a1,72(s2)
20007cf6:	a031                	j	20007d02 <kernel::sched::Kernel::kernel_loop+0xc74>
20007cf8:	04c92583          	lw	a1,76(s2)
20007cfc:	a019                	j	20007d02 <kernel::sched::Kernel::kernel_loop+0xc74>
20007cfe:	05092583          	lw	a1,80(s2)
20007d02:	8526                	mv	a0,s1
20007d04:	9582                	jalr	a1
20007d06:	85aa                	mv	a1,a0
20007d08:	4501                	li	a0,0
20007d0a:	a889                	j	20007d5c <kernel::sched::Kernel::kernel_loop+0xcce>
20007d0c:	04492583          	lw	a1,68(s2)
20007d10:	8526                	mv	a0,s1
20007d12:	9582                	jalr	a1
20007d14:	8baa                	mv	s7,a0
20007d16:	05492603          	lw	a2,84(s2)
20007d1a:	8526                	mv	a0,s1
20007d1c:	ef842583          	lw	a1,-264(s0)
20007d20:	9602                	jalr	a2
20007d22:	862e                	mv	a2,a1
20007d24:	017505b3          	add	a1,a0,s7
20007d28:	00163513          	seqz	a0,a2
20007d2c:	0506                	slli	a0,a0,0x1
20007d2e:	a03d                	j	20007d5c <kernel::sched::Kernel::kernel_loop+0xcce>
20007d30:	04492583          	lw	a1,68(s2)
20007d34:	8526                	mv	a0,s1
20007d36:	9582                	jalr	a1
20007d38:	8baa                	mv	s7,a0
20007d3a:	05492603          	lw	a2,84(s2)
20007d3e:	8526                	mv	a0,s1
20007d40:	ef842583          	lw	a1,-264(s0)
20007d44:	9602                	jalr	a2
20007d46:	cd8d                	beqz	a1,20007d80 <kernel::sched::Kernel::kernel_loop+0xcf2>
20007d48:	955e                	add	a0,a0,s7
20007d4a:	95aa                	add	a1,a1,a0
20007d4c:	bf75                	j	20007d08 <kernel::sched::Kernel::kernel_loop+0xc7a>
20007d4e:	05892603          	lw	a2,88(s2)
20007d52:	8526                	mv	a0,s1
20007d54:	ef842583          	lw	a1,-264(s0)
20007d58:	9602                	jalr	a2
20007d5a:	4505                	li	a0,1
20007d5c:	f5042903          	lw	s2,-176(s0)
20007d60:	f5442483          	lw	s1,-172(s0)
20007d64:	ffffe097          	auipc	ra,0xffffe
20007d68:	572080e7          	jalr	1394(ra) # 200062d6 <kernel::returncode::<impl core::convert::From<kernel::returncode::ReturnCode> for isize>::from>
20007d6c:	85aa                	mv	a1,a0
20007d6e:	5cf0                	lw	a2,124(s1)
20007d70:	854a                	mv	a0,s2
20007d72:	9602                	jalr	a2
20007d74:	490d                	li	s2,3
20007d76:	eacff06f          	j	20007422 <kernel::sched::Kernel::kernel_loop+0x394>
20007d7a:	f6c42583          	lw	a1,-148(s0)
20007d7e:	b769                	j	20007d08 <kernel::sched::Kernel::kernel_loop+0xc7a>
20007d80:	4509                	li	a0,2
20007d82:	bfe9                	j	20007d5c <kernel::sched::Kernel::kernel_loop+0xcce>
20007d84:	44a1                	li	s1,8
20007d86:	34402573          	csrr	a0,mip
20007d8a:	01657533          	and	a0,a0,s6
20007d8e:	f4442583          	lw	a1,-188(s0)
20007d92:	ed11                	bnez	a0,20007dae <kernel::sched::Kernel::kernel_loop+0xd20>
20007d94:	cd8aa503          	lw	a0,-808(s5) # 10001cd8 <kernel::common::dynamic_deferred_call::DYNAMIC_DEFERRED_CALL>
20007d98:	c501                	beqz	a0,20007da0 <kernel::sched::Kernel::kernel_loop+0xd12>
20007d9a:	00c54503          	lbu	a0,12(a0)
20007d9e:	a011                	j	20007da2 <kernel::sched::Kernel::kernel_loop+0xd14>
20007da0:	4509                	li	a0,2
20007da2:	05a1                	addi	a1,a1,8
20007da4:	d9b50963          	beq	a0,s11,20007336 <kernel::sched::Kernel::kernel_loop+0x2a8>
20007da8:	8905                	andi	a0,a0,1
20007daa:	d8050663          	beqz	a0,20007336 <kernel::sched::Kernel::kernel_loop+0x2a8>
20007dae:	30002573          	csrr	a0,mstatus
20007db2:	00857593          	andi	a1,a0,8
20007db6:	c589                	beqz	a1,20007dc0 <kernel::sched::Kernel::kernel_loop+0xd32>
20007db8:	ff757613          	andi	a2,a0,-9
20007dbc:	30061073          	csrw	mstatus,a2
20007dc0:	34402673          	csrr	a2,mip
20007dc4:	01667633          	and	a2,a2,s6
20007dc8:	ca09                	beqz	a2,20007dda <kernel::sched::Kernel::kernel_loop+0xd4c>
20007dca:	bc058d63          	beqz	a1,200071a4 <kernel::sched::Kernel::kernel_loop+0x116>
20007dce:	00856513          	ori	a0,a0,8
20007dd2:	30051073          	csrw	mstatus,a0
20007dd6:	bceff06f          	j	200071a4 <kernel::sched::Kernel::kernel_loop+0x116>
20007dda:	cd8aa603          	lw	a2,-808(s5)
20007dde:	c601                	beqz	a2,20007de6 <kernel::sched::Kernel::kernel_loop+0xd58>
20007de0:	00c64603          	lbu	a2,12(a2) # 1000c <.Lline_table_start0+0x361>
20007de4:	f27d                	bnez	a2,20007dca <kernel::sched::Kernel::kernel_loop+0xd3c>
20007de6:	10002637          	lui	a2,0x10002
20007dea:	1fc62603          	lw	a2,508(a2) # 100021fc <opentitan::reset_handler::BUF>
20007dee:	fe71                	bnez	a2,20007dca <kernel::sched::Kernel::kernel_loop+0xd3c>
20007df0:	10500073          	wfi
20007df4:	ba058863          	beqz	a1,200071a4 <kernel::sched::Kernel::kernel_loop+0x116>
20007df8:	bfd9                	j	20007dce <kernel::sched::Kernel::kernel_loop+0xd40>
20007dfa:	2000c537          	lui	a0,0x2000c
20007dfe:	ead50513          	addi	a0,a0,-339 # 2000bead <.L__unnamed_50>
20007e02:	100025b7          	lui	a1,0x10002
20007e06:	a0c58613          	addi	a2,a1,-1524 # 10001a0c <.L__unnamed_43>
20007e0a:	02600593          	li	a1,38
20007e0e:	ffffc097          	auipc	ra,0xffffc
20007e12:	bf0080e7          	jalr	-1040(ra) # 200039fe <core::panicking::panic>
20007e16:	00004097          	auipc	ra,0x4
20007e1a:	316080e7          	jalr	790(ra) # 2000c12c <abort>
20007e1e:	00000097          	auipc	ra,0x0
20007e22:	010080e7          	jalr	16(ra) # 20007e2e <kernel::sched::Kernel::do_process::{{closure}}>
20007e26:	00004097          	auipc	ra,0x4
20007e2a:	306080e7          	jalr	774(ra) # 2000c12c <abort>

20007e2e <kernel::sched::Kernel::do_process::{{closure}}>:
20007e2e:	1141                	addi	sp,sp,-16
20007e30:	c606                	sw	ra,12(sp)
20007e32:	c422                	sw	s0,8(sp)
20007e34:	0800                	addi	s0,sp,16
20007e36:	2000c537          	lui	a0,0x2000c
20007e3a:	ef150513          	addi	a0,a0,-271 # 2000bef1 <.L__unnamed_51>
20007e3e:	100025b7          	lui	a1,0x10002
20007e42:	a0c58613          	addi	a2,a1,-1524 # 10001a0c <.L__unnamed_43>
20007e46:	02e00593          	li	a1,46
20007e4a:	ffffc097          	auipc	ra,0xffffc
20007e4e:	bb4080e7          	jalr	-1100(ra) # 200039fe <core::panicking::panic>
20007e52:	00004097          	auipc	ra,0x4
20007e56:	2da080e7          	jalr	730(ra) # 2000c12c <abort>

20007e5a <kernel::sched::Kernel::create_grant>:
20007e5a:	1141                	addi	sp,sp,-16
20007e5c:	c606                	sw	ra,12(sp)
20007e5e:	c422                	sw	s0,8(sp)
20007e60:	0800                	addi	s0,sp,16
20007e62:	10002537          	lui	a0,0x10002
20007e66:	1fc50593          	addi	a1,a0,508 # 100021fc <opentitan::reset_handler::BUF>
20007e6a:	0105c503          	lbu	a0,16(a1)
20007e6e:	e909                	bnez	a0,20007e80 <kernel::sched::Kernel::create_grant+0x26>
20007e70:	45c8                	lw	a0,12(a1)
20007e72:	00150613          	addi	a2,a0,1
20007e76:	c5d0                	sw	a2,12(a1)
20007e78:	4422                	lw	s0,8(sp)
20007e7a:	40b2                	lw	ra,12(sp)
20007e7c:	0141                	addi	sp,sp,16
20007e7e:	8082                	ret
20007e80:	2000c537          	lui	a0,0x2000c
20007e84:	f1f50513          	addi	a0,a0,-225 # 2000bf1f <.L__unnamed_42>
20007e88:	100025b7          	lui	a1,0x10002
20007e8c:	a0c58613          	addi	a2,a1,-1524 # 10001a0c <.L__unnamed_43>
20007e90:	02c00593          	li	a1,44
20007e94:	ffffc097          	auipc	ra,0xffffc
20007e98:	b6a080e7          	jalr	-1174(ra) # 200039fe <core::panicking::panic>
20007e9c:	00004097          	auipc	ra,0x4
20007ea0:	290080e7          	jalr	656(ra) # 2000c12c <abort>

20007ea4 <kernel::sched::Kernel::do_process::{{closure}}>:
20007ea4:	7139                	addi	sp,sp,-64
20007ea6:	de06                	sw	ra,60(sp)
20007ea8:	dc22                	sw	s0,56(sp)
20007eaa:	da26                	sw	s1,52(sp)
20007eac:	d84a                	sw	s2,48(sp)
20007eae:	d64e                	sw	s3,44(sp)
20007eb0:	0080                	addi	s0,sp,64
20007eb2:	c98d                	beqz	a1,20007ee4 <kernel::sched::Kernel::do_process::{{closure}}+0x40>
20007eb4:	8932                	mv	s2,a2
20007eb6:	89ae                	mv	s3,a1
20007eb8:	84aa                	mv	s1,a0
20007eba:	4508                	lw	a0,8(a0)
20007ebc:	4114                	lw	a3,0(a0)
20007ebe:	40c8                	lw	a0,4(s1)
20007ec0:	4110                	lw	a2,0(a0)
20007ec2:	4088                	lw	a0,0(s1)
20007ec4:	410c                	lw	a1,0(a0)
20007ec6:	4148                	lw	a0,4(a0)
20007ec8:	5138                	lw	a4,96(a0)
20007eca:	fc040513          	addi	a0,s0,-64
20007ece:	9702                	jalr	a4
20007ed0:	4505                	li	a0,1
20007ed2:	fc042583          	lw	a1,-64(s0)
20007ed6:	00a59963          	bne	a1,a0,20007ee8 <kernel::sched::Kernel::do_process::{{closure}}+0x44>
20007eda:	fc842583          	lw	a1,-56(s0)
20007ede:	fc442503          	lw	a0,-60(s0)
20007ee2:	a835                	j	20007f1e <kernel::sched::Kernel::do_process::{{closure}}+0x7a>
20007ee4:	4531                	li	a0,12
20007ee6:	a825                	j	20007f1e <kernel::sched::Kernel::do_process::{{closure}}+0x7a>
20007ee8:	4888                	lw	a0,16(s1)
20007eea:	4114                	lw	a3,0(a0)
20007eec:	44c8                	lw	a0,12(s1)
20007eee:	4150                	lw	a2,4(a0)
20007ef0:	410c                	lw	a1,0(a0)
20007ef2:	fd042503          	lw	a0,-48(s0)
20007ef6:	fea42223          	sw	a0,-28(s0)
20007efa:	fcc42503          	lw	a0,-52(s0)
20007efe:	fea42023          	sw	a0,-32(s0)
20007f02:	fc842503          	lw	a0,-56(s0)
20007f06:	fca42e23          	sw	a0,-36(s0)
20007f0a:	fc442503          	lw	a0,-60(s0)
20007f0e:	fca42c23          	sw	a0,-40(s0)
20007f12:	01492783          	lw	a5,20(s2)
20007f16:	fd840713          	addi	a4,s0,-40
20007f1a:	854e                	mv	a0,s3
20007f1c:	9782                	jalr	a5
20007f1e:	59b2                	lw	s3,44(sp)
20007f20:	5942                	lw	s2,48(sp)
20007f22:	54d2                	lw	s1,52(sp)
20007f24:	5462                	lw	s0,56(sp)
20007f26:	50f2                	lw	ra,60(sp)
20007f28:	6121                	addi	sp,sp,64
20007f2a:	8082                	ret

20007f2c <core::ptr::real_drop_in_place>:
20007f2c:	1141                	addi	sp,sp,-16
20007f2e:	c606                	sw	ra,12(sp)
20007f30:	c422                	sw	s0,8(sp)
20007f32:	0800                	addi	s0,sp,16
20007f34:	4422                	lw	s0,8(sp)
20007f36:	40b2                	lw	ra,12(sp)
20007f38:	0141                	addi	sp,sp,16
20007f3a:	8082                	ret

20007f3c <core::ptr::real_drop_in_place>:
20007f3c:	1141                	addi	sp,sp,-16
20007f3e:	c606                	sw	ra,12(sp)
20007f40:	c422                	sw	s0,8(sp)
20007f42:	0800                	addi	s0,sp,16
20007f44:	4422                	lw	s0,8(sp)
20007f46:	40b2                	lw	ra,12(sp)
20007f48:	0141                	addi	sp,sp,16
20007f4a:	8082                	ret

20007f4c <core::ptr::real_drop_in_place>:
20007f4c:	1141                	addi	sp,sp,-16
20007f4e:	c606                	sw	ra,12(sp)
20007f50:	c422                	sw	s0,8(sp)
20007f52:	0800                	addi	s0,sp,16
20007f54:	4422                	lw	s0,8(sp)
20007f56:	40b2                	lw	ra,12(sp)
20007f58:	0141                	addi	sp,sp,16
20007f5a:	8082                	ret

20007f5c <kernel::sched::Kernel::do_process::{{closure}}>:
20007f5c:	7139                	addi	sp,sp,-64
20007f5e:	de06                	sw	ra,60(sp)
20007f60:	dc22                	sw	s0,56(sp)
20007f62:	da26                	sw	s1,52(sp)
20007f64:	d84a                	sw	s2,48(sp)
20007f66:	d64e                	sw	s3,44(sp)
20007f68:	d452                	sw	s4,40(sp)
20007f6a:	d256                	sw	s5,36(sp)
20007f6c:	0080                	addi	s0,sp,64
20007f6e:	c995                	beqz	a1,20007fa2 <kernel::sched::Kernel::do_process::{{closure}}+0x46>
20007f70:	8932                	mv	s2,a2
20007f72:	89ae                	mv	s3,a1
20007f74:	84aa                	mv	s1,a0
20007f76:	4108                	lw	a0,0(a0)
20007f78:	00052a03          	lw	s4,0(a0)
20007f7c:	40cc                	lw	a1,4(s1)
20007f7e:	fc840a93          	addi	s5,s0,-56
20007f82:	8556                	mv	a0,s5
20007f84:	4661                	li	a2,24
20007f86:	00001097          	auipc	ra,0x1
20007f8a:	6e0080e7          	jalr	1760(ra) # 20009666 <memcpy>
20007f8e:	00c92783          	lw	a5,12(s2)
20007f92:	4488                	lw	a0,8(s1)
20007f94:	4114                	lw	a3,0(a0)
20007f96:	4158                	lw	a4,4(a0)
20007f98:	854e                	mv	a0,s3
20007f9a:	85d2                	mv	a1,s4
20007f9c:	8656                	mv	a2,s5
20007f9e:	9782                	jalr	a5
20007fa0:	a011                	j	20007fa4 <kernel::sched::Kernel::do_process::{{closure}}+0x48>
20007fa2:	4531                	li	a0,12
20007fa4:	5a92                	lw	s5,36(sp)
20007fa6:	5a22                	lw	s4,40(sp)
20007fa8:	59b2                	lw	s3,44(sp)
20007faa:	5942                	lw	s2,48(sp)
20007fac:	54d2                	lw	s1,52(sp)
20007fae:	5462                	lw	s0,56(sp)
20007fb0:	50f2                	lw	ra,60(sp)
20007fb2:	6121                	addi	sp,sp,64
20007fb4:	8082                	ret

20007fb6 <kernel::sched::Kernel::do_process::{{closure}}>:
20007fb6:	1141                	addi	sp,sp,-16
20007fb8:	c606                	sw	ra,12(sp)
20007fba:	c422                	sw	s0,8(sp)
20007fbc:	0800                	addi	s0,sp,16
20007fbe:	c18d                	beqz	a1,20007fe0 <kernel::sched::Kernel::do_process::{{closure}}+0x2a>
20007fc0:	01062883          	lw	a7,16(a2)
20007fc4:	4550                	lw	a2,12(a0)
20007fc6:	425c                	lw	a5,4(a2)
20007fc8:	4218                	lw	a4,0(a2)
20007fca:	4510                	lw	a2,8(a0)
20007fcc:	4214                	lw	a3,0(a2)
20007fce:	4150                	lw	a2,4(a0)
20007fd0:	4210                	lw	a2,0(a2)
20007fd2:	4108                	lw	a0,0(a0)
20007fd4:	00052803          	lw	a6,0(a0)
20007fd8:	852e                	mv	a0,a1
20007fda:	85c2                	mv	a1,a6
20007fdc:	9882                	jalr	a7
20007fde:	a011                	j	20007fe2 <kernel::sched::Kernel::do_process::{{closure}}+0x2c>
20007fe0:	4531                	li	a0,12
20007fe2:	4422                	lw	s0,8(sp)
20007fe4:	40b2                	lw	ra,12(sp)
20007fe6:	0141                	addi	sp,sp,16
20007fe8:	8082                	ret

20007fea <reset_handler>:
20007fea:	715d                	addi	sp,sp,-80
20007fec:	c686                	sw	ra,76(sp)
20007fee:	c4a2                	sw	s0,72(sp)
20007ff0:	c2a6                	sw	s1,68(sp)
20007ff2:	c0ca                	sw	s2,64(sp)
20007ff4:	de4e                	sw	s3,60(sp)
20007ff6:	dc52                	sw	s4,56(sp)
20007ff8:	da56                	sw	s5,52(sp)
20007ffa:	d85a                	sw	s6,48(sp)
20007ffc:	d65e                	sw	s7,44(sp)
20007ffe:	d462                	sw	s8,40(sp)
20008000:	d266                	sw	s9,36(sp)
20008002:	d06a                	sw	s10,32(sp)
20008004:	0880                	addi	s0,sp,80
20008006:	2000c537          	lui	a0,0x2000c
2000800a:	20050513          	addi	a0,a0,512 # 2000c200 <_estorage>
2000800e:	100015b7          	lui	a1,0x10001
20008012:	00058593          	mv	a1,a1
20008016:	10002637          	lui	a2,0x10002
2000801a:	c0860613          	addi	a2,a2,-1016 # 10001c08 <_erelocate>
2000801e:	00c5f863          	bgeu	a1,a2,2000802e <reset_handler+0x44>
20008022:	4114                	lw	a3,0(a0)
20008024:	c194                	sw	a3,0(a1)
20008026:	0511                	addi	a0,a0,4
20008028:	0591                	addi	a1,a1,4
2000802a:	fec5ece3          	bltu	a1,a2,20008022 <reset_handler+0x38>
2000802e:	10002537          	lui	a0,0x10002
20008032:	c0850513          	addi	a0,a0,-1016 # 10001c08 <_erelocate>
20008036:	100025b7          	lui	a1,0x10002
2000803a:	39858593          	addi	a1,a1,920 # 10002398 <_ezero>
2000803e:	00b57763          	bgeu	a0,a1,2000804c <reset_handler+0x62>
20008042:	00052023          	sw	zero,0(a0)
20008046:	0511                	addi	a0,a0,4
20008048:	feb56de3          	bltu	a0,a1,20008042 <reset_handler+0x58>
2000804c:	20000537          	lui	a0,0x20000
20008050:	10050513          	addi	a0,a0,256 # 20000100 <_start_trap_vectored>
20008054:	9971                	andi	a0,a0,-4
20008056:	00156513          	ori	a0,a0,1
2000805a:	30551073          	csrw	mtvec,a0
2000805e:	10002537          	lui	a0,0x10002
20008062:	1fc50993          	addi	s3,a0,508 # 100021fc <opentitan::reset_handler::BUF>
20008066:	4591                	li	a1,4
20008068:	00b9a423          	sw	a1,8(s3)
2000806c:	100025b7          	lui	a1,0x10002
20008070:	1dc58593          	addi	a1,a1,476 # 100021dc <opentitan::PROCESSES>
20008074:	00b9a223          	sw	a1,4(s3)
20008078:	00098823          	sb	zero,16(s3)
2000807c:	0009a623          	sw	zero,12(s3)
20008080:	1e052e23          	sw	zero,508(a0)
20008084:	10002537          	lui	a0,0x10002
20008088:	20052823          	sw	zero,528(a0) # 10002210 <opentitan::reset_handler::BUF>
2000808c:	21050513          	addi	a0,a0,528
20008090:	00050423          	sb	zero,8(a0)
20008094:	100025b7          	lui	a1,0x10002
20008098:	20a5ae23          	sw	a0,540(a1) # 1000221c <opentitan::reset_handler::BUF>
2000809c:	21c58493          	addi	s1,a1,540
200080a0:	4905                	li	s2,1
200080a2:	0124a223          	sw	s2,4(s1)
200080a6:	00048623          	sb	zero,12(s1)
200080aa:	0004a423          	sw	zero,8(s1)
200080ae:	10002537          	lui	a0,0x10002
200080b2:	cd852583          	lw	a1,-808(a0) # 10001cd8 <kernel::common::dynamic_deferred_call::DYNAMIC_DEFERRED_CALL>
200080b6:	e581                	bnez	a1,200080be <reset_handler+0xd4>
200080b8:	cd850513          	addi	a0,a0,-808
200080bc:	c104                	sw	s1,0(a0)
200080be:	10002537          	lui	a0,0x10002
200080c2:	22052623          	sw	zero,556(a0) # 1000222c <opentitan::reset_handler::BUF>
200080c6:	22c50513          	addi	a0,a0,556
200080ca:	4589                	li	a1,2
200080cc:	0ab52023          	sw	a1,160(a0)
200080d0:	45fd                	li	a1,31
200080d2:	08b52c23          	sw	a1,152(a0)
200080d6:	08b52223          	sw	a1,132(a0)
200080da:	d92c                	sw	a1,112(a0)
200080dc:	cd6c                	sw	a1,92(a0)
200080de:	c52c                	sw	a1,72(a0)
200080e0:	d94c                	sw	a1,52(a0)
200080e2:	d10c                	sw	a1,32(a0)
200080e4:	c54c                	sw	a1,12(a0)
200080e6:	08052e23          	sw	zero,156(a0)
200080ea:	08052623          	sw	zero,140(a0)
200080ee:	08052423          	sw	zero,136(a0)
200080f2:	06052c23          	sw	zero,120(a0)
200080f6:	06052a23          	sw	zero,116(a0)
200080fa:	06052223          	sw	zero,100(a0)
200080fe:	06052023          	sw	zero,96(a0)
20008102:	04052823          	sw	zero,80(a0)
20008106:	04052623          	sw	zero,76(a0)
2000810a:	02052e23          	sw	zero,60(a0)
2000810e:	02052c23          	sw	zero,56(a0)
20008112:	02052423          	sw	zero,40(a0)
20008116:	02052223          	sw	zero,36(a0)
2000811a:	00052a23          	sw	zero,20(a0)
2000811e:	00052823          	sw	zero,16(a0)
20008122:	ffffd097          	auipc	ra,0xffffd
20008126:	5b4080e7          	jalr	1460(ra) # 200056d6 <ibex::chip::Ibex::enable_plic_interrupts>
2000812a:	6505                	lui	a0,0x1
2000812c:	88850513          	addi	a0,a0,-1912 # 888 <MPU_MIN_ALIGN+0x488>
20008130:	304025f3          	csrr	a1,mie
20008134:	8d4d                	or	a0,a0,a1
20008136:	30451073          	csrw	mie,a0
2000813a:	30002573          	csrr	a0,mstatus
2000813e:	00856513          	ori	a0,a0,8
20008142:	30051073          	csrw	mstatus,a0
20008146:	fc942223          	sw	s1,-60(s0)
2000814a:	6509                	lui	a0,0x2
2000814c:	58050513          	addi	a0,a0,1408 # 2580 <.Lline_table_start7+0xb4>
20008150:	fca42023          	sw	a0,-64(s0)
20008154:	10002537          	lui	a0,0x10002
20008158:	ab850513          	addi	a0,a0,-1352 # 10001ab8 <.L__unnamed_8>
2000815c:	faa42e23          	sw	a0,-68(s0)
20008160:	10002537          	lui	a0,0x10002
20008164:	8d050513          	addi	a0,a0,-1840 # 100018d0 <ibex::uart::UART0>
20008168:	faa42c23          	sw	a0,-72(s0)
2000816c:	fb840513          	addi	a0,s0,-72
20008170:	ffffb097          	auipc	ra,0xffffb
20008174:	5aa080e7          	jalr	1450(ra) # 2000371a <<components::console::UartMuxComponent as kernel::component::Component>::finalize>
20008178:	10001537          	lui	a0,0x10001
2000817c:	65050513          	addi	a0,a0,1616 # 10001650 <ibex::gpio::PORT>
20008180:	08c50593          	addi	a1,a0,140
20008184:	10002637          	lui	a2,0x10002
20008188:	2cb62823          	sw	a1,720(a2) # 100022d0 <opentitan::reset_handler::BUF>
2000818c:	2d060593          	addi	a1,a2,720
20008190:	11850613          	addi	a2,a0,280
20008194:	c9f0                	sw	a2,84(a1)
20008196:	10450613          	addi	a2,a0,260
2000819a:	c5b0                	sw	a2,72(a1)
2000819c:	0f050613          	addi	a2,a0,240
200081a0:	ddd0                	sw	a2,60(a1)
200081a2:	0c850613          	addi	a2,a0,200
200081a6:	d1d0                	sw	a2,36(a1)
200081a8:	0b450613          	addi	a2,a0,180
200081ac:	cd90                	sw	a2,24(a1)
200081ae:	0a050613          	addi	a2,a0,160
200081b2:	c5d0                	sw	a2,12(a1)
200081b4:	10002637          	lui	a2,0x10002
200081b8:	a7460b93          	addi	s7,a2,-1420 # 10001a74 <.L__unnamed_7>
200081bc:	0dc50a13          	addi	s4,a0,220
200081c0:	04058e23          	sb	zero,92(a1)
200081c4:	0575ac23          	sw	s7,88(a1)
200081c8:	04058823          	sb	zero,80(a1)
200081cc:	0575a623          	sw	s7,76(a1)
200081d0:	04058223          	sb	zero,68(a1)
200081d4:	0575a023          	sw	s7,64(a1)
200081d8:	02058c23          	sb	zero,56(a1)
200081dc:	0375aa23          	sw	s7,52(a1)
200081e0:	0345a823          	sw	s4,48(a1)
200081e4:	03258623          	sb	s2,44(a1)
200081e8:	0375a423          	sw	s7,40(a1)
200081ec:	03258023          	sb	s2,32(a1)
200081f0:	0175ae23          	sw	s7,28(a1)
200081f4:	01258a23          	sb	s2,20(a1)
200081f8:	0175a823          	sw	s7,16(a1)
200081fc:	01258423          	sb	s2,8(a1)
20008200:	0175a223          	sw	s7,4(a1)
20008204:	ffffb097          	auipc	ra,0xffffb
20008208:	45c080e7          	jalr	1116(ra) # 20003660 <<components::led::LedsComponent as kernel::component::Component>::finalize>
2000820c:	6541                	lui	a0,0x10
2000820e:	03150513          	addi	a0,a0,49 # 10031 <.Lline_table_start0+0x386>
20008212:	100015b7          	lui	a1,0x10001
20008216:	6345a603          	lw	a2,1588(a1) # 10001634 <ibex::timer::TIMER>
2000821a:	10a62023          	sw	a0,256(a2)
2000821e:	10062823          	sw	zero,272(a2)
20008222:	10062a23          	sw	zero,276(a2)
20008226:	01262023          	sw	s2,0(a2)
2000822a:	63458513          	addi	a0,a1,1588
2000822e:	100025b7          	lui	a1,0x10002
20008232:	ae858593          	addi	a1,a1,-1304 # 10001ae8 <.L__unnamed_9>
20008236:	c50c                	sw	a1,8(a0)
20008238:	10002b37          	lui	s6,0x10002
2000823c:	330b0c93          	addi	s9,s6,816 # 10002330 <opentitan::reset_handler::BUF>
20008240:	00aca623          	sw	a0,12(s9)
20008244:	01952223          	sw	s9,4(a0)
20008248:	000ca423          	sw	zero,8(s9)
2000824c:	000ca223          	sw	zero,4(s9)
20008250:	320b2823          	sw	zero,816(s6)
20008254:	10002c37          	lui	s8,0x10002
20008258:	340c0493          	addi	s1,s8,832 # 10002340 <opentitan::reset_handler::BUF>
2000825c:	00048a23          	sb	zero,20(s1)
20008260:	0004a623          	sw	zero,12(s1)
20008264:	0004a423          	sw	zero,8(s1)
20008268:	0004a223          	sw	zero,4(s1)
2000826c:	359c2023          	sw	s9,832(s8)
20008270:	10002d37          	lui	s10,0x10002
20008274:	358d0a93          	addi	s5,s10,856 # 10002358 <opentitan::reset_handler::BUF>
20008278:	00000097          	auipc	ra,0x0
2000827c:	be2080e7          	jalr	-1054(ra) # 20007e5a <kernel::sched::Kernel::create_grant>
20008280:	00aaa623          	sw	a0,12(s5)
20008284:	349d2c23          	sw	s1,856(s10)
20008288:	000aa823          	sw	zero,16(s5)
2000828c:	013aa423          	sw	s3,8(s5)
20008290:	000aa223          	sw	zero,4(s5)
20008294:	340c2503          	lw	a0,832(s8)
20008298:	410c                	lw	a1,0(a0)
2000829a:	c48c                	sw	a1,8(s1)
2000829c:	c104                	sw	s1,0(a0)
2000829e:	10002537          	lui	a0,0x10002
200082a2:	af850513          	addi	a0,a0,-1288 # 10001af8 <.L__unnamed_10>
200082a6:	c888                	sw	a0,16(s1)
200082a8:	10002537          	lui	a0,0x10002
200082ac:	37952623          	sw	s9,876(a0) # 1000236c <opentitan::reset_handler::BUF>
200082b0:	100025b7          	lui	a1,0x10002
200082b4:	38458613          	addi	a2,a1,900 # 10002384 <opentitan::reset_handler::BUF>
200082b8:	01762823          	sw	s7,16(a2)
200082bc:	36c50513          	addi	a0,a0,876
200082c0:	38a5a223          	sw	a0,900(a1)
200082c4:	100025b7          	lui	a1,0x10002
200082c8:	b0858593          	addi	a1,a1,-1272 # 10001b08 <.L__unnamed_11>
200082cc:	c90c                	sw	a1,16(a0)
200082ce:	01462623          	sw	s4,12(a2)
200082d2:	00062423          	sw	zero,8(a2)
200082d6:	00062223          	sw	zero,4(a2)
200082da:	c550                	sw	a2,12(a0)
200082dc:	330b2583          	lw	a1,816(s6)
200082e0:	32ab2823          	sw	a0,816(s6)
200082e4:	c50c                	sw	a1,8(a0)
200082e6:	00050a23          	sb	zero,20(a0)
200082ea:	00052223          	sw	zero,4(a0)
200082ee:	00048a23          	sb	zero,20(s1)
200082f2:	0154a623          	sw	s5,12(s1)
200082f6:	0004a223          	sw	zero,4(s1)
200082fa:	fffff097          	auipc	ra,0xfffff
200082fe:	878080e7          	jalr	-1928(ra) # 20006b72 <opentitan::alarm_test::TestAlarm<A>::run>
20008302:	8552                	mv	a0,s4
20008304:	ffffe097          	auipc	ra,0xffffe
20008308:	4ea080e7          	jalr	1258(ra) # 200067ee <<lowrisc::gpio::GpioPin as kernel::hil::gpio::Configure>::make_output>
2000830c:	8552                	mv	a0,s4
2000830e:	ffffe097          	auipc	ra,0xffffe
20008312:	5f0080e7          	jalr	1520(ra) # 200068fe <<lowrisc::gpio::GpioPin as kernel::hil::gpio::Output>::clear>
20008316:	fb342c23          	sw	s3,-72(s0)
2000831a:	10002537          	lui	a0,0x10002
2000831e:	ce050493          	addi	s1,a0,-800 # 10001ce0 <<components::console::UartMuxComponent as kernel::component::Component>::finalize::BUF>
20008322:	fa942e23          	sw	s1,-68(s0)
20008326:	fb840513          	addi	a0,s0,-72
2000832a:	ffffb097          	auipc	ra,0xffffb
2000832e:	4dc080e7          	jalr	1244(ra) # 20003806 <<components::console::ConsoleComponent as kernel::component::Component>::finalize>
20008332:	fa942c23          	sw	s1,-72(s0)
20008336:	fb840513          	addi	a0,s0,-72
2000833a:	ffffb097          	auipc	ra,0xffffb
2000833e:	5c6080e7          	jalr	1478(ra) # 20003900 <<components::debug_writer::DebugWriterComponent as kernel::component::Component>::finalize>
20008342:	2000c537          	lui	a0,0x2000c
20008346:	fa850513          	addi	a0,a0,-88 # 2000bfa8 <.L__unnamed_92>
2000834a:	fca42423          	sw	a0,-56(s0)
2000834e:	fc042623          	sw	zero,-52(s0)
20008352:	fc042023          	sw	zero,-64(s0)
20008356:	fb242e23          	sw	s2,-68(s0)
2000835a:	10002537          	lui	a0,0x10002
2000835e:	b1850513          	addi	a0,a0,-1256 # 10001b18 <.L__unnamed_52>
20008362:	faa42c23          	sw	a0,-72(s0)
20008366:	fb840513          	addi	a0,s0,-72
2000836a:	ffffe097          	auipc	ra,0xffffe
2000836e:	cd8080e7          	jalr	-808(ra) # 20006042 <kernel::debug::begin_debug_fmt>
20008372:	fd542023          	sw	s5,-64(s0)
20008376:	10002537          	lui	a0,0x10002
2000837a:	d4850513          	addi	a0,a0,-696 # 10001d48 <<components::console::ConsoleComponent as kernel::component::Component>::finalize::BUF>
2000837e:	faa42e23          	sw	a0,-68(s0)
20008382:	10002537          	lui	a0,0x10002
20008386:	cc850513          	addi	a0,a0,-824 # 10001cc8 <<components::led::LedsComponent as kernel::component::Component>::finalize::BUF>
2000838a:	faa42c23          	sw	a0,-72(s0)
2000838e:	ffff8097          	auipc	ra,0xffff8
20008392:	000080e7          	jalr	ra # 2000038e <kernel::process::load_processes>
20008396:	fb840513          	addi	a0,s0,-72
2000839a:	fffff097          	auipc	ra,0xfffff
2000839e:	cf4080e7          	jalr	-780(ra) # 2000708e <kernel::sched::Kernel::kernel_loop>
200083a2:	00004097          	auipc	ra,0x4
200083a6:	d8a080e7          	jalr	-630(ra) # 2000c12c <abort>

200083aa <core::ptr::real_drop_in_place>:
200083aa:	1141                	addi	sp,sp,-16
200083ac:	c606                	sw	ra,12(sp)
200083ae:	c422                	sw	s0,8(sp)
200083b0:	0800                	addi	s0,sp,16
200083b2:	4422                	lw	s0,8(sp)
200083b4:	40b2                	lw	ra,12(sp)
200083b6:	0141                	addi	sp,sp,16
200083b8:	8082                	ret

200083ba <core::ptr::real_drop_in_place>:
200083ba:	1141                	addi	sp,sp,-16
200083bc:	c606                	sw	ra,12(sp)
200083be:	c422                	sw	s0,8(sp)
200083c0:	0800                	addi	s0,sp,16
200083c2:	4422                	lw	s0,8(sp)
200083c4:	40b2                	lw	ra,12(sp)
200083c6:	0141                	addi	sp,sp,16
200083c8:	8082                	ret

200083ca <core::ptr::real_drop_in_place>:
200083ca:	1141                	addi	sp,sp,-16
200083cc:	c606                	sw	ra,12(sp)
200083ce:	c422                	sw	s0,8(sp)
200083d0:	0800                	addi	s0,sp,16
200083d2:	4422                	lw	s0,8(sp)
200083d4:	40b2                	lw	ra,12(sp)
200083d6:	0141                	addi	sp,sp,16
200083d8:	8082                	ret

200083da <_ZN4core3ptr18real_drop_in_place17hcd2efcdd45062749E.804>:
200083da:	1141                	addi	sp,sp,-16
200083dc:	c606                	sw	ra,12(sp)
200083de:	c422                	sw	s0,8(sp)
200083e0:	0800                	addi	s0,sp,16
200083e2:	4422                	lw	s0,8(sp)
200083e4:	40b2                	lw	ra,12(sp)
200083e6:	0141                	addi	sp,sp,16
200083e8:	8082                	ret

200083ea <kernel::debug::panic>:
200083ea:	1141                	addi	sp,sp,-16
200083ec:	c606                	sw	ra,12(sp)
200083ee:	c422                	sw	s0,8(sp)
200083f0:	c226                	sw	s1,4(sp)
200083f2:	c04a                	sw	s2,0(sp)
200083f4:	0800                	addi	s0,sp,16
200083f6:	84ae                	mv	s1,a1
200083f8:	892a                	mv	s2,a0
200083fa:	ffffe097          	auipc	ra,0xffffe
200083fe:	b0a080e7          	jalr	-1270(ra) # 20005f04 <kernel::debug::panic_begin>
20008402:	8526                	mv	a0,s1
20008404:	00000097          	auipc	ra,0x0
20008408:	02a080e7          	jalr	42(ra) # 2000842e <kernel::debug::panic_banner>
2000840c:	00000097          	auipc	ra,0x0
20008410:	15a080e7          	jalr	346(ra) # 20008566 <kernel::debug::flush>
20008414:	00000097          	auipc	ra,0x0
20008418:	24c080e7          	jalr	588(ra) # 20008660 <kernel::debug::panic_process_info>
2000841c:	854a                	mv	a0,s2
2000841e:	00000097          	auipc	ra,0x0
20008422:	30a080e7          	jalr	778(ra) # 20008728 <kernel::debug::panic_blink_forever>
20008426:	00004097          	auipc	ra,0x4
2000842a:	d06080e7          	jalr	-762(ra) # 2000c12c <abort>

2000842e <kernel::debug::panic_banner>:
2000842e:	715d                	addi	sp,sp,-80
20008430:	c686                	sw	ra,76(sp)
20008432:	c4a2                	sw	s0,72(sp)
20008434:	c2a6                	sw	s1,68(sp)
20008436:	c0ca                	sw	s2,64(sp)
20008438:	de4e                	sw	s3,60(sp)
2000843a:	dc52                	sw	s4,56(sp)
2000843c:	0880                	addi	s0,sp,80
2000843e:	892a                	mv	s2,a0
20008440:	4548                	lw	a0,12(a0)
20008442:	410c                	lw	a1,0(a0)
20008444:	4150                	lw	a2,4(a0)
20008446:	fec42223          	sw	a2,-28(s0)
2000844a:	feb42023          	sw	a1,-32(s0)
2000844e:	200045b7          	lui	a1,0x20004
20008452:	ab058593          	addi	a1,a1,-1360 # 20003ab0 <core::fmt::num::imp::<impl core::fmt::Display for u32>::fmt>
20008456:	4508                	lw	a0,8(a0)
20008458:	fab42e23          	sw	a1,-68(s0)
2000845c:	fc440593          	addi	a1,s0,-60
20008460:	fab42c23          	sw	a1,-72(s0)
20008464:	200065b7          	lui	a1,0x20006
20008468:	2b858593          	addi	a1,a1,696 # 200062b8 <<&T as core::fmt::Display>::fmt>
2000846c:	fab42a23          	sw	a1,-76(s0)
20008470:	fe040a13          	addi	s4,s0,-32
20008474:	fb442823          	sw	s4,-80(s0)
20008478:	fca42223          	sw	a0,-60(s0)
2000847c:	4509                	li	a0,2
2000847e:	fca42e23          	sw	a0,-36(s0)
20008482:	fb040993          	addi	s3,s0,-80
20008486:	fd342c23          	sw	s3,-40(s0)
2000848a:	450d                	li	a0,3
2000848c:	fca42623          	sw	a0,-52(s0)
20008490:	10002537          	lui	a0,0x10002
20008494:	b4050513          	addi	a0,a0,-1216 # 10001b40 <.L__unnamed_53>
20008498:	fca42423          	sw	a0,-56(s0)
2000849c:	10002537          	lui	a0,0x10002
200084a0:	1dc50493          	addi	s1,a0,476 # 100021dc <opentitan::PROCESSES>
200084a4:	fc042823          	sw	zero,-48(s0)
200084a8:	fc840593          	addi	a1,s0,-56
200084ac:	8526                	mv	a0,s1
200084ae:	ffffe097          	auipc	ra,0xffffe
200084b2:	53e080e7          	jalr	1342(ra) # 200069ec <core::fmt::Write::write_fmt>
200084b6:	00892583          	lw	a1,8(s2)
200084ba:	c19d                	beqz	a1,200084e0 <kernel::debug::panic_banner+0xb2>
200084bc:	fc840913          	addi	s2,s0,-56
200084c0:	854a                	mv	a0,s2
200084c2:	4661                	li	a2,24
200084c4:	00001097          	auipc	ra,0x1
200084c8:	1a2080e7          	jalr	418(ra) # 20009666 <memcpy>
200084cc:	10002537          	lui	a0,0x10002
200084d0:	b2050593          	addi	a1,a0,-1248 # 10001b20 <.L__unnamed_12>
200084d4:	8526                	mv	a0,s1
200084d6:	864a                	mv	a2,s2
200084d8:	ffffc097          	auipc	ra,0xffffc
200084dc:	58e080e7          	jalr	1422(ra) # 20004a66 <core::fmt::write>
200084e0:	2000c537          	lui	a0,0x2000c
200084e4:	03650513          	addi	a0,a0,54 # 2000c036 <.L__unnamed_54>
200084e8:	458d                	li	a1,3
200084ea:	ffffe097          	auipc	ra,0xffffe
200084ee:	0d2080e7          	jalr	210(ra) # 200065bc <lowrisc::uart::Uart::transmit_sync>
200084f2:	4505                	li	a0,1
200084f4:	fca42e23          	sw	a0,-36(s0)
200084f8:	fd442c23          	sw	s4,-40(s0)
200084fc:	2000c537          	lui	a0,0x2000c
20008500:	03950513          	addi	a0,a0,57 # 2000c039 <.L__unnamed_55>
20008504:	c119                	beqz	a0,2000850a <kernel::debug::panic_banner+0xdc>
20008506:	45e5                	li	a1,25
20008508:	a031                	j	20008514 <kernel::debug::panic_banner+0xe6>
2000850a:	459d                	li	a1,7
2000850c:	2000c537          	lui	a0,0x2000c
20008510:	05250513          	addi	a0,a0,82 # 2000c052 <.L__unnamed_56>
20008514:	fc042823          	sw	zero,-48(s0)
20008518:	4609                	li	a2,2
2000851a:	fcc42623          	sw	a2,-52(s0)
2000851e:	10002637          	lui	a2,0x10002
20008522:	b5860613          	addi	a2,a2,-1192 # 10001b58 <.L__unnamed_57>
20008526:	fcc42423          	sw	a2,-56(s0)
2000852a:	20006637          	lui	a2,0x20006
2000852e:	2b860613          	addi	a2,a2,696 # 200062b8 <<&T as core::fmt::Display>::fmt>
20008532:	fec42223          	sw	a2,-28(s0)
20008536:	ff342023          	sw	s3,-32(s0)
2000853a:	fab42a23          	sw	a1,-76(s0)
2000853e:	faa42823          	sw	a0,-80(s0)
20008542:	10002537          	lui	a0,0x10002
20008546:	1dc50513          	addi	a0,a0,476 # 100021dc <opentitan::PROCESSES>
2000854a:	fc840593          	addi	a1,s0,-56
2000854e:	ffffe097          	auipc	ra,0xffffe
20008552:	49e080e7          	jalr	1182(ra) # 200069ec <core::fmt::Write::write_fmt>
20008556:	5a62                	lw	s4,56(sp)
20008558:	59f2                	lw	s3,60(sp)
2000855a:	4906                	lw	s2,64(sp)
2000855c:	4496                	lw	s1,68(sp)
2000855e:	4426                	lw	s0,72(sp)
20008560:	40b6                	lw	ra,76(sp)
20008562:	6161                	addi	sp,sp,80
20008564:	8082                	ret

20008566 <kernel::debug::flush>:
20008566:	7179                	addi	sp,sp,-48
20008568:	d606                	sw	ra,44(sp)
2000856a:	d422                	sw	s0,40(sp)
2000856c:	d226                	sw	s1,36(sp)
2000856e:	d04a                	sw	s2,32(sp)
20008570:	ce4e                	sw	s3,28(sp)
20008572:	cc52                	sw	s4,24(sp)
20008574:	ca56                	sw	s5,20(sp)
20008576:	c85a                	sw	s6,16(sp)
20008578:	c65e                	sw	s7,12(sp)
2000857a:	1800                	addi	s0,sp,48
2000857c:	ffffe097          	auipc	ra,0xffffe
20008580:	9a8080e7          	jalr	-1624(ra) # 20005f24 <kernel::debug::get_debug_writer>
20008584:	00454583          	lbu	a1,4(a0)
20008588:	c1e9                	beqz	a1,2000864a <kernel::debug::flush+0xe4>
2000858a:	00050223          	sb	zero,4(a0)
2000858e:	410c                	lw	a1,0(a0)
20008590:	4984                	lw	s1,16(a1)
20008592:	0005a823          	sw	zero,16(a1)
20008596:	4585                	li	a1,1
20008598:	00b50223          	sb	a1,4(a0)
2000859c:	c4dd                	beqz	s1,2000864a <kernel::debug::flush+0xe4>
2000859e:	44c8                	lw	a0,12(s1)
200085a0:	448c                	lw	a1,8(s1)
200085a2:	0aa58463          	beq	a1,a0,2000864a <kernel::debug::flush+0xe4>
200085a6:	2000c537          	lui	a0,0x2000c
200085aa:	fe850513          	addi	a0,a0,-24 # 2000bfe8 <.L__unnamed_58>
200085ae:	04e00593          	li	a1,78
200085b2:	ffffe097          	auipc	ra,0xffffe
200085b6:	00a080e7          	jalr	10(ra) # 200065bc <lowrisc::uart::Uart::transmit_sync>
200085ba:	00c4aa03          	lw	s4,12(s1)
200085be:	0084ab83          	lw	s7,8(s1)
200085c2:	034bfd63          	bgeu	s7,s4,200085fc <kernel::debug::flush+0x96>
200085c6:	40d4                	lw	a3,4(s1)
200085c8:	4090                	lw	a2,0(s1)
200085ca:	855e                	mv	a0,s7
200085cc:	85d2                	mv	a1,s4
200085ce:	00000097          	auipc	ra,0x0
200085d2:	34a080e7          	jalr	842(ra) # 20008918 <<core::ops::range::Range<usize> as core::slice::SliceIndex<[T]>>::index>
200085d6:	89aa                	mv	s3,a0
200085d8:	892e                	mv	s2,a1
200085da:	4481                	li	s1,0
200085dc:	00098863          	beqz	s3,200085ec <kernel::debug::flush+0x86>
200085e0:	854e                	mv	a0,s3
200085e2:	85ca                	mv	a1,s2
200085e4:	ffffe097          	auipc	ra,0xffffe
200085e8:	fd8080e7          	jalr	-40(ra) # 200065bc <lowrisc::uart::Uart::transmit_sync>
200085ec:	ccb9                	beqz	s1,2000864a <kernel::debug::flush+0xe4>
200085ee:	8526                	mv	a0,s1
200085f0:	85d2                	mv	a1,s4
200085f2:	ffffe097          	auipc	ra,0xffffe
200085f6:	fca080e7          	jalr	-54(ra) # 200065bc <lowrisc::uart::Uart::transmit_sync>
200085fa:	a881                	j	2000864a <kernel::debug::flush+0xe4>
200085fc:	057a7763          	bgeu	s4,s7,2000864a <kernel::debug::flush+0xe4>
20008600:	0044a903          	lw	s2,4(s1)
20008604:	0004a983          	lw	s3,0(s1)
20008608:	854e                	mv	a0,s3
2000860a:	85ca                	mv	a1,s2
2000860c:	865e                	mv	a2,s7
2000860e:	00000097          	auipc	ra,0x0
20008612:	34c080e7          	jalr	844(ra) # 2000895a <core::slice::<impl core::ops::index::Index<I> for [T]>::index>
20008616:	8aaa                	mv	s5,a0
20008618:	8b2e                	mv	s6,a1
2000861a:	855e                	mv	a0,s7
2000861c:	85ca                	mv	a1,s2
2000861e:	864e                	mv	a2,s3
20008620:	86ca                	mv	a3,s2
20008622:	00000097          	auipc	ra,0x0
20008626:	2f6080e7          	jalr	758(ra) # 20008918 <<core::ops::range::Range<usize> as core::slice::SliceIndex<[T]>>::index>
2000862a:	89aa                	mv	s3,a0
2000862c:	892e                	mv	s2,a1
2000862e:	fa0a06e3          	beqz	s4,200085da <kernel::debug::flush+0x74>
20008632:	8556                	mv	a0,s5
20008634:	85da                	mv	a1,s6
20008636:	8652                	mv	a2,s4
20008638:	00000097          	auipc	ra,0x0
2000863c:	322080e7          	jalr	802(ra) # 2000895a <core::slice::<impl core::ops::index::Index<I> for [T]>::index>
20008640:	84aa                	mv	s1,a0
20008642:	8a2e                	mv	s4,a1
20008644:	f8099ee3          	bnez	s3,200085e0 <kernel::debug::flush+0x7a>
20008648:	b755                	j	200085ec <kernel::debug::flush+0x86>
2000864a:	4bb2                	lw	s7,12(sp)
2000864c:	4b42                	lw	s6,16(sp)
2000864e:	4ad2                	lw	s5,20(sp)
20008650:	4a62                	lw	s4,24(sp)
20008652:	49f2                	lw	s3,28(sp)
20008654:	5902                	lw	s2,32(sp)
20008656:	5492                	lw	s1,36(sp)
20008658:	5422                	lw	s0,40(sp)
2000865a:	50b2                	lw	ra,44(sp)
2000865c:	6145                	addi	sp,sp,48
2000865e:	8082                	ret

20008660 <kernel::debug::panic_process_info>:
20008660:	7139                	addi	sp,sp,-64
20008662:	de06                	sw	ra,60(sp)
20008664:	dc22                	sw	s0,56(sp)
20008666:	da26                	sw	s1,52(sp)
20008668:	d84a                	sw	s2,48(sp)
2000866a:	d64e                	sw	s3,44(sp)
2000866c:	d452                	sw	s4,40(sp)
2000866e:	d256                	sw	s5,36(sp)
20008670:	0080                	addi	s0,sp,64
20008672:	10002637          	lui	a2,0x10002
20008676:	1dc62503          	lw	a0,476(a2) # 100021dc <opentitan::PROCESSES>
2000867a:	4581                	li	a1,0
2000867c:	c119                	beqz	a0,20008682 <kernel::debug::panic_process_info+0x22>
2000867e:	1dc60593          	addi	a1,a2,476
20008682:	cd11                	beqz	a0,2000869e <kernel::debug::panic_process_info+0x3e>
20008684:	4188                	lw	a0,0(a1)
20008686:	41cc                	lw	a1,4(a1)
20008688:	0885a683          	lw	a3,136(a1)
2000868c:	100025b7          	lui	a1,0x10002
20008690:	1dc58593          	addi	a1,a1,476 # 100021dc <opentitan::PROCESSES>
20008694:	10002637          	lui	a2,0x10002
20008698:	b2060613          	addi	a2,a2,-1248 # 10001b20 <.L__unnamed_12>
2000869c:	9682                	jalr	a3
2000869e:	4505                	li	a0,1
200086a0:	fca42623          	sw	a0,-52(s0)
200086a4:	2000c537          	lui	a0,0x2000c
200086a8:	fa850513          	addi	a0,a0,-88 # 2000bfa8 <.L__unnamed_92>
200086ac:	fca42c23          	sw	a0,-40(s0)
200086b0:	10002537          	lui	a0,0x10002
200086b4:	b3850513          	addi	a0,a0,-1224 # 10001b38 <.L__unnamed_59>
200086b8:	fca42423          	sw	a0,-56(s0)
200086bc:	fc042e23          	sw	zero,-36(s0)
200086c0:	fc042823          	sw	zero,-48(s0)
200086c4:	10002537          	lui	a0,0x10002
200086c8:	1dc50913          	addi	s2,a0,476 # 100021dc <opentitan::PROCESSES>
200086cc:	fc840593          	addi	a1,s0,-56
200086d0:	854a                	mv	a0,s2
200086d2:	ffffe097          	auipc	ra,0xffffe
200086d6:	31a080e7          	jalr	794(ra) # 200069ec <core::fmt::Write::write_fmt>
200086da:	02000993          	li	s3,32
200086de:	10002537          	lui	a0,0x10002
200086e2:	1dc50a93          	addi	s5,a0,476 # 100021dc <opentitan::PROCESSES>
200086e6:	10002537          	lui	a0,0x10002
200086ea:	b2050a13          	addi	s4,a0,-1248 # 10001b20 <.L__unnamed_12>
200086ee:	4481                	li	s1,0
200086f0:	03348363          	beq	s1,s3,20008716 <kernel::debug::panic_process_info+0xb6>
200086f4:	01548633          	add	a2,s1,s5
200086f8:	4208                	lw	a0,0(a2)
200086fa:	4581                	li	a1,0
200086fc:	c111                	beqz	a0,20008700 <kernel::debug::panic_process_info+0xa0>
200086fe:	85b2                	mv	a1,a2
20008700:	c901                	beqz	a0,20008710 <kernel::debug::panic_process_info+0xb0>
20008702:	4188                	lw	a0,0(a1)
20008704:	41cc                	lw	a1,4(a1)
20008706:	08c5a683          	lw	a3,140(a1)
2000870a:	85ca                	mv	a1,s2
2000870c:	8652                	mv	a2,s4
2000870e:	9682                	jalr	a3
20008710:	04a1                	addi	s1,s1,8
20008712:	ff3491e3          	bne	s1,s3,200086f4 <kernel::debug::panic_process_info+0x94>
20008716:	5a92                	lw	s5,36(sp)
20008718:	5a22                	lw	s4,40(sp)
2000871a:	59b2                	lw	s3,44(sp)
2000871c:	5942                	lw	s2,48(sp)
2000871e:	54d2                	lw	s1,52(sp)
20008720:	5462                	lw	s0,56(sp)
20008722:	50f2                	lw	ra,60(sp)
20008724:	6121                	addi	sp,sp,64
20008726:	8082                	ret

20008728 <kernel::debug::panic_blink_forever>:
20008728:	7179                	addi	sp,sp,-48
2000872a:	d606                	sw	ra,44(sp)
2000872c:	d422                	sw	s0,40(sp)
2000872e:	d226                	sw	s1,36(sp)
20008730:	d04a                	sw	s2,32(sp)
20008732:	ce4e                	sw	s3,28(sp)
20008734:	cc52                	sw	s4,24(sp)
20008736:	ca56                	sw	s5,20(sp)
20008738:	c85a                	sw	s6,16(sp)
2000873a:	c65e                	sw	s7,12(sp)
2000873c:	1800                	addi	s0,sp,48
2000873e:	8baa                	mv	s7,a0
20008740:	4911                	li	s2,4
20008742:	4481                	li	s1,0
20008744:	01248c63          	beq	s1,s2,2000875c <kernel::debug::panic_blink_forever+0x34>
20008748:	009b8533          	add	a0,s7,s1
2000874c:	410c                	lw	a1,0(a0)
2000874e:	4188                	lw	a0,0(a1)
20008750:	41cc                	lw	a1,4(a1)
20008752:	518c                	lw	a1,32(a1)
20008754:	9582                	jalr	a1
20008756:	0491                	addi	s1,s1,4
20008758:	ff2498e3          	bne	s1,s2,20008748 <kernel::debug::panic_blink_forever+0x20>
2000875c:	000f4537          	lui	a0,0xf4
20008760:	24050913          	addi	s2,a0,576 # f4240 <.Lline_table_start0+0xe4595>
20008764:	6561                	lui	a0,0x18
20008766:	6a050993          	addi	s3,a0,1696 # 186a0 <.Lline_table_start0+0x89f5>
2000876a:	0007a537          	lui	a0,0x7a
2000876e:	12050a13          	addi	s4,a0,288 # 7a120 <.Lline_table_start0+0x6a475>
20008772:	4a91                	li	s5,4
20008774:	4b01                	li	s6,0
20008776:	032b0263          	beq	s6,s2,2000879a <kernel::debug::panic_blink_forever+0x72>
2000877a:	4481                	li	s1,0
2000877c:	01548c63          	beq	s1,s5,20008794 <kernel::debug::panic_blink_forever+0x6c>
20008780:	009b8533          	add	a0,s7,s1
20008784:	410c                	lw	a1,0(a0)
20008786:	4188                	lw	a0,0(a1)
20008788:	41cc                	lw	a1,4(a1)
2000878a:	49cc                	lw	a1,20(a1)
2000878c:	9582                	jalr	a1
2000878e:	0491                	addi	s1,s1,4
20008790:	ff5498e3          	bne	s1,s5,20008780 <kernel::debug::panic_blink_forever+0x58>
20008794:	0b05                	addi	s6,s6,1
20008796:	ff2b12e3          	bne	s6,s2,2000877a <kernel::debug::panic_blink_forever+0x52>
2000879a:	4b01                	li	s6,0
2000879c:	033b0263          	beq	s6,s3,200087c0 <kernel::debug::panic_blink_forever+0x98>
200087a0:	4481                	li	s1,0
200087a2:	01548c63          	beq	s1,s5,200087ba <kernel::debug::panic_blink_forever+0x92>
200087a6:	009b8533          	add	a0,s7,s1
200087aa:	410c                	lw	a1,0(a0)
200087ac:	4188                	lw	a0,0(a1)
200087ae:	41cc                	lw	a1,4(a1)
200087b0:	498c                	lw	a1,16(a1)
200087b2:	9582                	jalr	a1
200087b4:	0491                	addi	s1,s1,4
200087b6:	ff5498e3          	bne	s1,s5,200087a6 <kernel::debug::panic_blink_forever+0x7e>
200087ba:	0b05                	addi	s6,s6,1
200087bc:	ff3b12e3          	bne	s6,s3,200087a0 <kernel::debug::panic_blink_forever+0x78>
200087c0:	4b01                	li	s6,0
200087c2:	032b0263          	beq	s6,s2,200087e6 <kernel::debug::panic_blink_forever+0xbe>
200087c6:	4481                	li	s1,0
200087c8:	01548c63          	beq	s1,s5,200087e0 <kernel::debug::panic_blink_forever+0xb8>
200087cc:	009b8533          	add	a0,s7,s1
200087d0:	410c                	lw	a1,0(a0)
200087d2:	4188                	lw	a0,0(a1)
200087d4:	41cc                	lw	a1,4(a1)
200087d6:	49cc                	lw	a1,20(a1)
200087d8:	9582                	jalr	a1
200087da:	0491                	addi	s1,s1,4
200087dc:	ff5498e3          	bne	s1,s5,200087cc <kernel::debug::panic_blink_forever+0xa4>
200087e0:	0b05                	addi	s6,s6,1
200087e2:	ff2b12e3          	bne	s6,s2,200087c6 <kernel::debug::panic_blink_forever+0x9e>
200087e6:	4b01                	li	s6,0
200087e8:	f94b06e3          	beq	s6,s4,20008774 <kernel::debug::panic_blink_forever+0x4c>
200087ec:	4481                	li	s1,0
200087ee:	01548c63          	beq	s1,s5,20008806 <kernel::debug::panic_blink_forever+0xde>
200087f2:	009b8533          	add	a0,s7,s1
200087f6:	410c                	lw	a1,0(a0)
200087f8:	4188                	lw	a0,0(a1)
200087fa:	41cc                	lw	a1,4(a1)
200087fc:	498c                	lw	a1,16(a1)
200087fe:	9582                	jalr	a1
20008800:	0491                	addi	s1,s1,4
20008802:	ff5498e3          	bne	s1,s5,200087f2 <kernel::debug::panic_blink_forever+0xca>
20008806:	0b05                	addi	s6,s6,1
20008808:	ff4b12e3          	bne	s6,s4,200087ec <kernel::debug::panic_blink_forever+0xc4>
2000880c:	b7a5                	j	20008774 <kernel::debug::panic_blink_forever+0x4c>

2000880e <core::ptr::real_drop_in_place>:
2000880e:	1141                	addi	sp,sp,-16
20008810:	c606                	sw	ra,12(sp)
20008812:	c422                	sw	s0,8(sp)
20008814:	0800                	addi	s0,sp,16
20008816:	4422                	lw	s0,8(sp)
20008818:	40b2                	lw	ra,12(sp)
2000881a:	0141                	addi	sp,sp,16
2000881c:	8082                	ret

2000881e <<kernel::common::ring_buffer::RingBuffer<T> as kernel::common::queue::Queue<T>>::len>:
2000881e:	1141                	addi	sp,sp,-16
20008820:	c606                	sw	ra,12(sp)
20008822:	c422                	sw	s0,8(sp)
20008824:	0800                	addi	s0,sp,16
20008826:	00c5f563          	bgeu	a1,a2,20008830 <<kernel::common::ring_buffer::RingBuffer<T> as kernel::common::queue::Queue<T>>::len+0x12>
2000882a:	40b60533          	sub	a0,a2,a1
2000882e:	a801                	j	2000883e <<kernel::common::ring_buffer::RingBuffer<T> as kernel::common::queue::Queue<T>>::len+0x20>
20008830:	00b67663          	bgeu	a2,a1,2000883c <<kernel::common::ring_buffer::RingBuffer<T> as kernel::common::queue::Queue<T>>::len+0x1e>
20008834:	40b605b3          	sub	a1,a2,a1
20008838:	952e                	add	a0,a0,a1
2000883a:	a011                	j	2000883e <<kernel::common::ring_buffer::RingBuffer<T> as kernel::common::queue::Queue<T>>::len+0x20>
2000883c:	4501                	li	a0,0
2000883e:	4422                	lw	s0,8(sp)
20008840:	40b2                	lw	ra,12(sp)
20008842:	0141                	addi	sp,sp,16
20008844:	8082                	ret

20008846 <<kernel::common::ring_buffer::RingBuffer<T> as kernel::common::queue::Queue<T>>::enqueue>:
20008846:	7139                	addi	sp,sp,-64
20008848:	de06                	sw	ra,60(sp)
2000884a:	dc22                	sw	s0,56(sp)
2000884c:	da26                	sw	s1,52(sp)
2000884e:	d84a                	sw	s2,48(sp)
20008850:	d64e                	sw	s3,44(sp)
20008852:	d452                	sw	s4,40(sp)
20008854:	0080                	addi	s0,sp,64
20008856:	00452903          	lw	s2,4(a0)
2000885a:	06090663          	beqz	s2,200088c6 <<kernel::common::ring_buffer::RingBuffer<T> as kernel::common::queue::Queue<T>>::enqueue+0x80>
2000885e:	84aa                	mv	s1,a0
20008860:	00c52983          	lw	s3,12(a0)
20008864:	00198513          	addi	a0,s3,1
20008868:	03257533          	remu	a0,a0,s2
2000886c:	4490                	lw	a2,8(s1)
2000886e:	00c51463          	bne	a0,a2,20008876 <<kernel::common::ring_buffer::RingBuffer<T> as kernel::common::queue::Queue<T>>::enqueue+0x30>
20008872:	4501                	li	a0,0
20008874:	a089                	j	200088b6 <<kernel::common::ring_buffer::RingBuffer<T> as kernel::common::queue::Queue<T>>::enqueue+0x70>
20008876:	fc040513          	addi	a0,s0,-64
2000887a:	02400a13          	li	s4,36
2000887e:	02400613          	li	a2,36
20008882:	00001097          	auipc	ra,0x1
20008886:	de4080e7          	jalr	-540(ra) # 20009666 <memcpy>
2000888a:	0529f763          	bgeu	s3,s2,200088d8 <<kernel::common::ring_buffer::RingBuffer<T> as kernel::common::queue::Queue<T>>::enqueue+0x92>
2000888e:	03498533          	mul	a0,s3,s4
20008892:	408c                	lw	a1,0(s1)
20008894:	952e                	add	a0,a0,a1
20008896:	fc040593          	addi	a1,s0,-64
2000889a:	02400613          	li	a2,36
2000889e:	00001097          	auipc	ra,0x1
200088a2:	dc8080e7          	jalr	-568(ra) # 20009666 <memcpy>
200088a6:	40c8                	lw	a0,4(s1)
200088a8:	c531                	beqz	a0,200088f4 <<kernel::common::ring_buffer::RingBuffer<T> as kernel::common::queue::Queue<T>>::enqueue+0xae>
200088aa:	44cc                	lw	a1,12(s1)
200088ac:	0585                	addi	a1,a1,1
200088ae:	02a5f533          	remu	a0,a1,a0
200088b2:	c4c8                	sw	a0,12(s1)
200088b4:	4505                	li	a0,1
200088b6:	5a22                	lw	s4,40(sp)
200088b8:	59b2                	lw	s3,44(sp)
200088ba:	5942                	lw	s2,48(sp)
200088bc:	54d2                	lw	s1,52(sp)
200088be:	5462                	lw	s0,56(sp)
200088c0:	50f2                	lw	ra,60(sp)
200088c2:	6121                	addi	sp,sp,64
200088c4:	8082                	ret
200088c6:	2000c537          	lui	a0,0x2000c
200088ca:	08050513          	addi	a0,a0,128 # 2000c080 <str.0.813>
200088ce:	100025b7          	lui	a1,0x10002
200088d2:	bb858613          	addi	a2,a1,-1096 # 10001bb8 <.L__unnamed_45>
200088d6:	a03d                	j	20008904 <<kernel::common::ring_buffer::RingBuffer<T> as kernel::common::queue::Queue<T>>::enqueue+0xbe>
200088d8:	10002537          	lui	a0,0x10002
200088dc:	bc850513          	addi	a0,a0,-1080 # 10001bc8 <.L__unnamed_46>
200088e0:	85ce                	mv	a1,s3
200088e2:	864a                	mv	a2,s2
200088e4:	ffffb097          	auipc	ra,0xffffb
200088e8:	162080e7          	jalr	354(ra) # 20003a46 <core::panicking::panic_bounds_check>
200088ec:	00004097          	auipc	ra,0x4
200088f0:	840080e7          	jalr	-1984(ra) # 2000c12c <abort>
200088f4:	2000c537          	lui	a0,0x2000c
200088f8:	08050513          	addi	a0,a0,128 # 2000c080 <str.0.813>
200088fc:	100025b7          	lui	a1,0x10002
20008900:	bd858613          	addi	a2,a1,-1064 # 10001bd8 <.L__unnamed_47>
20008904:	03900593          	li	a1,57
20008908:	ffffb097          	auipc	ra,0xffffb
2000890c:	0f6080e7          	jalr	246(ra) # 200039fe <core::panicking::panic>
20008910:	00004097          	auipc	ra,0x4
20008914:	81c080e7          	jalr	-2020(ra) # 2000c12c <abort>

20008918 <<core::ops::range::Range<usize> as core::slice::SliceIndex<[T]>>::index>:
20008918:	1141                	addi	sp,sp,-16
2000891a:	c606                	sw	ra,12(sp)
2000891c:	c422                	sw	s0,8(sp)
2000891e:	0800                	addi	s0,sp,16
20008920:	00a5eb63          	bltu	a1,a0,20008936 <<core::ops::range::Range<usize> as core::slice::SliceIndex<[T]>>::index+0x1e>
20008924:	02b6e163          	bltu	a3,a1,20008946 <<core::ops::range::Range<usize> as core::slice::SliceIndex<[T]>>::index+0x2e>
20008928:	962a                	add	a2,a2,a0
2000892a:	8d89                	sub	a1,a1,a0
2000892c:	8532                	mv	a0,a2
2000892e:	4422                	lw	s0,8(sp)
20008930:	40b2                	lw	ra,12(sp)
20008932:	0141                	addi	sp,sp,16
20008934:	8082                	ret
20008936:	ffffb097          	auipc	ra,0xffffb
2000893a:	65e080e7          	jalr	1630(ra) # 20003f94 <core::slice::slice_index_order_fail>
2000893e:	00003097          	auipc	ra,0x3
20008942:	7ee080e7          	jalr	2030(ra) # 2000c12c <abort>
20008946:	852e                	mv	a0,a1
20008948:	85b6                	mv	a1,a3
2000894a:	ffffb097          	auipc	ra,0xffffb
2000894e:	5dc080e7          	jalr	1500(ra) # 20003f26 <core::slice::slice_index_len_fail>
20008952:	00003097          	auipc	ra,0x3
20008956:	7da080e7          	jalr	2010(ra) # 2000c12c <abort>

2000895a <core::slice::<impl core::ops::index::Index<I> for [T]>::index>:
2000895a:	1141                	addi	sp,sp,-16
2000895c:	c606                	sw	ra,12(sp)
2000895e:	c422                	sw	s0,8(sp)
20008960:	0800                	addi	s0,sp,16
20008962:	86ae                	mv	a3,a1
20008964:	872a                	mv	a4,a0
20008966:	4501                	li	a0,0
20008968:	85b2                	mv	a1,a2
2000896a:	863a                	mv	a2,a4
2000896c:	4422                	lw	s0,8(sp)
2000896e:	40b2                	lw	ra,12(sp)
20008970:	0141                	addi	sp,sp,16
20008972:	00000317          	auipc	t1,0x0
20008976:	fa630067          	jr	-90(t1) # 20008918 <<core::ops::range::Range<usize> as core::slice::SliceIndex<[T]>>::index>

2000897a <<capsules::virtual_alarm::MuxAlarm<A> as kernel::hil::time::AlarmClient>::fired>:
2000897a:	1101                	addi	sp,sp,-32
2000897c:	ce06                	sw	ra,28(sp)
2000897e:	cc22                	sw	s0,24(sp)
20008980:	ca26                	sw	s1,20(sp)
20008982:	c84a                	sw	s2,16(sp)
20008984:	1000                	addi	s0,sp,32
20008986:	892a                	mv	s2,a0
20008988:	4548                	lw	a0,12(a0)
2000898a:	4108                	lw	a0,0(a0)
2000898c:	10452503          	lw	a0,260(a0)
20008990:	fea42423          	sw	a0,-24(s0)
20008994:	00892503          	lw	a0,8(s2)
20008998:	fea42623          	sw	a0,-20(s0)
2000899c:	00092483          	lw	s1,0(s2)
200089a0:	cc8d                	beqz	s1,200089da <<capsules::virtual_alarm::MuxAlarm<A> as kernel::hil::time::AlarmClient>::fired+0x60>
200089a2:	85a6                	mv	a1,s1
200089a4:	4484                	lw	s1,8(s1)
200089a6:	0145c503          	lbu	a0,20(a1)
200089aa:	d97d                	beqz	a0,200089a0 <<capsules::virtual_alarm::MuxAlarm<A> as kernel::hil::time::AlarmClient>::fired+0x26>
200089ac:	fec42503          	lw	a0,-20(s0)
200089b0:	fe842603          	lw	a2,-24(s0)
200089b4:	8e09                	sub	a2,a2,a0
200089b6:	41d4                	lw	a3,4(a1)
200089b8:	40a68533          	sub	a0,a3,a0
200089bc:	fea662e3          	bltu	a2,a0,200089a0 <<capsules::virtual_alarm::MuxAlarm<A> as kernel::hil::time::AlarmClient>::fired+0x26>
200089c0:	00058a23          	sb	zero,20(a1)
200089c4:	00492503          	lw	a0,4(s2)
200089c8:	157d                	addi	a0,a0,-1
200089ca:	00a92223          	sw	a0,4(s2)
200089ce:	45c8                	lw	a0,12(a1)
200089d0:	d961                	beqz	a0,200089a0 <<capsules::virtual_alarm::MuxAlarm<A> as kernel::hil::time::AlarmClient>::fired+0x26>
200089d2:	498c                	lw	a1,16(a1)
200089d4:	45cc                	lw	a1,12(a1)
200089d6:	9582                	jalr	a1
200089d8:	f4e9                	bnez	s1,200089a2 <<capsules::virtual_alarm::MuxAlarm<A> as kernel::hil::time::AlarmClient>::fired+0x28>
200089da:	00092603          	lw	a2,0(s2)
200089de:	ca35                	beqz	a2,20008a52 <<capsules::virtual_alarm::MuxAlarm<A> as kernel::hil::time::AlarmClient>::fired+0xd8>
200089e0:	8532                	mv	a0,a2
200089e2:	4610                	lw	a2,8(a2)
200089e4:	01454583          	lbu	a1,20(a0)
200089e8:	d9fd                	beqz	a1,200089de <<capsules::virtual_alarm::MuxAlarm<A> as kernel::hil::time::AlarmClient>::fired+0x64>
200089ea:	4154                	lw	a3,4(a0)
200089ec:	fe842583          	lw	a1,-24(s0)
200089f0:	8e8d                	sub	a3,a3,a1
200089f2:	ce19                	beqz	a2,20008a10 <<capsules::virtual_alarm::MuxAlarm<A> as kernel::hil::time::AlarmClient>::fired+0x96>
200089f4:	4618                	lw	a4,8(a2)
200089f6:	01464783          	lbu	a5,20(a2)
200089fa:	cb89                	beqz	a5,20008a0c <<capsules::virtual_alarm::MuxAlarm<A> as kernel::hil::time::AlarmClient>::fired+0x92>
200089fc:	425c                	lw	a5,4(a2)
200089fe:	8f8d                	sub	a5,a5,a1
20008a00:	00d7e463          	bltu	a5,a3,20008a08 <<capsules::virtual_alarm::MuxAlarm<A> as kernel::hil::time::AlarmClient>::fired+0x8e>
20008a04:	862a                	mv	a2,a0
20008a06:	87b6                	mv	a5,a3
20008a08:	86be                	mv	a3,a5
20008a0a:	8532                	mv	a0,a2
20008a0c:	863a                	mv	a2,a4
20008a0e:	f27d                	bnez	a2,200089f4 <<capsules::virtual_alarm::MuxAlarm<A> as kernel::hil::time::AlarmClient>::fired+0x7a>
20008a10:	fe842583          	lw	a1,-24(s0)
20008a14:	00b92423          	sw	a1,8(s2)
20008a18:	00c92583          	lw	a1,12(s2)
20008a1c:	418c                	lw	a1,0(a1)
20008a1e:	4150                	lw	a2,4(a0)
20008a20:	1005a423          	sw	zero,264(a1)
20008a24:	10c5a623          	sw	a2,268(a1)
20008a28:	4605                	li	a2,1
20008a2a:	10c5aa23          	sw	a2,276(a1)
20008a2e:	4148                	lw	a0,4(a0)
20008a30:	00c92583          	lw	a1,12(s2)
20008a34:	418c                	lw	a1,0(a1)
20008a36:	1045a583          	lw	a1,260(a1)
20008a3a:	fec42603          	lw	a2,-20(s0)
20008a3e:	8d11                	sub	a0,a0,a2
20008a40:	8d91                	sub	a1,a1,a2
20008a42:	02a5e163          	bltu	a1,a0,20008a64 <<capsules::virtual_alarm::MuxAlarm<A> as kernel::hil::time::AlarmClient>::fired+0xea>
20008a46:	854a                	mv	a0,s2
20008a48:	00000097          	auipc	ra,0x0
20008a4c:	f32080e7          	jalr	-206(ra) # 2000897a <<capsules::virtual_alarm::MuxAlarm<A> as kernel::hil::time::AlarmClient>::fired>
20008a50:	a811                	j	20008a64 <<capsules::virtual_alarm::MuxAlarm<A> as kernel::hil::time::AlarmClient>::fired+0xea>
20008a52:	fe842503          	lw	a0,-24(s0)
20008a56:	00a92423          	sw	a0,8(s2)
20008a5a:	00c92503          	lw	a0,12(s2)
20008a5e:	4108                	lw	a0,0(a0)
20008a60:	10052a23          	sw	zero,276(a0)
20008a64:	4942                	lw	s2,16(sp)
20008a66:	44d2                	lw	s1,20(sp)
20008a68:	4462                	lw	s0,24(sp)
20008a6a:	40f2                	lw	ra,28(sp)
20008a6c:	6105                	addi	sp,sp,32
20008a6e:	8082                	ret

20008a70 <<capsules::virtual_alarm::VirtualMuxAlarm<A> as kernel::hil::time::Alarm>::disable>:
20008a70:	1141                	addi	sp,sp,-16
20008a72:	c606                	sw	ra,12(sp)
20008a74:	c422                	sw	s0,8(sp)
20008a76:	0800                	addi	s0,sp,16
20008a78:	01454583          	lbu	a1,20(a0)
20008a7c:	cd89                	beqz	a1,20008a96 <<capsules::virtual_alarm::VirtualMuxAlarm<A> as kernel::hil::time::Alarm>::disable+0x26>
20008a7e:	00050a23          	sb	zero,20(a0)
20008a82:	410c                	lw	a1,0(a0)
20008a84:	41d0                	lw	a2,4(a1)
20008a86:	167d                	addi	a2,a2,-1
20008a88:	c1d0                	sw	a2,4(a1)
20008a8a:	e611                	bnez	a2,20008a96 <<capsules::virtual_alarm::VirtualMuxAlarm<A> as kernel::hil::time::Alarm>::disable+0x26>
20008a8c:	4108                	lw	a0,0(a0)
20008a8e:	4548                	lw	a0,12(a0)
20008a90:	4108                	lw	a0,0(a0)
20008a92:	10052a23          	sw	zero,276(a0)
20008a96:	4422                	lw	s0,8(sp)
20008a98:	40b2                	lw	ra,12(sp)
20008a9a:	0141                	addi	sp,sp,16
20008a9c:	8082                	ret

20008a9e <<capsules::virtual_alarm::VirtualMuxAlarm<A> as kernel::hil::time::Alarm>::set_alarm>:
20008a9e:	1141                	addi	sp,sp,-16
20008aa0:	c606                	sw	ra,12(sp)
20008aa2:	c422                	sw	s0,8(sp)
20008aa4:	0800                	addi	s0,sp,16
20008aa6:	4110                	lw	a2,0(a0)
20008aa8:	4254                	lw	a3,4(a2)
20008aaa:	01454703          	lbu	a4,20(a0)
20008aae:	eb01                	bnez	a4,20008abe <<capsules::virtual_alarm::VirtualMuxAlarm<A> as kernel::hil::time::Alarm>::set_alarm+0x20>
20008ab0:	00168713          	addi	a4,a3,1
20008ab4:	c258                	sw	a4,4(a2)
20008ab6:	4605                	li	a2,1
20008ab8:	00c50a23          	sb	a2,20(a0)
20008abc:	4110                	lw	a2,0(a0)
20008abe:	4658                	lw	a4,12(a2)
20008ac0:	4318                	lw	a4,0(a4)
20008ac2:	ca91                	beqz	a3,20008ad6 <<capsules::virtual_alarm::VirtualMuxAlarm<A> as kernel::hil::time::Alarm>::set_alarm+0x38>
20008ac4:	10c72683          	lw	a3,268(a4)
20008ac8:	10472783          	lw	a5,260(a4)
20008acc:	8e9d                	sub	a3,a3,a5
20008ace:	40f587b3          	sub	a5,a1,a5
20008ad2:	00d7ff63          	bgeu	a5,a3,20008af0 <<capsules::virtual_alarm::VirtualMuxAlarm<A> as kernel::hil::time::Alarm>::set_alarm+0x52>
20008ad6:	10472683          	lw	a3,260(a4)
20008ada:	c614                	sw	a3,8(a2)
20008adc:	4110                	lw	a2,0(a0)
20008ade:	4650                	lw	a2,12(a2)
20008ae0:	4210                	lw	a2,0(a2)
20008ae2:	10062423          	sw	zero,264(a2)
20008ae6:	10b62623          	sw	a1,268(a2)
20008aea:	4685                	li	a3,1
20008aec:	10d62a23          	sw	a3,276(a2)
20008af0:	c14c                	sw	a1,4(a0)
20008af2:	4422                	lw	s0,8(sp)
20008af4:	40b2                	lw	ra,12(sp)
20008af6:	0141                	addi	sp,sp,16
20008af8:	8082                	ret

20008afa <<kernel::grant::Owned<T> as core::ops::drop::Drop>::drop>:
20008afa:	1141                	addi	sp,sp,-16
20008afc:	c606                	sw	ra,12(sp)
20008afe:	c422                	sw	s0,8(sp)
20008b00:	0800                	addi	s0,sp,16
20008b02:	450c                	lw	a1,8(a0)
20008b04:	4154                	lw	a3,4(a0)
20008b06:	4690                	lw	a2,8(a3)
20008b08:	00b66f63          	bltu	a2,a1,20008b26 <<kernel::grant::Owned<T> as core::ops::drop::Drop>::drop+0x2c>
20008b0c:	02c5f163          	bgeu	a1,a2,20008b2e <<kernel::grant::Owned<T> as core::ops::drop::Drop>::drop+0x34>
20008b10:	058e                	slli	a1,a1,0x3
20008b12:	42d0                	lw	a2,4(a3)
20008b14:	00b606b3          	add	a3,a2,a1
20008b18:	4290                	lw	a2,0(a3)
20008b1a:	c611                	beqz	a2,20008b26 <<kernel::grant::Owned<T> as core::ops::drop::Drop>::drop+0x2c>
20008b1c:	410c                	lw	a1,0(a0)
20008b1e:	42c8                	lw	a0,4(a3)
20008b20:	5974                	lw	a3,116(a0)
20008b22:	8532                	mv	a0,a2
20008b24:	9682                	jalr	a3
20008b26:	4422                	lw	s0,8(sp)
20008b28:	40b2                	lw	ra,12(sp)
20008b2a:	0141                	addi	sp,sp,16
20008b2c:	8082                	ret
20008b2e:	10002537          	lui	a0,0x10002
20008b32:	a1c50513          	addi	a0,a0,-1508 # 10001a1c <.L__unnamed_41>
20008b36:	ffffb097          	auipc	ra,0xffffb
20008b3a:	f10080e7          	jalr	-240(ra) # 20003a46 <core::panicking::panic_bounds_check>
20008b3e:	00003097          	auipc	ra,0x3
20008b42:	5ee080e7          	jalr	1518(ra) # 2000c12c <abort>

20008b46 <kernel::driver::Driver::allow>:
20008b46:	1141                	addi	sp,sp,-16
20008b48:	c606                	sw	ra,12(sp)
20008b4a:	c422                	sw	s0,8(sp)
20008b4c:	0800                	addi	s0,sp,16
20008b4e:	4308                	lw	a0,0(a4)
20008b50:	c511                	beqz	a0,20008b5c <kernel::driver::Driver::allow+0x16>
20008b52:	853a                	mv	a0,a4
20008b54:	ffffd097          	auipc	ra,0xffffd
20008b58:	5fe080e7          	jalr	1534(ra) # 20006152 <<kernel::mem::AppPtr<L,T> as core::ops::drop::Drop>::drop>
20008b5c:	452d                	li	a0,11
20008b5e:	4422                	lw	s0,8(sp)
20008b60:	40b2                	lw	ra,12(sp)
20008b62:	0141                	addi	sp,sp,16
20008b64:	8082                	ret

20008b66 <<capsules::alarm::AlarmDriver<A> as kernel::driver::Driver>::command>:
20008b66:	7139                	addi	sp,sp,-64
20008b68:	de06                	sw	ra,60(sp)
20008b6a:	dc22                	sw	s0,56(sp)
20008b6c:	da26                	sw	s1,52(sp)
20008b6e:	d84a                	sw	s2,48(sp)
20008b70:	d64e                	sw	s3,44(sp)
20008b72:	d452                	sw	s4,40(sp)
20008b74:	d256                	sw	s5,36(sp)
20008b76:	d05a                	sw	s6,32(sp)
20008b78:	0080                	addi	s0,sp,64
20008b7a:	fcb42223          	sw	a1,-60(s0)
20008b7e:	fca42023          	sw	a0,-64(s0)
20008b82:	fcc42423          	sw	a2,-56(s0)
20008b86:	4710                	lw	a2,8(a4)
20008b88:	08f66c63          	bltu	a2,a5,20008c20 <<capsules::alarm::AlarmDriver<A> as kernel::driver::Driver>::command+0xba>
20008b8c:	12c7f963          	bgeu	a5,a2,20008cbe <<capsules::alarm::AlarmDriver<A> as kernel::driver::Driver>::command+0x158>
20008b90:	84ae                	mv	s1,a1
20008b92:	89aa                	mv	s3,a0
20008b94:	00379513          	slli	a0,a5,0x3
20008b98:	434c                	lw	a1,4(a4)
20008b9a:	952e                	add	a0,a0,a1
20008b9c:	00052a83          	lw	s5,0(a0)
20008ba0:	080a8063          	beqz	s5,20008c20 <<capsules::alarm::AlarmDriver<A> as kernel::driver::Driver>::command+0xba>
20008ba4:	00452b03          	lw	s6,4(a0)
20008ba8:	078b2603          	lw	a2,120(s6)
20008bac:	00c9a583          	lw	a1,12(s3)
20008bb0:	8556                	mv	a0,s5
20008bb2:	9602                	jalr	a2
20008bb4:	00052903          	lw	s2,0(a0)
20008bb8:	02091e63          	bnez	s2,20008bf4 <<capsules::alarm::AlarmDriver<A> as kernel::driver::Driver>::command+0x8e>
20008bbc:	8a2a                	mv	s4,a0
20008bbe:	070b2683          	lw	a3,112(s6)
20008bc2:	8556                	mv	a0,s5
20008bc4:	02000593          	li	a1,32
20008bc8:	4611                	li	a2,4
20008bca:	9682                	jalr	a3
20008bcc:	c17d                	beqz	a0,20008cb2 <<capsules::alarm::AlarmDriver<A> as kernel::driver::Driver>::command+0x14c>
20008bce:	892a                	mv	s2,a0
20008bd0:	00052423          	sw	zero,8(a0)
20008bd4:	00052023          	sw	zero,0(a0)
20008bd8:	0531                	addi	a0,a0,12
20008bda:	fcc40593          	addi	a1,s0,-52
20008bde:	4651                	li	a2,20
20008be0:	00001097          	auipc	ra,0x1
20008be4:	a86080e7          	jalr	-1402(ra) # 20009666 <memcpy>
20008be8:	012a2023          	sw	s2,0(s4)
20008bec:	fc442483          	lw	s1,-60(s0)
20008bf0:	fc042983          	lw	s3,-64(s0)
20008bf4:	0009a503          	lw	a0,0(s3)
20008bf8:	4108                	lw	a0,0(a0)
20008bfa:	4548                	lw	a0,12(a0)
20008bfc:	4108                	lw	a0,0(a0)
20008bfe:	10452583          	lw	a1,260(a0)
20008c02:	4511                	li	a0,4
20008c04:	08a48063          	beq	s1,a0,20008c84 <<capsules::alarm::AlarmDriver<A> as kernel::driver::Driver>::command+0x11e>
20008c08:	4505                	li	a0,1
20008c0a:	02a48f63          	beq	s1,a0,20008c48 <<capsules::alarm::AlarmDriver<A> as kernel::driver::Driver>::command+0xe2>
20008c0e:	4509                	li	a0,2
20008c10:	06a48563          	beq	s1,a0,20008c7a <<capsules::alarm::AlarmDriver<A> as kernel::driver::Driver>::command+0x114>
20008c14:	450d                	li	a0,3
20008c16:	02a48e63          	beq	s1,a0,20008c52 <<capsules::alarm::AlarmDriver<A> as kernel::driver::Driver>::command+0xec>
20008c1a:	e0bd                	bnez	s1,20008c80 <<capsules::alarm::AlarmDriver<A> as kernel::driver::Driver>::command+0x11a>
20008c1c:	4a05                	li	s4,1
20008c1e:	a805                	j	20008c4e <<capsules::alarm::AlarmDriver<A> as kernel::driver::Driver>::command+0xe8>
20008c20:	4501                	li	a0,0
20008c22:	2000a5b7          	lui	a1,0x2000a
20008c26:	40858593          	addi	a1,a1,1032 # 2000a408 <.L__unnamed_28+0xa2>
20008c2a:	050a                	slli	a0,a0,0x2
20008c2c:	952e                	add	a0,a0,a1
20008c2e:	4104                	lw	s1,0(a0)
20008c30:	8526                	mv	a0,s1
20008c32:	85d2                	mv	a1,s4
20008c34:	5b02                	lw	s6,32(sp)
20008c36:	5a92                	lw	s5,36(sp)
20008c38:	5a22                	lw	s4,40(sp)
20008c3a:	59b2                	lw	s3,44(sp)
20008c3c:	5942                	lw	s2,48(sp)
20008c3e:	54d2                	lw	s1,52(sp)
20008c40:	5462                	lw	s0,56(sp)
20008c42:	50f2                	lw	ra,60(sp)
20008c44:	6121                	addi	sp,sp,64
20008c46:	8082                	ret
20008c48:	6509                	lui	a0,0x2
20008c4a:	71050a13          	addi	s4,a0,1808 # 2710 <.Lline_table_start9+0x9c>
20008c4e:	4481                	li	s1,0
20008c50:	b7c5                	j	20008c30 <<capsules::alarm::AlarmDriver<A> as kernel::driver::Driver>::command+0xca>
20008c52:	00092503          	lw	a0,0(s2)
20008c56:	4605                	li	a2,1
20008c58:	04c51f63          	bne	a0,a2,20008cb6 <<capsules::alarm::AlarmDriver<A> as kernel::driver::Driver>::command+0x150>
20008c5c:	00492503          	lw	a0,4(s2)
20008c60:	fc842603          	lw	a2,-56(s0)
20008c64:	04c51b63          	bne	a0,a2,20008cba <<capsules::alarm::AlarmDriver<A> as kernel::driver::Driver>::command+0x154>
20008c68:	00092023          	sw	zero,0(s2)
20008c6c:	fc042503          	lw	a0,-64(s0)
20008c70:	4150                	lw	a2,4(a0)
20008c72:	167d                	addi	a2,a2,-1
20008c74:	c150                	sw	a2,4(a0)
20008c76:	4485                	li	s1,1
20008c78:	a805                	j	20008ca8 <<capsules::alarm::AlarmDriver<A> as kernel::driver::Driver>::command+0x142>
20008c7a:	4481                	li	s1,0
20008c7c:	8a2e                	mv	s4,a1
20008c7e:	bf4d                	j	20008c30 <<capsules::alarm::AlarmDriver<A> as kernel::driver::Driver>::command+0xca>
20008c80:	44ad                	li	s1,11
20008c82:	b77d                	j	20008c30 <<capsules::alarm::AlarmDriver<A> as kernel::driver::Driver>::command+0xca>
20008c84:	fc842a03          	lw	s4,-56(s0)
20008c88:	00092503          	lw	a0,0(s2)
20008c8c:	e511                	bnez	a0,20008c98 <<capsules::alarm::AlarmDriver<A> as kernel::driver::Driver>::command+0x132>
20008c8e:	0049a503          	lw	a0,4(s3)
20008c92:	0505                	addi	a0,a0,1
20008c94:	00a9a223          	sw	a0,4(s3)
20008c98:	01492223          	sw	s4,4(s2)
20008c9c:	4505                	li	a0,1
20008c9e:	00a92023          	sw	a0,0(s2)
20008ca2:	fc042503          	lw	a0,-64(s0)
20008ca6:	4481                	li	s1,0
20008ca8:	00000097          	auipc	ra,0x0
20008cac:	252080e7          	jalr	594(ra) # 20008efa <capsules::alarm::AlarmDriver<A>::reset_active_alarm>
20008cb0:	b741                	j	20008c30 <<capsules::alarm::AlarmDriver<A> as kernel::driver::Driver>::command+0xca>
20008cb2:	4505                	li	a0,1
20008cb4:	b7bd                	j	20008c22 <<capsules::alarm::AlarmDriver<A> as kernel::driver::Driver>::command+0xbc>
20008cb6:	4491                	li	s1,4
20008cb8:	bfa5                	j	20008c30 <<capsules::alarm::AlarmDriver<A> as kernel::driver::Driver>::command+0xca>
20008cba:	449d                	li	s1,7
20008cbc:	bf95                	j	20008c30 <<capsules::alarm::AlarmDriver<A> as kernel::driver::Driver>::command+0xca>
20008cbe:	10002537          	lui	a0,0x10002
20008cc2:	a1c50513          	addi	a0,a0,-1508 # 10001a1c <.L__unnamed_41>
20008cc6:	85be                	mv	a1,a5
20008cc8:	ffffb097          	auipc	ra,0xffffb
20008ccc:	d7e080e7          	jalr	-642(ra) # 20003a46 <core::panicking::panic_bounds_check>
20008cd0:	00003097          	auipc	ra,0x3
20008cd4:	45c080e7          	jalr	1116(ra) # 2000c12c <abort>

20008cd8 <<capsules::alarm::AlarmDriver<A> as kernel::driver::Driver>::subscribe>:
20008cd8:	7179                	addi	sp,sp,-48
20008cda:	d606                	sw	ra,44(sp)
20008cdc:	d422                	sw	s0,40(sp)
20008cde:	d226                	sw	s1,36(sp)
20008ce0:	d04a                	sw	s2,32(sp)
20008ce2:	ce4e                	sw	s3,28(sp)
20008ce4:	cc52                	sw	s4,24(sp)
20008ce6:	ca56                	sw	s5,20(sp)
20008ce8:	1800                	addi	s0,sp,48
20008cea:	89b2                	mv	s3,a2
20008cec:	4690                	lw	a2,8(a3)
20008cee:	06e66763          	bltu	a2,a4,20008d5c <<capsules::alarm::AlarmDriver<A> as kernel::driver::Driver>::subscribe+0x84>
20008cf2:	08c77863          	bgeu	a4,a2,20008d82 <<capsules::alarm::AlarmDriver<A> as kernel::driver::Driver>::subscribe+0xaa>
20008cf6:	00371593          	slli	a1,a4,0x3
20008cfa:	42d0                	lw	a2,4(a3)
20008cfc:	95b2                	add	a1,a1,a2
20008cfe:	4184                	lw	s1,0(a1)
20008d00:	ccb1                	beqz	s1,20008d5c <<capsules::alarm::AlarmDriver<A> as kernel::driver::Driver>::subscribe+0x84>
20008d02:	0045aa83          	lw	s5,4(a1)
20008d06:	078aa603          	lw	a2,120(s5)
20008d0a:	454c                	lw	a1,12(a0)
20008d0c:	8526                	mv	a0,s1
20008d0e:	9602                	jalr	a2
20008d10:	00052a03          	lw	s4,0(a0)
20008d14:	020a1a63          	bnez	s4,20008d48 <<capsules::alarm::AlarmDriver<A> as kernel::driver::Driver>::subscribe+0x70>
20008d18:	892a                	mv	s2,a0
20008d1a:	070aa683          	lw	a3,112(s5)
20008d1e:	8526                	mv	a0,s1
20008d20:	02000593          	li	a1,32
20008d24:	4611                	li	a2,4
20008d26:	9682                	jalr	a3
20008d28:	c939                	beqz	a0,20008d7e <<capsules::alarm::AlarmDriver<A> as kernel::driver::Driver>::subscribe+0xa6>
20008d2a:	8a2a                	mv	s4,a0
20008d2c:	00052423          	sw	zero,8(a0)
20008d30:	00052023          	sw	zero,0(a0)
20008d34:	0531                	addi	a0,a0,12
20008d36:	fd040593          	addi	a1,s0,-48
20008d3a:	4651                	li	a2,20
20008d3c:	00001097          	auipc	ra,0x1
20008d40:	92a080e7          	jalr	-1750(ra) # 20009666 <memcpy>
20008d44:	01492023          	sw	s4,0(s2)
20008d48:	008a0513          	addi	a0,s4,8
20008d4c:	85ce                	mv	a1,s3
20008d4e:	4661                	li	a2,24
20008d50:	00001097          	auipc	ra,0x1
20008d54:	916080e7          	jalr	-1770(ra) # 20009666 <memcpy>
20008d58:	4505                	li	a0,1
20008d5a:	a809                	j	20008d6c <<capsules::alarm::AlarmDriver<A> as kernel::driver::Driver>::subscribe+0x94>
20008d5c:	4501                	li	a0,0
20008d5e:	2000a5b7          	lui	a1,0x2000a
20008d62:	40858593          	addi	a1,a1,1032 # 2000a408 <.L__unnamed_28+0xa2>
20008d66:	050a                	slli	a0,a0,0x2
20008d68:	952e                	add	a0,a0,a1
20008d6a:	4108                	lw	a0,0(a0)
20008d6c:	4ad2                	lw	s5,20(sp)
20008d6e:	4a62                	lw	s4,24(sp)
20008d70:	49f2                	lw	s3,28(sp)
20008d72:	5902                	lw	s2,32(sp)
20008d74:	5492                	lw	s1,36(sp)
20008d76:	5422                	lw	s0,40(sp)
20008d78:	50b2                	lw	ra,44(sp)
20008d7a:	6145                	addi	sp,sp,48
20008d7c:	8082                	ret
20008d7e:	4505                	li	a0,1
20008d80:	bff9                	j	20008d5e <<capsules::alarm::AlarmDriver<A> as kernel::driver::Driver>::subscribe+0x86>
20008d82:	10002537          	lui	a0,0x10002
20008d86:	a1c50513          	addi	a0,a0,-1508 # 10001a1c <.L__unnamed_41>
20008d8a:	85ba                	mv	a1,a4
20008d8c:	ffffb097          	auipc	ra,0xffffb
20008d90:	cba080e7          	jalr	-838(ra) # 20003a46 <core::panicking::panic_bounds_check>
20008d94:	00003097          	auipc	ra,0x3
20008d98:	398080e7          	jalr	920(ra) # 2000c12c <abort>

20008d9c <<capsules::alarm::AlarmDriver<A> as kernel::hil::time::AlarmClient>::fired>:
20008d9c:	7159                	addi	sp,sp,-112
20008d9e:	d686                	sw	ra,108(sp)
20008da0:	d4a2                	sw	s0,104(sp)
20008da2:	d2a6                	sw	s1,100(sp)
20008da4:	d0ca                	sw	s2,96(sp)
20008da6:	cece                	sw	s3,92(sp)
20008da8:	ccd2                	sw	s4,88(sp)
20008daa:	cad6                	sw	s5,84(sp)
20008dac:	c8da                	sw	s6,80(sp)
20008dae:	c6de                	sw	s7,76(sp)
20008db0:	c4e2                	sw	s8,72(sp)
20008db2:	c2e6                	sw	s9,68(sp)
20008db4:	c0ea                	sw	s10,64(sp)
20008db6:	de6e                	sw	s11,60(sp)
20008db8:	1880                	addi	s0,sp,112
20008dba:	8baa                	mv	s7,a0
20008dbc:	4108                	lw	a0,0(a0)
20008dbe:	4108                	lw	a0,0(a0)
20008dc0:	4548                	lw	a0,12(a0)
20008dc2:	4108                	lw	a0,0(a0)
20008dc4:	10452903          	lw	s2,260(a0)
20008dc8:	008ba503          	lw	a0,8(s7)
20008dcc:	450c                	lw	a1,8(a0)
20008dce:	00359c13          	slli	s8,a1,0x3
20008dd2:	4148                	lw	a0,4(a0)
20008dd4:	00450c93          	addi	s9,a0,4
20008dd8:	4d05                	li	s10,1
20008dda:	f9c40a13          	addi	s4,s0,-100
20008dde:	fb040a93          	addi	s5,s0,-80
20008de2:	f9040b13          	addi	s6,s0,-112
20008de6:	0a0c0663          	beqz	s8,20008e92 <<capsules::alarm::AlarmDriver<A> as kernel::hil::time::AlarmClient>::fired+0xf6>
20008dea:	ffcca483          	lw	s1,-4(s9)
20008dee:	ccd1                	beqz	s1,20008e8a <<capsules::alarm::AlarmDriver<A> as kernel::hil::time::AlarmClient>::fired+0xee>
20008df0:	00cba583          	lw	a1,12(s7)
20008df4:	000ca983          	lw	s3,0(s9)
20008df8:	0789a603          	lw	a2,120(s3)
20008dfc:	8526                	mv	a0,s1
20008dfe:	9602                	jalr	a2
20008e00:	00052d83          	lw	s11,0(a0)
20008e04:	080d8363          	beqz	s11,20008e8a <<capsules::alarm::AlarmDriver<A> as kernel::hil::time::AlarmClient>::fired+0xee>
20008e08:	00c9a583          	lw	a1,12(s3)
20008e0c:	8526                	mv	a0,s1
20008e0e:	9582                	jalr	a1
20008e10:	f8b42c23          	sw	a1,-104(s0)
20008e14:	f8a42a23          	sw	a0,-108(s0)
20008e18:	f9b42823          	sw	s11,-112(s0)
20008e1c:	000da503          	lw	a0,0(s11)
20008e20:	07a51063          	bne	a0,s10,20008e80 <<capsules::alarm::AlarmDriver<A> as kernel::hil::time::AlarmClient>::fired+0xe4>
20008e24:	010ba503          	lw	a0,16(s7)
20008e28:	40a905b3          	sub	a1,s2,a0
20008e2c:	004da483          	lw	s1,4(s11)
20008e30:	40a48533          	sub	a0,s1,a0
20008e34:	04a5e663          	bltu	a1,a0,20008e80 <<capsules::alarm::AlarmDriver<A> as kernel::hil::time::AlarmClient>::fired+0xe4>
20008e38:	000da023          	sw	zero,0(s11)
20008e3c:	004ba503          	lw	a0,4(s7)
20008e40:	157d                	addi	a0,a0,-1
20008e42:	00aba223          	sw	a0,4(s7)
20008e46:	008da983          	lw	s3,8(s11)
20008e4a:	00cd8593          	addi	a1,s11,12
20008e4e:	8552                	mv	a0,s4
20008e50:	4651                	li	a2,20
20008e52:	00001097          	auipc	ra,0x1
20008e56:	814080e7          	jalr	-2028(ra) # 20009666 <memcpy>
20008e5a:	02098363          	beqz	s3,20008e80 <<capsules::alarm::AlarmDriver<A> as kernel::hil::time::AlarmClient>::fired+0xe4>
20008e5e:	fb342823          	sw	s3,-80(s0)
20008e62:	fb440513          	addi	a0,s0,-76
20008e66:	85d2                	mv	a1,s4
20008e68:	4651                	li	a2,20
20008e6a:	00000097          	auipc	ra,0x0
20008e6e:	7fc080e7          	jalr	2044(ra) # 20009666 <memcpy>
20008e72:	8556                	mv	a0,s5
20008e74:	85ca                	mv	a1,s2
20008e76:	8626                	mv	a2,s1
20008e78:	ffffd097          	auipc	ra,0xffffd
20008e7c:	256080e7          	jalr	598(ra) # 200060ce <kernel::callback::Callback::schedule>
20008e80:	855a                	mv	a0,s6
20008e82:	00000097          	auipc	ra,0x0
20008e86:	c78080e7          	jalr	-904(ra) # 20008afa <<kernel::grant::Owned<T> as core::ops::drop::Drop>::drop>
20008e8a:	1c61                	addi	s8,s8,-8
20008e8c:	0ca1                	addi	s9,s9,8
20008e8e:	f40c1ee3          	bnez	s8,20008dea <<capsules::alarm::AlarmDriver<A> as kernel::hil::time::AlarmClient>::fired+0x4e>
20008e92:	004ba503          	lw	a0,4(s7)
20008e96:	cd0d                	beqz	a0,20008ed0 <<capsules::alarm::AlarmDriver<A> as kernel::hil::time::AlarmClient>::fired+0x134>
20008e98:	855e                	mv	a0,s7
20008e9a:	85ca                	mv	a1,s2
20008e9c:	00000097          	auipc	ra,0x0
20008ea0:	05e080e7          	jalr	94(ra) # 20008efa <capsules::alarm::AlarmDriver<A>::reset_active_alarm>
20008ea4:	4605                	li	a2,1
20008ea6:	02c51563          	bne	a0,a2,20008ed0 <<capsules::alarm::AlarmDriver<A> as kernel::hil::time::AlarmClient>::fired+0x134>
20008eaa:	41258533          	sub	a0,a1,s2
20008eae:	000ba583          	lw	a1,0(s7)
20008eb2:	418c                	lw	a1,0(a1)
20008eb4:	45cc                	lw	a1,12(a1)
20008eb6:	418c                	lw	a1,0(a1)
20008eb8:	1045a583          	lw	a1,260(a1)
20008ebc:	412585b3          	sub	a1,a1,s2
20008ec0:	00a5ee63          	bltu	a1,a0,20008edc <<capsules::alarm::AlarmDriver<A> as kernel::hil::time::AlarmClient>::fired+0x140>
20008ec4:	855e                	mv	a0,s7
20008ec6:	00000097          	auipc	ra,0x0
20008eca:	ed6080e7          	jalr	-298(ra) # 20008d9c <<capsules::alarm::AlarmDriver<A> as kernel::hil::time::AlarmClient>::fired>
20008ece:	a039                	j	20008edc <<capsules::alarm::AlarmDriver<A> as kernel::hil::time::AlarmClient>::fired+0x140>
20008ed0:	000ba503          	lw	a0,0(s7)
20008ed4:	00000097          	auipc	ra,0x0
20008ed8:	b9c080e7          	jalr	-1124(ra) # 20008a70 <<capsules::virtual_alarm::VirtualMuxAlarm<A> as kernel::hil::time::Alarm>::disable>
20008edc:	5df2                	lw	s11,60(sp)
20008ede:	4d06                	lw	s10,64(sp)
20008ee0:	4c96                	lw	s9,68(sp)
20008ee2:	4c26                	lw	s8,72(sp)
20008ee4:	4bb6                	lw	s7,76(sp)
20008ee6:	4b46                	lw	s6,80(sp)
20008ee8:	4ad6                	lw	s5,84(sp)
20008eea:	4a66                	lw	s4,88(sp)
20008eec:	49f6                	lw	s3,92(sp)
20008eee:	5906                	lw	s2,96(sp)
20008ef0:	5496                	lw	s1,100(sp)
20008ef2:	5426                	lw	s0,104(sp)
20008ef4:	50b6                	lw	ra,108(sp)
20008ef6:	6165                	addi	sp,sp,112
20008ef8:	8082                	ret

20008efa <capsules::alarm::AlarmDriver<A>::reset_active_alarm>:
20008efa:	7139                	addi	sp,sp,-64
20008efc:	de06                	sw	ra,60(sp)
20008efe:	dc22                	sw	s0,56(sp)
20008f00:	da26                	sw	s1,52(sp)
20008f02:	d84a                	sw	s2,48(sp)
20008f04:	d64e                	sw	s3,44(sp)
20008f06:	d452                	sw	s4,40(sp)
20008f08:	d256                	sw	s5,36(sp)
20008f0a:	d05a                	sw	s6,32(sp)
20008f0c:	ce5e                	sw	s7,28(sp)
20008f0e:	cc62                	sw	s8,24(sp)
20008f10:	ca66                	sw	s9,20(sp)
20008f12:	c86a                	sw	s10,16(sp)
20008f14:	c66e                	sw	s11,12(sp)
20008f16:	0080                	addi	s0,sp,64
20008f18:	89ae                	mv	s3,a1
20008f1a:	8a2a                	mv	s4,a0
20008f1c:	c90c                	sw	a1,16(a0)
20008f1e:	597d                	li	s2,-1
20008f20:	4508                	lw	a0,8(a0)
20008f22:	00852b03          	lw	s6,8(a0)
20008f26:	fc040a93          	addi	s5,s0,-64
20008f2a:	5c7d                	li	s8,-1
20008f2c:	4481                	li	s1,0
20008f2e:	00349d93          	slli	s11,s1,0x3
20008f32:	0764fb63          	bgeu	s1,s6,20008fa8 <capsules::alarm::AlarmDriver<A>::reset_active_alarm+0xae>
20008f36:	008a2b83          	lw	s7,8(s4)
20008f3a:	008ba603          	lw	a2,8(s7)
20008f3e:	02966463          	bltu	a2,s1,20008f66 <capsules::alarm::AlarmDriver<A>::reset_active_alarm+0x6c>
20008f42:	0ac4f063          	bgeu	s1,a2,20008fe2 <capsules::alarm::AlarmDriver<A>::reset_active_alarm+0xe8>
20008f46:	004ba503          	lw	a0,4(s7)
20008f4a:	01b505b3          	add	a1,a0,s11
20008f4e:	4188                	lw	a0,0(a1)
20008f50:	c919                	beqz	a0,20008f66 <capsules::alarm::AlarmDriver<A>::reset_active_alarm+0x6c>
20008f52:	41cc                	lw	a1,4(a1)
20008f54:	5db0                	lw	a2,120(a1)
20008f56:	00ca2583          	lw	a1,12(s4)
20008f5a:	9602                	jalr	a2
20008f5c:	4108                	lw	a0,0(a0)
20008f5e:	c119                	beqz	a0,20008f64 <capsules::alarm::AlarmDriver<A>::reset_active_alarm+0x6a>
20008f60:	8ca6                	mv	s9,s1
20008f62:	8d2a                	mv	s10,a0
20008f64:	e511                	bnez	a0,20008f70 <capsules::alarm::AlarmDriver<A>::reset_active_alarm+0x76>
20008f66:	0485                	addi	s1,s1,1
20008f68:	0da1                	addi	s11,s11,8
20008f6a:	fd64e6e3          	bltu	s1,s6,20008f36 <capsules::alarm::AlarmDriver<A>::reset_active_alarm+0x3c>
20008f6e:	a82d                	j	20008fa8 <capsules::alarm::AlarmDriver<A>::reset_active_alarm+0xae>
20008f70:	fd942423          	sw	s9,-56(s0)
20008f74:	fd742223          	sw	s7,-60(s0)
20008f78:	fda42023          	sw	s10,-64(s0)
20008f7c:	000d2503          	lw	a0,0(s10)
20008f80:	4585                	li	a1,1
20008f82:	00b51c63          	bne	a0,a1,20008f9a <capsules::alarm::AlarmDriver<A>::reset_active_alarm+0xa0>
20008f86:	004d2503          	lw	a0,4(s10)
20008f8a:	413505b3          	sub	a1,a0,s3
20008f8e:	0185e463          	bltu	a1,s8,20008f96 <capsules::alarm::AlarmDriver<A>::reset_active_alarm+0x9c>
20008f92:	854a                	mv	a0,s2
20008f94:	85e2                	mv	a1,s8
20008f96:	892a                	mv	s2,a0
20008f98:	8c2e                	mv	s8,a1
20008f9a:	0485                	addi	s1,s1,1
20008f9c:	8556                	mv	a0,s5
20008f9e:	00000097          	auipc	ra,0x0
20008fa2:	b5c080e7          	jalr	-1188(ra) # 20008afa <<kernel::grant::Owned<T> as core::ops::drop::Drop>::drop>
20008fa6:	b761                	j	20008f2e <capsules::alarm::AlarmDriver<A>::reset_active_alarm+0x34>
20008fa8:	557d                	li	a0,-1
20008faa:	00a90b63          	beq	s2,a0,20008fc0 <capsules::alarm::AlarmDriver<A>::reset_active_alarm+0xc6>
20008fae:	000a2503          	lw	a0,0(s4)
20008fb2:	85ca                	mv	a1,s2
20008fb4:	00000097          	auipc	ra,0x0
20008fb8:	aea080e7          	jalr	-1302(ra) # 20008a9e <<capsules::virtual_alarm::VirtualMuxAlarm<A> as kernel::hil::time::Alarm>::set_alarm>
20008fbc:	4505                	li	a0,1
20008fbe:	a011                	j	20008fc2 <capsules::alarm::AlarmDriver<A>::reset_active_alarm+0xc8>
20008fc0:	4501                	li	a0,0
20008fc2:	85ca                	mv	a1,s2
20008fc4:	4db2                	lw	s11,12(sp)
20008fc6:	4d42                	lw	s10,16(sp)
20008fc8:	4cd2                	lw	s9,20(sp)
20008fca:	4c62                	lw	s8,24(sp)
20008fcc:	4bf2                	lw	s7,28(sp)
20008fce:	5b02                	lw	s6,32(sp)
20008fd0:	5a92                	lw	s5,36(sp)
20008fd2:	5a22                	lw	s4,40(sp)
20008fd4:	59b2                	lw	s3,44(sp)
20008fd6:	5942                	lw	s2,48(sp)
20008fd8:	54d2                	lw	s1,52(sp)
20008fda:	5462                	lw	s0,56(sp)
20008fdc:	50f2                	lw	ra,60(sp)
20008fde:	6121                	addi	sp,sp,64
20008fe0:	8082                	ret
20008fe2:	10002537          	lui	a0,0x10002
20008fe6:	a1c50513          	addi	a0,a0,-1508 # 10001a1c <.L__unnamed_41>
20008fea:	85a6                	mv	a1,s1
20008fec:	ffffb097          	auipc	ra,0xffffb
20008ff0:	a5a080e7          	jalr	-1446(ra) # 20003a46 <core::panicking::panic_bounds_check>
20008ff4:	00003097          	auipc	ra,0x3
20008ff8:	138080e7          	jalr	312(ra) # 2000c12c <abort>

20008ffc <<rv32i::pmp::PMPConfig as kernel::platform::mpu::MPU>::allocate_region>:
20008ffc:	7179                	addi	sp,sp,-48
20008ffe:	d606                	sw	ra,44(sp)
20009000:	d422                	sw	s0,40(sp)
20009002:	d226                	sw	s1,36(sp)
20009004:	d04a                	sw	s2,32(sp)
20009006:	ce4e                	sw	s3,28(sp)
20009008:	cc52                	sw	s4,24(sp)
2000900a:	ca56                	sw	s5,20(sp)
2000900c:	c85a                	sw	s6,16(sp)
2000900e:	c65e                	sw	s7,12(sp)
20009010:	c462                	sw	s8,8(sp)
20009012:	1800                	addi	s0,sp,48
20009014:	8b3e                	mv	s6,a5
20009016:	893a                	mv	s2,a4
20009018:	8ab6                	mv	s5,a3
2000901a:	8c32                	mv	s8,a2
2000901c:	8a2e                	mv	s4,a1
2000901e:	89aa                	mv	s3,a0
20009020:	0a000b93          	li	s7,160
20009024:	4481                	li	s1,0
20009026:	01748d63          	beq	s1,s7,20009040 <<rv32i::pmp::PMPConfig as kernel::platform::mpu::MPU>::allocate_region+0x44>
2000902a:	009b0533          	add	a0,s6,s1
2000902e:	85d2                	mv	a1,s4
20009030:	8662                	mv	a2,s8
20009032:	00000097          	auipc	ra,0x0
20009036:	0cc080e7          	jalr	204(ra) # 200090fe <rv32i::pmp::PMPRegion::overlaps>
2000903a:	04d1                	addi	s1,s1,20
2000903c:	d56d                	beqz	a0,20009026 <<rv32i::pmp::PMPConfig as kernel::platform::mpu::MPU>::allocate_region+0x2a>
2000903e:	a025                	j	20009066 <<rv32i::pmp::PMPConfig as kernel::platform::mpu::MPU>::allocate_region+0x6a>
20009040:	0a0b2603          	lw	a2,160(s6)
20009044:	0a000693          	li	a3,160
20009048:	4701                	li	a4,0
2000904a:	4581                	li	a1,0
2000904c:	00d70d63          	beq	a4,a3,20009066 <<rv32i::pmp::PMPConfig as kernel::platform::mpu::MPU>::allocate_region+0x6a>
20009050:	c719                	beqz	a4,2000905e <<rv32i::pmp::PMPConfig as kernel::platform::mpu::MPU>::allocate_region+0x62>
20009052:	00c5f663          	bgeu	a1,a2,2000905e <<rv32i::pmp::PMPConfig as kernel::platform::mpu::MPU>::allocate_region+0x62>
20009056:	00eb0533          	add	a0,s6,a4
2000905a:	411c                	lw	a5,0(a0)
2000905c:	c39d                	beqz	a5,20009082 <<rv32i::pmp::PMPConfig as kernel::platform::mpu::MPU>::allocate_region+0x86>
2000905e:	0585                	addi	a1,a1,1
20009060:	0751                	addi	a4,a4,20
20009062:	fed717e3          	bne	a4,a3,20009050 <<rv32i::pmp::PMPConfig as kernel::platform::mpu::MPU>::allocate_region+0x54>
20009066:	0009a023          	sw	zero,0(s3)
2000906a:	4c22                	lw	s8,8(sp)
2000906c:	4bb2                	lw	s7,12(sp)
2000906e:	4b42                	lw	s6,16(sp)
20009070:	4ad2                	lw	s5,20(sp)
20009072:	4a62                	lw	s4,24(sp)
20009074:	49f2                	lw	s3,28(sp)
20009076:	5902                	lw	s2,32(sp)
20009078:	5492                	lw	s1,36(sp)
2000907a:	5422                	lw	s0,40(sp)
2000907c:	50b2                	lw	ra,44(sp)
2000907e:	6145                	addi	sp,sp,48
20009080:	8082                	ret
20009082:	001a8693          	addi	a3,s5,1
20009086:	4601                	li	a2,0
20009088:	0036f493          	andi	s1,a3,3
2000908c:	4791                	li	a5,4
2000908e:	4701                	li	a4,0
20009090:	c099                	beqz	s1,20009096 <<rv32i::pmp::PMPConfig as kernel::platform::mpu::MPU>::allocate_region+0x9a>
20009092:	40978733          	sub	a4,a5,s1
20009096:	003a7493          	andi	s1,s4,3
2000909a:	00c48463          	beq	s1,a2,200090a2 <<rv32i::pmp::PMPConfig as kernel::platform::mpu::MPU>::allocate_region+0xa6>
2000909e:	40978633          	sub	a2,a5,s1
200090a2:	96ba                	add	a3,a3,a4
200090a4:	4721                	li	a4,8
200090a6:	00d76363          	bltu	a4,a3,200090ac <<rv32i::pmp::PMPConfig as kernel::platform::mpu::MPU>::allocate_region+0xb0>
200090aa:	46a1                	li	a3,8
200090ac:	02e5fc63          	bgeu	a1,a4,200090e4 <<rv32i::pmp::PMPConfig as kernel::platform::mpu::MPU>::allocate_region+0xe8>
200090b0:	014605b3          	add	a1,a2,s4
200090b4:	2000c637          	lui	a2,0x2000c
200090b8:	11860613          	addi	a2,a2,280 # 2000c118 <.Lswitch.table._ZN5rv32i3pmp9PMPRegion3new17h0b74f1901c9a65a1E>
200090bc:	01891713          	slli	a4,s2,0x18
200090c0:	8761                	srai	a4,a4,0x18
200090c2:	070a                	slli	a4,a4,0x2
200090c4:	963a                	add	a2,a2,a4
200090c6:	477d                	li	a4,31
200090c8:	c558                	sw	a4,12(a0)
200090ca:	4210                	lw	a2,0(a2)
200090cc:	c910                	sw	a2,16(a0)
200090ce:	c514                	sw	a3,8(a0)
200090d0:	c14c                	sw	a1,4(a0)
200090d2:	4605                	li	a2,1
200090d4:	c110                	sw	a2,0(a0)
200090d6:	00d9a423          	sw	a3,8(s3)
200090da:	00b9a223          	sw	a1,4(s3)
200090de:	00c9a023          	sw	a2,0(s3)
200090e2:	b761                	j	2000906a <<rv32i::pmp::PMPConfig as kernel::platform::mpu::MPU>::allocate_region+0x6e>
200090e4:	10002537          	lui	a0,0x10002
200090e8:	be850513          	addi	a0,a0,-1048 # 10001be8 <.Lanon.883a4ca74ee52f0a48d4f518a300d6dc.5>
200090ec:	4621                	li	a2,8
200090ee:	ffffb097          	auipc	ra,0xffffb
200090f2:	958080e7          	jalr	-1704(ra) # 20003a46 <core::panicking::panic_bounds_check>
200090f6:	00003097          	auipc	ra,0x3
200090fa:	036080e7          	jalr	54(ra) # 2000c12c <abort>

200090fe <rv32i::pmp::PMPRegion::overlaps>:
200090fe:	1141                	addi	sp,sp,-16
20009100:	c606                	sw	ra,12(sp)
20009102:	c422                	sw	s0,8(sp)
20009104:	0800                	addi	s0,sp,16
20009106:	4114                	lw	a3,0(a0)
20009108:	4705                	li	a4,1
2000910a:	00e69c63          	bne	a3,a4,20009122 <rv32i::pmp::PMPRegion::overlaps+0x24>
2000910e:	00c586b3          	add	a3,a1,a2
20009112:	4150                	lw	a2,4(a0)
20009114:	00d67763          	bgeu	a2,a3,20009122 <rv32i::pmp::PMPRegion::overlaps+0x24>
20009118:	4508                	lw	a0,8(a0)
2000911a:	9532                	add	a0,a0,a2
2000911c:	00a5b533          	sltu	a0,a1,a0
20009120:	a011                	j	20009124 <rv32i::pmp::PMPRegion::overlaps+0x26>
20009122:	4501                	li	a0,0
20009124:	4422                	lw	s0,8(sp)
20009126:	40b2                	lw	ra,12(sp)
20009128:	0141                	addi	sp,sp,16
2000912a:	8082                	ret

2000912c <<rv32i::pmp::PMPConfig as kernel::platform::mpu::MPU>::update_app_memory_region>:
2000912c:	1141                	addi	sp,sp,-16
2000912e:	c606                	sw	ra,12(sp)
20009130:	c422                	sw	s0,8(sp)
20009132:	0800                	addi	s0,sp,16
20009134:	86aa                	mv	a3,a0
20009136:	4505                	li	a0,1
20009138:	00d5ec63          	bltu	a1,a3,20009150 <<rv32i::pmp::PMPConfig as kernel::platform::mpu::MPU>::update_app_memory_region+0x24>
2000913c:	4214                	lw	a3,0(a2)
2000913e:	4585                	li	a1,1
20009140:	00b69863          	bne	a3,a1,20009150 <<rv32i::pmp::PMPConfig as kernel::platform::mpu::MPU>::update_app_memory_region+0x24>
20009144:	452d                	li	a0,11
20009146:	ca08                	sw	a0,16(a2)
20009148:	457d                	li	a0,31
2000914a:	c648                	sw	a0,12(a2)
2000914c:	c20c                	sw	a1,0(a2)
2000914e:	4501                	li	a0,0
20009150:	4422                	lw	s0,8(sp)
20009152:	40b2                	lw	ra,12(sp)
20009154:	0141                	addi	sp,sp,16
20009156:	8082                	ret

20009158 <<rv32i::pmp::PMPConfig as kernel::platform::mpu::MPU>::configure_mpu>:
20009158:	7151                	addi	sp,sp,-240
2000915a:	d786                	sw	ra,236(sp)
2000915c:	d5a2                	sw	s0,232(sp)
2000915e:	d3a6                	sw	s1,228(sp)
20009160:	d1ca                	sw	s2,224(sp)
20009162:	cfce                	sw	s3,220(sp)
20009164:	cdd2                	sw	s4,216(sp)
20009166:	cbd6                	sw	s5,212(sp)
20009168:	c9da                	sw	s6,208(sp)
2000916a:	c7de                	sw	s7,204(sp)
2000916c:	c5e2                	sw	s8,200(sp)
2000916e:	c3e6                	sw	s9,196(sp)
20009170:	c1ea                	sw	s10,192(sp)
20009172:	df6e                	sw	s11,188(sp)
20009174:	1980                	addi	s0,sp,240
20009176:	f0a42e23          	sw	a0,-228(s0)
2000917a:	f2040993          	addi	s3,s0,-224
2000917e:	854e                	mv	a0,s3
20009180:	0a000613          	li	a2,160
20009184:	00000097          	auipc	ra,0x0
20009188:	4e2080e7          	jalr	1250(ra) # 20009666 <memcpy>
2000918c:	4a05                	li	s4,1
2000918e:	f0c40a93          	addi	s5,s0,-244
20009192:	4b21                	li	s6,8
20009194:	4bd1                	li	s7,20
20009196:	4c05                	li	s8,1
20009198:	0b6c0763          	beq	s8,s6,20009246 <<rv32i::pmp::PMPConfig as kernel::platform::mpu::MPU>::configure_mpu+0xee>
2000919c:	037c0533          	mul	a0,s8,s7
200091a0:	954e                	add	a0,a0,s3
200091a2:	fec52583          	lw	a1,-20(a0)
200091a6:	01458463          	beq	a1,s4,200091ae <<rv32i::pmp::PMPConfig as kernel::platform::mpu::MPU>::configure_mpu+0x56>
200091aa:	55fd                	li	a1,-1
200091ac:	a019                	j	200091b2 <<rv32i::pmp::PMPConfig as kernel::platform::mpu::MPU>::configure_mpu+0x5a>
200091ae:	ff052583          	lw	a1,-16(a0)
200091b2:	00452d03          	lw	s10,4(a0)
200091b6:	00052c83          	lw	s9,0(a0)
200091ba:	8dea                	mv	s11,s10
200091bc:	014c8363          	beq	s9,s4,200091c2 <<rv32i::pmp::PMPConfig as kernel::platform::mpu::MPU>::configure_mpu+0x6a>
200091c0:	5dfd                	li	s11,-1
200091c2:	06bdfe63          	bgeu	s11,a1,2000923e <<rv32i::pmp::PMPConfig as kernel::platform::mpu::MPU>::configure_mpu+0xe6>
200091c6:	fffc0913          	addi	s2,s8,-1
200091ca:	fec50593          	addi	a1,a0,-20
200091ce:	4910                	lw	a2,16(a0)
200091d0:	fcc42423          	sw	a2,-56(s0)
200091d4:	4550                	lw	a2,12(a0)
200091d6:	fcc42223          	sw	a2,-60(s0)
200091da:	4510                	lw	a2,8(a0)
200091dc:	fcc42023          	sw	a2,-64(s0)
200091e0:	4651                	li	a2,20
200091e2:	00000097          	auipc	ra,0x0
200091e6:	484080e7          	jalr	1156(ra) # 20009666 <memcpy>
200091ea:	84d6                	mv	s1,s5
200091ec:	02090863          	beqz	s2,2000921c <<rv32i::pmp::PMPConfig as kernel::platform::mpu::MPU>::configure_mpu+0xc4>
200091f0:	4088                	lw	a0,0(s1)
200091f2:	01450663          	beq	a0,s4,200091fe <<rv32i::pmp::PMPConfig as kernel::platform::mpu::MPU>::configure_mpu+0xa6>
200091f6:	557d                	li	a0,-1
200091f8:	00ade663          	bltu	s11,a0,20009204 <<rv32i::pmp::PMPConfig as kernel::platform::mpu::MPU>::configure_mpu+0xac>
200091fc:	a00d                	j	2000921e <<rv32i::pmp::PMPConfig as kernel::platform::mpu::MPU>::configure_mpu+0xc6>
200091fe:	40c8                	lw	a0,4(s1)
20009200:	00adff63          	bgeu	s11,a0,2000921e <<rv32i::pmp::PMPConfig as kernel::platform::mpu::MPU>::configure_mpu+0xc6>
20009204:	197d                	addi	s2,s2,-1
20009206:	01448513          	addi	a0,s1,20
2000920a:	85a6                	mv	a1,s1
2000920c:	4651                	li	a2,20
2000920e:	00000097          	auipc	ra,0x0
20009212:	458080e7          	jalr	1112(ra) # 20009666 <memcpy>
20009216:	14b1                	addi	s1,s1,-20
20009218:	fc091ce3          	bnez	s2,200091f0 <<rv32i::pmp::PMPConfig as kernel::platform::mpu::MPU>::configure_mpu+0x98>
2000921c:	4901                	li	s2,0
2000921e:	03790533          	mul	a0,s2,s7
20009222:	954e                	add	a0,a0,s3
20009224:	01a52223          	sw	s10,4(a0)
20009228:	01952023          	sw	s9,0(a0)
2000922c:	fc042583          	lw	a1,-64(s0)
20009230:	c50c                	sw	a1,8(a0)
20009232:	fc442583          	lw	a1,-60(s0)
20009236:	c54c                	sw	a1,12(a0)
20009238:	fc842583          	lw	a1,-56(s0)
2000923c:	c90c                	sw	a1,16(a0)
2000923e:	0c05                	addi	s8,s8,1
20009240:	0ad1                	addi	s5,s5,20
20009242:	f56c1de3          	bne	s8,s6,2000919c <<rv32i::pmp::PMPConfig as kernel::platform::mpu::MPU>::configure_mpu+0x44>
20009246:	f2840513          	addi	a0,s0,-216
2000924a:	f1c42583          	lw	a1,-228(s0)
2000924e:	0a05a603          	lw	a2,160(a1)
20009252:	e80005b7          	lui	a1,0xe8000
20009256:	fff58813          	addi	a6,a1,-1 # e7ffffff <_sapps+0xc7fcffff>
2000925a:	fc0005b7          	lui	a1,0xfc000
2000925e:	fff58893          	addi	a7,a1,-1 # fbffffff <_sapps+0xdbfcffff>
20009262:	fe0005b7          	lui	a1,0xfe000
20009266:	fff58293          	addi	t0,a1,-1 # fdffffff <_sapps+0xddfcffff>
2000926a:	ff0005b7          	lui	a1,0xff000
2000926e:	fff58b93          	addi	s7,a1,-1 # feffffff <_sapps+0xdefcffff>
20009272:	4ca1                	li	s9,8
20009274:	4d05                	li	s10,1
20009276:	4c1d                	li	s8,7
20009278:	08000337          	lui	t1,0x8000
2000927c:	75c1                	lui	a1,0xffff0
2000927e:	fff58393          	addi	t2,a1,-1 # fffeffff <_sapps+0xdffbffff>
20009282:	7581                	lui	a1,0xfffe0
20009284:	fff58e13          	addi	t3,a1,-1 # fffdffff <_sapps+0xdffaffff>
20009288:	fffc05b7          	lui	a1,0xfffc0
2000928c:	fff58e93          	addi	t4,a1,-1 # fffbffff <_sapps+0xdff8ffff>
20009290:	ffe805b7          	lui	a1,0xffe80
20009294:	fff58f13          	addi	t5,a1,-1 # ffe7ffff <_sapps+0xdfe4ffff>
20009298:	00080fb7          	lui	t6,0x80
2000929c:	4909                	li	s2,2
2000929e:	498d                	li	s3,3
200092a0:	4a11                	li	s4,4
200092a2:	4a95                	li	s5,5
200092a4:	4b19                	li	s6,6
200092a6:	4581                	li	a1,0
200092a8:	28b60563          	beq	a2,a1,20009532 <<rv32i::pmp::PMPConfig as kernel::platform::mpu::MPU>::configure_mpu+0x3da>
200092ac:	2b958263          	beq	a1,s9,20009550 <<rv32i::pmp::PMPConfig as kernel::platform::mpu::MPU>::configure_mpu+0x3f8>
200092b0:	ff852683          	lw	a3,-8(a0)
200092b4:	27a69b63          	bne	a3,s10,2000952a <<rv32i::pmp::PMPConfig as kernel::platform::mpu::MPU>::configure_mpu+0x3d2>
200092b8:	4514                	lw	a3,8(a0)
200092ba:	4118                	lw	a4,0(a0)
200092bc:	ffc52783          	lw	a5,-4(a0)
200092c0:	00f704b3          	add	s1,a4,a5
200092c4:	8389                	srli	a5,a5,0x2
200092c6:	01869713          	slli	a4,a3,0x18
200092ca:	15858163          	beq	a1,s8,2000940c <<rv32i::pmp::PMPConfig as kernel::platform::mpu::MPU>::configure_mpu+0x2b4>
200092ce:	0ba58363          	beq	a1,s10,20009374 <<rv32i::pmp::PMPConfig as kernel::platform::mpu::MPU>::configure_mpu+0x21c>
200092d2:	06a2                	slli	a3,a3,0x8
200092d4:	05258e63          	beq	a1,s2,20009330 <<rv32i::pmp::PMPConfig as kernel::platform::mpu::MPU>::configure_mpu+0x1d8>
200092d8:	0f358463          	beq	a1,s3,200093c0 <<rv32i::pmp::PMPConfig as kernel::platform::mpu::MPU>::configure_mpu+0x268>
200092dc:	17458e63          	beq	a1,s4,20009458 <<rv32i::pmp::PMPConfig as kernel::platform::mpu::MPU>::configure_mpu+0x300>
200092e0:	21558063          	beq	a1,s5,200094e0 <<rv32i::pmp::PMPConfig as kernel::platform::mpu::MPU>::configure_mpu+0x388>
200092e4:	1b658c63          	beq	a1,s6,2000949c <<rv32i::pmp::PMPConfig as kernel::platform::mpu::MPU>::configure_mpu+0x344>
200092e8:	24059563          	bnez	a1,20009532 <<rv32i::pmp::PMPConfig as kernel::platform::mpu::MPU>::configure_mpu+0x3da>
200092ec:	3a002773          	csrr	a4,pmpcfg0
200092f0:	9b79                	andi	a4,a4,-2
200092f2:	3a071073          	csrw	pmpcfg0,a4
200092f6:	3a002773          	csrr	a4,pmpcfg0
200092fa:	9b75                	andi	a4,a4,-3
200092fc:	3a071073          	csrw	pmpcfg0,a4
20009300:	3a002773          	csrr	a4,pmpcfg0
20009304:	9b6d                	andi	a4,a4,-5
20009306:	3a071073          	csrw	pmpcfg0,a4
2000930a:	3a002773          	csrr	a4,pmpcfg0
2000930e:	9b1d                	andi	a4,a4,-25
20009310:	00876713          	ori	a4,a4,8
20009314:	3a071073          	csrw	pmpcfg0,a4
20009318:	3b079073          	csrw	pmpaddr0,a5
2000931c:	3a002773          	csrr	a4,pmpcfg0
20009320:	8ed9                	or	a3,a3,a4
20009322:	3a069073          	csrw	pmpcfg0,a3
20009326:	0024d693          	srli	a3,s1,0x2
2000932a:	3b169073          	csrw	pmpaddr1,a3
2000932e:	aaf5                	j	2000952a <<rv32i::pmp::PMPConfig as kernel::platform::mpu::MPU>::configure_mpu+0x3d2>
20009330:	3a102773          	csrr	a4,pmpcfg1
20009334:	9b79                	andi	a4,a4,-2
20009336:	3a171073          	csrw	pmpcfg1,a4
2000933a:	3a102773          	csrr	a4,pmpcfg1
2000933e:	9b75                	andi	a4,a4,-3
20009340:	3a171073          	csrw	pmpcfg1,a4
20009344:	3a102773          	csrr	a4,pmpcfg1
20009348:	9b6d                	andi	a4,a4,-5
2000934a:	3a171073          	csrw	pmpcfg1,a4
2000934e:	3a102773          	csrr	a4,pmpcfg1
20009352:	9b1d                	andi	a4,a4,-25
20009354:	00876713          	ori	a4,a4,8
20009358:	3a171073          	csrw	pmpcfg1,a4
2000935c:	3b479073          	csrw	pmpaddr4,a5
20009360:	3a002773          	csrr	a4,pmpcfg0
20009364:	8ed9                	or	a3,a3,a4
20009366:	3a169073          	csrw	pmpcfg1,a3
2000936a:	0024d693          	srli	a3,s1,0x2
2000936e:	3b569073          	csrw	pmpaddr5,a3
20009372:	aa65                	j	2000952a <<rv32i::pmp::PMPConfig as kernel::platform::mpu::MPU>::configure_mpu+0x3d2>
20009374:	3a0026f3          	csrr	a3,pmpcfg0
20009378:	0076f6b3          	and	a3,a3,t2
2000937c:	3a069073          	csrw	pmpcfg0,a3
20009380:	3a0026f3          	csrr	a3,pmpcfg0
20009384:	01c6f6b3          	and	a3,a3,t3
20009388:	3a069073          	csrw	pmpcfg0,a3
2000938c:	3a0026f3          	csrr	a3,pmpcfg0
20009390:	01d6f6b3          	and	a3,a3,t4
20009394:	3a069073          	csrw	pmpcfg0,a3
20009398:	3a0026f3          	csrr	a3,pmpcfg0
2000939c:	01e6f6b3          	and	a3,a3,t5
200093a0:	01f6e6b3          	or	a3,a3,t6
200093a4:	3a069073          	csrw	pmpcfg0,a3
200093a8:	3b279073          	csrw	pmpaddr2,a5
200093ac:	3a0026f3          	csrr	a3,pmpcfg0
200093b0:	8ed9                	or	a3,a3,a4
200093b2:	3a069073          	csrw	pmpcfg0,a3
200093b6:	0024d693          	srli	a3,s1,0x2
200093ba:	3b369073          	csrw	pmpaddr3,a3
200093be:	a2b5                	j	2000952a <<rv32i::pmp::PMPConfig as kernel::platform::mpu::MPU>::configure_mpu+0x3d2>
200093c0:	3a1026f3          	csrr	a3,pmpcfg1
200093c4:	0176f6b3          	and	a3,a3,s7
200093c8:	3a169073          	csrw	pmpcfg1,a3
200093cc:	3a1026f3          	csrr	a3,pmpcfg1
200093d0:	0056f6b3          	and	a3,a3,t0
200093d4:	3a169073          	csrw	pmpcfg1,a3
200093d8:	3a1026f3          	csrr	a3,pmpcfg1
200093dc:	0116f6b3          	and	a3,a3,a7
200093e0:	3a169073          	csrw	pmpcfg1,a3
200093e4:	3a1026f3          	csrr	a3,pmpcfg1
200093e8:	0106f6b3          	and	a3,a3,a6
200093ec:	0066e6b3          	or	a3,a3,t1
200093f0:	3a169073          	csrw	pmpcfg1,a3
200093f4:	3b679073          	csrw	pmpaddr6,a5
200093f8:	3a0026f3          	csrr	a3,pmpcfg0
200093fc:	8ed9                	or	a3,a3,a4
200093fe:	3a169073          	csrw	pmpcfg1,a3
20009402:	0024d693          	srli	a3,s1,0x2
20009406:	3b769073          	csrw	pmpaddr7,a3
2000940a:	a205                	j	2000952a <<rv32i::pmp::PMPConfig as kernel::platform::mpu::MPU>::configure_mpu+0x3d2>
2000940c:	3a3026f3          	csrr	a3,pmpcfg3
20009410:	0176f6b3          	and	a3,a3,s7
20009414:	3a369073          	csrw	pmpcfg3,a3
20009418:	3a3026f3          	csrr	a3,pmpcfg3
2000941c:	0056f6b3          	and	a3,a3,t0
20009420:	3a369073          	csrw	pmpcfg3,a3
20009424:	3a3026f3          	csrr	a3,pmpcfg3
20009428:	0116f6b3          	and	a3,a3,a7
2000942c:	3a369073          	csrw	pmpcfg3,a3
20009430:	3a3026f3          	csrr	a3,pmpcfg3
20009434:	0106f6b3          	and	a3,a3,a6
20009438:	0066e6b3          	or	a3,a3,t1
2000943c:	3a369073          	csrw	pmpcfg3,a3
20009440:	3be79073          	csrw	pmpaddr14,a5
20009444:	3a0026f3          	csrr	a3,pmpcfg0
20009448:	8ed9                	or	a3,a3,a4
2000944a:	3a369073          	csrw	pmpcfg3,a3
2000944e:	0024d693          	srli	a3,s1,0x2
20009452:	3bf69073          	csrw	pmpaddr15,a3
20009456:	a8d1                	j	2000952a <<rv32i::pmp::PMPConfig as kernel::platform::mpu::MPU>::configure_mpu+0x3d2>
20009458:	3a202773          	csrr	a4,pmpcfg2
2000945c:	9b79                	andi	a4,a4,-2
2000945e:	3a271073          	csrw	pmpcfg2,a4
20009462:	3a202773          	csrr	a4,pmpcfg2
20009466:	9b75                	andi	a4,a4,-3
20009468:	3a271073          	csrw	pmpcfg2,a4
2000946c:	3a202773          	csrr	a4,pmpcfg2
20009470:	9b6d                	andi	a4,a4,-5
20009472:	3a271073          	csrw	pmpcfg2,a4
20009476:	3a202773          	csrr	a4,pmpcfg2
2000947a:	9b1d                	andi	a4,a4,-25
2000947c:	00876713          	ori	a4,a4,8
20009480:	3a271073          	csrw	pmpcfg2,a4
20009484:	3b879073          	csrw	pmpaddr8,a5
20009488:	3a002773          	csrr	a4,pmpcfg0
2000948c:	8ed9                	or	a3,a3,a4
2000948e:	3a269073          	csrw	pmpcfg2,a3
20009492:	0024d693          	srli	a3,s1,0x2
20009496:	3b969073          	csrw	pmpaddr9,a3
2000949a:	a841                	j	2000952a <<rv32i::pmp::PMPConfig as kernel::platform::mpu::MPU>::configure_mpu+0x3d2>
2000949c:	3a302773          	csrr	a4,pmpcfg3
200094a0:	9b79                	andi	a4,a4,-2
200094a2:	3a371073          	csrw	pmpcfg3,a4
200094a6:	3a302773          	csrr	a4,pmpcfg3
200094aa:	9b75                	andi	a4,a4,-3
200094ac:	3a371073          	csrw	pmpcfg3,a4
200094b0:	3a302773          	csrr	a4,pmpcfg3
200094b4:	9b6d                	andi	a4,a4,-5
200094b6:	3a371073          	csrw	pmpcfg3,a4
200094ba:	3a302773          	csrr	a4,pmpcfg3
200094be:	9b1d                	andi	a4,a4,-25
200094c0:	00876713          	ori	a4,a4,8
200094c4:	3a371073          	csrw	pmpcfg3,a4
200094c8:	3bc79073          	csrw	pmpaddr12,a5
200094cc:	3a002773          	csrr	a4,pmpcfg0
200094d0:	8ed9                	or	a3,a3,a4
200094d2:	3a369073          	csrw	pmpcfg3,a3
200094d6:	0024d693          	srli	a3,s1,0x2
200094da:	3bd69073          	csrw	pmpaddr13,a3
200094de:	a0b1                	j	2000952a <<rv32i::pmp::PMPConfig as kernel::platform::mpu::MPU>::configure_mpu+0x3d2>
200094e0:	3a2026f3          	csrr	a3,pmpcfg2
200094e4:	0176f6b3          	and	a3,a3,s7
200094e8:	3a269073          	csrw	pmpcfg2,a3
200094ec:	3a2026f3          	csrr	a3,pmpcfg2
200094f0:	0056f6b3          	and	a3,a3,t0
200094f4:	3a269073          	csrw	pmpcfg2,a3
200094f8:	3a2026f3          	csrr	a3,pmpcfg2
200094fc:	0116f6b3          	and	a3,a3,a7
20009500:	3a269073          	csrw	pmpcfg2,a3
20009504:	3a2026f3          	csrr	a3,pmpcfg2
20009508:	0106f6b3          	and	a3,a3,a6
2000950c:	0066e6b3          	or	a3,a3,t1
20009510:	3a269073          	csrw	pmpcfg2,a3
20009514:	3ba79073          	csrw	pmpaddr10,a5
20009518:	3a0026f3          	csrr	a3,pmpcfg0
2000951c:	8ed9                	or	a3,a3,a4
2000951e:	3a269073          	csrw	pmpcfg2,a3
20009522:	0024d693          	srli	a3,s1,0x2
20009526:	3bb69073          	csrw	pmpaddr11,a3
2000952a:	0585                	addi	a1,a1,1
2000952c:	0551                	addi	a0,a0,20
2000952e:	d6b61fe3          	bne	a2,a1,200092ac <<rv32i::pmp::PMPConfig as kernel::platform::mpu::MPU>::configure_mpu+0x154>
20009532:	5dfa                	lw	s11,188(sp)
20009534:	4d0e                	lw	s10,192(sp)
20009536:	4c9e                	lw	s9,196(sp)
20009538:	4c2e                	lw	s8,200(sp)
2000953a:	4bbe                	lw	s7,204(sp)
2000953c:	4b4e                	lw	s6,208(sp)
2000953e:	4ade                	lw	s5,212(sp)
20009540:	4a6e                	lw	s4,216(sp)
20009542:	49fe                	lw	s3,220(sp)
20009544:	590e                	lw	s2,224(sp)
20009546:	549e                	lw	s1,228(sp)
20009548:	542e                	lw	s0,232(sp)
2000954a:	50be                	lw	ra,236(sp)
2000954c:	616d                	addi	sp,sp,240
2000954e:	8082                	ret
20009550:	10002537          	lui	a0,0x10002
20009554:	bf850513          	addi	a0,a0,-1032 # 10001bf8 <.Lanon.883a4ca74ee52f0a48d4f518a300d6dc.6>
20009558:	4621                	li	a2,8
2000955a:	ffffa097          	auipc	ra,0xffffa
2000955e:	4ec080e7          	jalr	1260(ra) # 20003a46 <core::panicking::panic_bounds_check>
20009562:	00003097          	auipc	ra,0x3
20009566:	bca080e7          	jalr	-1078(ra) # 2000c12c <abort>

2000956a <<rv32i::csr::mcause::Trap as core::convert::From<tock_registers::registers::LocalRegisterCopy<u32,rv32i::csr::mcause::mcause::Register>>>::from>:
2000956a:	1141                	addi	sp,sp,-16
2000956c:	c606                	sw	ra,12(sp)
2000956e:	c422                	sw	s0,8(sp)
20009570:	0800                	addi	s0,sp,16
20009572:	00f57613          	andi	a2,a0,15
20009576:	04054f63          	bltz	a0,200095d4 <<rv32i::csr::mcause::Trap as core::convert::From<tock_registers::registers::LocalRegisterCopy<u32,rv32i::csr::mcause::mcause::Register>>>::from+0x6a>
2000957a:	4505                	li	a0,1
2000957c:	45bd                	li	a1,15
2000957e:	08b60863          	beq	a2,a1,2000960e <<rv32i::csr::mcause::Trap as core::convert::From<tock_registers::registers::LocalRegisterCopy<u32,rv32i::csr::mcause::mcause::Register>>>::from+0xa4>
20009582:	4585                	li	a1,1
20009584:	08b60363          	beq	a2,a1,2000960a <<rv32i::csr::mcause::Trap as core::convert::From<tock_registers::registers::LocalRegisterCopy<u32,rv32i::csr::mcause::mcause::Register>>>::from+0xa0>
20009588:	4589                	li	a1,2
2000958a:	08b60063          	beq	a2,a1,2000960a <<rv32i::csr::mcause::Trap as core::convert::From<tock_registers::registers::LocalRegisterCopy<u32,rv32i::csr::mcause::mcause::Register>>>::from+0xa0>
2000958e:	458d                	li	a1,3
20009590:	06b60d63          	beq	a2,a1,2000960a <<rv32i::csr::mcause::Trap as core::convert::From<tock_registers::registers::LocalRegisterCopy<u32,rv32i::csr::mcause::mcause::Register>>>::from+0xa0>
20009594:	4591                	li	a1,4
20009596:	06b60a63          	beq	a2,a1,2000960a <<rv32i::csr::mcause::Trap as core::convert::From<tock_registers::registers::LocalRegisterCopy<u32,rv32i::csr::mcause::mcause::Register>>>::from+0xa0>
2000959a:	4595                	li	a1,5
2000959c:	06b60763          	beq	a2,a1,2000960a <<rv32i::csr::mcause::Trap as core::convert::From<tock_registers::registers::LocalRegisterCopy<u32,rv32i::csr::mcause::mcause::Register>>>::from+0xa0>
200095a0:	4599                	li	a1,6
200095a2:	06b60463          	beq	a2,a1,2000960a <<rv32i::csr::mcause::Trap as core::convert::From<tock_registers::registers::LocalRegisterCopy<u32,rv32i::csr::mcause::mcause::Register>>>::from+0xa0>
200095a6:	459d                	li	a1,7
200095a8:	06b60163          	beq	a2,a1,2000960a <<rv32i::csr::mcause::Trap as core::convert::From<tock_registers::registers::LocalRegisterCopy<u32,rv32i::csr::mcause::mcause::Register>>>::from+0xa0>
200095ac:	45a1                	li	a1,8
200095ae:	04b60e63          	beq	a2,a1,2000960a <<rv32i::csr::mcause::Trap as core::convert::From<tock_registers::registers::LocalRegisterCopy<u32,rv32i::csr::mcause::mcause::Register>>>::from+0xa0>
200095b2:	45a5                	li	a1,9
200095b4:	04b60b63          	beq	a2,a1,2000960a <<rv32i::csr::mcause::Trap as core::convert::From<tock_registers::registers::LocalRegisterCopy<u32,rv32i::csr::mcause::mcause::Register>>>::from+0xa0>
200095b8:	45ad                	li	a1,11
200095ba:	04b60c63          	beq	a2,a1,20009612 <<rv32i::csr::mcause::Trap as core::convert::From<tock_registers::registers::LocalRegisterCopy<u32,rv32i::csr::mcause::mcause::Register>>>::from+0xa8>
200095be:	45b1                	li	a1,12
200095c0:	04b60c63          	beq	a2,a1,20009618 <<rv32i::csr::mcause::Trap as core::convert::From<tock_registers::registers::LocalRegisterCopy<u32,rv32i::csr::mcause::mcause::Register>>>::from+0xae>
200095c4:	45b5                	li	a1,13
200095c6:	04b60c63          	beq	a2,a1,2000961e <<rv32i::csr::mcause::Trap as core::convert::From<tock_registers::registers::LocalRegisterCopy<u32,rv32i::csr::mcause::mcause::Register>>>::from+0xb4>
200095ca:	45b9                	li	a1,14
200095cc:	ee25                	bnez	a2,20009644 <<rv32i::csr::mcause::Trap as core::convert::From<tock_registers::registers::LocalRegisterCopy<u32,rv32i::csr::mcause::mcause::Register>>>::from+0xda>
200095ce:	4505                	li	a0,1
200095d0:	4581                	li	a1,0
200095d2:	a88d                	j	20009644 <<rv32i::csr::mcause::Trap as core::convert::From<tock_registers::registers::LocalRegisterCopy<u32,rv32i::csr::mcause::mcause::Register>>>::from+0xda>
200095d4:	452d                	li	a0,11
200095d6:	04a60763          	beq	a2,a0,20009624 <<rv32i::csr::mcause::Trap as core::convert::From<tock_registers::registers::LocalRegisterCopy<u32,rv32i::csr::mcause::mcause::Register>>>::from+0xba>
200095da:	4585                	li	a1,1
200095dc:	06b60363          	beq	a2,a1,20009642 <<rv32i::csr::mcause::Trap as core::convert::From<tock_registers::registers::LocalRegisterCopy<u32,rv32i::csr::mcause::mcause::Register>>>::from+0xd8>
200095e0:	450d                	li	a0,3
200095e2:	04a60363          	beq	a2,a0,20009628 <<rv32i::csr::mcause::Trap as core::convert::From<tock_registers::registers::LocalRegisterCopy<u32,rv32i::csr::mcause::mcause::Register>>>::from+0xbe>
200095e6:	4511                	li	a0,4
200095e8:	04a60263          	beq	a2,a0,2000962c <<rv32i::csr::mcause::Trap as core::convert::From<tock_registers::registers::LocalRegisterCopy<u32,rv32i::csr::mcause::mcause::Register>>>::from+0xc2>
200095ec:	4515                	li	a0,5
200095ee:	04a60163          	beq	a2,a0,20009630 <<rv32i::csr::mcause::Trap as core::convert::From<tock_registers::registers::LocalRegisterCopy<u32,rv32i::csr::mcause::mcause::Register>>>::from+0xc6>
200095f2:	451d                	li	a0,7
200095f4:	04a60063          	beq	a2,a0,20009634 <<rv32i::csr::mcause::Trap as core::convert::From<tock_registers::registers::LocalRegisterCopy<u32,rv32i::csr::mcause::mcause::Register>>>::from+0xca>
200095f8:	4521                	li	a0,8
200095fa:	02a60f63          	beq	a2,a0,20009638 <<rv32i::csr::mcause::Trap as core::convert::From<tock_registers::registers::LocalRegisterCopy<u32,rv32i::csr::mcause::mcause::Register>>>::from+0xce>
200095fe:	4525                	li	a0,9
20009600:	02a60e63          	beq	a2,a0,2000963c <<rv32i::csr::mcause::Trap as core::convert::From<tock_registers::registers::LocalRegisterCopy<u32,rv32i::csr::mcause::mcause::Register>>>::from+0xd2>
20009604:	ee15                	bnez	a2,20009640 <<rv32i::csr::mcause::Trap as core::convert::From<tock_registers::registers::LocalRegisterCopy<u32,rv32i::csr::mcause::mcause::Register>>>::from+0xd6>
20009606:	4581                	li	a1,0
20009608:	a82d                	j	20009642 <<rv32i::csr::mcause::Trap as core::convert::From<tock_registers::registers::LocalRegisterCopy<u32,rv32i::csr::mcause::mcause::Register>>>::from+0xd8>
2000960a:	4505                	li	a0,1
2000960c:	a825                	j	20009644 <<rv32i::csr::mcause::Trap as core::convert::From<tock_registers::registers::LocalRegisterCopy<u32,rv32i::csr::mcause::mcause::Register>>>::from+0xda>
2000960e:	45b5                	li	a1,13
20009610:	a815                	j	20009644 <<rv32i::csr::mcause::Trap as core::convert::From<tock_registers::registers::LocalRegisterCopy<u32,rv32i::csr::mcause::mcause::Register>>>::from+0xda>
20009612:	4505                	li	a0,1
20009614:	45a9                	li	a1,10
20009616:	a03d                	j	20009644 <<rv32i::csr::mcause::Trap as core::convert::From<tock_registers::registers::LocalRegisterCopy<u32,rv32i::csr::mcause::mcause::Register>>>::from+0xda>
20009618:	4505                	li	a0,1
2000961a:	45ad                	li	a1,11
2000961c:	a025                	j	20009644 <<rv32i::csr::mcause::Trap as core::convert::From<tock_registers::registers::LocalRegisterCopy<u32,rv32i::csr::mcause::mcause::Register>>>::from+0xda>
2000961e:	4505                	li	a0,1
20009620:	45b1                	li	a1,12
20009622:	a00d                	j	20009644 <<rv32i::csr::mcause::Trap as core::convert::From<tock_registers::registers::LocalRegisterCopy<u32,rv32i::csr::mcause::mcause::Register>>>::from+0xda>
20009624:	45a1                	li	a1,8
20009626:	a831                	j	20009642 <<rv32i::csr::mcause::Trap as core::convert::From<tock_registers::registers::LocalRegisterCopy<u32,rv32i::csr::mcause::mcause::Register>>>::from+0xd8>
20009628:	4589                	li	a1,2
2000962a:	a821                	j	20009642 <<rv32i::csr::mcause::Trap as core::convert::From<tock_registers::registers::LocalRegisterCopy<u32,rv32i::csr::mcause::mcause::Register>>>::from+0xd8>
2000962c:	458d                	li	a1,3
2000962e:	a811                	j	20009642 <<rv32i::csr::mcause::Trap as core::convert::From<tock_registers::registers::LocalRegisterCopy<u32,rv32i::csr::mcause::mcause::Register>>>::from+0xd8>
20009630:	4591                	li	a1,4
20009632:	a801                	j	20009642 <<rv32i::csr::mcause::Trap as core::convert::From<tock_registers::registers::LocalRegisterCopy<u32,rv32i::csr::mcause::mcause::Register>>>::from+0xd8>
20009634:	4595                	li	a1,5
20009636:	a031                	j	20009642 <<rv32i::csr::mcause::Trap as core::convert::From<tock_registers::registers::LocalRegisterCopy<u32,rv32i::csr::mcause::mcause::Register>>>::from+0xd8>
20009638:	4599                	li	a1,6
2000963a:	a021                	j	20009642 <<rv32i::csr::mcause::Trap as core::convert::From<tock_registers::registers::LocalRegisterCopy<u32,rv32i::csr::mcause::mcause::Register>>>::from+0xd8>
2000963c:	459d                	li	a1,7
2000963e:	a011                	j	20009642 <<rv32i::csr::mcause::Trap as core::convert::From<tock_registers::registers::LocalRegisterCopy<u32,rv32i::csr::mcause::mcause::Register>>>::from+0xd8>
20009640:	45a5                	li	a1,9
20009642:	4501                	li	a0,0
20009644:	4422                	lw	s0,8(sp)
20009646:	40b2                	lw	ra,12(sp)
20009648:	0141                	addi	sp,sp,16
2000964a:	8082                	ret

2000964c <<rv32i::csr::mcause::Trap as core::convert::From<u32>>::from>:
2000964c:	1141                	addi	sp,sp,-16
2000964e:	c606                	sw	ra,12(sp)
20009650:	c422                	sw	s0,8(sp)
20009652:	0800                	addi	s0,sp,16
20009654:	00000097          	auipc	ra,0x0
20009658:	f16080e7          	jalr	-234(ra) # 2000956a <<rv32i::csr::mcause::Trap as core::convert::From<tock_registers::registers::LocalRegisterCopy<u32,rv32i::csr::mcause::mcause::Register>>>::from>
2000965c:	8905                	andi	a0,a0,1
2000965e:	4422                	lw	s0,8(sp)
20009660:	40b2                	lw	ra,12(sp)
20009662:	0141                	addi	sp,sp,16
20009664:	8082                	ret

20009666 <memcpy>:
20009666:	1141                	addi	sp,sp,-16
20009668:	c606                	sw	ra,12(sp)
2000966a:	c422                	sw	s0,8(sp)
2000966c:	0800                	addi	s0,sp,16
2000966e:	ca11                	beqz	a2,20009682 <memcpy+0x1c>
20009670:	86aa                	mv	a3,a0
20009672:	00058703          	lb	a4,0(a1)
20009676:	00e68023          	sb	a4,0(a3)
2000967a:	0685                	addi	a3,a3,1
2000967c:	0585                	addi	a1,a1,1
2000967e:	167d                	addi	a2,a2,-1
20009680:	fa6d                	bnez	a2,20009672 <memcpy+0xc>
20009682:	4422                	lw	s0,8(sp)
20009684:	40b2                	lw	ra,12(sp)
20009686:	0141                	addi	sp,sp,16
20009688:	8082                	ret

2000968a <memset>:
2000968a:	1141                	addi	sp,sp,-16
2000968c:	c606                	sw	ra,12(sp)
2000968e:	c422                	sw	s0,8(sp)
20009690:	0800                	addi	s0,sp,16
20009692:	c619                	beqz	a2,200096a0 <memset+0x16>
20009694:	86aa                	mv	a3,a0
20009696:	00b68023          	sb	a1,0(a3)
2000969a:	0685                	addi	a3,a3,1
2000969c:	167d                	addi	a2,a2,-1
2000969e:	fe65                	bnez	a2,20009696 <memset+0xc>
200096a0:	4422                	lw	s0,8(sp)
200096a2:	40b2                	lw	ra,12(sp)
200096a4:	0141                	addi	sp,sp,16
200096a6:	8082                	ret

200096a8 <bcmp>:
200096a8:	1141                	addi	sp,sp,-16
200096aa:	c606                	sw	ra,12(sp)
200096ac:	c422                	sw	s0,8(sp)
200096ae:	0800                	addi	s0,sp,16
200096b0:	ca19                	beqz	a2,200096c6 <bcmp+0x1e>
200096b2:	0005c683          	lbu	a3,0(a1)
200096b6:	00054703          	lbu	a4,0(a0)
200096ba:	00d71863          	bne	a4,a3,200096ca <bcmp+0x22>
200096be:	0505                	addi	a0,a0,1
200096c0:	0585                	addi	a1,a1,1
200096c2:	167d                	addi	a2,a2,-1
200096c4:	f67d                	bnez	a2,200096b2 <bcmp+0xa>
200096c6:	4501                	li	a0,0
200096c8:	a019                	j	200096ce <bcmp+0x26>
200096ca:	40d70533          	sub	a0,a4,a3
200096ce:	4422                	lw	s0,8(sp)
200096d0:	40b2                	lw	ra,12(sp)
200096d2:	0141                	addi	sp,sp,16
200096d4:	8082                	ret

200096d6 <__udivdi3>:
200096d6:	1141                	addi	sp,sp,-16
200096d8:	c606                	sw	ra,12(sp)
200096da:	c422                	sw	s0,8(sp)
200096dc:	0800                	addi	s0,sp,16
200096de:	4701                	li	a4,0
200096e0:	4422                	lw	s0,8(sp)
200096e2:	40b2                	lw	ra,12(sp)
200096e4:	0141                	addi	sp,sp,16
200096e6:	00000317          	auipc	t1,0x0
200096ea:	00830067          	jr	8(t1) # 200096ee <__udivmoddi4>

200096ee <__udivmoddi4>:
200096ee:	1141                	addi	sp,sp,-16
200096f0:	c606                	sw	ra,12(sp)
200096f2:	c422                	sw	s0,8(sp)
200096f4:	0800                	addi	s0,sp,16
200096f6:	10058c63          	beqz	a1,2000980e <__udivmoddi4+0x120>
200096fa:	12060663          	beqz	a2,20009826 <__udivmoddi4+0x138>
200096fe:	1a068163          	beqz	a3,200098a0 <__udivmoddi4+0x1b2>
20009702:	02000813          	li	a6,32
20009706:	02000893          	li	a7,32
2000970a:	ceb5                	beqz	a3,20009786 <__udivmoddi4+0x98>
2000970c:	0016d793          	srli	a5,a3,0x1
20009710:	00f6e8b3          	or	a7,a3,a5
20009714:	0028d793          	srli	a5,a7,0x2
20009718:	00f8e8b3          	or	a7,a7,a5
2000971c:	0048d793          	srli	a5,a7,0x4
20009720:	00f8e8b3          	or	a7,a7,a5
20009724:	0088d793          	srli	a5,a7,0x8
20009728:	00f8e8b3          	or	a7,a7,a5
2000972c:	0108d793          	srli	a5,a7,0x10
20009730:	00f8e8b3          	or	a7,a7,a5
20009734:	555557b7          	lui	a5,0x55555
20009738:	55578293          	addi	t0,a5,1365 # 55555555 <_sapps+0x35525555>
2000973c:	fff8c893          	not	a7,a7
20009740:	0018d793          	srli	a5,a7,0x1
20009744:	0057f7b3          	and	a5,a5,t0
20009748:	40f888b3          	sub	a7,a7,a5
2000974c:	333337b7          	lui	a5,0x33333
20009750:	33378313          	addi	t1,a5,819 # 33333333 <_sapps+0x13303333>
20009754:	0068f2b3          	and	t0,a7,t1
20009758:	0028d793          	srli	a5,a7,0x2
2000975c:	0067f7b3          	and	a5,a5,t1
20009760:	00f288b3          	add	a7,t0,a5
20009764:	0048d793          	srli	a5,a7,0x4
20009768:	98be                	add	a7,a7,a5
2000976a:	0f0f17b7          	lui	a5,0xf0f1
2000976e:	f0f78793          	addi	a5,a5,-241 # f0f0f0f <.Lline_table_start0+0xf0e1264>
20009772:	00f8f8b3          	and	a7,a7,a5
20009776:	010107b7          	lui	a5,0x1010
2000977a:	10178793          	addi	a5,a5,257 # 1010101 <.Lline_table_start0+0x1000456>
2000977e:	02f887b3          	mul	a5,a7,a5
20009782:	0187d893          	srli	a7,a5,0x18
20009786:	cdb5                	beqz	a1,20009802 <__udivmoddi4+0x114>
20009788:	0015d793          	srli	a5,a1,0x1
2000978c:	00f5e833          	or	a6,a1,a5
20009790:	00285793          	srli	a5,a6,0x2
20009794:	00f86833          	or	a6,a6,a5
20009798:	00485793          	srli	a5,a6,0x4
2000979c:	00f86833          	or	a6,a6,a5
200097a0:	00885793          	srli	a5,a6,0x8
200097a4:	00f86833          	or	a6,a6,a5
200097a8:	01085793          	srli	a5,a6,0x10
200097ac:	00f86833          	or	a6,a6,a5
200097b0:	555557b7          	lui	a5,0x55555
200097b4:	55578293          	addi	t0,a5,1365 # 55555555 <_sapps+0x35525555>
200097b8:	fff84813          	not	a6,a6
200097bc:	00185793          	srli	a5,a6,0x1
200097c0:	0057f7b3          	and	a5,a5,t0
200097c4:	40f80833          	sub	a6,a6,a5
200097c8:	333337b7          	lui	a5,0x33333
200097cc:	33378313          	addi	t1,a5,819 # 33333333 <_sapps+0x13303333>
200097d0:	006872b3          	and	t0,a6,t1
200097d4:	00285793          	srli	a5,a6,0x2
200097d8:	0067f7b3          	and	a5,a5,t1
200097dc:	00f28833          	add	a6,t0,a5
200097e0:	00485793          	srli	a5,a6,0x4
200097e4:	983e                	add	a6,a6,a5
200097e6:	0f0f17b7          	lui	a5,0xf0f1
200097ea:	f0f78793          	addi	a5,a5,-241 # f0f0f0f <.Lline_table_start0+0xf0e1264>
200097ee:	00f87833          	and	a6,a6,a5
200097f2:	010107b7          	lui	a5,0x1010
200097f6:	10178793          	addi	a5,a5,257 # 1010101 <.Lline_table_start0+0x1000456>
200097fa:	02f807b3          	mul	a5,a6,a5
200097fe:	0187d813          	srli	a6,a5,0x18
20009802:	41088833          	sub	a6,a7,a6
20009806:	47fd                	li	a5,31
20009808:	3507f663          	bgeu	a5,a6,20009b54 <__udivmoddi4+0x466>
2000980c:	ae3d                	j	20009b4a <__udivmoddi4+0x45c>
2000980e:	32069e63          	bnez	a3,20009b4a <__udivmoddi4+0x45c>
20009812:	46070363          	beqz	a4,20009c78 <__udivmoddi4+0x58a>
20009816:	4a060063          	beqz	a2,20009cb6 <__udivmoddi4+0x5c8>
2000981a:	00072223          	sw	zero,4(a4)
2000981e:	02c575b3          	remu	a1,a0,a2
20009822:	c30c                	sw	a1,0(a4)
20009824:	a999                	j	20009c7a <__udivmoddi4+0x58c>
20009826:	48068863          	beqz	a3,20009cb6 <__udivmoddi4+0x5c8>
2000982a:	cd65                	beqz	a0,20009922 <__udivmoddi4+0x234>
2000982c:	fff68813          	addi	a6,a3,-1
20009830:	0106f7b3          	and	a5,a3,a6
20009834:	0017b893          	seqz	a7,a5
20009838:	00d037b3          	snez	a5,a3
2000983c:	0117f7b3          	and	a5,a5,a7
20009840:	20078063          	beqz	a5,20009a40 <__udivmoddi4+0x352>
20009844:	c709                	beqz	a4,2000984e <__udivmoddi4+0x160>
20009846:	c308                	sw	a0,0(a4)
20009848:	00b87533          	and	a0,a6,a1
2000984c:	c348                	sw	a0,4(a4)
2000984e:	42068d63          	beqz	a3,20009c88 <__udivmoddi4+0x59a>
20009852:	fff6c513          	not	a0,a3
20009856:	01057533          	and	a0,a0,a6
2000985a:	55555637          	lui	a2,0x55555
2000985e:	55560613          	addi	a2,a2,1365 # 55555555 <_sapps+0x35525555>
20009862:	00155693          	srli	a3,a0,0x1
20009866:	8e75                	and	a2,a2,a3
20009868:	8d11                	sub	a0,a0,a2
2000986a:	33333637          	lui	a2,0x33333
2000986e:	33360613          	addi	a2,a2,819 # 33333333 <_sapps+0x13303333>
20009872:	00c576b3          	and	a3,a0,a2
20009876:	8109                	srli	a0,a0,0x2
20009878:	8d71                	and	a0,a0,a2
2000987a:	9536                	add	a0,a0,a3
2000987c:	00455613          	srli	a2,a0,0x4
20009880:	9532                	add	a0,a0,a2
20009882:	0f0f1637          	lui	a2,0xf0f1
20009886:	f0f60613          	addi	a2,a2,-241 # f0f0f0f <.Lline_table_start0+0xf0e1264>
2000988a:	8d71                	and	a0,a0,a2
2000988c:	01010637          	lui	a2,0x1010
20009890:	10160613          	addi	a2,a2,257 # 1010101 <.Lline_table_start0+0x1000456>
20009894:	02c50533          	mul	a0,a0,a2
20009898:	8161                	srli	a0,a0,0x18
2000989a:	00a5d533          	srl	a0,a1,a0
2000989e:	a6c5                	j	20009c7e <__udivmoddi4+0x590>
200098a0:	fff60813          	addi	a6,a2,-1
200098a4:	010677b3          	and	a5,a2,a6
200098a8:	0017b893          	seqz	a7,a5
200098ac:	00c037b3          	snez	a5,a2
200098b0:	0117f7b3          	and	a5,a5,a7
200098b4:	c3c1                	beqz	a5,20009934 <__udivmoddi4+0x246>
200098b6:	c711                	beqz	a4,200098c2 <__udivmoddi4+0x1d4>
200098b8:	00072223          	sw	zero,4(a4)
200098bc:	00a876b3          	and	a3,a6,a0
200098c0:	c314                	sw	a3,0(a4)
200098c2:	4685                	li	a3,1
200098c4:	3ad60e63          	beq	a2,a3,20009c80 <__udivmoddi4+0x592>
200098c8:	3c060563          	beqz	a2,20009c92 <__udivmoddi4+0x5a4>
200098cc:	fff64613          	not	a2,a2
200098d0:	01067633          	and	a2,a2,a6
200098d4:	555556b7          	lui	a3,0x55555
200098d8:	55568693          	addi	a3,a3,1365 # 55555555 <_sapps+0x35525555>
200098dc:	00165713          	srli	a4,a2,0x1
200098e0:	8ef9                	and	a3,a3,a4
200098e2:	8e15                	sub	a2,a2,a3
200098e4:	333336b7          	lui	a3,0x33333
200098e8:	33368693          	addi	a3,a3,819 # 33333333 <_sapps+0x13303333>
200098ec:	00d67733          	and	a4,a2,a3
200098f0:	8209                	srli	a2,a2,0x2
200098f2:	8e75                	and	a2,a2,a3
200098f4:	963a                	add	a2,a2,a4
200098f6:	00465693          	srli	a3,a2,0x4
200098fa:	9636                	add	a2,a2,a3
200098fc:	0f0f16b7          	lui	a3,0xf0f1
20009900:	f0f68693          	addi	a3,a3,-241 # f0f0f0f <.Lline_table_start0+0xf0e1264>
20009904:	8e75                	and	a2,a2,a3
20009906:	010106b7          	lui	a3,0x1010
2000990a:	10168693          	addi	a3,a3,257 # 1010101 <.Lline_table_start0+0x1000456>
2000990e:	02d60633          	mul	a2,a2,a3
20009912:	8261                	srli	a2,a2,0x18
20009914:	fe060693          	addi	a3,a2,-32
20009918:	3806c363          	bltz	a3,20009c9e <__udivmoddi4+0x5b0>
2000991c:	00d5d533          	srl	a0,a1,a3
20009920:	aeb9                	j	20009c7e <__udivmoddi4+0x590>
20009922:	c711                	beqz	a4,2000992e <__udivmoddi4+0x240>
20009924:	00072023          	sw	zero,0(a4)
20009928:	02d5f533          	remu	a0,a1,a3
2000992c:	c348                	sw	a0,4(a4)
2000992e:	02d5d533          	divu	a0,a1,a3
20009932:	a6b1                	j	20009c7e <__udivmoddi4+0x590>
20009934:	02000893          	li	a7,32
20009938:	02000793          	li	a5,32
2000993c:	ce2d                	beqz	a2,200099b6 <__udivmoddi4+0x2c8>
2000993e:	00165793          	srli	a5,a2,0x1
20009942:	00f66833          	or	a6,a2,a5
20009946:	00285793          	srli	a5,a6,0x2
2000994a:	00f86833          	or	a6,a6,a5
2000994e:	00485793          	srli	a5,a6,0x4
20009952:	00f86833          	or	a6,a6,a5
20009956:	00885793          	srli	a5,a6,0x8
2000995a:	00f86833          	or	a6,a6,a5
2000995e:	01085793          	srli	a5,a6,0x10
20009962:	00f86833          	or	a6,a6,a5
20009966:	555557b7          	lui	a5,0x55555
2000996a:	55578293          	addi	t0,a5,1365 # 55555555 <_sapps+0x35525555>
2000996e:	fff84813          	not	a6,a6
20009972:	00185793          	srli	a5,a6,0x1
20009976:	0057f7b3          	and	a5,a5,t0
2000997a:	40f80833          	sub	a6,a6,a5
2000997e:	333337b7          	lui	a5,0x33333
20009982:	33378313          	addi	t1,a5,819 # 33333333 <_sapps+0x13303333>
20009986:	006872b3          	and	t0,a6,t1
2000998a:	00285793          	srli	a5,a6,0x2
2000998e:	0067f7b3          	and	a5,a5,t1
20009992:	00f28833          	add	a6,t0,a5
20009996:	00485793          	srli	a5,a6,0x4
2000999a:	983e                	add	a6,a6,a5
2000999c:	0f0f17b7          	lui	a5,0xf0f1
200099a0:	f0f78793          	addi	a5,a5,-241 # f0f0f0f <.Lline_table_start0+0xf0e1264>
200099a4:	00f87833          	and	a6,a6,a5
200099a8:	010107b7          	lui	a5,0x1010
200099ac:	10178793          	addi	a5,a5,257 # 1010101 <.Lline_table_start0+0x1000456>
200099b0:	02f807b3          	mul	a5,a6,a5
200099b4:	83e1                	srli	a5,a5,0x18
200099b6:	02178813          	addi	a6,a5,33
200099ba:	cdb5                	beqz	a1,20009a36 <__udivmoddi4+0x348>
200099bc:	0015d793          	srli	a5,a1,0x1
200099c0:	00f5e8b3          	or	a7,a1,a5
200099c4:	0028d793          	srli	a5,a7,0x2
200099c8:	00f8e8b3          	or	a7,a7,a5
200099cc:	0048d793          	srli	a5,a7,0x4
200099d0:	00f8e8b3          	or	a7,a7,a5
200099d4:	0088d793          	srli	a5,a7,0x8
200099d8:	00f8e8b3          	or	a7,a7,a5
200099dc:	0108d793          	srli	a5,a7,0x10
200099e0:	00f8e8b3          	or	a7,a7,a5
200099e4:	555557b7          	lui	a5,0x55555
200099e8:	55578293          	addi	t0,a5,1365 # 55555555 <_sapps+0x35525555>
200099ec:	fff8c893          	not	a7,a7
200099f0:	0018d793          	srli	a5,a7,0x1
200099f4:	0057f7b3          	and	a5,a5,t0
200099f8:	40f888b3          	sub	a7,a7,a5
200099fc:	333337b7          	lui	a5,0x33333
20009a00:	33378313          	addi	t1,a5,819 # 33333333 <_sapps+0x13303333>
20009a04:	0068f2b3          	and	t0,a7,t1
20009a08:	0028d793          	srli	a5,a7,0x2
20009a0c:	0067f7b3          	and	a5,a5,t1
20009a10:	00f288b3          	add	a7,t0,a5
20009a14:	0048d793          	srli	a5,a7,0x4
20009a18:	98be                	add	a7,a7,a5
20009a1a:	0f0f17b7          	lui	a5,0xf0f1
20009a1e:	f0f78793          	addi	a5,a5,-241 # f0f0f0f <.Lline_table_start0+0xf0e1264>
20009a22:	00f8f8b3          	and	a7,a7,a5
20009a26:	010107b7          	lui	a5,0x1010
20009a2a:	10178793          	addi	a5,a5,257 # 1010101 <.Lline_table_start0+0x1000456>
20009a2e:	02f887b3          	mul	a5,a7,a5
20009a32:	0187d893          	srli	a7,a5,0x18
20009a36:	41180e33          	sub	t3,a6,a7
20009a3a:	41c002b3          	neg	t0,t3
20009a3e:	a20d                	j	20009b60 <__udivmoddi4+0x472>
20009a40:	02000813          	li	a6,32
20009a44:	02000893          	li	a7,32
20009a48:	ceb5                	beqz	a3,20009ac4 <__udivmoddi4+0x3d6>
20009a4a:	0016d793          	srli	a5,a3,0x1
20009a4e:	00f6e8b3          	or	a7,a3,a5
20009a52:	0028d793          	srli	a5,a7,0x2
20009a56:	00f8e8b3          	or	a7,a7,a5
20009a5a:	0048d793          	srli	a5,a7,0x4
20009a5e:	00f8e8b3          	or	a7,a7,a5
20009a62:	0088d793          	srli	a5,a7,0x8
20009a66:	00f8e8b3          	or	a7,a7,a5
20009a6a:	0108d793          	srli	a5,a7,0x10
20009a6e:	00f8e8b3          	or	a7,a7,a5
20009a72:	555557b7          	lui	a5,0x55555
20009a76:	55578293          	addi	t0,a5,1365 # 55555555 <_sapps+0x35525555>
20009a7a:	fff8c893          	not	a7,a7
20009a7e:	0018d793          	srli	a5,a7,0x1
20009a82:	0057f7b3          	and	a5,a5,t0
20009a86:	40f888b3          	sub	a7,a7,a5
20009a8a:	333337b7          	lui	a5,0x33333
20009a8e:	33378313          	addi	t1,a5,819 # 33333333 <_sapps+0x13303333>
20009a92:	0068f2b3          	and	t0,a7,t1
20009a96:	0028d793          	srli	a5,a7,0x2
20009a9a:	0067f7b3          	and	a5,a5,t1
20009a9e:	00f288b3          	add	a7,t0,a5
20009aa2:	0048d793          	srli	a5,a7,0x4
20009aa6:	98be                	add	a7,a7,a5
20009aa8:	0f0f17b7          	lui	a5,0xf0f1
20009aac:	f0f78793          	addi	a5,a5,-241 # f0f0f0f <.Lline_table_start0+0xf0e1264>
20009ab0:	00f8f8b3          	and	a7,a7,a5
20009ab4:	010107b7          	lui	a5,0x1010
20009ab8:	10178793          	addi	a5,a5,257 # 1010101 <.Lline_table_start0+0x1000456>
20009abc:	02f887b3          	mul	a5,a7,a5
20009ac0:	0187d893          	srli	a7,a5,0x18
20009ac4:	cdb5                	beqz	a1,20009b40 <__udivmoddi4+0x452>
20009ac6:	0015d793          	srli	a5,a1,0x1
20009aca:	00f5e833          	or	a6,a1,a5
20009ace:	00285793          	srli	a5,a6,0x2
20009ad2:	00f86833          	or	a6,a6,a5
20009ad6:	00485793          	srli	a5,a6,0x4
20009ada:	00f86833          	or	a6,a6,a5
20009ade:	00885793          	srli	a5,a6,0x8
20009ae2:	00f86833          	or	a6,a6,a5
20009ae6:	01085793          	srli	a5,a6,0x10
20009aea:	00f86833          	or	a6,a6,a5
20009aee:	555557b7          	lui	a5,0x55555
20009af2:	55578293          	addi	t0,a5,1365 # 55555555 <_sapps+0x35525555>
20009af6:	fff84813          	not	a6,a6
20009afa:	00185793          	srli	a5,a6,0x1
20009afe:	0057f7b3          	and	a5,a5,t0
20009b02:	40f80833          	sub	a6,a6,a5
20009b06:	333337b7          	lui	a5,0x33333
20009b0a:	33378313          	addi	t1,a5,819 # 33333333 <_sapps+0x13303333>
20009b0e:	006872b3          	and	t0,a6,t1
20009b12:	00285793          	srli	a5,a6,0x2
20009b16:	0067f7b3          	and	a5,a5,t1
20009b1a:	00f28833          	add	a6,t0,a5
20009b1e:	00485793          	srli	a5,a6,0x4
20009b22:	983e                	add	a6,a6,a5
20009b24:	0f0f17b7          	lui	a5,0xf0f1
20009b28:	f0f78793          	addi	a5,a5,-241 # f0f0f0f <.Lline_table_start0+0xf0e1264>
20009b2c:	00f87833          	and	a6,a6,a5
20009b30:	010107b7          	lui	a5,0x1010
20009b34:	10178793          	addi	a5,a5,257 # 1010101 <.Lline_table_start0+0x1000456>
20009b38:	02f807b3          	mul	a5,a6,a5
20009b3c:	0187d813          	srli	a6,a5,0x18
20009b40:	41088833          	sub	a6,a7,a6
20009b44:	47f9                	li	a5,30
20009b46:	0107f763          	bgeu	a5,a6,20009b54 <__udivmoddi4+0x466>
20009b4a:	cb6d                	beqz	a4,20009c3c <__udivmoddi4+0x54e>
20009b4c:	c308                	sw	a0,0(a4)
20009b4e:	c34c                	sw	a1,4(a4)
20009b50:	4501                	li	a0,0
20009b52:	a235                	j	20009c7e <__udivmoddi4+0x590>
20009b54:	03f00793          	li	a5,63
20009b58:	410782b3          	sub	t0,a5,a6
20009b5c:	00180e13          	addi	t3,a6,1
20009b60:	03f2f793          	andi	a5,t0,63
20009b64:	48fd                	li	a7,31
20009b66:	03fe7393          	andi	t2,t3,63
20009b6a:	fe078313          	addi	t1,a5,-32
20009b6e:	0c034963          	bltz	t1,20009c40 <__udivmoddi4+0x552>
20009b72:	00651833          	sll	a6,a0,t1
20009b76:	fe038e93          	addi	t4,t2,-32
20009b7a:	0e0ed163          	bgez	t4,20009c5c <__udivmoddi4+0x56e>
20009b7e:	407888b3          	sub	a7,a7,t2
20009b82:	00159793          	slli	a5,a1,0x1
20009b86:	011798b3          	sll	a7,a5,a7
20009b8a:	01c557b3          	srl	a5,a0,t3
20009b8e:	0117e8b3          	or	a7,a5,a7
20009b92:	0c035963          	bgez	t1,20009c64 <__udivmoddi4+0x576>
20009b96:	005512b3          	sll	t0,a0,t0
20009b9a:	0c0ed863          	bgez	t4,20009c6a <__udivmoddi4+0x57c>
20009b9e:	01c5d333          	srl	t1,a1,t3
20009ba2:	4381                	li	t2,0
20009ba4:	0c0e0763          	beqz	t3,20009c72 <__udivmoddi4+0x584>
20009ba8:	4e81                	li	t4,0
20009baa:	8796                	mv	a5,t0
20009bac:	00189593          	slli	a1,a7,0x1
20009bb0:	01f85513          	srli	a0,a6,0x1f
20009bb4:	00a5ef33          	or	t5,a1,a0
20009bb8:	ffff4593          	not	a1,t5
20009bbc:	00c58533          	add	a0,a1,a2
20009bc0:	00b532b3          	sltu	t0,a0,a1
20009bc4:	01f8d593          	srli	a1,a7,0x1f
20009bc8:	00131513          	slli	a0,t1,0x1
20009bcc:	8d4d                	or	a0,a0,a1
20009bce:	fff54593          	not	a1,a0
20009bd2:	95b6                	add	a1,a1,a3
20009bd4:	005588b3          	add	a7,a1,t0
20009bd8:	00179593          	slli	a1,a5,0x1
20009bdc:	00b3e2b3          	or	t0,t2,a1
20009be0:	01f7d593          	srli	a1,a5,0x1f
20009be4:	00181793          	slli	a5,a6,0x1
20009be8:	00b7e833          	or	a6,a5,a1
20009bec:	41f8d793          	srai	a5,a7,0x1f
20009bf0:	00d7f5b3          	and	a1,a5,a3
20009bf4:	40b508b3          	sub	a7,a0,a1
20009bf8:	010ee833          	or	a6,t4,a6
20009bfc:	00c7f5b3          	and	a1,a5,a2
20009c00:	00bf3533          	sltu	a0,t5,a1
20009c04:	40a88333          	sub	t1,a7,a0
20009c08:	40bf08b3          	sub	a7,t5,a1
20009c0c:	0017f393          	andi	t2,a5,1
20009c10:	1e7d                	addi	t3,t3,-1
20009c12:	4581                	li	a1,0
20009c14:	4e81                	li	t4,0
20009c16:	8796                	mv	a5,t0
20009c18:	f80e1ae3          	bnez	t3,20009bac <__udivmoddi4+0x4be>
20009c1c:	c709                	beqz	a4,20009c26 <__udivmoddi4+0x538>
20009c1e:	01172023          	sw	a7,0(a4)
20009c22:	00672223          	sw	t1,4(a4)
20009c26:	00129513          	slli	a0,t0,0x1
20009c2a:	00a3e533          	or	a0,t2,a0
20009c2e:	01f2d613          	srli	a2,t0,0x1f
20009c32:	00181693          	slli	a3,a6,0x1
20009c36:	8e55                	or	a2,a2,a3
20009c38:	8dd1                	or	a1,a1,a2
20009c3a:	a099                	j	20009c80 <__udivmoddi4+0x592>
20009c3c:	4501                	li	a0,0
20009c3e:	a081                	j	20009c7e <__udivmoddi4+0x590>
20009c40:	40f88833          	sub	a6,a7,a5
20009c44:	00155793          	srli	a5,a0,0x1
20009c48:	0107d833          	srl	a6,a5,a6
20009c4c:	005597b3          	sll	a5,a1,t0
20009c50:	0107e833          	or	a6,a5,a6
20009c54:	fe038e93          	addi	t4,t2,-32
20009c58:	f20ec3e3          	bltz	t4,20009b7e <__udivmoddi4+0x490>
20009c5c:	01d5d8b3          	srl	a7,a1,t4
20009c60:	f2034be3          	bltz	t1,20009b96 <__udivmoddi4+0x4a8>
20009c64:	4281                	li	t0,0
20009c66:	f20ecce3          	bltz	t4,20009b9e <__udivmoddi4+0x4b0>
20009c6a:	4301                	li	t1,0
20009c6c:	4381                	li	t2,0
20009c6e:	f20e1de3          	bnez	t3,20009ba8 <__udivmoddi4+0x4ba>
20009c72:	4581                	li	a1,0
20009c74:	f74d                	bnez	a4,20009c1e <__udivmoddi4+0x530>
20009c76:	bf45                	j	20009c26 <__udivmoddi4+0x538>
20009c78:	ce1d                	beqz	a2,20009cb6 <__udivmoddi4+0x5c8>
20009c7a:	02c55533          	divu	a0,a0,a2
20009c7e:	4581                	li	a1,0
20009c80:	4422                	lw	s0,8(sp)
20009c82:	40b2                	lw	ra,12(sp)
20009c84:	0141                	addi	sp,sp,16
20009c86:	8082                	ret
20009c88:	02000513          	li	a0,32
20009c8c:	00a5d533          	srl	a0,a1,a0
20009c90:	b7fd                	j	20009c7e <__udivmoddi4+0x590>
20009c92:	02000613          	li	a2,32
20009c96:	fe060693          	addi	a3,a2,-32
20009c9a:	c806d1e3          	bgez	a3,2000991c <__udivmoddi4+0x22e>
20009c9e:	46fd                	li	a3,31
20009ca0:	8e91                	sub	a3,a3,a2
20009ca2:	00159713          	slli	a4,a1,0x1
20009ca6:	00d716b3          	sll	a3,a4,a3
20009caa:	00c55533          	srl	a0,a0,a2
20009cae:	8d55                	or	a0,a0,a3
20009cb0:	00c5d5b3          	srl	a1,a1,a2
20009cb4:	b7f1                	j	20009c80 <__udivmoddi4+0x592>
20009cb6:	00002097          	auipc	ra,0x2
20009cba:	476080e7          	jalr	1142(ra) # 2000c12c <abort>
20009cbe:	00002097          	auipc	ra,0x2
20009cc2:	46e080e7          	jalr	1134(ra) # 2000c12c <abort>

20009cc6 <.L__unnamed_60>:
20009cc6:	6d6f682f 6d622f65 786f2f63 2d656469     /home/bmc/oxide-
20009cd6:	6b636f74 72656b2f 2f6c656e 2f637273     tock/kernel/src/
20009ce6:	636f7270 2e737365 28207372 65747962     process.rs (byte
20009cf6:	72502073 7365636f 20202073 20202d20     s Process    -  
20009d06:	                                          [

20009d08 <.L__unnamed_62>:
20009d08:	64616820 66206120 746c7561               had a fault

20009d14 <.L__unnamed_64>:
20009d14:	3a707041                                 App: 

20009d19 <.L__unnamed_66>:
20009d19:	200a0d5d 6e657645 51207374 65756575     ].. Events Queue
20009d29:	                                         d: 

20009d2c <.L__unnamed_67>:
20009d2c:	53202020 61637379 43206c6c 746e756f        Syscall Count
20009d3c:	                                         : 

20009d3e <.L__unnamed_68>:
20009d3e:	44202020 70706f72 43206465 626c6c61        Dropped Callb
20009d4e:	206b6361 6e756f43                        ack Count: 

20009d59 <.L__unnamed_69>:
20009d59:	6552200a 72617473 6f432074 3a746e75     . Restart Count:
20009d69:	                                          

20009d6a <.L__unnamed_70>:
20009d6a:	73614c20 79532074 6c616373                Last Syscall: 

20009d79 <.L__unnamed_19>:
20009d79:	73614c20 79532074 6c616373 4e203a6c      Last Syscall: N
20009d89:	                                         one

20009d8c <.L__unnamed_71>:
20009d8c:	0a0d0a0d 9495e220 e29095e2 95e29095     .... ...........
20009d9c:	9095e290 e29095e2 95e29095 9095e290     ................
20009dac:	e29095e2 95e29095 a495e290 e29095e2     ................
20009dbc:	95e29095 9095e290 e29095e2 95e29095     ................
20009dcc:	9095e290 e29095e2 95e29095 9095e290     ................
20009ddc:	e29095e2 95e29095 9095e290 e29095e2     ................
20009dec:	95e29095 9095e290 e29095e2 95e29095     ................
20009dfc:	9095e290 e29095e2 95e29095 9095e290     ................
20009e0c:	e29095e2 95e29095 9095e290 e29095e2     ................
20009e1c:	95e29095 9095e290 e29095e2 95e29095     ................
20009e2c:	9095e290 e29095e2 95e29095 200a0d97     ............... 
20009e3c:	209195e2 64644120 73736572 94e22020     ...  Address  ..
20009e4c:	65522082 6e6f6967 6d614e20 20202065     . Region Name   
20009e5c:	65735520 207c2064 6f6c6c41 65746163      Used | Allocate
20009e6c:	62282064 73657479 e2202029 0a0d9195     d (bytes)  .....
20009e7c:	9a95e220                                 ...

20009e80 <.L__unnamed_72>:
20009e80:	e29095e2 95e2aa95 9095e290 e29095e2     ................
20009e90:	95e29095 9095e290 e29095e2 95e29095     ................
20009ea0:	9095e290 e29095e2 95e29095 9095e290     ................
20009eb0:	e29095e2 95e29095 9095e290 e29095e2     ................
20009ec0:	95e29095 9095e290 e29095e2 95e29095     ................
20009ed0:	9095e290 e29095e2 95e29095 9095e290     ................
20009ee0:	e29095e2 95e29095 9095e290 e29095e2     ................
20009ef0:	95e29095 9095e290 e29095e2 95e29095     ................
20009f00:	9095e290 0d9d95e2 2020200a 20202020     .........       
20009f10:	20202020 94e22020 96e22082 724720bc           ... ... Gr
20009f20:	20746e61 20202020                        ant      

20009f29 <.L__unnamed_73>:
20009f29:	20207c20 53202020                         |     Some

20009f34 <anon.276ed4515cb7bdbddaae8aa26a9a7e5e.0.llvm.3197837188720883966>:
20009f34:	40090000 203d3c20 20200a0d 31677261     ...@ <= ..  arg1
20009f44:	30677261 656e6f4e                       arg0None

20009f4c <.L__unnamed_75>:
20009f4c:	bc94e220 e28094e2 94e28094 8094e280      ...............
20009f5c:	e28094e2 94e28094 8094e280 e28094e2     ................
20009f6c:	94e28094 8094e280 e28094e2 94e28094     ................
20009f7c:	8094e280 e28094e2 94e28094 8094e280     ................
20009f8c:	e28094e2 94e28094 8094e280 e28094e2     ................
20009f9c:	94e28094 8094e280 e28094e2 94e28094     ................
20009fac:	8094e280 e28094e2 94e28094 8094e280     ................
20009fbc:	e28094e2 94e28094 8094e280 e28094e2     ................
20009fcc:	94e28094 200a0d80 20202020 20202020     .......         
20009fdc:	20202020 208294e2 73756e55 0a0d6465         ... Unused..
20009fec:	                                           

20009fee <.L__unnamed_76>:
20009fee:	bc94e220 e28094e2 94e28094 8094e280      ...............
20009ffe:	e28094e2 94e28094 8094e280 e28094e2     ................
2000a00e:	94e28094 8094e280 e28094e2 94e28094     ................
2000a01e:	8094e280 e28094e2 94e28094 8094e280     ................
2000a02e:	e28094e2 94e28094 8094e280 e28094e2     ................
2000a03e:	94e28094 8094e280 e28094e2 94e28094     ................
2000a04e:	8094e280 e28094e2 94e28094 8094e280     ................
2000a05e:	e28094e2 94e28094 8094e280 e28094e2     ................
2000a06e:	94e28094                                 ......

2000a074 <.L__unnamed_21>:
2000a074:	00000001 00000000 00000020 0000000c     ........ .......
2000a084:	00000003 00000000 00000000 0000000a     ................
2000a094:	00000003 00000001 00000001 00000020     ............ ...
2000a0a4:	00000000 00000003 00000000 00000000     ................
2000a0b4:	00000006 00000003 00000001 00000002     ................
2000a0c4:	00000020 00000000 00000003 00000000      ...............
2000a0d4:	00000000 00000006 00000003 00000001     ................
2000a0e4:	00000003 00000020 00000000 00000003     .... ...........
2000a0f4:	00000000 00000003 00000000 00000003     ................
2000a104:	00000001 00000004 00000020 0000000c     ........ .......
2000a114:	00000003 00000000 00000000 0000000a     ................
2000a124:	00000003 00000001 00000005 00000020     ............ ...
2000a134:	0000000c 00000003 00000000 00000000     ................
2000a144:	0000000a 00000003                       ........

2000a14c <.L__unnamed_77>:
2000a14c:	20200a0d 20202020 20202020 e2202020     ..             .
2000a15c:	e2208294 4820b296 20706165 20202020     .. ... Heap     
2000a16c:	                                           

2000a16e <.L__unnamed_78>:
2000a16e:	20202020 0a0d5320                             S..  

2000a178 <.L__unnamed_79>:
2000a178:	bc94e220 e28094e2 94e28094 8094e280      ...............
2000a188:	e28094e2 94e28094 8094e280 e28094e2     ................
2000a198:	94e28094 8094e280 e28094e2 94e28094     ................
2000a1a8:	8094e280 e28094e2 94e28094 8094e280     ................
2000a1b8:	e28094e2 94e28094 8094e280 e28094e2     ................
2000a1c8:	94e28094 8094e280 e28094e2 94e28094     ................
2000a1d8:	8094e280 e28094e2 94e28094 8094e280     ................
2000a1e8:	e28094e2 94e28094 8094e280 e28094e2     ................
2000a1f8:	94e28094 00522080                       ..... R.

2000a200 <.L__unnamed_24>:
2000a200:	00000001 00000000 00000020 00000000     ........ .......
2000a210:	00000003 00000000 00000000 00000006     ................
2000a220:	00000003 00000001 00000001 00000020     ............ ...
2000a230:	00000000 00000003 00000000 00000000     ................
2000a240:	00000006 00000003 00000001 00000002     ................
2000a250:	00000020 00000000 00000003 00000000      ...............
2000a260:	00000003 00000000 00000003 00000001     ................
2000a270:	00000003 00000020 0000000c 00000003     .... ...........
	...
2000a288:	0000000a 00000003                       ........

2000a290 <.L__unnamed_23>:
2000a290:	20200a0d 20202020 20202020 e2202020     ..             .
2000a2a0:	e2208294 4820b296 20706165 20202020     .. ... Heap     
2000a2b0:	20202020 3f202020 20207c20 20202020            ? |      
2000a2c0:	2020203f 20202020 20202020 20202020     ?               
2000a2d0:	200a0d53 3f3f3f20 3f3f3f3f 203f3f3f     S..  ?????????? 
2000a2e0:	e2bc94e2 94e28094 8094e280 e28094e2     ................
2000a2f0:	94e28094 8094e280 e28094e2 94e28094     ................
2000a300:	8094e280 e28094e2 94e28094 8094e280     ................
2000a310:	e28094e2 94e28094 8094e280 e28094e2     ................
2000a320:	94e28094 8094e280 e28094e2 94e28094     ................
2000a330:	8094e280 e28094e2 94e28094 8094e280     ................
2000a340:	e28094e2 94e28094 8094e280 e28094e2     ................
2000a350:	94e28094 8094e280 e28094e2 94e28094     ................
2000a360:	8094e280                                 .... R

2000a366 <.L__unnamed_28>:
2000a366:	20200a0d 20202020 20202020 e2202020     ..             .
2000a376:	44208294 20617461 20202020 20202020     .. Data         
2000a386:	20202020 7c203f20 20202020 203f2020          ? |      ? 
2000a396:	20202020 20202020 20202020 69412020                   Ai
2000a3a6:	7865646e 74756f20 20666f20 6e756f62     ndex out of boun
2000a3b6:	203a7364 20656874 206e656c 0d207369     ds: the len is .
2000a3c6:	2020200a 20202020 20202020 94e22020     .             ..
2000a3d6:	61442082 20206174 20202020 73202020     . Data         s
2000a3e6:	6c2f6372 6f636269 752f6572 6f63696e     rc/libcore/unico
2000a3f6:	702f6564 746e6972 656c6261 0073722e     de/printable.rs.
2000a406:	00070000 000a0000 00070000 00020000     ................
2000a416:	4b090000 656e7265 6576206c 6f697372     ...Kernel versio
2000a426:	2029206e 6e656877 696c7320 676e6963     n ) when slicing
2000a436:	6f6c6020 70206461 20656761 6c756166      `load page faul
2000a446:	696d2074 696c6173 64656e67 616f6c20     t misaligned loa
2000a456:	20202064 20202020 20202020 20202020     d               
2000a466:	75734120 69726462 5f726576 626d756e      Asubdriver_numb
2000a476:	                                         er

2000a478 <.L__unnamed_26>:
2000a478:	00000001 00000000 00000020 00000000     ........ .......
2000a488:	00000003 00000000 00000000 00000006     ................
2000a498:	00000003 00000001 00000001 00000020     ............ ...
2000a4a8:	00000000 00000003 00000000 00000000     ................
2000a4b8:	00000006 00000003                       ........

2000a4c0 <.L__unnamed_82>:
2000a4c0:	bc94e220 e28094e2 94e28094 8094e280      ...............
2000a4d0:	e28094e2 94e28094 8094e280 e28094e2     ................
2000a4e0:	94e28094 8094e280 e28094e2 94e28094     ................
2000a4f0:	8094e280 e28094e2 94e28094 8094e280     ................
2000a500:	e28094e2 94e28094 8094e280 e28094e2     ................
2000a510:	94e28094 8094e280 e28094e2 94e28094     ................
2000a520:	8094e280 e28094e2 94e28094 8094e280     ................
2000a530:	e28094e2 94e28094 8094e280 e28094e2     ................
2000a540:	94e28094 0d4d2080 2020200a 20202020     ..... M..       
2000a550:	20202020 94e22020 96e22082 745320bc           ... ... St
2000a560:	206b6361 20202020 00000020              ack      ...

2000a56c <.L__unnamed_29>:
2000a56c:	00000001 00000000 00000020 0000000c     ........ .......
2000a57c:	00000003 00000000 00000000 0000000a     ................
2000a58c:	00000003 00000001 00000001 00000020     ............ ...
2000a59c:	00000000 00000003 00000000 00000000     ................
2000a5ac:	00000006 00000003 00000001 00000002     ................
2000a5bc:	00000020 00000000 00000003 00000000      ...............
2000a5cc:	00000000 00000006 00000003 00000001     ................
2000a5dc:	00000003 00000020 00000000 00000003     .... ...........
2000a5ec:	00000000 00000003 00000000 00000003     ................

2000a5fc <.L__unnamed_31>:
2000a5fc:	20200a0d 3f3f3f3f 3f3f3f3f e2203f3f     ..  ?????????? .
2000a60c:	94e2bc94 8094e280 e28094e2 94e28094     ................
2000a61c:	8094e280 e28094e2 94e28094 8094e280     ................
2000a62c:	e28094e2 94e28094 8094e280 e28094e2     ................
2000a63c:	94e28094 8094e280 e28094e2 94e28094     ................
2000a64c:	8094e280 e28094e2 94e28094 8094e280     ................
2000a65c:	e28094e2 94e28094 8094e280 e28094e2     ................
2000a66c:	94e28094 8094e280 e28094e2 94e28094     ................
2000a67c:	8094e280 e28094e2 94e28094 8094e280     ................
2000a68c:	208094e2 200a0d4d 20202020 20202020     ... M..         
2000a69c:	20202020 208294e2 20bc96e2 63617453         ... ... Stac
2000a6ac:	2020206b 20202020 20202020 207c203f     k           ? | 
2000a6bc:	20202020                                      ?

2000a6c2 <.L__unnamed_83>:
2000a6c2:	b494e220 e28094e2 94e28094 8094e280      ...............
2000a6d2:	e28094e2 94e28094 8094e280 e28094e2     ................
2000a6e2:	94e28094 8094e280 e28094e2 94e28094     ................
2000a6f2:	8094e280 e28094e2 94e28094 8094e280     ................
2000a702:	e28094e2 94e28094 8094e280 e28094e2     ................
2000a712:	94e28094 8094e280 e28094e2 94e28094     ................
2000a722:	8094e280 e28094e2 94e28094 8094e280     ................
2000a732:	e28094e2 94e28094 8094e280 e28094e2     ................
2000a742:	94e28094 200a0d80 20202020 20202020     .......         
2000a752:	20202020 2e2e2e2e 200a0d2e                   .......  

2000a75f <.L__unnamed_84>:
2000a75f:	ac94e220 e28094e2 94e28094 8094e280      ...............
2000a76f:	e28094e2 94e28094 8094e280 e28094e2     ................
2000a77f:	94e28094 8094e280 e28094e2 94e28094     ................
2000a78f:	8094e280 e28094e2 94e28094 8094e280     ................
2000a79f:	e28094e2 94e28094 8094e280 e28094e2     ................
2000a7af:	94e28094 8094e280 e28094e2 94e28094     ................
2000a7bf:	8094e280 e28094e2 94e28094 8094e280     ................
2000a7cf:	e28094e2 94e28094 8094e280 e28094e2     ................
2000a7df:	94e28094 0d462080 2020200a 20202020     ..... F..       
2000a7ef:	20202020 94e22020 70412082 6c462070           ... App Fl
2000a7ff:	20687361                                 ash    

2000a806 <.L__unnamed_85>:
2000a806:	20202020 20202020 20202020 20202020                     
2000a816:	20202020 20202020 200a0d4c                       L..  

2000a823 <.L__unnamed_86>:
2000a823:	bc94e220 e28094e2 94e28094 8094e280      ...............
2000a833:	e28094e2 94e28094 8094e280 e28094e2     ................
2000a843:	94e28094 8094e280 e28094e2 94e28094     ................
2000a853:	8094e280 e28094e2 94e28094 8094e280     ................
2000a863:	e28094e2 94e28094 8094e280 e28094e2     ................
2000a873:	94e28094 8094e280 e28094e2 94e28094     ................
2000a883:	8094e280 e28094e2 94e28094 8094e280     ................
2000a893:	e28094e2 94e28094 8094e280 e28094e2     ................
2000a8a3:	94e28094 0d412080 2020200a 20202020     ..... A..       
2000a8b3:	20202020 94e22020 72502082 6365746f           ... Protec
2000a8c3:	20646574                                 ted    

2000a8ca <.L__unnamed_87>:
2000a8ca:	20202020 20202020 20202020 20202020                     
2000a8da:	20202020 20202020 200a0d53                       S..  

2000a8e7 <.L__unnamed_88>:
2000a8e7:	b494e220 e28094e2 94e28094 8094e280      ...............
2000a8f7:	e28094e2 94e28094 8094e280 e28094e2     ................
2000a907:	94e28094 8094e280 e28094e2 94e28094     ................
2000a917:	8094e280 e28094e2 94e28094 8094e280     ................
2000a927:	e28094e2 94e28094 8094e280 e28094e2     ................
2000a937:	94e28094 8094e280 e28094e2 94e28094     ................
2000a947:	8094e280 e28094e2 94e28094 8094e280     ................
2000a957:	e28094e2 94e28094 8094e280 e28094e2     ................
2000a967:	94e28094 0d482080                        ..... H..

2000a970 <.L__unnamed_32>:
2000a970:	00000001 00000000 00000020 0000000c     ........ .......
2000a980:	00000003 00000000 00000000 0000000a     ................
2000a990:	00000003 00000001 00000001 00000020     ............ ...
2000a9a0:	0000000c 00000003 00000000 00000000     ................
2000a9b0:	0000000a 00000003 00000001 00000002     ................
2000a9c0:	00000020 0000000c 00000003 00000000      ...............
2000a9d0:	00000000 0000000a 00000003 00000001     ................
2000a9e0:	00000003 00000020 00000000 00000003     .... ...........
	...
2000a9f8:	00000006 00000003 00000001 00000004     ................
2000aa08:	00000020 0000000c 00000003 00000000      ...............
2000aa18:	00000000 0000000a 00000003 00000001     ................
2000aa28:	00000005 00000020 00000000 00000003     .... ...........
	...
2000aa40:	00000006 00000003 00000001 00000006     ................
2000aa50:	00000020 0000000c 00000003 00000000      ...............
2000aa60:	00000000 0000000a 00000003              ............

2000aa6c <.L__unnamed_89>:
2000aa6c:	6f540a0d 62656420 202c6775 206e7572     ..To debug, run 
2000aa7c:	6b616d60 65642065 20677562 5f4d4152     `make debug RAM_
2000aa8c:	52415453                                 START=

2000aa92 <.L__unnamed_90>:
2000aa92:	414c4620 495f4853 3d54494e               FLASH_INIT=

2000aa9e <.L__unnamed_91>:
2000aa9e:	690a0d60 6874206e 70612065 20732770     `..in the app's 
2000aaae:	646c6f66 61207265 6f20646e 206e6570     folder and open 
2000aabe:	20656874 74736c2e 6c696620 0a0d2e65     the .lst file...
2000aace:	                                         ..

2000aad0 <.L__unnamed_35>:
2000aad0:	00000001 00000000 00000020 00000004     ........ .......
2000aae0:	00000003 00000000 00000003 00000000     ................
2000aaf0:	00000003 00000001 00000001 00000020     ............ ...
2000ab00:	00000004 00000003 00000000 00000003     ................
2000ab10:	00000000 00000003                       ........

2000ab18 <.Lanon.f5e9d1b6b06a2b6d0d956a9fb25ba6d3.14>:
2000ab18:	6d6f682f 6d622f65 786f2f63 2d656469     /home/bmc/oxide-
2000ab28:	6b636f74 7061632f 656c7573 72732f73     tock/capsules/sr
2000ab38:	69762f63 61757472 61755f6c 722e7472     c/virtual_uart.r
2000ab48:	                                         s

2000ab49 <.Lanon.aac08785f9f9f986c730553ee9705282.1>:
2000ab49:	64206f6e 72656665 20646572 6c6c6163     no deferred call
2000ab59:	6f6c7320 76612074 616c6961 20656c62      slot available 
2000ab69:	20726f66 74726175 78756d20              for uart mux

2000ab75 <.Lanon.aac08785f9f9f986c730553ee9705282.2>:
2000ab75:	6d6f682f 6d622f65 786f2f63 2d656469     /home/bmc/oxide-
2000ab85:	6b636f74 616f622f 2f736472 706d6f63     tock/boards/comp
2000ab95:	6e656e6f 732f7374 632f6372 6f736e6f     onents/src/conso
2000aba5:	722e656c                                 le.rs

2000abaa <core::str::UTF8_CHAR_WIDTH>:
2000abaa:	01010101 01010101 01010101 01010101     ................
2000abba:	01010101 01010101 01010101 01010101     ................
2000abca:	01010101 01010101 01010101 01010101     ................
2000abda:	01010101 01010101 01010101 01010101     ................
2000abea:	01010101 01010101 01010101 01010101     ................
2000abfa:	01010101 01010101 01010101 01010101     ................
2000ac0a:	01010101 01010101 01010101 01010101     ................
2000ac1a:	01010101 01010101 01010101 01010101     ................
	...
2000ac6a:	02020000 02020202 02020202 02020202     ................
2000ac7a:	02020202 02020202 02020202 02020202     ................
2000ac8a:	03030303 03030303 03030303 03030303     ................
2000ac9a:	04040404 00000004 00000000 00000000     ................

2000acaa <.Lanon.2c6bb00a6eab53dbfca994608b168c3b.171>:
2000acaa:	74756220 65687420 646e6920 69207865      but the index i
2000acba:	                                         s 

2000acbc <.Lanon.2c6bb00a6eab53dbfca994608b168c3b.202>:
2000acbc:	31303030 33303230 35303430 37303630     0001020304050607
2000accc:	39303830 31313031 33313231 35313431     0809101112131415
2000acdc:	37313631 39313831 31323032 33323232     1617181920212223
2000acec:	35323432 37323632 39323832 31333033     2425262728293031
2000acfc:	33333233 35333433 37333633 39333833     3233343536373839
2000ad0c:	31343034 33343234 35343434 37343634     4041424344454647
2000ad1c:	39343834 31353035 33353235 35353435     4849505152535455
2000ad2c:	37353635 39353835 31363036 33363236     5657585960616263
2000ad3c:	35363436 37363636 39363836 31373037     6465666768697071
2000ad4c:	33373237 35373437 37373637 39373837     7273747576777879
2000ad5c:	31383038 33383238 35383438 37383638     8081828384858687
2000ad6c:	39383838 31393039 33393239 35393439     8889909192939495
2000ad7c:	37393639 39393839                       96979899

2000ad84 <.Lanon.2c6bb00a6eab53dbfca994608b168c3b.215>:
2000ad84:	2f637273 6362696c 2f65726f 63696c73     src/libcore/slic
2000ad94:	6f6d2f65 73722e64                       e/mod.rs

2000ad9c <.Lanon.2c6bb00a6eab53dbfca994608b168c3b.216>:
2000ad9c:	65646e69                                 index 

2000ada2 <.Lanon.2c6bb00a6eab53dbfca994608b168c3b.217>:
2000ada2:	74756f20 20666f20 676e6172 6f662065      out of range fo
2000adb2:	6c732072 20656369 6c20666f 74676e65     r slice of lengt
2000adc2:	                                         h 

2000adc4 <.Lanon.2c6bb00a6eab53dbfca994608b168c3b.220>:
2000adc4:	63696c73 6e692065 20786564 72617473     slice index star
2000add4:	61207374                                 ts at 

2000adda <.Lanon.2c6bb00a6eab53dbfca994608b168c3b.221>:
2000adda:	74756220 646e6520 74612073                but ends at 

2000ade7 <.Lanon.2c6bb00a6eab53dbfca994608b168c3b.267>:
2000ade7:	2e2e2e5b                                 [...]

2000adec <.Lanon.2c6bb00a6eab53dbfca994608b168c3b.159>:
2000adec:	6c6c6163 60206465 6974704f 3a3a6e6f     called `Option::
2000adfc:	72776e75 29287061 6e6f2060 60206120     unwrap()` on a `
2000ae0c:	656e6f4e 61762060                        None` value

2000ae17 <.Lanon.2c6bb00a6eab53dbfca994608b168c3b.264>:
2000ae17:	2f637273 6362696c 2f65726f 2f727473     src/libcore/str/
2000ae27:	2e646f6d                                 mod.rs

2000ae2d <.Lanon.2c6bb00a6eab53dbfca994608b168c3b.268>:
2000ae2d:	65747962 646e6920                        byte index 

2000ae38 <.Lanon.2c6bb00a6eab53dbfca994608b168c3b.278>:
2000ae38:	20736920 20746f6e 68632061 62207261      is not a char b
2000ae48:	646e756f 3b797261 20746920 69207369     oundary; it is i
2000ae58:	6469736e                                 nside 

2000ae5e <.Lanon.2c6bb00a6eab53dbfca994608b168c3b.280>:
2000ae5e:	666f2029                                 ) of `

2000ae64 <.Lanon.2c6bb00a6eab53dbfca994608b168c3b.29>:
2000ae64:	                                         `

2000ae65 <.Lanon.2c6bb00a6eab53dbfca994608b168c3b.204>:
2000ae65:	2f637273 6362696c 2f65726f 2f746d66     src/libcore/fmt/
2000ae75:	2e646f6d                                 mod.rs

2000ae7b <.Lanon.2c6bb00a6eab53dbfca994608b168c3b.125>:
2000ae7b:	                                         ..

2000ae7d <.Lanon.2c6bb00a6eab53dbfca994608b168c3b.201>:
2000ae7d:	                                         0x

2000ae7f <core::unicode::unicode_data::grapheme_extend::BITSET_CHUNKS_MAP>:
2000ae7f:	1b150f04 17120319 0e000011 00000016     ................
	...
2000aea7:	00130600 00000000 00000000 00000000     ................
2000aeb7:	00000000 07020000 0c08000a 1a181c1d     ................
	...
2000aed7:	01050000 00000000 00000000 00000000     ................
2000aee7:	00000000 10000000 00000000 0009000b     ................
2000aef7:	                                         ...

2000aefa <core::unicode::unicode_data::grapheme_extend::BITSET_INDEX_CHUNKS>:
	...
2000af16:	00120f00 00000000 00000000 00000000     ................
2000af26:	0000001f 00000000 00000000 00000000     ................
2000af36:	1d664649 00000000 00000000 00000000     IFf.............
2000af46:	00003e8a 00000000 00000000 4b000000     .>.............K
2000af56:	00000053 00000000 00000000 42236700     S............g#B
	...
2000af72:	0000003d 00230000 00000000 00000000     =.....#.........
2000af82:	2d000075 00000000 00000000 00000000     u..-............
2000af92:	003c4e82 00000000 00000000 63000000     .N<............c
2000afa2:	25000000 00005a00 00000000 00368100     ...%.Z........6.
2000afb2:	00000300 00000000 00000000 0000002f     ............/...
2000afc2:	00000000 00001000 13000000 00000800     ................
	...
2000afda:	43000000 89007200 00000000 00000000     ...C.r..........
2000afea:	00070000 057d0000 37003f18 64400987     ......}..?.7..@d
2000affa:	00210000 00000000 00000000 00000000     ..!.............
2000b00a:	4100000a 00000000 00000000 00000000     ...A............
2000b01a:	0030000c 0000005c 00717719 44354760     ..0.\....wq.`G5D
2000b02a:	7400002e 2c651139 507f5e51 34000000     ...t9.e,Q^.P...4
2000b03a:	00000031 00000053 3a000000 00000000     1...S......:....
2000b04a:	88001a38 696b2b5f 845d4f5d 14682a80     8..._+ki]O]..*h.
2000b05a:	0017003b 00000000 00000000 00000000     ;...............
2000b06a:	57000055 83000000 00000000 00000000     U..W............
2000b07a:	00000059 26000000 00161b6e 00000000     Y......&n.......
2000b08a:	001c4a6d 00000000 00000000 00002400     mJ...........$..
2000b09a:	0052007c 0015067b 48000000 00000000     |.R.{......H....
2000b0aa:	2776287e 2200296c 0d610e5b 04627056     ~(v'l)."[.a.Vpb.
2000b0ba:	02782085 1e7a0000 00540179 00000033     . x...z.y.T.3...
2000b0ca:	00587386 0b6f454d 3200006a 00004c6c     .sX.MEo.j..2lL..
2000b0da:	00008a89 3e8a8a8a 00000000 00000000     .......>........
2000b0ea:	00000000                                 ......

2000b0f0 <core::unicode::unicode_data::grapheme_extend::BITSET>:
	...
2000b0f8:	00000001 00000000 0000000d 00000000     ................
2000b108:	0000001c 00000000 00000040 00000000     ........@.......
2000b118:	000000b6 00000000 000000bf 00000000     ................
2000b128:	000003f8 00000000 000007f0 00000000     ................
2000b138:	000007ff 00000000 00001000 00000000     ................
2000b148:	00001e00 00000000 00003800 00000000     .........8......
2000b158:	00003f00 00000000 00007f80 00000000     .?..............
2000b168:	00008000 00000000 0001ffc0 00000000     ................
2000b178:	0003ff80 00000000 00078000 00000000     ................
2000b188:	007f0000 00000000 00802001 00000000     ......... ......
2000b198:	00a30000 00000000 037ffc00 00000000     ................
2000b1a8:	06000000 00000000 07ff0000 00000000     ................
2000b1b8:	09800000 00000000 0e000000 00000000     ................
2000b1c8:	0e7e0080 00000000 20002064 00000000     ..~.....d . ....
2000b1d8:	200ffe40 00000000 30000001 00000000     @.. .......0....
2000b1e8:	40000000 00000000 4000005c 00000000     ...@....\..@....
2000b1f8:	60000000 00000000 805c8400 00000000     ...`......\.....
2000b208:	c0000000 00000000 e0000000 00000000     ................
2000b218:	00000000 00000001 0cf00000 00000001     ................
2000b228:	00603044 0000000c 00603dc1 0000000c     D0`......=`.....
2000b238:	0080201e 0000000c 00c0201e 0000000c     . ....... ......
2000b248:	00fe21fe 0000000c 00000000 00000020     .!.......... ...
2000b258:	00000000 00000060 00000844 00000060     ....`...D...`...
2000b268:	00000000 000000f0 00000060 00000200     ........`.......
2000b278:	f9ffff7f 000007db 80000000 000007f8     ................
2000b288:	e0000000 00000fbc 00000000 00002120     ............ !..
2000b298:	00000003 00003b3c 00000fe7 00003c00     ....<;.......<..
2000b2a8:	9fc00000 00003d9f fbc00000 00003eef     .....=.......>..
2000b2b8:	00000000 00003fc0 00000000 0000f000     .....?..........
2000b2c8:	00000000 0000fc00 f8000010 0000fffe     ................
2000b2d8:	0000ffff 0000ffff ffffffff 0000ffff     ................
2000b2e8:	fffff800 00010000 00000000 0001ffc0     ................
2000b2f8:	ffff0000 0001ffff 00000000 00030000     ................
2000b308:	00000000 00038000 00000000 0003a340     ............@...
2000b318:	00000000 00080000 000c0000 000c0000     ................
2000b328:	00000004 000ff800 00000000 00180000     ................
2000b338:	001c0000 001c0000 c3000000 001e0001     ................
2000b348:	00000000 001f0000 00800001 001f1fc0     ................
2000b358:	00000007 001fef80 ffffffff 00201fff     .............. .
2000b368:	00023986 00230000 00000002 00403000     .9....#......0@.
2000b378:	00000000 00667e00 fffc0000 006dfcff     .....~f.......m.
2000b388:	00000000 007f0000 00000000 00bf2800     .............(..
2000b398:	00000000 00cff000 03000000 02a00000     ................
2000b3a8:	fff70000 031021fd 00000003 06780000     .....!........x.
2000b3b8:	00000000 06ff8000 00000000 07c00000     ................
2000b3c8:	00000000 07f20000 00000000 0e040187     ................
2000b3d8:	00000006 10000000 00001008 10000000     ................
2000b3e8:	00000007 14000000 0000000f 17f00000     ................
2000b3f8:	00000000 1ff20000 feffe0df 1fffffff     ................
2000b408:	00000000 20000000 00000000 200ff800     ....... ....... 
2000b418:	00000007 33c80000 00000000 3fb00000     .......3.......?
2000b428:	00000000 3ff78000 00000004 40000000     .......?.......@
2000b438:	0080201e 4000000c 00000000 40d38000     . .....@.......@
2000b448:	00000002 50000000 00000003 58000000     .......P.......X
2000b458:	00000000 66fde000 000007fe 79f80000     .......f.......y
2000b468:	00000003 7fc00000 00000000 7ffe0000     ................
2000b478:	00000000 7fff0000 00000000 80000000     ................
2000b488:	0000007f 80000000 00000030 8003ffff     ........0.......
2000b498:	0000f06e 87000000 00000002 90000000     n...............
2000b4a8:	7f400000 9ff81fe5 00000000 a5f90000     ..@.............
2000b4b8:	00000000 a7f80000 00000000 b03c8000     ..............<.
2000b4c8:	00000000 b47e0000 00000000 bf7f0000     ......~.........
2000b4d8:	fffe0000 bfffffff 00000011 c0000000     ................
2000b4e8:	00000000 c19d0000 00000002 d0000000     ................
2000b4f8:	00000000 f807c3a0 ffffffff f87fffff     ................
2000b508:	ffffffff fbffffff 000021be fc00000c     .........!......
2000b518:	00000000 ff000000 00000002 ff000000     ................
2000b528:	00020000 ffff0000 fff80000 fffffffb     ................
2000b538:	00000000 ffffffff ffffffff ffffffff     ................

2000b548 <.Lanon.2c6bb00a6eab53dbfca994608b168c3b.311>:
2000b548:	2f637273 6362696c 2f65726f 63696e75     src/libcore/unic
2000b558:	2f65646f 2e646f6d                        ode/mod.rs

2000b562 <.Lanon.2c6bb00a6eab53dbfca994608b168c3b.305>:
2000b562:	05030100 03060605 08080607 1c0a1109     ................
2000b572:	140c190b 0d0e120d 0310040f 09131212     ................
2000b582:	05170116 03190218 021c071a 161f011d     ................
2000b592:	042b0320 0b2d022c 0330012e 01320231      .+.,.-...0.1.2.
2000b5a2:	02a902a7 08ab04aa 05fb02fa 03fe04fd     ................
2000b5b2:	                                         ..

2000b5b4 <.Lanon.2c6bb00a6eab53dbfca994608b168c3b.306>:
2000b5b4:	8b7978ad 5730a28d 908c8b58 0edd1d1c     .xy...0WX.......
2000b5c4:	fb4c4b0f 3f2f2efc b55f5d5c 8e8d84e2     .KL.../?\]_.....
2000b5d4:	b1a99291 c6c5bbba e4decac9 0400ffe5     ................
2000b5e4:	31291211 3b3a3734 5d4a493d a9928e84     ..)147:;=IJ]....
2000b5f4:	bbbab4b1 cfcecac6 0400e5e4 12110e0d     ................
2000b604:	3a343129 4946453b 65645e4a 9d9b9184     )14:;EFIJ^de....
2000b614:	0dcfcec9 49452911 8d656457 bab4a991     .....)EIWde.....
2000b624:	dfc9c5bb 04f0e5e4 4945110d 81806564     ..........EIde..
2000b634:	bebcb284 f0d7d5bf 8b8583f1 bfbea6a4     ................
2000b644:	cfcec7c5 9848dbda cec6cdbd 4f4e49cf     ......H......INO
2000b654:	5f5e5957 b18f8e89 c1bfb7b6 11d7c7c6     WY^_............
2000b664:	5c5b1716 fffef7f6 716d0d80 0f0edfde     ..[\......mq....
2000b674:	1c6f6e1f 7e7d5f1d bcbbafae 1e1716fa     .no.._}~........
2000b684:	4e47461f 5c5a584f b57f7e5e dcd5d4c5     .FGNOXZ\^~......
2000b694:	72f5f1f0 75748f73 5f2f9796 a72f2e26     ...rs.tu../_&./.
2000b6a4:	c7bfb7af 9adfd7cf 30989740 c1c01f8f     ........@..0....
2000b6b4:	4f4effce 08075b5a 2f27100f 6f6eefee     ..NOZ[....'/..no
2000b6c4:	423f3d37 fe919045 756753ff d1d0c9c8     7=?BE....Sgu....
2000b6d4:	fee7d9d8                                 .....

2000b6d9 <.Lanon.2c6bb00a6eab53dbfca994608b168c3b.307>:
2000b6d9:	225f2000 8204df82 041b0844 ac811106     . _"....D.......
2000b6e9:	35ab800e e080151e 01081903 34042f04     ...5........./.4
2000b6f9:	01030704 11070607 120f500a 02085507     .........P...U..
2000b709:	090a1c04 07030803 03030203 05040c03     ................
2000b719:	01060b03 3a05150e 06071103 57071005     .......:.......W
2000b729:	15070207 4304500d 01032d03 0f061104     .....P.C.-......
2000b739:	1d043a0c 6d205f25 80256a04 b08205c8     .:..%_ m.j%.....
2000b749:	82061a03 075903fd 09170b15 0c140c14     ......Y.........
2000b759:	060a066a 0759061a 0a46052b 040c042c     j.....Y.+.F.,...
2000b769:	0b310301 061a042c ac80030b 1f060a06     ..1.,...........
2000b779:	2d044c41 3c087403 3c030f03 2b083807     AL.-.t.<...<.8.+
2000b789:	11ff8205 112f0818 1020032d 8c800f21     ....../.-. .!...
2000b799:	19978204 9488150b 3b052f05 180e0207     ........./.;....
2000b7a9:	30b08009 d6800c74 80050c1a b68005ff     ...0t...........
2000b7b9:	9b0c2405 30d20ac6 038d8410 5c810937     .$.....0....7..\
2000b7c9:	08b88014 3530c780 38060a04 0c084608     ......05...8.F..
2000b7d9:	1e0b7406 59045a03 18838009 09160a1c     .t...Z.Y........
2000b7e9:	8a800848 0ca4ab06 a1310417 26da8104     H.........1....&
2000b7f9:	05050c07 8111a580 2878106d 044c062a     ........m.x(*.L.
2000b809:	80048d80 031b03be                        ..........

2000b813 <.Lanon.2c6bb00a6eab53dbfca994608b168c3b.308>:
2000b813:	01010600 02040103 02090808 020b050a     ................
2000b823:	04110110 11130512 02150214 04190217     ................
2000b833:	081d051c 036a0124 02bc026b 0cd402d1     ....$.j.k.......
2000b843:	02d609d5 01da02d7 02e105e0 20ee02e8     ............... 
2000b853:	06f904f0                                 ......

2000b859 <.Lanon.2c6bb00a6eab53dbfca994608b168c3b.309>:
2000b859:	3e3b270c 9e8f4f4e 07069f9e 3e3d3609     .';>NO.......6=>
2000b869:	d1d0f356 36181404 bd575637 e0cfce35     V......67VW.5...
2000b879:	8e898712 0e0d049e 31291211 46453a34     ..........)14:EF
2000b889:	4f4e4a49 5c5a6564 1c1bb7b6 d9d8a9a8     IJNOdeZ\........
2000b899:	91903709 3b0a07a8 8f69663e ee5f6f92     .7.....;>fi..o_.
2000b8a9:	9a625aef 5528279b a3a1a09d ada8a7a4     .Zb..'(U........
2000b8b9:	06c4bcba 1d150c0b 51453f3a cdcca7a6     ........:?EQ....
2000b8c9:	1a1907a0 3f3e2522 2004c6c5 28262523     ...."%>?... #%&(
2000b8d9:	483a3833 53504c4a 5a585655 63605e5c     38:HJLPSUVXZ\^`c
2000b8e9:	736b6665 8a7f7d78 b0afaaa4 720cd0c0     efksx}.........r
2000b8f9:	cccba4a3                                 ....no

2000b8ff <.Lanon.2c6bb00a6eab53dbfca994608b168c3b.310>:
2000b8ff:	057b225e 032d0403 2f010465 1d82802e     ^"{...-.e../....
2000b90f:	1c0f3103 1e092404 44052b05 802a0e04     .1...$...+.D..*.
2000b91f:	042406aa 08280424 80010b34 09378190     ..$.$.(.4.....7.
2000b92f:	80080a16 63033998 16300908 1b032105     .....9.c..0..!..
2000b93f:	38400105 2f054b04 09070a04 27204007     ..@8.K./.....@ '
2000b94f:	36090c04 1a053a03 070c0407 33374950     ...6.:......PI73
2000b95f:	2e07330d 26810a08 2881801f 86802a08     .3.....&...(.*..
2000b96f:	044e0917 0e430f1e 060a0719 09270947     ..N...C.....G.'.
2000b97f:	413f0b75 053b062a 0651060a 03100501     u.?A*.;...Q.....
2000b98f:	608b8005 0a084820 225ea680 060a0b45     ...` H....^"E...
2000b99f:	0739130d 042c360a 3cc08010 010c5364     ..9..6,....<dS..
2000b9af:	1b45a080 1d530848 46078139 47031d0a     ..E.H.S.9..F...G
2000b9bf:	0e033749 39060a08 36810a07 32c78019     I7.....9...6...2
2000b9cf:	669b830d c4800b75 2f84bc8a 4782d18f     ...fu....../...G
2000b9df:	3982b9a1 02042a07 460a2660 1305280a     ...9.*..`&.F.(..
2000b9ef:	655bb082 0739044b 1c044011 8208f897     ..[eK.9..@......
2000b9ff:	810da5f3 1103311f 8c810804 056b0489     .....1........k.
2000ba0f:	0709030d 80609310 08730af6 8046176e     ......`...s.n.F.
2000ba1f:	570c149a 87801909 85034781 85150f42     ...W.....G..B...
2000ba2f:	d5802b50 041a032d 3a708102 00850105     P+..-.....p:....
2000ba3f:	4c29d780 02040a04 4c441183 3cc2803d     ..)L......DL=..<
2000ba4f:	55040106 02341b05 042c0e81 0a560c64     ...U..4...,.d.V.
2000ba5f:	035d030d 0d1d393d 0709042c 80060e02     ..].=9..,.......
2000ba6f:	0ad6839a 050b030d 07590c74 040c140c     ........t.Y.....
2000ba7f:	060a0838 521e0828 03310377 140ca680     8...(..Rw.1.....
2000ba8f:	03050304 6a85060d                       .......j

2000ba97 <.Lanon.2c6bb00a6eab53dbfca994608b168c3b.272>:
2000ba97:	69676562 3d3c206e 646e6520               begin <= end (

2000baa5 <.Lanon.2c6bb00a6eab53dbfca994608b168c3b.269>:
2000baa5:	20736920 2074756f 6220666f 646e756f      is out of bound
2000bab5:	666f2073                                 s of `

2000babb <.Lanon.2c6bb00a6eab53dbfca994608b168c3b.161>:
2000babb:	                                         : 

2000babd <.Lanon.2c6bb00a6eab53dbfca994608b168c3b.179>:
2000babd:	                                          { 

2000bac0 <.Lanon.2c6bb00a6eab53dbfca994608b168c3b.178>:
2000bac0:	                                         , 

2000bac2 <.Lanon.2c6bb00a6eab53dbfca994608b168c3b.176>:
2000bac2:	                                          {.

2000bac5 <.Lanon.2c6bb00a6eab53dbfca994608b168c3b.177>:
2000bac5:	                                         ,.

2000bac7 <.Lanon.2c6bb00a6eab53dbfca994608b168c3b.181>:
2000bac7:	                                          }

2000bac9 <.Lanon.2c6bb00a6eab53dbfca994608b168c3b.180>:
2000bac9:	                                         }

2000baca <.Lanon.2c6bb00a6eab53dbfca994608b168c3b.183>:
2000baca:	                                         (

2000bacb <.Lanon.2c6bb00a6eab53dbfca994608b168c3b.182>:
2000bacb:	                                         (.

2000bacd <.Lanon.2c6bb00a6eab53dbfca994608b168c3b.184>:
2000bacd:	                                         ,

2000bace <.Lanon.2c6bb00a6eab53dbfca994608b168c3b.185>:
2000bace:	                                         )

2000bacf <.Lanon.10dee966009b08f571f6f372f9df6397.0>:
2000bacf:	78646950                                 Pidx 

2000bad4 <.Lanon.10dee966009b08f571f6f372f9df6397.3>:
2000bad4:	65637865 6f697470 7974206e 75206570     exception type u
2000bae4:	6f6e6b6e                                 nknown

2000baea <.Lanon.10dee966009b08f571f6f372f9df6397.16>:
2000baea:	6863616d 20656e69 65646f6d 766e6520     machine mode env
2000bafa:	6e6f7269 746e656d 6c616320               ironment call.

2000bb08 <.Lanon.10dee966009b08f571f6f372f9df6397.4>:
2000bb08:	6d6f682f 6d622f65 786f2f63 2d656469     /home/bmc/oxide-
2000bb18:	6b636f74 6968632f 692f7370 2f786562     tock/chips/ibex/
2000bb28:	2f637273 70696863                        src/chip.rs

2000bb33 <.Lanon.10dee966009b08f571f6f372f9df6397.6>:
2000bb33:	726f7473 61702065 66206567 746c7561     store page fault
2000bb43:	                                          

2000bb44 <.Lanon.10dee966009b08f571f6f372f9df6397.7>:
2000bb44:	                                         .

2000bb45 <.Lanon.10dee966009b08f571f6f372f9df6397.13>:
2000bb45:	74736e69 74637572 206e6f69 65676170     instruction page
2000bb55:	75616620                                  fault 

2000bb5c <.Lanon.10dee966009b08f571f6f372f9df6397.18>:
2000bb5c:	726f7473 61662065 20746c75              store fault 

2000bb68 <.Lanon.10dee966009b08f571f6f372f9df6397.21>:
2000bb68:	6173696d 6e67696c 73206465 65726f74     misaligned store
2000bb78:	                                          

2000bb79 <.Lanon.10dee966009b08f571f6f372f9df6397.24>:
2000bb79:	64616f6c 75616620                        load fault 

2000bb84 <.Lanon.10dee966009b08f571f6f372f9df6397.30>:
2000bb84:	61657262 696f706b                        breakpoint.

2000bb8f <.Lanon.10dee966009b08f571f6f372f9df6397.32>:
2000bb8f:	656c6c69 206c6167 74736e69 74637572     illegal instruct
2000bb9f:	206e6f69                                ion 

2000bba3 <.Lanon.10dee966009b08f571f6f372f9df6397.35>:
2000bba3:	74736e69 74637572 206e6f69 6c756166     instruction faul
2000bbb3:	                                         t 

2000bbb5 <.Lanon.10dee966009b08f571f6f372f9df6397.38>:
2000bbb5:	6173696d 6e67696c 69206465 7274736e     misaligned instr
2000bbc5:	69746375                                 uction 

2000bbcc <.Lanon.10dee966009b08f571f6f372f9df6397.43>:
2000bbcc:	78656e75 74636570 73206465 72657075     unexpected super
2000bbdc:	6f736976 6f6d2d72 69206564 7265746e     visor-mode inter
2000bbec:	74707572                                rupt

2000bbf0 <.Lanon.10dee966009b08f571f6f372f9df6397.45>:
2000bbf0:	78656e75 74636570 75206465 2d726573     unexpected user-
2000bc00:	65646f6d 746e6920 75727265               mode interrupt

2000bc0e <.Lanon.10dee966009b08f571f6f372f9df6397.41>:
2000bc0e:	65746e69 70757272 666f2074 6b6e7520     interrupt of unk
2000bc1e:	6e776f6e 75616320                        nown cause

2000bc28 <.Lanon.10dee966009b08f571f6f372f9df6397.47>:
2000bc28:	78656e75 74636570 6e206465 692d6e6f     unexpected non-i
2000bc38:	7265746e 74707572                        nterrupt.

2000bc41 <.Lanon.158bb79f4270ca9a74ec1df0723b76c4.0>:
2000bc41:	6d6f682f 6d622f65 786f2f63 2d656469     /home/bmc/oxide-
2000bc51:	6b636f74 6968632f 692f7370 2f786562     tock/chips/ibex/
2000bc61:	2f637273 6f697067                        src/gpio.rs

2000bc6c <.Lanon.31284c310bd95d0442671ad38aaf4a3a.0>:
2000bc6c:	6d6f682f 6d622f65 786f2f63 2d656469     /home/bmc/oxide-
2000bc7c:	6b636f74 72656b2f 2f6c656e 2f637273     tock/kernel/src/
2000bc8c:	6d6d6f63 642f6e6f 6d616e79 645f6369     common/dynamic_d
2000bc9c:	72656665 5f646572 6c6c6163               eferred_call.rs

2000bcab <anon.256fed964ce233b9fbfd79ab1a902450.0.llvm.11971274571581109580>:
2000bcab:	2a2a2a0a 42454420 42204755 45464655     .*** DEBUG BUFFE
2000bcbb:	55462052 2a204c4c                        R FULL ***.

2000bcc6 <.Lanon.af89b0d07c615f4c0637c8c29e22e2f7.1>:
2000bcc6:	7473754d 6c616320 7360206c 645f7465     Must call `set_d
2000bcd6:	67756265 6972775f 5f726574 70617277     ebug_writer_wrap
2000bce6:	60726570 206e6920 72616f62 6e692064     per` in board in
2000bcf6:	61697469 617a696c 6e6f6974               itialization.

2000bd03 <.Lanon.cae71dd81ce574ee85bcd97c1d00dd97.16>:
2000bd03:	4c454959                                 YIELD

2000bd08 <.Lanon.cae71dd81ce574ee85bcd97c1d00dd97.12>:
2000bd08:	53425553 42495243                        SUBSCRIBE

2000bd11 <.Lanon.cae71dd81ce574ee85bcd97c1d00dd97.5>:
2000bd11:	76697264 6e5f7265 65626d75               driver_number

2000bd1e <.Lanon.cae71dd81ce574ee85bcd97c1d00dd97.13>:
2000bd1e:	6c6c6163 6b636162 7274705f              callback_ptr

2000bd2a <.Lanon.cae71dd81ce574ee85bcd97c1d00dd97.15>:
2000bd2a:	64707061                                 appdata

2000bd31 <.Lanon.cae71dd81ce574ee85bcd97c1d00dd97.10>:
2000bd31:	4d4d4f43                                 COMMAND

2000bd38 <.Lanon.cae71dd81ce574ee85bcd97c1d00dd97.4>:
2000bd38:	4f4c4c41                                 ALLOW

2000bd3d <.Lanon.cae71dd81ce574ee85bcd97c1d00dd97.7>:
2000bd3d:	6f6c6c61 64615f77 73657264               allow_address

2000bd4a <.Lanon.cae71dd81ce574ee85bcd97c1d00dd97.9>:
2000bd4a:	6f6c6c61 69735f77                        allow_size

2000bd54 <.Lanon.cae71dd81ce574ee85bcd97c1d00dd97.0>:
2000bd54:	4f4d454d                                 MEMOP

2000bd59 <.Lanon.cae71dd81ce574ee85bcd97c1d00dd97.1>:
2000bd59:	7265706f                                 operand

2000bd60 <str.0.llvm.14638293206970330585>:
2000bd60:	65747461 2074706d 63206f74 75636c61     attempt to calcu
2000bd70:	6574616c 65687420 6d657220 646e6961     late the remaind
2000bd80:	77207265 20687469 69642061 6f736976     er with a diviso
2000bd90:	666f2072 72657a20                        r of zero

2000bd99 <.Lanon.a2d937e2433298631c704dcdf44b3a07.0>:
2000bd99:	43584520 45444545                         EXCEEDED!

2000bda3 <.Lanon.a2d937e2433298631c704dcdf44b3a07.1>:
2000bda3:	20202020 20202020                                  

2000bdad <.Lanon.a2d937e2433298631c704dcdf44b3a07.6>:
2000bdad:	74736e55 65747261                        Unstarted

2000bdb6 <.Lanon.a2d937e2433298631c704dcdf44b3a07.12>:
2000bdb6:	6e6e7552                                 Running

2000bdbd <.Lanon.a2d937e2433298631c704dcdf44b3a07.11>:
2000bdbd:	6c656959                                 Yielded

2000bdc4 <.Lanon.a2d937e2433298631c704dcdf44b3a07.10>:
2000bdc4:	706f7453 52646570 696e6e75               StoppedRunning

2000bdd2 <.Lanon.a2d937e2433298631c704dcdf44b3a07.9>:
2000bdd2:	706f7453 59646570 646c6569               StoppedYielded

2000bde0 <.Lanon.a2d937e2433298631c704dcdf44b3a07.8>:
2000bde0:	706f7453 46646570 746c7561               StoppedFaulted

2000bdee <.Lanon.a2d937e2433298631c704dcdf44b3a07.7>:
2000bdee:	6c756146 00000074 00000000 00000000     Fault...........
	...

2000be00 <str.0.675>:
2000be00:	65747461 2074706d 64206f74 64697669     attempt to divid
2000be10:	79622065 72657a20                        e by zero

2000be19 <.Lanon.9793cf1973a40496647baa5d788496cb.2>:
2000be19:	6e65704f 61746954 6f64206e 6e207365     OpenTitan does n
2000be29:	6120746f 776f6c6c 6e6f6320 75676966     ot allow configu
2000be39:	69746172 6f206e6f 6c662066 6974616f     ration of floati
2000be49:	7320676e 65746174                       ng state

2000be51 <.Lanon.9793cf1973a40496647baa5d788496cb.3>:
2000be51:	6d6f682f 6d622f65 786f2f63 2d656469     /home/bmc/oxide-
2000be61:	6b636f74 6968632f 6c2f7370 6972776f     tock/chips/lowri
2000be71:	732f6373 672f6372 2e6f6970               sc/src/gpio.rs

2000be7f <.Lanon.73c417997358ba0c0c07bbb0db8bfabc.1>:
2000be7f:	6d6f682f 6d622f65 786f2f63 2d656469     /home/bmc/oxide-
2000be8f:	6b636f74 6968632f 6c2f7370 6972776f     tock/chips/lowri
2000be9f:	732f6373 752f6372 2e747261               sc/src/uart.rs

2000bead <.L__unnamed_50>:
2000bead:	65747441 6574706d 6f742064 68637320     Attempted to sch
2000bebd:	6c756465 20612065 6c756166 70207974     edule a faulty p
2000becd:	65636f72                                 rocess

2000bed3 <.L__unnamed_63>:
2000bed3:	633a3a3c 3a65726f 63616d3a 3a736f72     <::core::macros:
2000bee3:	6e61703a 6d206369 6f726361               :panic macros>

2000bef1 <.L__unnamed_51>:
2000bef1:	6e72654b 63206c65 69736e6f 6e657473     Kernel consisten
2000bf01:	65207963 726f7272 5049203a 61542043     cy error: IPC Ta
2000bf11:	77206b73 20687469 49206f6e               sk with no IPC

2000bf1f <.L__unnamed_42>:
2000bf1f:	6e617247 66207374 6c616e69 64657a69     Grants finalized
2000bf2f:	6143202e 746f6e6e 65726320 20657461     . Cannot create 
2000bf3f:	656e2061 72672077 2e746e61              a new grant.

2000bf4b <.L__unnamed_93>:
2000bf4b:	6d6f682f 6d622f65 786f2f63 2d656469     /home/bmc/oxide-
2000bf5b:	6b636f74 72656b2f 2f6c656e 2f637273     tock/kernel/src/
2000bf6b:	65686373 73722e64                       sched.rs

2000bf73 <.L__unnamed_94>:
2000bf73:	6e65704f 61746954 6e69206e 61697469     OpenTitan initia
2000bf83:	6173696c 6e6f6974 6d6f6320 74656c70     lisation complet
2000bf93:	45202e65 7265746e 20676e69 6e69616d     e. Entering main
2000bfa3:	6f6f6c20                                  loop

2000bfa8 <.L__unnamed_92>:
2000bfa8:	6d6f682f 6d622f65 786f2f63 2d656469     /home/bmc/oxide-
2000bfb8:	6b636f74 72656b2f 2f6c656e 2f637273     tock/kernel/src/
2000bfc8:	75626564 73722e67                       debug.rs

2000bfd0 <.L__unnamed_95>:
2000bfd0:	2d2d0a0d 41207c2d 53207070 75746174     ..---| App Statu
2000bfe0:	2d7c2073 0a0d2d2d                       s |---..

2000bfe8 <.L__unnamed_58>:
2000bfe8:	2d2d0a0d 44207c2d 67756265 66756220     ..---| Debug buf
2000bff8:	20726566 20746f6e 74706d65 46202e79     fer not empty. F
2000c008:	6873756c 2e676e69 79614d20 70657220     lushing. May rep
2000c018:	20746165 656d6f73 20666f20 7473616c     eat some of last
2000c028:	73656d20 65676173 3a297328                message(s):..

2000c036 <.L__unnamed_54>:
2000c036:	                                         "..

2000c039 <.L__unnamed_55>:
2000c039:	656c6572 2d657361 2d342e31 2d313635     release-1.4-561-
2000c049:	39653367 31336130                        g3e90a318

2000c052 <.L__unnamed_56>:
2000c052:	6e6b6e75                                 unknown

2000c059 <.L__unnamed_44>:
2000c059:	                                         ..

2000c05b <.L__unnamed_96>:
2000c05b:	4b0a0a0d 656e7265 6170206c 2063696e     ...Kernel panic 
2000c06b:	                                         at 

2000c06e <.L__unnamed_97>:
2000c06e:	                                         :

2000c06f <.L__unnamed_98>:
2000c06f:	090a0d3a 00000022 00000000 00000000     :..."...........
	...

2000c080 <str.0.813>:
2000c080:	65747461 2074706d 63206f74 75636c61     attempt to calcu
2000c090:	6574616c 65687420 6d657220 646e6961     late the remaind
2000c0a0:	77207265 20687469 69642061 6f736976     er with a diviso
2000c0b0:	666f2072 72657a20                        r of zero

2000c0b9 <.L__unnamed_100>:
2000c0b9:	6d6f682f 6d622f65 786f2f63 2d656469     /home/bmc/oxide-
2000c0c9:	6b636f74 72656b2f 2f6c656e 2f637273     tock/kernel/src/
2000c0d9:	6d6d6f63 722f6e6f 5f676e69 66667562     common/ring_buff
2000c0e9:	722e7265                                 er.rs

2000c0ee <.Lanon.883a4ca74ee52f0a48d4f518a300d6dc.1>:
2000c0ee:	6d6f682f 6d622f65 786f2f63 2d656469     /home/bmc/oxide-
2000c0fe:	6b636f74 6372612f 76722f68 2f693233     tock/arch/rv32i/
2000c10e:	2f637273 2e706d70                        src/pmp.rs

2000c118 <.Lswitch.table._ZN5rv32i3pmp9PMPRegion3new17h0b74f1901c9a65a1E>:
2000c118:	0000000f 0000000b 0000000d 00000009     ................
2000c128:	0000000c                                ....

2000c12c <abort>:
2000c12c:	1141                	addi	sp,sp,-16
2000c12e:	c606                	sw	ra,12(sp)
2000c130:	c422                	sw	s0,8(sp)
2000c132:	0800                	addi	s0,sp,16
2000c134:	eddf306f          	j	20000010 <_start>
2000c138:	4422                	lw	s0,8(sp)
2000c13a:	40b2                	lw	ra,12(sp)
2000c13c:	0141                	addi	sp,sp,16
2000c13e:	8082                	ret

Disassembly of section .storage:

2000c140 <_estorage-0xc0>:
	...
