
opentitan.elf:     file format elf32-littleriscv


Disassembly of section .text:

20000010 <_start>:
20000010:	100021b7          	lui	gp,0x10002
20000014:	80018193          	addi	gp,gp,-2048 # 10001800 <__global_pointer$>
20000018:	10001137          	lui	sp,0x10001
2000001c:	00010113          	mv	sp,sp
20000020:	840a                	mv	s0,sp
20000022:	34001073          	csrw	mscratch,zero
20000026:	3ac0806f          	j	200083d2 <reset_handler>
2000002a:	8082                	ret
	...

20000100 <_start_trap_vectored>:
20000100:	0880006f          	j	20000188 <_start_trap>
20000104:	0840006f          	j	20000188 <_start_trap>
20000108:	0800006f          	j	20000188 <_start_trap>
2000010c:	07c0006f          	j	20000188 <_start_trap>
20000110:	0780006f          	j	20000188 <_start_trap>
20000114:	0740006f          	j	20000188 <_start_trap>
20000118:	0700006f          	j	20000188 <_start_trap>
2000011c:	06c0006f          	j	20000188 <_start_trap>
20000120:	0680006f          	j	20000188 <_start_trap>
20000124:	0640006f          	j	20000188 <_start_trap>
20000128:	0600006f          	j	20000188 <_start_trap>
2000012c:	05c0006f          	j	20000188 <_start_trap>
20000130:	0580006f          	j	20000188 <_start_trap>
20000134:	0540006f          	j	20000188 <_start_trap>
20000138:	0500006f          	j	20000188 <_start_trap>
2000013c:	04c0006f          	j	20000188 <_start_trap>
20000140:	0480006f          	j	20000188 <_start_trap>
20000144:	0440006f          	j	20000188 <_start_trap>
20000148:	0400006f          	j	20000188 <_start_trap>
2000014c:	03c0006f          	j	20000188 <_start_trap>
20000150:	0380006f          	j	20000188 <_start_trap>
20000154:	0340006f          	j	20000188 <_start_trap>
20000158:	0300006f          	j	20000188 <_start_trap>
2000015c:	02c0006f          	j	20000188 <_start_trap>
20000160:	0280006f          	j	20000188 <_start_trap>
20000164:	0240006f          	j	20000188 <_start_trap>
20000168:	0200006f          	j	20000188 <_start_trap>
2000016c:	01c0006f          	j	20000188 <_start_trap>
20000170:	0180006f          	j	20000188 <_start_trap>
20000174:	0140006f          	j	20000188 <_start_trap>
20000178:	0100006f          	j	20000188 <_start_trap>
2000017c:	00c0006f          	j	20000188 <_start_trap>
20000180:	0000f097          	auipc	ra,0xf
20000184:	a5c080e7          	jalr	-1444(ra) # 2000ebdc <abort>

20000188 <_start_trap>:
20000188:	34011173          	csrrw	sp,mscratch,sp
2000018c:	04011a63          	bnez	sp,200001e0 <_from_app>

20000190 <_from_kernel>:
20000190:	34011173          	csrrw	sp,mscratch,sp
20000194:	7139                	addi	sp,sp,-64
20000196:	c006                	sw	ra,0(sp)
20000198:	c216                	sw	t0,4(sp)
2000019a:	c41a                	sw	t1,8(sp)
2000019c:	c61e                	sw	t2,12(sp)
2000019e:	c872                	sw	t3,16(sp)
200001a0:	ca76                	sw	t4,20(sp)
200001a2:	cc7a                	sw	t5,24(sp)
200001a4:	ce7e                	sw	t6,28(sp)
200001a6:	d02a                	sw	a0,32(sp)
200001a8:	d22e                	sw	a1,36(sp)
200001aa:	d432                	sw	a2,40(sp)
200001ac:	d636                	sw	a3,44(sp)
200001ae:	d83a                	sw	a4,48(sp)
200001b0:	da3e                	sw	a5,52(sp)
200001b2:	dc42                	sw	a6,56(sp)
200001b4:	de46                	sw	a7,60(sp)
200001b6:	648060ef          	jal	ra,200067fe <_start_trap_rust>
200001ba:	4082                	lw	ra,0(sp)
200001bc:	4292                	lw	t0,4(sp)
200001be:	4322                	lw	t1,8(sp)
200001c0:	43b2                	lw	t2,12(sp)
200001c2:	4e42                	lw	t3,16(sp)
200001c4:	4ed2                	lw	t4,20(sp)
200001c6:	4f62                	lw	t5,24(sp)
200001c8:	4ff2                	lw	t6,28(sp)
200001ca:	5502                	lw	a0,32(sp)
200001cc:	5592                	lw	a1,36(sp)
200001ce:	5622                	lw	a2,40(sp)
200001d0:	56b2                	lw	a3,44(sp)
200001d2:	5742                	lw	a4,48(sp)
200001d4:	57d2                	lw	a5,52(sp)
200001d6:	5862                	lw	a6,56(sp)
200001d8:	58f2                	lw	a7,60(sp)
200001da:	6121                	addi	sp,sp,64
200001dc:	30200073          	mret

200001e0 <_from_app>:
200001e0:	c022                	sw	s0,0(sp)
200001e2:	4412                	lw	s0,4(sp)
200001e4:	00142023          	sw	ra,0(s0)
200001e8:	00342423          	sw	gp,8(s0)
200001ec:	00442623          	sw	tp,12(s0)
200001f0:	00542823          	sw	t0,16(s0)
200001f4:	00642a23          	sw	t1,20(s0)
200001f8:	00742c23          	sw	t2,24(s0)
200001fc:	d004                	sw	s1,32(s0)
200001fe:	d048                	sw	a0,36(s0)
20000200:	d40c                	sw	a1,40(s0)
20000202:	d450                	sw	a2,44(s0)
20000204:	d814                	sw	a3,48(s0)
20000206:	d858                	sw	a4,52(s0)
20000208:	dc1c                	sw	a5,56(s0)
2000020a:	03042e23          	sw	a6,60(s0)
2000020e:	05142023          	sw	a7,64(s0)
20000212:	05242223          	sw	s2,68(s0)
20000216:	05342423          	sw	s3,72(s0)
2000021a:	05442623          	sw	s4,76(s0)
2000021e:	05542823          	sw	s5,80(s0)
20000222:	05642a23          	sw	s6,84(s0)
20000226:	05742c23          	sw	s7,88(s0)
2000022a:	05842e23          	sw	s8,92(s0)
2000022e:	07942023          	sw	s9,96(s0)
20000232:	07a42223          	sw	s10,100(s0)
20000236:	07b42423          	sw	s11,104(s0)
2000023a:	07c42623          	sw	t3,108(s0)
2000023e:	07d42823          	sw	t4,112(s0)
20000242:	07e42a23          	sw	t5,116(s0)
20000246:	07f42c23          	sw	t6,120(s0)
2000024a:	4282                	lw	t0,0(sp)
2000024c:	00542e23          	sw	t0,28(s0)
20000250:	340022f3          	csrr	t0,mscratch
20000254:	00542223          	sw	t0,4(s0)
20000258:	341022f3          	csrr	t0,mepc
2000025c:	06542e23          	sw	t0,124(s0)
20000260:	342022f3          	csrr	t0,mcause
20000264:	08542023          	sw	t0,128(s0)
20000268:	0002d563          	bgez	t0,20000272 <_from_app_continue>
2000026c:	8516                	mv	a0,t0
2000026e:	6d2060ef          	jal	ra,20006940 <_disable_interrupt_trap_handler>

20000272 <_from_app_continue>:
20000272:	42a2                	lw	t0,8(sp)
20000274:	34129073          	csrw	mepc,t0
20000278:	34001073          	csrw	mscratch,zero
2000027c:	300022f3          	csrr	t0,mstatus
20000280:	6309                	lui	t1,0x2
20000282:	80030313          	addi	t1,t1,-2048 # 1800 <MPU_MIN_ALIGN+0x1400>
20000286:	0062e2b3          	or	t0,t0,t1
2000028a:	30029073          	csrw	mstatus,t0
2000028e:	30200073          	mret
20000292:	8082                	ret

20000294 <_ZN4core3ptr13drop_in_place17hf9ad248e34ce8f92E>:
20000294:	1141                	addi	sp,sp,-16
20000296:	c606                	sw	ra,12(sp)
20000298:	c422                	sw	s0,8(sp)
2000029a:	0800                	addi	s0,sp,16
2000029c:	4422                	lw	s0,8(sp)
2000029e:	40b2                	lw	ra,12(sp)
200002a0:	0141                	addi	sp,sp,16
200002a2:	8082                	ret

200002a4 <_ZN4core4cell13Cell$LT$T$GT$3set17h6c514a780c36573bE>:
200002a4:	7131                	addi	sp,sp,-192
200002a6:	df06                	sw	ra,188(sp)
200002a8:	dd22                	sw	s0,184(sp)
200002aa:	db26                	sw	s1,180(sp)
200002ac:	d94a                	sw	s2,176(sp)
200002ae:	d74e                	sw	s3,172(sp)
200002b0:	d552                	sw	s4,168(sp)
200002b2:	d356                	sw	s5,164(sp)
200002b4:	d15a                	sw	s6,160(sp)
200002b6:	cf5e                	sw	s7,156(sp)
200002b8:	cd62                	sw	s8,152(sp)
200002ba:	cb66                	sw	s9,148(sp)
200002bc:	c96a                	sw	s10,144(sp)
200002be:	c76e                	sw	s11,140(sp)
200002c0:	0180                	addi	s0,sp,192
200002c2:	89aa                	mv	s3,a0
200002c4:	f4840513          	addi	a0,s0,-184
200002c8:	08400613          	li	a2,132
200002cc:	0000b097          	auipc	ra,0xb
200002d0:	212080e7          	jalr	530(ra) # 2000b4de <memcpy>
200002d4:	4581                	li	a1,0
200002d6:	02058a93          	addi	s5,a1,32
200002da:	08400513          	li	a0,132
200002de:	07556163          	bltu	a0,s5,20000340 <_ZN4core4cell13Cell$LT$T$GT$3set17h6c514a780c36573bE+0x9c>
200002e2:	00b98533          	add	a0,s3,a1
200002e6:	f4840613          	addi	a2,s0,-184
200002ea:	00b604b3          	add	s1,a2,a1
200002ee:	00052b03          	lw	s6,0(a0)
200002f2:	00452b83          	lw	s7,4(a0)
200002f6:	00852c03          	lw	s8,8(a0)
200002fa:	00c52c83          	lw	s9,12(a0)
200002fe:	01052d03          	lw	s10,16(a0)
20000302:	01452d83          	lw	s11,20(a0)
20000306:	01852903          	lw	s2,24(a0)
2000030a:	01c52a03          	lw	s4,28(a0)
2000030e:	85a6                	mv	a1,s1
20000310:	02000613          	li	a2,32
20000314:	0000b097          	auipc	ra,0xb
20000318:	1ca080e7          	jalr	458(ra) # 2000b4de <memcpy>
2000031c:	0144ae23          	sw	s4,28(s1)
20000320:	0124ac23          	sw	s2,24(s1)
20000324:	01b4aa23          	sw	s11,20(s1)
20000328:	01a4a823          	sw	s10,16(s1)
2000032c:	0194a623          	sw	s9,12(s1)
20000330:	0184a423          	sw	s8,8(s1)
20000334:	0174a223          	sw	s7,4(s1)
20000338:	0164a023          	sw	s6,0(s1)
2000033c:	85d6                	mv	a1,s5
2000033e:	bf61                	j	200002d6 <_ZN4core4cell13Cell$LT$T$GT$3set17h6c514a780c36573bE+0x32>
20000340:	fc842503          	lw	a0,-56(s0)
20000344:	08a9a023          	sw	a0,128(s3)
20000348:	4dba                	lw	s11,140(sp)
2000034a:	4d4a                	lw	s10,144(sp)
2000034c:	4cda                	lw	s9,148(sp)
2000034e:	4c6a                	lw	s8,152(sp)
20000350:	4bfa                	lw	s7,156(sp)
20000352:	5b0a                	lw	s6,160(sp)
20000354:	5a9a                	lw	s5,164(sp)
20000356:	5a2a                	lw	s4,168(sp)
20000358:	59ba                	lw	s3,172(sp)
2000035a:	594a                	lw	s2,176(sp)
2000035c:	54da                	lw	s1,180(sp)
2000035e:	546a                	lw	s0,184(sp)
20000360:	50fa                	lw	ra,188(sp)
20000362:	6129                	addi	sp,sp,192
20000364:	8082                	ret

20000366 <_ZN4core4iter5range101_$LT$impl$u20$core..iter..traits..iterator..Iterator$u20$for$u20$core..ops..range..Range$LT$A$GT$$GT$4next17h5fc5116ce4c01b5bE>:
20000366:	1141                	addi	sp,sp,-16
20000368:	c606                	sw	ra,12(sp)
2000036a:	c422                	sw	s0,8(sp)
2000036c:	0800                	addi	s0,sp,16
2000036e:	410c                	lw	a1,0(a0)
20000370:	4150                	lw	a2,4(a0)
20000372:	00c5f663          	bgeu	a1,a2,2000037e <_ZN4core4iter5range101_$LT$impl$u20$core..iter..traits..iterator..Iterator$u20$for$u20$core..ops..range..Range$LT$A$GT$$GT$4next17h5fc5116ce4c01b5bE+0x18>
20000376:	00158613          	addi	a2,a1,1
2000037a:	00b67463          	bgeu	a2,a1,20000382 <_ZN4core4iter5range101_$LT$impl$u20$core..iter..traits..iterator..Iterator$u20$for$u20$core..ops..range..Range$LT$A$GT$$GT$4next17h5fc5116ce4c01b5bE+0x1c>
2000037e:	4501                	li	a0,0
20000380:	a019                	j	20000386 <_ZN4core4iter5range101_$LT$impl$u20$core..iter..traits..iterator..Iterator$u20$for$u20$core..ops..range..Range$LT$A$GT$$GT$4next17h5fc5116ce4c01b5bE+0x20>
20000382:	c110                	sw	a2,0(a0)
20000384:	4505                	li	a0,1
20000386:	4422                	lw	s0,8(sp)
20000388:	40b2                	lw	ra,12(sp)
2000038a:	0141                	addi	sp,sp,16
2000038c:	8082                	ret

2000038e <_ZN6kernel7process14load_processes17h3b38dee20eed6582E>:
2000038e:	db010113          	addi	sp,sp,-592 # 10000db0 <STACK_MEMORY+0xdb0>
20000392:	24112623          	sw	ra,588(sp)
20000396:	24812423          	sw	s0,584(sp)
2000039a:	24912223          	sw	s1,580(sp)
2000039e:	25212023          	sw	s2,576(sp)
200003a2:	23312e23          	sw	s3,572(sp)
200003a6:	23412c23          	sw	s4,568(sp)
200003aa:	23512a23          	sw	s5,564(sp)
200003ae:	23612823          	sw	s6,560(sp)
200003b2:	23712623          	sw	s7,556(sp)
200003b6:	23812423          	sw	s8,552(sp)
200003ba:	23912223          	sw	s9,548(sp)
200003be:	23a12023          	sw	s10,544(sp)
200003c2:	21b12e23          	sw	s11,540(sp)
200003c6:	0c80                	addi	s0,sp,592
200003c8:	89aa                	mv	s3,a0
200003ca:	4c11                	li	s8,4
200003cc:	e1842223          	sw	s8,-508(s0)
200003d0:	e0042023          	sw	zero,-512(s0)
200003d4:	6911                	lui	s2,0x4
200003d6:	20030537          	lui	a0,0x20030
200003da:	00050b93          	mv	s7,a0
200003de:	10003537          	lui	a0,0x10003
200003e2:	c0050a13          	addi	s4,a0,-1024 # 10002c00 <_ZN9opentitan10APP_MEMORY17hac56809d9b5aaf15E>
200003e6:	e0040a93          	addi	s5,s0,-512
200003ea:	10002537          	lui	a0,0x10002
200003ee:	64850513          	addi	a0,a0,1608 # 10002648 <_ZN9opentitan13reset_handler3BUF17hde44aa74b73c5f78E>
200003f2:	dea42023          	sw	a0,-544(s0)
200003f6:	6505                	lui	a0,0x1
200003f8:	c0050513          	addi	a0,a0,-1024 # c00 <MPU_MIN_ALIGN+0x800>
200003fc:	dca42e23          	sw	a0,-548(s0)
20000400:	10002537          	lui	a0,0x10002
20000404:	67c50513          	addi	a0,a0,1660 # 1000267c <_ZN9opentitan13reset_handler3BUF17h40fd3b26f05492ddE>
20000408:	dca42c23          	sw	a0,-552(s0)
2000040c:	2000e537          	lui	a0,0x2000e
20000410:	00c50513          	addi	a0,a0,12 # 2000e00c <.Lanon.d9778860540cf11319bb138777b2a7cb.67>
20000414:	dca42a23          	sw	a0,-556(s0)
20000418:	10002537          	lui	a0,0x10002
2000041c:	62850513          	addi	a0,a0,1576 # 10002628 <_ZN9opentitan9PROCESSES17hab9b83d12e51c3dfE>
20000420:	dca42823          	sw	a0,-560(s0)
20000424:	10001537          	lui	a0,0x10001
20000428:	01050513          	addi	a0,a0,16 # 10001010 <.L__unnamed_1>
2000042c:	dca42623          	sw	a0,-564(s0)
20000430:	55555537          	lui	a0,0x55555
20000434:	55550513          	addi	a0,a0,1365 # 55555555 <_sapps+0x35525555>
20000438:	dca42423          	sw	a0,-568(s0)
2000043c:	33333537          	lui	a0,0x33333
20000440:	33350513          	addi	a0,a0,819 # 33333333 <_sapps+0x13303333>
20000444:	dca42223          	sw	a0,-572(s0)
20000448:	0f0f1537          	lui	a0,0xf0f1
2000044c:	f0f50513          	addi	a0,a0,-241 # f0f0f0f <.Lline_table_start0+0xf0deea0>
20000450:	dca42023          	sw	a0,-576(s0)
20000454:	01010537          	lui	a0,0x1010
20000458:	10150513          	addi	a0,a0,257 # 1010101 <.Lline_table_start0+0xffe092>
2000045c:	daa42e23          	sw	a0,-580(s0)
20000460:	2000d537          	lui	a0,0x2000d
20000464:	b8250513          	addi	a0,a0,-1150 # 2000cb82 <_ZN4core3str15UTF8_CHAR_WIDTH17hdcc898e3b9ea16a7E>
20000468:	dea42c23          	sw	a0,-520(s0)
2000046c:	80808537          	lui	a0,0x80808
20000470:	08050493          	addi	s1,a0,128 # 80808080 <_sapps+0x607d8080>
20000474:	6541                	lui	a0,0x10
20000476:	fff50d93          	addi	s11,a0,-1 # ffff <.Lline_table_start77+0x2c7>
2000047a:	de942e23          	sw	s1,-516(s0)
2000047e:	8556                	mv	a0,s5
20000480:	00000097          	auipc	ra,0x0
20000484:	ee6080e7          	jalr	-282(ra) # 20000366 <_ZN4core4iter5range101_$LT$impl$u20$core..iter..traits..iterator..Iterator$u20$for$u20$core..ops..range..Range$LT$A$GT$$GT$4next17h5fc5116ce4c01b5bE>
20000488:	7a050f63          	beqz	a0,20000c46 <_ZN6kernel7process14load_processes17h3b38dee20eed6582E+0x8b8>
2000048c:	0089a503          	lw	a0,8(s3)
20000490:	e0a42823          	sw	a0,-496(s0)
20000494:	0049a503          	lw	a0,4(s3)
20000498:	e0a42623          	sw	a0,-500(s0)
2000049c:	0009a503          	lw	a0,0(s3)
200004a0:	e0a42423          	sw	a0,-504(s0)
200004a4:	000bd503          	lhu	a0,0(s7)
200004a8:	4e89                	li	t4,2
200004aa:	2fd51a63          	bne	a0,t4,2000079e <_ZN6kernel7process14load_processes17h3b38dee20eed6582E+0x410>
200004ae:	8cae                	mv	s9,a1
200004b0:	004ba583          	lw	a1,4(s7)
200004b4:	002bd503          	lhu	a0,2(s7)
200004b8:	2eb57363          	bgeu	a0,a1,2000079e <_ZN6kernel7process14load_processes17h3b38dee20eed6582E+0x410>
200004bc:	10000637          	lui	a2,0x10000
200004c0:	2cb66f63          	bltu	a2,a1,2000079e <_ZN6kernel7process14load_processes17h3b38dee20eed6582E+0x410>
200004c4:	00357293          	andi	t0,a0,3
200004c8:	405c0633          	sub	a2,s8,t0
200004cc:	55fd                	li	a1,-1
200004ce:	00c5d833          	srl	a6,a1,a2
200004d2:	00255613          	srli	a2,a0,0x2
200004d6:	005036b3          	snez	a3,t0
200004da:	00d608b3          	add	a7,a2,a3
200004de:	00289613          	slli	a2,a7,0x2
200004e2:	00cb8733          	add	a4,s7,a2
200004e6:	4481                	li	s1,0
200004e8:	865e                	mv	a2,s7
200004ea:	4781                	li	a5,0
200004ec:	02c70363          	beq	a4,a2,20000512 <_ZN6kernel7process14load_processes17h3b38dee20eed6582E+0x184>
200004f0:	0611                	addi	a2,a2,4
200004f2:	0485                	addi	s1,s1,1
200004f4:	ff848ce3          	beq	s1,s8,200004ec <_ZN6kernel7process14load_processes17h3b38dee20eed6582E+0x15e>
200004f8:	86c2                	mv	a3,a6
200004fa:	00988363          	beq	a7,s1,20000500 <_ZN6kernel7process14load_processes17h3b38dee20eed6582E+0x172>
200004fe:	56fd                	li	a3,-1
20000500:	00029363          	bnez	t0,20000506 <_ZN6kernel7process14load_processes17h3b38dee20eed6582E+0x178>
20000504:	56fd                	li	a3,-1
20000506:	ffc62583          	lw	a1,-4(a2) # ffffffc <.Lline_table_start0+0xffedf8d>
2000050a:	8df5                	and	a1,a1,a3
2000050c:	8fad                	xor	a5,a5,a1
2000050e:	fec711e3          	bne	a4,a2,200004f0 <_ZN6kernel7process14load_processes17h3b38dee20eed6582E+0x162>
20000512:	00cba583          	lw	a1,12(s7)
20000516:	dfc42483          	lw	s1,-516(s0)
2000051a:	28b79263          	bne	a5,a1,2000079e <_ZN6kernel7process14load_processes17h3b38dee20eed6582E+0x410>
2000051e:	1541                	addi	a0,a0,-16
20000520:	28050863          	beqz	a0,200007b0 <_ZN6kernel7process14load_processes17h3b38dee20eed6582E+0x422>
20000524:	45c1                	li	a1,16
20000526:	2000e637          	lui	a2,0x2000e
2000052a:	00c60713          	addi	a4,a2,12 # 2000e00c <.Lanon.d9778860540cf11319bb138777b2a7cb.67>
2000052e:	de042823          	sw	zero,-528(s0)
20000532:	de042423          	sw	zero,-536(s0)
20000536:	de042623          	sw	zero,-532(s0)
2000053a:	5f7d                	li	t5,-1
2000053c:	4f85                	li	t6,1
2000053e:	4b15                	li	s6,5
20000540:	47b1                	li	a5,12
20000542:	25656c63          	bltu	a0,s6,2000079a <_ZN6kernel7process14load_processes17h3b38dee20eed6582E+0x40c>
20000546:	00bb8633          	add	a2,s7,a1
2000054a:	00458e13          	addi	t3,a1,4
2000054e:	1571                	addi	a0,a0,-4
20000550:	00065583          	lhu	a1,0(a2)
20000554:	22bc6663          	bltu	s8,a1,20000780 <_ZN6kernel7process14load_processes17h3b38dee20eed6582E+0x3f2>
20000558:	0075f693          	andi	a3,a1,7
2000055c:	03f68263          	beq	a3,t6,20000580 <_ZN6kernel7process14load_processes17h3b38dee20eed6582E+0x1f2>
20000560:	03d68b63          	beq	a3,t4,20000596 <_ZN6kernel7process14load_processes17h3b38dee20eed6582E+0x208>
20000564:	458d                	li	a1,3
20000566:	20b69d63          	bne	a3,a1,20000780 <_ZN6kernel7process14load_processes17h3b38dee20eed6582E+0x3f2>
2000056a:	00265d03          	lhu	s10,2(a2)
2000056e:	21a56963          	bltu	a0,s10,20000780 <_ZN6kernel7process14load_processes17h3b38dee20eed6582E+0x3f2>
20000572:	01cb82b3          	add	t0,s7,t3
20000576:	459d                	li	a1,7
20000578:	03a5ed63          	bltu	a1,s10,200005b2 <_ZN6kernel7process14load_processes17h3b38dee20eed6582E+0x224>
2000057c:	4881                	li	a7,0
2000057e:	a825                	j	200005b6 <_ZN6kernel7process14load_processes17h3b38dee20eed6582E+0x228>
20000580:	20f56063          	bltu	a0,a5,20000780 <_ZN6kernel7process14load_processes17h3b38dee20eed6582E+0x3f2>
20000584:	00265583          	lhu	a1,2(a2)
20000588:	1ef59c63          	bne	a1,a5,20000780 <_ZN6kernel7process14load_processes17h3b38dee20eed6582E+0x3f2>
2000058c:	01cb85b3          	add	a1,s7,t3
20000590:	deb42423          	sw	a1,-536(s0)
20000594:	a2f5                	j	20000780 <_ZN6kernel7process14load_processes17h3b38dee20eed6582E+0x3f2>
20000596:	00265583          	lhu	a1,2(a2)
2000059a:	0075f693          	andi	a3,a1,7
2000059e:	1e069163          	bnez	a3,20000780 <_ZN6kernel7process14load_processes17h3b38dee20eed6582E+0x3f2>
200005a2:	01cb86b3          	add	a3,s7,t3
200005a6:	ded42623          	sw	a3,-532(s0)
200005aa:	818d                	srli	a1,a1,0x3
200005ac:	deb42223          	sw	a1,-540(s0)
200005b0:	aac1                	j	20000780 <_ZN6kernel7process14load_processes17h3b38dee20eed6582E+0x3f2>
200005b2:	ff9d0893          	addi	a7,s10,-7
200005b6:	0032f593          	andi	a1,t0,3
200005ba:	4801                	li	a6,0
200005bc:	c199                	beqz	a1,200005c2 <_ZN6kernel7process14load_processes17h3b38dee20eed6582E+0x234>
200005be:	40500833          	neg	a6,t0
200005c2:	1a0d0863          	beqz	s10,20000772 <_ZN6kernel7process14load_processes17h3b38dee20eed6582E+0x3e4>
200005c6:	dee42a23          	sw	a4,-524(s0)
200005ca:	4781                	li	a5,0
200005cc:	00f285b3          	add	a1,t0,a5
200005d0:	0005c703          	lbu	a4,0(a1)
200005d4:	01871593          	slli	a1,a4,0x18
200005d8:	4185d493          	srai	s1,a1,0x18
200005dc:	009f5863          	bge	t5,s1,200005ec <_ZN6kernel7process14load_processes17h3b38dee20eed6582E+0x25e>
200005e0:	40f805b3          	sub	a1,a6,a5
200005e4:	898d                	andi	a1,a1,3
200005e6:	c585                	beqz	a1,2000060e <_ZN6kernel7process14load_processes17h3b38dee20eed6582E+0x280>
200005e8:	0785                	addi	a5,a5,1
200005ea:	aab5                	j	20000766 <_ZN6kernel7process14load_processes17h3b38dee20eed6582E+0x3d8>
200005ec:	df842583          	lw	a1,-520(s0)
200005f0:	95ba                	add	a1,a1,a4
200005f2:	0005c583          	lbu	a1,0(a1)
200005f6:	07858e63          	beq	a1,s8,20000672 <_ZN6kernel7process14load_processes17h3b38dee20eed6582E+0x2e4>
200005fa:	468d                	li	a3,3
200005fc:	04d58363          	beq	a1,a3,20000642 <_ZN6kernel7process14load_processes17h3b38dee20eed6582E+0x2b4>
20000600:	17d59d63          	bne	a1,t4,2000077a <_ZN6kernel7process14load_processes17h3b38dee20eed6582E+0x3ec>
20000604:	00178713          	addi	a4,a5,1
20000608:	15a76363          	bltu	a4,s10,2000074e <_ZN6kernel7process14load_processes17h3b38dee20eed6582E+0x3c0>
2000060c:	a2bd                	j	2000077a <_ZN6kernel7process14load_processes17h3b38dee20eed6582E+0x3ec>
2000060e:	dfc42683          	lw	a3,-516(s0)
20000612:	0117fc63          	bgeu	a5,a7,2000062a <_ZN6kernel7process14load_processes17h3b38dee20eed6582E+0x29c>
20000616:	00f605b3          	add	a1,a2,a5
2000061a:	41d8                	lw	a4,4(a1)
2000061c:	458c                	lw	a1,8(a1)
2000061e:	8dd9                	or	a1,a1,a4
20000620:	8df5                	and	a1,a1,a3
20000622:	e581                	bnez	a1,2000062a <_ZN6kernel7process14load_processes17h3b38dee20eed6582E+0x29c>
20000624:	07a1                	addi	a5,a5,8
20000626:	ff17e8e3          	bltu	a5,a7,20000616 <_ZN6kernel7process14load_processes17h3b38dee20eed6582E+0x288>
2000062a:	13a7fe63          	bgeu	a5,s10,20000766 <_ZN6kernel7process14load_processes17h3b38dee20eed6582E+0x3d8>
2000062e:	00f285b3          	add	a1,t0,a5
20000632:	00058583          	lb	a1,0(a1)
20000636:	1205c863          	bltz	a1,20000766 <_ZN6kernel7process14load_processes17h3b38dee20eed6582E+0x3d8>
2000063a:	0785                	addi	a5,a5,1
2000063c:	fefd19e3          	bne	s10,a5,2000062e <_ZN6kernel7process14load_processes17h3b38dee20eed6582E+0x2a0>
20000640:	a22d                	j	2000076a <_ZN6kernel7process14load_processes17h3b38dee20eed6582E+0x3dc>
20000642:	00178593          	addi	a1,a5,1
20000646:	13a5fa63          	bgeu	a1,s10,2000077a <_ZN6kernel7process14load_processes17h3b38dee20eed6582E+0x3ec>
2000064a:	9596                	add	a1,a1,t0
2000064c:	0005c303          	lbu	t1,0(a1)
20000650:	01831393          	slli	t2,t1,0x18
20000654:	0ed00593          	li	a1,237
20000658:	04b70763          	beq	a4,a1,200006a6 <_ZN6kernel7process14load_processes17h3b38dee20eed6582E+0x318>
2000065c:	0e000593          	li	a1,224
20000660:	06b71563          	bne	a4,a1,200006ca <_ZN6kernel7process14load_processes17h3b38dee20eed6582E+0x33c>
20000664:	0e037593          	andi	a1,t1,224
20000668:	0a000713          	li	a4,160
2000066c:	0ce58d63          	beq	a1,a4,20000746 <_ZN6kernel7process14load_processes17h3b38dee20eed6582E+0x3b8>
20000670:	a229                	j	2000077a <_ZN6kernel7process14load_processes17h3b38dee20eed6582E+0x3ec>
20000672:	00178593          	addi	a1,a5,1
20000676:	11a5f263          	bgeu	a1,s10,2000077a <_ZN6kernel7process14load_processes17h3b38dee20eed6582E+0x3ec>
2000067a:	9596                	add	a1,a1,t0
2000067c:	0005c383          	lbu	t2,0(a1)
20000680:	01839313          	slli	t1,t2,0x18
20000684:	0f400593          	li	a1,244
20000688:	02b70863          	beq	a4,a1,200006b8 <_ZN6kernel7process14load_processes17h3b38dee20eed6582E+0x32a>
2000068c:	0f000593          	li	a1,240
20000690:	04b71d63          	bne	a4,a1,200006ea <_ZN6kernel7process14load_processes17h3b38dee20eed6582E+0x35c>
20000694:	07038593          	addi	a1,t2,112
20000698:	0ff5f593          	andi	a1,a1,255
2000069c:	03000693          	li	a3,48
200006a0:	06d5e363          	bltu	a1,a3,20000706 <_ZN6kernel7process14load_processes17h3b38dee20eed6582E+0x378>
200006a4:	a8d9                	j	2000077a <_ZN6kernel7process14load_processes17h3b38dee20eed6582E+0x3ec>
200006a6:	4183d593          	srai	a1,t2,0x18
200006aa:	0cbf4863          	blt	t5,a1,2000077a <_ZN6kernel7process14load_processes17h3b38dee20eed6582E+0x3ec>
200006ae:	0a000593          	li	a1,160
200006b2:	08b36a63          	bltu	t1,a1,20000746 <_ZN6kernel7process14load_processes17h3b38dee20eed6582E+0x3b8>
200006b6:	a0d1                	j	2000077a <_ZN6kernel7process14load_processes17h3b38dee20eed6582E+0x3ec>
200006b8:	41835593          	srai	a1,t1,0x18
200006bc:	0abf4f63          	blt	t5,a1,2000077a <_ZN6kernel7process14load_processes17h3b38dee20eed6582E+0x3ec>
200006c0:	09000593          	li	a1,144
200006c4:	04b3e163          	bltu	t2,a1,20000706 <_ZN6kernel7process14load_processes17h3b38dee20eed6582E+0x378>
200006c8:	a84d                	j	2000077a <_ZN6kernel7process14load_processes17h3b38dee20eed6582E+0x3ec>
200006ca:	01f48593          	addi	a1,s1,31
200006ce:	0ff5f593          	andi	a1,a1,255
200006d2:	472d                	li	a4,11
200006d4:	04b76b63          	bltu	a4,a1,2000072a <_ZN6kernel7process14load_processes17h3b38dee20eed6582E+0x39c>
200006d8:	4183d593          	srai	a1,t2,0x18
200006dc:	08bf4f63          	blt	t5,a1,2000077a <_ZN6kernel7process14load_processes17h3b38dee20eed6582E+0x3ec>
200006e0:	0c000593          	li	a1,192
200006e4:	06b36163          	bltu	t1,a1,20000746 <_ZN6kernel7process14load_processes17h3b38dee20eed6582E+0x3b8>
200006e8:	a849                	j	2000077a <_ZN6kernel7process14load_processes17h3b38dee20eed6582E+0x3ec>
200006ea:	0bf00593          	li	a1,191
200006ee:	0875e663          	bltu	a1,t2,2000077a <_ZN6kernel7process14load_processes17h3b38dee20eed6582E+0x3ec>
200006f2:	00f48593          	addi	a1,s1,15
200006f6:	0ff5f593          	andi	a1,a1,255
200006fa:	08bee063          	bltu	t4,a1,2000077a <_ZN6kernel7process14load_processes17h3b38dee20eed6582E+0x3ec>
200006fe:	41835593          	srai	a1,t1,0x18
20000702:	06bf4c63          	blt	t5,a1,2000077a <_ZN6kernel7process14load_processes17h3b38dee20eed6582E+0x3ec>
20000706:	00278593          	addi	a1,a5,2
2000070a:	07a5f863          	bgeu	a1,s10,2000077a <_ZN6kernel7process14load_processes17h3b38dee20eed6582E+0x3ec>
2000070e:	9596                	add	a1,a1,t0
20000710:	0005c583          	lbu	a1,0(a1)
20000714:	0c05f593          	andi	a1,a1,192
20000718:	08000693          	li	a3,128
2000071c:	04d59f63          	bne	a1,a3,2000077a <_ZN6kernel7process14load_processes17h3b38dee20eed6582E+0x3ec>
20000720:	00378713          	addi	a4,a5,3
20000724:	03a76563          	bltu	a4,s10,2000074e <_ZN6kernel7process14load_processes17h3b38dee20eed6582E+0x3c0>
20000728:	a889                	j	2000077a <_ZN6kernel7process14load_processes17h3b38dee20eed6582E+0x3ec>
2000072a:	0bf00593          	li	a1,191
2000072e:	0465e663          	bltu	a1,t1,2000077a <_ZN6kernel7process14load_processes17h3b38dee20eed6582E+0x3ec>
20000732:	0fe4f593          	andi	a1,s1,254
20000736:	0ee00693          	li	a3,238
2000073a:	04d59063          	bne	a1,a3,2000077a <_ZN6kernel7process14load_processes17h3b38dee20eed6582E+0x3ec>
2000073e:	4183d593          	srai	a1,t2,0x18
20000742:	02bf4c63          	blt	t5,a1,2000077a <_ZN6kernel7process14load_processes17h3b38dee20eed6582E+0x3ec>
20000746:	00278713          	addi	a4,a5,2
2000074a:	03a77863          	bgeu	a4,s10,2000077a <_ZN6kernel7process14load_processes17h3b38dee20eed6582E+0x3ec>
2000074e:	00e285b3          	add	a1,t0,a4
20000752:	0005c583          	lbu	a1,0(a1)
20000756:	0c05f593          	andi	a1,a1,192
2000075a:	08000693          	li	a3,128
2000075e:	00d59e63          	bne	a1,a3,2000077a <_ZN6kernel7process14load_processes17h3b38dee20eed6582E+0x3ec>
20000762:	00170793          	addi	a5,a4,1
20000766:	e7a7e3e3          	bltu	a5,s10,200005cc <_ZN6kernel7process14load_processes17h3b38dee20eed6582E+0x23e>
2000076a:	dfa42823          	sw	s10,-528(s0)
2000076e:	8716                	mv	a4,t0
20000770:	a039                	j	2000077e <_ZN6kernel7process14load_processes17h3b38dee20eed6582E+0x3f0>
20000772:	dfa42823          	sw	s10,-528(s0)
20000776:	8716                	mv	a4,t0
20000778:	a021                	j	20000780 <_ZN6kernel7process14load_processes17h3b38dee20eed6582E+0x3f2>
2000077a:	df442703          	lw	a4,-524(s0)
2000077e:	47b1                	li	a5,12
20000780:	00261583          	lh	a1,2(a2)
20000784:	40b00633          	neg	a2,a1
20000788:	8a0d                	andi	a2,a2,3
2000078a:	95b2                	add	a1,a1,a2
2000078c:	01b5f633          	and	a2,a1,s11
20000790:	00ce05b3          	add	a1,t3,a2
20000794:	8d11                	sub	a0,a0,a2
20000796:	db6578e3          	bgeu	a0,s6,20000546 <_ZN6kernel7process14load_processes17h3b38dee20eed6582E+0x1b8>
2000079a:	4481                	li	s1,0
2000079c:	a829                	j	200007b6 <_ZN6kernel7process14load_processes17h3b38dee20eed6582E+0x428>
2000079e:	4d01                	li	s10,0
200007a0:	4b01                	li	s6,0
200007a2:	4a0d0263          	beqz	s10,20000c46 <_ZN6kernel7process14load_processes17h3b38dee20eed6582E+0x8b8>
200007a6:	41690933          	sub	s2,s2,s6
200007aa:	9a5a                	add	s4,s4,s6
200007ac:	9bea                	add	s7,s7,s10
200007ae:	b9c1                	j	2000047e <_ZN6kernel7process14load_processes17h3b38dee20eed6582E+0xf0>
200007b0:	4485                	li	s1,1
200007b2:	df442703          	lw	a4,-524(s0)
200007b6:	863a                	mv	a2,a4
200007b8:	c091                	beqz	s1,200007bc <_ZN6kernel7process14load_processes17h3b38dee20eed6582E+0x42e>
200007ba:	4601                	li	a2,0
200007bc:	004bad03          	lw	s10,4(s7)
200007c0:	dee42a23          	sw	a4,-524(s0)
200007c4:	1e049063          	bnez	s1,200009a4 <_ZN6kernel7process14load_processes17h3b38dee20eed6582E+0x616>
200007c8:	008bc503          	lbu	a0,8(s7)
200007cc:	8905                	andi	a0,a0,1
200007ce:	1c050b63          	beqz	a0,200009a4 <_ZN6kernel7process14load_processes17h3b38dee20eed6582E+0x616>
200007d2:	de842583          	lw	a1,-536(s0)
200007d6:	dac42a23          	sw	a2,-588(s0)
200007da:	c581                	beqz	a1,200007e2 <_ZN6kernel7process14load_processes17h3b38dee20eed6582E+0x454>
200007dc:	e099                	bnez	s1,200007e2 <_ZN6kernel7process14load_processes17h3b38dee20eed6582E+0x454>
200007de:	4588                	lw	a0,8(a1)
200007e0:	a029                	j	200007ea <_ZN6kernel7process14load_processes17h3b38dee20eed6582E+0x45c>
200007e2:	4501                	li	a0,0
200007e4:	4b01                	li	s6,0
200007e6:	4a81                	li	s5,0
200007e8:	c581                	beqz	a1,200007f0 <_ZN6kernel7process14load_processes17h3b38dee20eed6582E+0x462>
200007ea:	0005aa83          	lw	s5,0(a1)
200007ee:	8b2a                	mv	s6,a0
200007f0:	002bd503          	lhu	a0,2(s7)
200007f4:	daa42c23          	sw	a0,-584(s0)
200007f8:	4521                	li	a0,8
200007fa:	eaa42c23          	sw	a0,-328(s0)
200007fe:	457d                	li	a0,31
20000800:	eaa42823          	sw	a0,-336(s0)
20000804:	e8a42e23          	sw	a0,-356(s0)
20000808:	e8a42423          	sw	a0,-376(s0)
2000080c:	e6a42a23          	sw	a0,-396(s0)
20000810:	e6a42023          	sw	a0,-416(s0)
20000814:	e4a42623          	sw	a0,-436(s0)
20000818:	e2a42c23          	sw	a0,-456(s0)
2000081c:	e2a42223          	sw	a0,-476(s0)
20000820:	ea042a23          	sw	zero,-332(s0)
20000824:	ea042223          	sw	zero,-348(s0)
20000828:	ea042023          	sw	zero,-352(s0)
2000082c:	e8042823          	sw	zero,-368(s0)
20000830:	e8042623          	sw	zero,-372(s0)
20000834:	e6042e23          	sw	zero,-388(s0)
20000838:	e6042c23          	sw	zero,-392(s0)
2000083c:	e6042423          	sw	zero,-408(s0)
20000840:	e6042223          	sw	zero,-412(s0)
20000844:	e4042a23          	sw	zero,-428(s0)
20000848:	e4042823          	sw	zero,-432(s0)
2000084c:	e4042023          	sw	zero,-448(s0)
20000850:	e2042e23          	sw	zero,-452(s0)
20000854:	e2042623          	sw	zero,-468(s0)
20000858:	e2042423          	sw	zero,-472(s0)
2000085c:	e0042c23          	sw	zero,-488(s0)
20000860:	f4840513          	addi	a0,s0,-184
20000864:	85de                	mv	a1,s7
20000866:	866a                	mv	a2,s10
20000868:	86ea                	mv	a3,s10
2000086a:	4709                	li	a4,2
2000086c:	e1840793          	addi	a5,s0,-488
20000870:	0000a097          	auipc	ra,0xa
20000874:	f1a080e7          	jalr	-230(ra) # 2000a78a <_ZN68_$LT$rv32i..pmp..PMPConfig$u20$as$u20$kernel..platform..mpu..MPU$GT$15allocate_region17hb539a302545ad1c9E>
20000878:	f4842503          	lw	a0,-184(s0)
2000087c:	4585                	li	a1,1
2000087e:	12b51163          	bne	a0,a1,200009a0 <_ZN6kernel7process14load_processes17h3b38dee20eed6582E+0x612>
20000882:	db842503          	lw	a0,-584(s0)
20000886:	9556                	add	a0,a0,s5
20000888:	4585                	li	a1,1
2000088a:	de042603          	lw	a2,-544(s0)
2000088e:	00b60a23          	sb	a1,20(a2)
20000892:	ddc42583          	lw	a1,-548(s0)
20000896:	0165e463          	bltu	a1,s6,2000089e <_ZN6kernel7process14load_processes17h3b38dee20eed6582E+0x510>
2000089a:	ddc42b03          	lw	s6,-548(s0)
2000089e:	955e                	add	a0,a0,s7
200008a0:	daa42823          	sw	a0,-592(s0)
200008a4:	de042503          	lw	a0,-544(s0)
200008a8:	4908                	lw	a0,16(a0)
200008aa:	00251a93          	slli	s5,a0,0x2
200008ae:	016a8533          	add	a0,s5,s6
200008b2:	3a450513          	addi	a0,a0,932
200008b6:	daa42c23          	sw	a0,-584(s0)
200008ba:	4b01                	li	s6,0
200008bc:	0a000513          	li	a0,160
200008c0:	00ab0e63          	beq	s6,a0,200008dc <_ZN6kernel7process14load_processes17h3b38dee20eed6582E+0x54e>
200008c4:	e1840513          	addi	a0,s0,-488
200008c8:	955a                	add	a0,a0,s6
200008ca:	85d2                	mv	a1,s4
200008cc:	864a                	mv	a2,s2
200008ce:	0000a097          	auipc	ra,0xa
200008d2:	fbe080e7          	jalr	-66(ra) # 2000a88c <_ZN5rv32i3pmp9PMPRegion8overlaps17hd72212574e3c6861E>
200008d6:	0b51                	addi	s6,s6,20
200008d8:	d175                	beqz	a0,200008bc <_ZN6kernel7process14load_processes17h3b38dee20eed6582E+0x52e>
200008da:	a0d9                	j	200009a0 <_ZN6kernel7process14load_processes17h3b38dee20eed6582E+0x612>
200008dc:	6505                	lui	a0,0x1
200008de:	fa450513          	addi	a0,a0,-92 # fa4 <MPU_MIN_ALIGN+0xba4>
200008e2:	9556                	add	a0,a0,s5
200008e4:	db842583          	lw	a1,-584(s0)
200008e8:	00b56363          	bltu	a0,a1,200008ee <_ZN6kernel7process14load_processes17h3b38dee20eed6582E+0x560>
200008ec:	85aa                	mv	a1,a0
200008ee:	fff58513          	addi	a0,a1,-1
200008f2:	00155593          	srli	a1,a0,0x1
200008f6:	8d4d                	or	a0,a0,a1
200008f8:	00255593          	srli	a1,a0,0x2
200008fc:	8d4d                	or	a0,a0,a1
200008fe:	00455593          	srli	a1,a0,0x4
20000902:	8d4d                	or	a0,a0,a1
20000904:	00855593          	srli	a1,a0,0x8
20000908:	8d4d                	or	a0,a0,a1
2000090a:	01055593          	srli	a1,a0,0x10
2000090e:	8dc9                	or	a1,a1,a0
20000910:	00158513          	addi	a0,a1,1
20000914:	00b57463          	bgeu	a0,a1,2000091c <_ZN6kernel7process14load_processes17h3b38dee20eed6582E+0x58e>
20000918:	4501                	li	a0,0
2000091a:	a08d                	j	2000097c <_ZN6kernel7process14load_processes17h3b38dee20eed6582E+0x5ee>
2000091c:	c939                	beqz	a0,20000972 <_ZN6kernel7process14load_processes17h3b38dee20eed6582E+0x5e4>
2000091e:	00155593          	srli	a1,a0,0x1
20000922:	8d4d                	or	a0,a0,a1
20000924:	00255593          	srli	a1,a0,0x2
20000928:	8d4d                	or	a0,a0,a1
2000092a:	00455593          	srli	a1,a0,0x4
2000092e:	8d4d                	or	a0,a0,a1
20000930:	00855593          	srli	a1,a0,0x8
20000934:	8d4d                	or	a0,a0,a1
20000936:	01055593          	srli	a1,a0,0x10
2000093a:	8d4d                	or	a0,a0,a1
2000093c:	fff54513          	not	a0,a0
20000940:	00155593          	srli	a1,a0,0x1
20000944:	dc842603          	lw	a2,-568(s0)
20000948:	8df1                	and	a1,a1,a2
2000094a:	8d0d                	sub	a0,a0,a1
2000094c:	dc442603          	lw	a2,-572(s0)
20000950:	00c575b3          	and	a1,a0,a2
20000954:	8109                	srli	a0,a0,0x2
20000956:	8d71                	and	a0,a0,a2
20000958:	952e                	add	a0,a0,a1
2000095a:	00455593          	srli	a1,a0,0x4
2000095e:	952e                	add	a0,a0,a1
20000960:	dc042583          	lw	a1,-576(s0)
20000964:	8d6d                	and	a0,a0,a1
20000966:	dbc42583          	lw	a1,-580(s0)
2000096a:	02b50533          	mul	a0,a0,a1
2000096e:	8161                	srli	a0,a0,0x18
20000970:	a019                	j	20000976 <_ZN6kernel7process14load_processes17h3b38dee20eed6582E+0x5e8>
20000972:	02000513          	li	a0,32
20000976:	45fd                	li	a1,31
20000978:	40a58533          	sub	a0,a1,a0
2000097c:	4585                	li	a1,1
2000097e:	00a59533          	sll	a0,a1,a0
20000982:	0505                	addi	a0,a0,1
20000984:	00357613          	andi	a2,a0,3
20000988:	4581                	li	a1,0
2000098a:	c219                	beqz	a2,20000990 <_ZN6kernel7process14load_processes17h3b38dee20eed6582E+0x602>
2000098c:	40cc05b3          	sub	a1,s8,a2
20000990:	00a58b33          	add	s6,a1,a0
20000994:	01490533          	add	a0,s2,s4
20000998:	014b05b3          	add	a1,s6,s4
2000099c:	00b57763          	bgeu	a0,a1,200009aa <_ZN6kernel7process14load_processes17h3b38dee20eed6582E+0x61c>
200009a0:	e0040a93          	addi	s5,s0,-512
200009a4:	dfc42483          	lw	s1,-516(s0)
200009a8:	bbe5                	j	200007a0 <_ZN6kernel7process14load_processes17h3b38dee20eed6582E+0x412>
200009aa:	452d                	li	a0,11
200009ac:	e2a42423          	sw	a0,-472(s0)
200009b0:	457d                	li	a0,31
200009b2:	e2a42223          	sw	a0,-476(s0)
200009b6:	4505                	li	a0,1
200009b8:	e0a42c23          	sw	a0,-488(s0)
200009bc:	e3642023          	sw	s6,-480(s0)
200009c0:	e1442e23          	sw	s4,-484(s0)
200009c4:	016a0533          	add	a0,s4,s6
200009c8:	415507b3          	sub	a5,a0,s5
200009cc:	853e                	mv	a0,a5
200009ce:	df442703          	lw	a4,-524(s0)
200009d2:	000a8863          	beqz	s5,200009e2 <_ZN6kernel7process14load_processes17h3b38dee20eed6582E+0x654>
200009d6:	00052023          	sw	zero,0(a0)
200009da:	1af1                	addi	s5,s5,-4
200009dc:	0511                	addi	a0,a0,4
200009de:	fe0a9ce3          	bnez	s5,200009d6 <_ZN6kernel7process14load_processes17h3b38dee20eed6582E+0x648>
200009e2:	de042603          	lw	a2,-544(s0)
200009e6:	4648                	lw	a0,12(a2)
200009e8:	00150593          	addi	a1,a0,1
200009ec:	c64c                	sw	a1,12(a2)
200009ee:	c5c78593          	addi	a1,a5,-932
200009f2:	eab42e23          	sw	a1,-324(s0)
200009f6:	de442683          	lw	a3,-540(s0)
200009fa:	cad7ac23          	sw	a3,-840(a5)
200009fe:	dec42683          	lw	a3,-532(s0)
20000a02:	cad7aa23          	sw	a3,-844(a5)
20000a06:	cae7a623          	sw	a4,-852(a5)
20000a0a:	de842683          	lw	a3,-536(s0)
20000a0e:	cad7a423          	sw	a3,-856(a5)
20000a12:	ca97a023          	sw	s1,-864(a5)
20000a16:	c767aa23          	sw	s6,-908(a5)
20000a1a:	dd842683          	lw	a3,-552(s0)
20000a1e:	c6d7a623          	sw	a3,-916(a5)
20000a22:	c6a7a223          	sw	a0,-924(a5)
20000a26:	c797a023          	sw	s9,-928(a5)
20000a2a:	c6c7a423          	sw	a2,-920(a5)
20000a2e:	c4c7ae23          	sw	a2,-932(a5)
20000a32:	c9a7ae23          	sw	s10,-868(a5)
20000a36:	cb77a223          	sw	s7,-860(a5)
20000a3a:	c977ac23          	sw	s7,-872(a5)
20000a3e:	c6b7ae23          	sw	a1,-900(a5)
20000a42:	c6b7ac23          	sw	a1,-904(a5)
20000a46:	6505                	lui	a0,0x1
20000a48:	c0050513          	addi	a0,a0,-1024 # c00 <MPU_MIN_ALIGN+0x800>
20000a4c:	c747a823          	sw	s4,-912(a5)
20000a50:	c947a623          	sw	s4,-884(a5)
20000a54:	c947a423          	sw	s4,-888(a5)
20000a58:	00aa04b3          	add	s1,s4,a0
20000a5c:	df042503          	lw	a0,-528(s0)
20000a60:	caa7a823          	sw	a0,-848(a5)
20000a64:	c897aa23          	sw	s1,-876(a5)
20000a68:	c897a823          	sw	s1,-880(a5)
20000a6c:	c897a223          	sw	s1,-892(a5)
20000a70:	daf42c23          	sw	a5,-584(s0)
20000a74:	c897a023          	sw	s1,-896(a5)
20000a78:	ebc42a83          	lw	s5,-324(s0)
20000a7c:	060a8513          	addi	a0,s5,96
20000a80:	4581                	li	a1,0
20000a82:	08400613          	li	a2,132
20000a86:	0000b097          	auipc	ra,0xb
20000a8a:	a7c080e7          	jalr	-1412(ra) # 2000b502 <memset>
20000a8e:	4519                	li	a0,6
20000a90:	22aa8c23          	sb	a0,568(s5)
20000a94:	e0842503          	lw	a0,-504(s0)
20000a98:	0eaaa223          	sw	a0,228(s5)
20000a9c:	e0c42503          	lw	a0,-500(s0)
20000aa0:	0eaaa423          	sw	a0,232(s5)
20000aa4:	e1042503          	lw	a0,-496(s0)
20000aa8:	0eaaa623          	sw	a0,236(s5)
20000aac:	1e0aaa23          	sw	zero,500(s5)
20000ab0:	0f0a8513          	addi	a0,s5,240
20000ab4:	e1840593          	addi	a1,s0,-488
20000ab8:	0a400613          	li	a2,164
20000abc:	0000b097          	auipc	ra,0xb
20000ac0:	a22080e7          	jalr	-1502(ra) # 2000b4de <memcpy>
20000ac4:	dd442503          	lw	a0,-556(s0)
20000ac8:	4581                	li	a1,0
20000aca:	db442603          	lw	a2,-588(s0)
20000ace:	c601                	beqz	a2,20000ad6 <_ZN6kernel7process14load_processes17h3b38dee20eed6582E+0x748>
20000ad0:	8532                	mv	a0,a2
20000ad2:	df042583          	lw	a1,-528(s0)
20000ad6:	4615                	li	a2,5
20000ad8:	20caac23          	sw	a2,536(s5)
20000adc:	209aa823          	sw	s1,528(s5)
20000ae0:	1ebaae23          	sw	a1,508(s5)
20000ae4:	1eaaac23          	sw	a0,504(s5)
20000ae8:	4529                	li	a0,10
20000aea:	1eaaa223          	sw	a0,484(s5)
20000aee:	db842503          	lw	a0,-584(s0)
20000af2:	e9850513          	addi	a0,a0,-360
20000af6:	1eaaa023          	sw	a0,480(s5)
20000afa:	4505                	li	a0,1
20000afc:	22aa8a23          	sb	a0,564(s5)
20000b00:	1eaa8823          	sb	a0,496(s5)
20000b04:	18aa8a23          	sb	a0,404(s5)
20000b08:	220aa823          	sw	zero,560(s5)
20000b0c:	220aa623          	sw	zero,556(s5)
20000b10:	200aaa23          	sw	zero,532(s5)
20000b14:	200aa423          	sw	zero,520(s5)
20000b18:	200aa023          	sw	zero,512(s5)
20000b1c:	1e0aa623          	sw	zero,492(s5)
20000b20:	1e0aa423          	sw	zero,488(s5)
20000b24:	1c0aaa23          	sw	zero,468(s5)
20000b28:	1c0aa423          	sw	zero,456(s5)
20000b2c:	1a0aae23          	sw	zero,444(s5)
20000b30:	1a0aa823          	sw	zero,432(s5)
20000b34:	1a0aa223          	sw	zero,420(s5)
20000b38:	180aac23          	sw	zero,408(s5)
20000b3c:	044a8513          	addi	a0,s5,68
20000b40:	00006097          	auipc	ra,0x6
20000b44:	e8e080e7          	jalr	-370(ra) # 200069ce <_ZN6kernel9tbfheader9TbfHeader18get_protected_size17heece472e2d897d0aE>
20000b48:	1f0ac583          	lbu	a1,496(s5)
20000b4c:	c5b9                	beqz	a1,20000b9a <_ZN6kernel7process14load_processes17h3b38dee20eed6582E+0x80c>
20000b4e:	1e0a8593          	addi	a1,s5,480
20000b52:	1e0a8823          	sb	zero,496(s5)
20000b56:	ebc42483          	lw	s1,-324(s0)
20000b5a:	48d0                	lw	a2,20(s1)
20000b5c:	4c94                	lw	a3,24(s1)
20000b5e:	50d8                	lw	a4,36(s1)
20000b60:	db042783          	lw	a5,-592(s0)
20000b64:	f6f42423          	sw	a5,-152(s0)
20000b68:	f6e42223          	sw	a4,-156(s0)
20000b6c:	f6d42023          	sw	a3,-160(s0)
20000b70:	f4c42e23          	sw	a2,-164(s0)
20000b74:	955e                	add	a0,a0,s7
20000b76:	f4a42c23          	sw	a0,-168(s0)
20000b7a:	f4042623          	sw	zero,-180(s0)
20000b7e:	f4042423          	sw	zero,-184(s0)
20000b82:	852e                	mv	a0,a1
20000b84:	f4840593          	addi	a1,s0,-184
20000b88:	00009097          	auipc	ra,0x9
20000b8c:	2da080e7          	jalr	730(ra) # 20009e62 <_ZN106_$LT$kernel..common..ring_buffer..RingBuffer$LT$T$GT$$u20$as$u20$kernel..common..queue..Queue$LT$T$GT$$GT$7enqueue17h1485d6c9e9be0704E>
20000b90:	86a6                	mv	a3,s1
20000b92:	4505                	li	a0,1
20000b94:	1eaa8823          	sb	a0,496(s5)
20000b98:	a019                	j	20000b9e <_ZN6kernel7process14load_processes17h3b38dee20eed6582E+0x810>
20000b9a:	ebc42683          	lw	a3,-324(s0)
20000b9e:	e0040a93          	addi	s5,s0,-512
20000ba2:	06068593          	addi	a1,a3,96
20000ba6:	ec040493          	addi	s1,s0,-320
20000baa:	8526                	mv	a0,s1
20000bac:	dab42c23          	sw	a1,-584(s0)
20000bb0:	08400613          	li	a2,132
20000bb4:	84b6                	mv	s1,a3
20000bb6:	0000b097          	auipc	ra,0xb
20000bba:	928080e7          	jalr	-1752(ra) # 2000b4de <memcpy>
20000bbe:	ec040793          	addi	a5,s0,-320
20000bc2:	58d8                	lw	a4,52(s1)
20000bc4:	4581                	li	a1,0
20000bc6:	07c00693          	li	a3,124
20000bca:	00d58963          	beq	a1,a3,20000bdc <_ZN6kernel7process14load_processes17h3b38dee20eed6582E+0x84e>
20000bce:	00b78633          	add	a2,a5,a1
20000bd2:	00062023          	sw	zero,0(a2)
20000bd6:	0591                	addi	a1,a1,4
20000bd8:	fed59be3          	bne	a1,a3,20000bce <_ZN6kernel7process14load_processes17h3b38dee20eed6582E+0x840>
20000bdc:	f4042023          	sw	zero,-192(s0)
20000be0:	f2042e23          	sw	zero,-196(s0)
20000be4:	ece42223          	sw	a4,-316(s0)
20000be8:	d8d8                	sw	a4,52(s1)
20000bea:	8526                	mv	a0,s1
20000bec:	00000097          	auipc	ra,0x0
20000bf0:	0b0080e7          	jalr	176(ra) # 20000c9c <_ZN6kernel7process16Process$LT$C$GT$25debug_set_max_stack_depth17haa912d377bf7385eE>
20000bf4:	f4840493          	addi	s1,s0,-184
20000bf8:	8526                	mv	a0,s1
20000bfa:	ec040593          	addi	a1,s0,-320
20000bfe:	08400613          	li	a2,132
20000c02:	0000b097          	auipc	ra,0xb
20000c06:	8dc080e7          	jalr	-1828(ra) # 2000b4de <memcpy>
20000c0a:	db842503          	lw	a0,-584(s0)
20000c0e:	85a6                	mv	a1,s1
20000c10:	fffff097          	auipc	ra,0xfffff
20000c14:	694080e7          	jalr	1684(ra) # 200002a4 <_ZN4core4cell13Cell$LT$T$GT$3set17h6c514a780c36573bE>
20000c18:	100025b7          	lui	a1,0x10002
20000c1c:	6485a503          	lw	a0,1608(a1) # 10002648 <_ZN9opentitan13reset_handler3BUF17hde44aa74b73c5f78E>
20000c20:	0505                	addi	a0,a0,1
20000c22:	64a5a423          	sw	a0,1608(a1)
20000c26:	058cfd63          	bgeu	s9,s8,20000c80 <_ZN6kernel7process14load_processes17h3b38dee20eed6582E+0x8f2>
20000c2a:	ebc42503          	lw	a0,-324(s0)
20000c2e:	003c9593          	slli	a1,s9,0x3
20000c32:	dd042603          	lw	a2,-560(s0)
20000c36:	95b2                	add	a1,a1,a2
20000c38:	dcc42603          	lw	a2,-564(s0)
20000c3c:	c1d0                	sw	a2,4(a1)
20000c3e:	c188                	sw	a0,0(a1)
20000c40:	dfc42483          	lw	s1,-516(s0)
20000c44:	b68d                	j	200007a6 <_ZN6kernel7process14load_processes17h3b38dee20eed6582E+0x418>
20000c46:	21c12d83          	lw	s11,540(sp)
20000c4a:	22012d03          	lw	s10,544(sp)
20000c4e:	22412c83          	lw	s9,548(sp)
20000c52:	22812c03          	lw	s8,552(sp)
20000c56:	22c12b83          	lw	s7,556(sp)
20000c5a:	23012b03          	lw	s6,560(sp)
20000c5e:	23412a83          	lw	s5,564(sp)
20000c62:	23812a03          	lw	s4,568(sp)
20000c66:	23c12983          	lw	s3,572(sp)
20000c6a:	24012903          	lw	s2,576(sp)
20000c6e:	24412483          	lw	s1,580(sp)
20000c72:	24812403          	lw	s0,584(sp)
20000c76:	24c12083          	lw	ra,588(sp)
20000c7a:	25010113          	addi	sp,sp,592
20000c7e:	8082                	ret
20000c80:	10001537          	lui	a0,0x10001
20000c84:	00050513          	mv	a0,a0
20000c88:	85e6                	mv	a1,s9
20000c8a:	4611                	li	a2,4
20000c8c:	00004097          	auipc	ra,0x4
20000c90:	e9c080e7          	jalr	-356(ra) # 20004b28 <_ZN4core9panicking18panic_bounds_check17h95c8cd8536e82dafE>
20000c94:	0000e097          	auipc	ra,0xe
20000c98:	f48080e7          	jalr	-184(ra) # 2000ebdc <abort>

20000c9c <_ZN6kernel7process16Process$LT$C$GT$25debug_set_max_stack_depth17haa912d377bf7385eE>:
20000c9c:	1141                	addi	sp,sp,-16
20000c9e:	c606                	sw	ra,12(sp)
20000ca0:	c422                	sw	s0,8(sp)
20000ca2:	0800                	addi	s0,sp,16
20000ca4:	23454583          	lbu	a1,564(a0) # 10001234 <anon.df4ef2eca40d8df31d41968dfc3d5204.8.llvm.2216583931208702471+0xc>
20000ca8:	cd89                	beqz	a1,20000cc2 <_ZN6kernel7process16Process$LT$C$GT$25debug_set_max_stack_depth17haa912d377bf7385eE+0x26>
20000caa:	22050a23          	sb	zero,564(a0)
20000cae:	594c                	lw	a1,52(a0)
20000cb0:	21052603          	lw	a2,528(a0)
20000cb4:	00c5f463          	bgeu	a1,a2,20000cbc <_ZN6kernel7process16Process$LT$C$GT$25debug_set_max_stack_depth17haa912d377bf7385eE+0x20>
20000cb8:	20b52823          	sw	a1,528(a0)
20000cbc:	4585                	li	a1,1
20000cbe:	22b50a23          	sb	a1,564(a0)
20000cc2:	4422                	lw	s0,8(sp)
20000cc4:	40b2                	lw	ra,12(sp)
20000cc6:	0141                	addi	sp,sp,16
20000cc8:	8082                	ret

20000cca <_ZN6kernel7process16Process$LT$C$GT$9terminate17h43ce740b905f0153E>:
20000cca:	1101                	addi	sp,sp,-32
20000ccc:	ce06                	sw	ra,28(sp)
20000cce:	cc22                	sw	s0,24(sp)
20000cd0:	ca26                	sw	s1,20(sp)
20000cd2:	c84a                	sw	s2,16(sp)
20000cd4:	1000                	addi	s0,sp,32
20000cd6:	84aa                	mv	s1,a0
20000cd8:	1f054503          	lbu	a0,496(a0)
20000cdc:	cd19                	beqz	a0,20000cfa <_ZN6kernel7process16Process$LT$C$GT$9terminate17h43ce740b905f0153E+0x30>
20000cde:	1ec4a603          	lw	a2,492(s1)
20000ce2:	1e84a583          	lw	a1,488(s1)
20000ce6:	1e44a503          	lw	a0,484(s1)
20000cea:	00009097          	auipc	ra,0x9
20000cee:	150080e7          	jalr	336(ra) # 20009e3a <_ZN106_$LT$kernel..common..ring_buffer..RingBuffer$LT$T$GT$$u20$as$u20$kernel..common..queue..Queue$LT$T$GT$$GT$3len17h63c07b7591620bfcE>
20000cf2:	4585                	li	a1,1
20000cf4:	1eb48823          	sb	a1,496(s1)
20000cf8:	a011                	j	20000cfc <_ZN6kernel7process16Process$LT$C$GT$9terminate17h43ce740b905f0153E+0x32>
20000cfa:	4501                	li	a0,0
20000cfc:	fea42623          	sw	a0,-20(s0)
20000d00:	fe042423          	sw	zero,-24(s0)
20000d04:	fe840913          	addi	s2,s0,-24
20000d08:	854a                	mv	a0,s2
20000d0a:	fffff097          	auipc	ra,0xfffff
20000d0e:	65c080e7          	jalr	1628(ra) # 20000366 <_ZN4core4iter5range101_$LT$impl$u20$core..iter..traits..iterator..Iterator$u20$for$u20$core..ops..range..Range$LT$A$GT$$GT$4next17h5fc5116ce4c01b5bE>
20000d12:	c511                	beqz	a0,20000d1e <_ZN6kernel7process16Process$LT$C$GT$9terminate17h43ce740b905f0153E+0x54>
20000d14:	44c8                	lw	a0,12(s1)
20000d16:	410c                	lw	a1,0(a0)
20000d18:	15fd                	addi	a1,a1,-1
20000d1a:	c10c                	sw	a1,0(a0)
20000d1c:	b7f5                	j	20000d08 <_ZN6kernel7process16Process$LT$C$GT$9terminate17h43ce740b905f0153E+0x3e>
20000d1e:	1f04c503          	lbu	a0,496(s1)
20000d22:	c901                	beqz	a0,20000d32 <_ZN6kernel7process16Process$LT$C$GT$9terminate17h43ce740b905f0153E+0x68>
20000d24:	4505                	li	a0,1
20000d26:	1ea48823          	sb	a0,496(s1)
20000d2a:	1e04a623          	sw	zero,492(s1)
20000d2e:	1e04a423          	sw	zero,488(s1)
20000d32:	44c8                	lw	a0,12(s1)
20000d34:	4585                	li	a1,1
20000d36:	00b50a23          	sb	a1,20(a0)
20000d3a:	4908                	lw	a0,16(a0)
20000d3c:	fea42623          	sw	a0,-20(s0)
20000d40:	fe042423          	sw	zero,-24(s0)
20000d44:	fe840913          	addi	s2,s0,-24
20000d48:	854a                	mv	a0,s2
20000d4a:	fffff097          	auipc	ra,0xfffff
20000d4e:	61c080e7          	jalr	1564(ra) # 20000366 <_ZN4core4iter5range101_$LT$impl$u20$core..iter..traits..iterator..Iterator$u20$for$u20$core..ops..range..Range$LT$A$GT$$GT$4next17h5fc5116ce4c01b5bE>
20000d52:	c919                	beqz	a0,20000d68 <_ZN6kernel7process16Process$LT$C$GT$9terminate17h43ce740b905f0153E+0x9e>
20000d54:	4c88                	lw	a0,24(s1)
20000d56:	48d0                	lw	a2,20(s1)
20000d58:	9532                	add	a0,a0,a2
20000d5a:	fff5c593          	not	a1,a1
20000d5e:	058a                	slli	a1,a1,0x2
20000d60:	952e                	add	a0,a0,a1
20000d62:	00052023          	sw	zero,0(a0)
20000d66:	b7cd                	j	20000d48 <_ZN6kernel7process16Process$LT$C$GT$9terminate17h43ce740b905f0153E+0x7e>
20000d68:	4511                	li	a0,4
20000d6a:	22a48c23          	sb	a0,568(s1)
20000d6e:	4942                	lw	s2,16(sp)
20000d70:	44d2                	lw	s1,20(sp)
20000d72:	4462                	lw	s0,24(sp)
20000d74:	40f2                	lw	ra,28(sp)
20000d76:	6105                	addi	sp,sp,32
20000d78:	8082                	ret

20000d7a <_ZN82_$LT$kernel..process..Process$LT$C$GT$$u20$as$u20$kernel..process..ProcessType$GT$11flash_start17h0c628b29c525f38cE>:
20000d7a:	1141                	addi	sp,sp,-16
20000d7c:	c606                	sw	ra,12(sp)
20000d7e:	c422                	sw	s0,8(sp)
20000d80:	0800                	addi	s0,sp,16
20000d82:	5d48                	lw	a0,60(a0)
20000d84:	4422                	lw	s0,8(sp)
20000d86:	40b2                	lw	ra,12(sp)
20000d88:	0141                	addi	sp,sp,16
20000d8a:	8082                	ret

20000d8c <_ZN82_$LT$kernel..process..Process$LT$C$GT$$u20$as$u20$kernel..process..ProcessType$GT$12dequeue_task17h9521269519b1e645E>:
20000d8c:	7175                	addi	sp,sp,-144
20000d8e:	c706                	sw	ra,140(sp)
20000d90:	c522                	sw	s0,136(sp)
20000d92:	c326                	sw	s1,132(sp)
20000d94:	c14a                	sw	s2,128(sp)
20000d96:	dece                	sw	s3,124(sp)
20000d98:	dcd2                	sw	s4,120(sp)
20000d9a:	dad6                	sw	s5,116(sp)
20000d9c:	d8da                	sw	s6,112(sp)
20000d9e:	0900                	addi	s0,sp,144
20000da0:	892a                	mv	s2,a0
20000da2:	1f05c503          	lbu	a0,496(a1)
20000da6:	c55d                	beqz	a0,20000e54 <_ZN82_$LT$kernel..process..Process$LT$C$GT$$u20$as$u20$kernel..process..ProcessType$GT$12dequeue_task17h9521269519b1e645E+0xc8>
20000da8:	84ae                	mv	s1,a1
20000daa:	1e058823          	sb	zero,496(a1)
20000dae:	4a89                	li	s5,2
20000db0:	1e85a983          	lw	s3,488(a1)
20000db4:	1ec5a503          	lw	a0,492(a1)
20000db8:	4b09                	li	s6,2
20000dba:	06a98063          	beq	s3,a0,20000e1a <_ZN82_$LT$kernel..process..Process$LT$C$GT$$u20$as$u20$kernel..process..ProcessType$GT$12dequeue_task17h9521269519b1e645E+0x8e>
20000dbe:	1e44aa03          	lw	s4,484(s1)
20000dc2:	0d49fc63          	bgeu	s3,s4,20000e9a <_ZN82_$LT$kernel..process..Process$LT$C$GT$$u20$as$u20$kernel..process..ProcessType$GT$12dequeue_task17h9521269519b1e645E+0x10e>
20000dc6:	02400513          	li	a0,36
20000dca:	02a98533          	mul	a0,s3,a0
20000dce:	1e04a583          	lw	a1,480(s1)
20000dd2:	952e                	add	a0,a0,a1
20000dd4:	00052b03          	lw	s6,0(a0)
20000dd8:	00450593          	addi	a1,a0,4
20000ddc:	f9840513          	addi	a0,s0,-104
20000de0:	02000613          	li	a2,32
20000de4:	0000a097          	auipc	ra,0xa
20000de8:	6fa080e7          	jalr	1786(ra) # 2000b4de <memcpy>
20000dec:	00198513          	addi	a0,s3,1
20000df0:	03457533          	remu	a0,a0,s4
20000df4:	1ea4a423          	sw	a0,488(s1)
20000df8:	4509                	li	a0,2
20000dfa:	02ab0063          	beq	s6,a0,20000e1a <_ZN82_$LT$kernel..process..Process$LT$C$GT$$u20$as$u20$kernel..process..ProcessType$GT$12dequeue_task17h9521269519b1e645E+0x8e>
20000dfe:	44c8                	lw	a0,12(s1)
20000e00:	410c                	lw	a1,0(a0)
20000e02:	15fd                	addi	a1,a1,-1
20000e04:	c10c                	sw	a1,0(a0)
20000e06:	fc040513          	addi	a0,s0,-64
20000e0a:	f9840593          	addi	a1,s0,-104
20000e0e:	02000613          	li	a2,32
20000e12:	0000a097          	auipc	ra,0xa
20000e16:	6cc080e7          	jalr	1740(ra) # 2000b4de <memcpy>
20000e1a:	4505                	li	a0,1
20000e1c:	1ea48823          	sb	a0,496(s1)
20000e20:	f7840493          	addi	s1,s0,-136
20000e24:	fc040593          	addi	a1,s0,-64
20000e28:	8526                	mv	a0,s1
20000e2a:	02000613          	li	a2,32
20000e2e:	0000a097          	auipc	ra,0xa
20000e32:	6b0080e7          	jalr	1712(ra) # 2000b4de <memcpy>
20000e36:	f9542c23          	sw	s5,-104(s0)
20000e3a:	f9c40513          	addi	a0,s0,-100
20000e3e:	fc040593          	addi	a1,s0,-64
20000e42:	02000613          	li	a2,32
20000e46:	0000a097          	auipc	ra,0xa
20000e4a:	698080e7          	jalr	1688(ra) # 2000b4de <memcpy>
20000e4e:	01692023          	sw	s6,0(s2) # 4000 <.Lline_table_start14+0x99d>
20000e52:	a00d                	j	20000e74 <_ZN82_$LT$kernel..process..Process$LT$C$GT$$u20$as$u20$kernel..process..ProcessType$GT$12dequeue_task17h9521269519b1e645E+0xe8>
20000e54:	4989                	li	s3,2
20000e56:	f9342c23          	sw	s3,-104(s0)
20000e5a:	f9c40513          	addi	a0,s0,-100
20000e5e:	fc040493          	addi	s1,s0,-64
20000e62:	85a6                	mv	a1,s1
20000e64:	02000613          	li	a2,32
20000e68:	0000a097          	auipc	ra,0xa
20000e6c:	676080e7          	jalr	1654(ra) # 2000b4de <memcpy>
20000e70:	01392023          	sw	s3,0(s2)
20000e74:	00490513          	addi	a0,s2,4
20000e78:	85a6                	mv	a1,s1
20000e7a:	02000613          	li	a2,32
20000e7e:	0000a097          	auipc	ra,0xa
20000e82:	660080e7          	jalr	1632(ra) # 2000b4de <memcpy>
20000e86:	5b46                	lw	s6,112(sp)
20000e88:	5ad6                	lw	s5,116(sp)
20000e8a:	5a66                	lw	s4,120(sp)
20000e8c:	59f6                	lw	s3,124(sp)
20000e8e:	490a                	lw	s2,128(sp)
20000e90:	449a                	lw	s1,132(sp)
20000e92:	442a                	lw	s0,136(sp)
20000e94:	40ba                	lw	ra,140(sp)
20000e96:	6149                	addi	sp,sp,144
20000e98:	8082                	ret
20000e9a:	10002537          	lui	a0,0x10002
20000e9e:	bc850513          	addi	a0,a0,-1080 # 10001bc8 <.L__unnamed_17>
20000ea2:	85ce                	mv	a1,s3
20000ea4:	8652                	mv	a2,s4
20000ea6:	00004097          	auipc	ra,0x4
20000eaa:	c82080e7          	jalr	-894(ra) # 20004b28 <_ZN4core9panicking18panic_bounds_check17h95c8cd8536e82dafE>
20000eae:	0000e097          	auipc	ra,0xe
20000eb2:	d2e080e7          	jalr	-722(ra) # 2000ebdc <abort>

20000eb6 <_ZN82_$LT$kernel..process..Process$LT$C$GT$$u20$as$u20$kernel..process..ProcessType$GT$12enqueue_task17hc98000629591fcb3E>:
20000eb6:	7139                	addi	sp,sp,-64
20000eb8:	de06                	sw	ra,60(sp)
20000eba:	dc22                	sw	s0,56(sp)
20000ebc:	da26                	sw	s1,52(sp)
20000ebe:	d84a                	sw	s2,48(sp)
20000ec0:	0080                	addi	s0,sp,64
20000ec2:	84aa                	mv	s1,a0
20000ec4:	23854503          	lbu	a0,568(a0)
20000ec8:	8919                	andi	a0,a0,6
20000eca:	4611                	li	a2,4
20000ecc:	04c50b63          	beq	a0,a2,20000f22 <_ZN82_$LT$kernel..process..Process$LT$C$GT$$u20$as$u20$kernel..process..ProcessType$GT$12enqueue_task17hc98000629591fcb3E+0x6c>
20000ed0:	44c8                	lw	a0,12(s1)
20000ed2:	4110                	lw	a2,0(a0)
20000ed4:	0605                	addi	a2,a2,1
20000ed6:	c110                	sw	a2,0(a0)
20000ed8:	1f04c503          	lbu	a0,496(s1)
20000edc:	c905                	beqz	a0,20000f0c <_ZN82_$LT$kernel..process..Process$LT$C$GT$$u20$as$u20$kernel..process..ProcessType$GT$12enqueue_task17hc98000629591fcb3E+0x56>
20000ede:	1e048823          	sb	zero,496(s1)
20000ee2:	fc840913          	addi	s2,s0,-56
20000ee6:	854a                	mv	a0,s2
20000ee8:	02400613          	li	a2,36
20000eec:	0000a097          	auipc	ra,0xa
20000ef0:	5f2080e7          	jalr	1522(ra) # 2000b4de <memcpy>
20000ef4:	1e048513          	addi	a0,s1,480
20000ef8:	85ca                	mv	a1,s2
20000efa:	00009097          	auipc	ra,0x9
20000efe:	f68080e7          	jalr	-152(ra) # 20009e62 <_ZN106_$LT$kernel..common..ring_buffer..RingBuffer$LT$T$GT$$u20$as$u20$kernel..common..queue..Queue$LT$T$GT$$GT$7enqueue17h1485d6c9e9be0704E>
20000f02:	85aa                	mv	a1,a0
20000f04:	4505                	li	a0,1
20000f06:	1ea48823          	sb	a0,496(s1)
20000f0a:	ed89                	bnez	a1,20000f24 <_ZN82_$LT$kernel..process..Process$LT$C$GT$$u20$as$u20$kernel..process..ProcessType$GT$12enqueue_task17hc98000629591fcb3E+0x6e>
20000f0c:	2344c503          	lbu	a0,564(s1)
20000f10:	c909                	beqz	a0,20000f22 <_ZN82_$LT$kernel..process..Process$LT$C$GT$$u20$as$u20$kernel..process..ProcessType$GT$12enqueue_task17hc98000629591fcb3E+0x6c>
20000f12:	4505                	li	a0,1
20000f14:	22a48a23          	sb	a0,564(s1)
20000f18:	22c4a503          	lw	a0,556(s1)
20000f1c:	0505                	addi	a0,a0,1
20000f1e:	22a4a623          	sw	a0,556(s1)
20000f22:	4501                	li	a0,0
20000f24:	5942                	lw	s2,48(sp)
20000f26:	54d2                	lw	s1,52(sp)
20000f28:	5462                	lw	s0,56(sp)
20000f2a:	50f2                	lw	ra,60(sp)
20000f2c:	6121                	addi	sp,sp,64
20000f2e:	8082                	ret

20000f30 <_ZN82_$LT$kernel..process..Process$LT$C$GT$$u20$as$u20$kernel..process..ProcessType$GT$14add_mpu_region17h885fc9afe20f2ecdE>:
20000f30:	1101                	addi	sp,sp,-32
20000f32:	ce06                	sw	ra,28(sp)
20000f34:	cc22                	sw	s0,24(sp)
20000f36:	ca26                	sw	s1,20(sp)
20000f38:	c84a                	sw	s2,16(sp)
20000f3a:	c64e                	sw	s3,12(sp)
20000f3c:	1000                	addi	s0,sp,32
20000f3e:	892a                	mv	s2,a0
20000f40:	1945c503          	lbu	a0,404(a1)
20000f44:	c525                	beqz	a0,20000fac <_ZN82_$LT$kernel..process..Process$LT$C$GT$$u20$as$u20$kernel..process..ProcessType$GT$14add_mpu_region17h885fc9afe20f2ecdE+0x7c>
20000f46:	84ae                	mv	s1,a1
20000f48:	18058a23          	sb	zero,404(a1)
20000f4c:	0f058793          	addi	a5,a1,240
20000f50:	fe040513          	addi	a0,s0,-32
20000f54:	4985                	li	s3,1
20000f56:	85b2                	mv	a1,a2
20000f58:	8636                	mv	a2,a3
20000f5a:	86ba                	mv	a3,a4
20000f5c:	4705                	li	a4,1
20000f5e:	0000a097          	auipc	ra,0xa
20000f62:	82c080e7          	jalr	-2004(ra) # 2000a78a <_ZN68_$LT$rv32i..pmp..PMPConfig$u20$as$u20$kernel..platform..mpu..MPU$GT$15allocate_region17hb539a302545ad1c9E>
20000f66:	fe042503          	lw	a0,-32(s0)
20000f6a:	05351463          	bne	a0,s3,20000fb2 <_ZN82_$LT$kernel..process..Process$LT$C$GT$$u20$as$u20$kernel..process..ProcessType$GT$14add_mpu_region17h885fc9afe20f2ecdE+0x82>
20000f6e:	04800593          	li	a1,72
20000f72:	4501                	li	a0,0
20000f74:	04b50063          	beq	a0,a1,20000fb4 <_ZN82_$LT$kernel..process..Process$LT$C$GT$$u20$as$u20$kernel..process..ProcessType$GT$14add_mpu_region17h885fc9afe20f2ecdE+0x84>
20000f78:	00a48633          	add	a2,s1,a0
20000f7c:	0531                	addi	a0,a0,12
20000f7e:	19862603          	lw	a2,408(a2)
20000f82:	ff3609e3          	beq	a2,s3,20000f74 <_ZN82_$LT$kernel..process..Process$LT$C$GT$$u20$as$u20$kernel..process..ProcessType$GT$14add_mpu_region17h885fc9afe20f2ecdE+0x44>
20000f86:	9526                	add	a0,a0,s1
20000f88:	fe842583          	lw	a1,-24(s0)
20000f8c:	18b52a23          	sw	a1,404(a0)
20000f90:	fe442583          	lw	a1,-28(s0)
20000f94:	18b52823          	sw	a1,400(a0)
20000f98:	fe042583          	lw	a1,-32(s0)
20000f9c:	18b52623          	sw	a1,396(a0)
20000fa0:	4505                	li	a0,1
20000fa2:	fe842603          	lw	a2,-24(s0)
20000fa6:	fe442583          	lw	a1,-28(s0)
20000faa:	a031                	j	20000fb6 <_ZN82_$LT$kernel..process..Process$LT$C$GT$$u20$as$u20$kernel..process..ProcessType$GT$14add_mpu_region17h885fc9afe20f2ecdE+0x86>
20000fac:	00092023          	sw	zero,0(s2)
20000fb0:	a819                	j	20000fc6 <_ZN82_$LT$kernel..process..Process$LT$C$GT$$u20$as$u20$kernel..process..ProcessType$GT$14add_mpu_region17h885fc9afe20f2ecdE+0x96>
20000fb2:	a011                	j	20000fb6 <_ZN82_$LT$kernel..process..Process$LT$C$GT$$u20$as$u20$kernel..process..ProcessType$GT$14add_mpu_region17h885fc9afe20f2ecdE+0x86>
20000fb4:	4501                	li	a0,0
20000fb6:	19348a23          	sb	s3,404(s1)
20000fba:	00c92423          	sw	a2,8(s2)
20000fbe:	00b92223          	sw	a1,4(s2)
20000fc2:	00a92023          	sw	a0,0(s2)
20000fc6:	49b2                	lw	s3,12(sp)
20000fc8:	4942                	lw	s2,16(sp)
20000fca:	44d2                	lw	s1,20(sp)
20000fcc:	4462                	lw	s0,24(sp)
20000fce:	40f2                	lw	ra,28(sp)
20000fd0:	6105                	addi	sp,sp,32
20000fd2:	8082                	ret

20000fd4 <_ZN82_$LT$kernel..process..Process$LT$C$GT$$u20$as$u20$kernel..process..ProcessType$GT$15set_fault_state17hee6a6d4941d96761E>:
20000fd4:	7169                	addi	sp,sp,-304
20000fd6:	12112623          	sw	ra,300(sp)
20000fda:	12812423          	sw	s0,296(sp)
20000fde:	12912223          	sw	s1,292(sp)
20000fe2:	13212023          	sw	s2,288(sp)
20000fe6:	11312e23          	sw	s3,284(sp)
20000fea:	11412c23          	sw	s4,280(sp)
20000fee:	11512a23          	sw	s5,276(sp)
20000ff2:	11612823          	sw	s6,272(sp)
20000ff6:	11712623          	sw	s7,268(sp)
20000ffa:	1a00                	addi	s0,sp,304
20000ffc:	8a2a                	mv	s4,a0
20000ffe:	4515                	li	a0,5
20001000:	22aa0c23          	sb	a0,568(s4)
20001004:	0e4a2583          	lw	a1,228(s4)
20001008:	4505                	li	a0,1
2000100a:	00a58b63          	beq	a1,a0,20001020 <_ZN82_$LT$kernel..process..Process$LT$C$GT$$u20$as$u20$kernel..process..ProcessType$GT$15set_fault_state17hee6a6d4941d96761E+0x4c>
2000100e:	4509                	li	a0,2
20001010:	1aa59663          	bne	a1,a0,200011bc <_ZN82_$LT$kernel..process..Process$LT$C$GT$$u20$as$u20$kernel..process..ProcessType$GT$15set_fault_state17hee6a6d4941d96761E+0x1e8>
20001014:	8552                	mv	a0,s4
20001016:	00000097          	auipc	ra,0x0
2000101a:	cb4080e7          	jalr	-844(ra) # 20000cca <_ZN6kernel7process16Process$LT$C$GT$9terminate17h43ce740b905f0153E>
2000101e:	aa9d                	j	20001194 <_ZN82_$LT$kernel..process..Process$LT$C$GT$$u20$as$u20$kernel..process..ProcessType$GT$15set_fault_state17hee6a6d4941d96761E+0x1c0>
20001020:	0e8a2903          	lw	s2,232(s4)
20001024:	0eca2483          	lw	s1,236(s4)
20001028:	8552                	mv	a0,s4
2000102a:	00000097          	auipc	ra,0x0
2000102e:	ca0080e7          	jalr	-864(ra) # 20000cca <_ZN6kernel7process16Process$LT$C$GT$9terminate17h43ce740b905f0153E>
20001032:	44d4                	lw	a3,12(s1)
20001034:	10001537          	lui	a0,0x10001
20001038:	01050613          	addi	a2,a0,16 # 10001010 <.L__unnamed_1>
2000103c:	854a                	mv	a0,s2
2000103e:	85d2                	mv	a1,s4
20001040:	9682                	jalr	a3
20001042:	14050963          	beqz	a0,20001194 <_ZN82_$LT$kernel..process..Process$LT$C$GT$$u20$as$u20$kernel..process..ProcessType$GT$15set_fault_state17hee6a6d4941d96761E+0x1c0>
20001046:	004a2503          	lw	a0,4(s4)
2000104a:	00ca2583          	lw	a1,12(s4)
2000104e:	45d0                	lw	a2,12(a1)
20001050:	00160693          	addi	a3,a2,1
20001054:	c5d4                	sw	a3,12(a1)
20001056:	00ca2423          	sw	a2,8(s4)
2000105a:	00aa2223          	sw	a0,4(s4)
2000105e:	00ca2503          	lw	a0,12(s4)
20001062:	00aa2023          	sw	a0,0(s4)
20001066:	234a4503          	lbu	a0,564(s4)
2000106a:	cd09                	beqz	a0,20001084 <_ZN82_$LT$kernel..process..Process$LT$C$GT$$u20$as$u20$kernel..process..ProcessType$GT$15set_fault_state17hee6a6d4941d96761E+0xb0>
2000106c:	4505                	li	a0,1
2000106e:	22aa0a23          	sb	a0,564(s4)
20001072:	4515                	li	a0,5
20001074:	20aa2c23          	sw	a0,536(s4)
20001078:	220a2823          	sw	zero,560(s4)
2000107c:	220a2623          	sw	zero,556(s4)
20001080:	200a2a23          	sw	zero,532(s4)
20001084:	03ca2b03          	lw	s6,60(s4)
20001088:	044a0913          	addi	s2,s4,68
2000108c:	854a                	mv	a0,s2
2000108e:	00006097          	auipc	ra,0x6
20001092:	96a080e7          	jalr	-1686(ra) # 200069f8 <_ZN6kernel9tbfheader9TbfHeader24get_init_function_offset17he2c02b8b32c47297E>
20001096:	8aaa                	mv	s5,a0
20001098:	020a2503          	lw	a0,32(s4)
2000109c:	00aa2e23          	sw	a0,28(s4)
200010a0:	028a2503          	lw	a0,40(s4)
200010a4:	02aa2223          	sw	a0,36(s4)
200010a8:	030a2503          	lw	a0,48(s4)
200010ac:	02aa2623          	sw	a0,44(s4)
200010b0:	038a2b83          	lw	s7,56(s4)
200010b4:	037a2a23          	sw	s7,52(s4)
200010b8:	060a0993          	addi	s3,s4,96
200010bc:	ed040493          	addi	s1,s0,-304
200010c0:	8526                	mv	a0,s1
200010c2:	85ce                	mv	a1,s3
200010c4:	08400613          	li	a2,132
200010c8:	0000a097          	auipc	ra,0xa
200010cc:	416080e7          	jalr	1046(ra) # 2000b4de <memcpy>
200010d0:	9ada                	add	s5,s5,s6
200010d2:	07c00513          	li	a0,124
200010d6:	4581                	li	a1,0
200010d8:	00a58963          	beq	a1,a0,200010ea <_ZN82_$LT$kernel..process..Process$LT$C$GT$$u20$as$u20$kernel..process..ProcessType$GT$15set_fault_state17hee6a6d4941d96761E+0x116>
200010dc:	00b48633          	add	a2,s1,a1
200010e0:	00062023          	sw	zero,0(a2)
200010e4:	0591                	addi	a1,a1,4
200010e6:	fea59be3          	bne	a1,a0,200010dc <_ZN82_$LT$kernel..process..Process$LT$C$GT$$u20$as$u20$kernel..process..ProcessType$GT$15set_fault_state17hee6a6d4941d96761E+0x108>
200010ea:	f4042823          	sw	zero,-176(s0)
200010ee:	f4042623          	sw	zero,-180(s0)
200010f2:	ed742a23          	sw	s7,-300(s0)
200010f6:	037a2a23          	sw	s7,52(s4)
200010fa:	8552                	mv	a0,s4
200010fc:	00000097          	auipc	ra,0x0
20001100:	ba0080e7          	jalr	-1120(ra) # 20000c9c <_ZN6kernel7process16Process$LT$C$GT$25debug_set_max_stack_depth17haa912d377bf7385eE>
20001104:	f5840493          	addi	s1,s0,-168
20001108:	ed040593          	addi	a1,s0,-304
2000110c:	8526                	mv	a0,s1
2000110e:	08400613          	li	a2,132
20001112:	0000a097          	auipc	ra,0xa
20001116:	3cc080e7          	jalr	972(ra) # 2000b4de <memcpy>
2000111a:	854e                	mv	a0,s3
2000111c:	85a6                	mv	a1,s1
2000111e:	fffff097          	auipc	ra,0xfffff
20001122:	186080e7          	jalr	390(ra) # 200002a4 <_ZN4core4cell13Cell$LT$T$GT$3set17h6c514a780c36573bE>
20001126:	854a                	mv	a0,s2
20001128:	00006097          	auipc	ra,0x6
2000112c:	8a6080e7          	jalr	-1882(ra) # 200069ce <_ZN6kernel9tbfheader9TbfHeader18get_protected_size17heece472e2d897d0aE>
20001130:	4599                	li	a1,6
20001132:	22ba0c23          	sb	a1,568(s4)
20001136:	1f4a2583          	lw	a1,500(s4)
2000113a:	0585                	addi	a1,a1,1
2000113c:	1eba2a23          	sw	a1,500(s4)
20001140:	1f0a4583          	lbu	a1,496(s4)
20001144:	c1b9                	beqz	a1,2000118a <_ZN82_$LT$kernel..process..Process$LT$C$GT$$u20$as$u20$kernel..process..ProcessType$GT$15set_fault_state17hee6a6d4941d96761E+0x1b6>
20001146:	1e0a0823          	sb	zero,496(s4)
2000114a:	014a2583          	lw	a1,20(s4)
2000114e:	018a2603          	lw	a2,24(s4)
20001152:	024a2683          	lw	a3,36(s4)
20001156:	f7542c23          	sw	s5,-136(s0)
2000115a:	f6d42a23          	sw	a3,-140(s0)
2000115e:	f6c42823          	sw	a2,-144(s0)
20001162:	f6b42623          	sw	a1,-148(s0)
20001166:	955a                	add	a0,a0,s6
20001168:	f6a42423          	sw	a0,-152(s0)
2000116c:	f4042e23          	sw	zero,-164(s0)
20001170:	f4042c23          	sw	zero,-168(s0)
20001174:	1e0a0513          	addi	a0,s4,480
20001178:	f5840593          	addi	a1,s0,-168
2000117c:	00009097          	auipc	ra,0x9
20001180:	ce6080e7          	jalr	-794(ra) # 20009e62 <_ZN106_$LT$kernel..common..ring_buffer..RingBuffer$LT$T$GT$$u20$as$u20$kernel..common..queue..Queue$LT$T$GT$$GT$7enqueue17h1485d6c9e9be0704E>
20001184:	4505                	li	a0,1
20001186:	1eaa0823          	sb	a0,496(s4)
2000118a:	00ca2503          	lw	a0,12(s4)
2000118e:	410c                	lw	a1,0(a0)
20001190:	0585                	addi	a1,a1,1
20001192:	c10c                	sw	a1,0(a0)
20001194:	10c12b83          	lw	s7,268(sp)
20001198:	11012b03          	lw	s6,272(sp)
2000119c:	11412a83          	lw	s5,276(sp)
200011a0:	11812a03          	lw	s4,280(sp)
200011a4:	11c12983          	lw	s3,284(sp)
200011a8:	12012903          	lw	s2,288(sp)
200011ac:	12412483          	lw	s1,292(sp)
200011b0:	12812403          	lw	s0,296(sp)
200011b4:	12c12083          	lw	ra,300(sp)
200011b8:	6155                	addi	sp,sp,304
200011ba:	8082                	ret
200011bc:	4585                	li	a1,1
200011be:	f6b42623          	sw	a1,-148(s0)
200011c2:	ed040593          	addi	a1,s0,-304
200011c6:	f6b42423          	sw	a1,-152(s0)
200011ca:	f6042023          	sw	zero,-160(s0)
200011ce:	f4a42e23          	sw	a0,-164(s0)
200011d2:	20007537          	lui	a0,0x20007
200011d6:	47250513          	addi	a0,a0,1138 # 20007472 <_ZN44_$LT$$RF$T$u20$as$u20$core..fmt..Display$GT$3fmt17h4dc4fd09425098fcE>
200011da:	eca42a23          	sw	a0,-300(s0)
200011de:	1f8a0513          	addi	a0,s4,504
200011e2:	eca42823          	sw	a0,-304(s0)
200011e6:	10001537          	lui	a0,0x10001
200011ea:	0b850513          	addi	a0,a0,184 # 100010b8 <.L__unnamed_18>
200011ee:	f4a42c23          	sw	a0,-168(s0)
200011f2:	10001537          	lui	a0,0x10001
200011f6:	0c850593          	addi	a1,a0,200 # 100010c8 <.L__unnamed_19>
200011fa:	f5840513          	addi	a0,s0,-168
200011fe:	00004097          	auipc	ra,0x4
20001202:	9ac080e7          	jalr	-1620(ra) # 20004baa <_ZN4core9panicking9panic_fmt17he3c5aeb68fe54ef4E>
20001206:	0000e097          	auipc	ra,0xe
2000120a:	9d6080e7          	jalr	-1578(ra) # 2000ebdc <abort>

2000120e <_ZN82_$LT$kernel..process..Process$LT$C$GT$$u20$as$u20$kernel..process..ProcessType$GT$16get_process_name17h7d0ec575a30a52ecE>:
2000120e:	1141                	addi	sp,sp,-16
20001210:	c606                	sw	ra,12(sp)
20001212:	c422                	sw	s0,8(sp)
20001214:	0800                	addi	s0,sp,16
20001216:	1f852603          	lw	a2,504(a0)
2000121a:	1fc52583          	lw	a1,508(a0)
2000121e:	8532                	mv	a0,a2
20001220:	4422                	lw	s0,8(sp)
20001222:	40b2                	lw	ra,12(sp)
20001224:	0141                	addi	sp,sp,16
20001226:	8082                	ret

20001228 <_ZN82_$LT$kernel..process..Process$LT$C$GT$$u20$as$u20$kernel..process..ProcessType$GT$16print_memory_map17h12673cff47aa73eaE>:
20001228:	7111                	addi	sp,sp,-256
2000122a:	df86                	sw	ra,252(sp)
2000122c:	dda2                	sw	s0,248(sp)
2000122e:	dba6                	sw	s1,244(sp)
20001230:	d9ca                	sw	s2,240(sp)
20001232:	d7ce                	sw	s3,236(sp)
20001234:	d5d2                	sw	s4,232(sp)
20001236:	d3d6                	sw	s5,228(sp)
20001238:	d1da                	sw	s6,224(sp)
2000123a:	cfde                	sw	s7,220(sp)
2000123c:	cde2                	sw	s8,216(sp)
2000123e:	cbe6                	sw	s9,212(sp)
20001240:	c9ea                	sw	s10,208(sp)
20001242:	c7ee                	sw	s11,204(sp)
20001244:	0200                	addi	s0,sp,256
20001246:	8c32                	mv	s8,a2
20001248:	89ae                	mv	s3,a1
2000124a:	84aa                	mv	s1,a0
2000124c:	4128                	lw	a0,64(a0)
2000124e:	03c4aa03          	lw	s4,60(s1)
20001252:	00aa0ab3          	add	s5,s4,a0
20001256:	f1542a23          	sw	s5,-236(s0)
2000125a:	f1442c23          	sw	s4,-232(s0)
2000125e:	04448513          	addi	a0,s1,68
20001262:	00005097          	auipc	ra,0x5
20001266:	76c080e7          	jalr	1900(ra) # 200069ce <_ZN6kernel9tbfheader9TbfHeader18get_protected_size17heece472e2d897d0aE>
2000126a:	f0a42e23          	sw	a0,-228(s0)
2000126e:	9552                	add	a0,a0,s4
20001270:	f2a42023          	sw	a0,-224(s0)
20001274:	40aa8533          	sub	a0,s5,a0
20001278:	f2a42223          	sw	a0,-220(s0)
2000127c:	4c8c                	lw	a1,24(s1)
2000127e:	48c8                	lw	a0,20(s1)
20001280:	95aa                	add	a1,a1,a0
20001282:	f2b42423          	sw	a1,-216(s0)
20001286:	4cd0                	lw	a2,28(s1)
20001288:	f2c42623          	sw	a2,-212(s0)
2000128c:	50d4                	lw	a3,36(s1)
2000128e:	f2d42823          	sw	a3,-208(s0)
20001292:	2344c683          	lbu	a3,564(s1)
20001296:	c69d                	beqz	a3,200012c4 <_ZN82_$LT$kernel..process..Process$LT$C$GT$$u20$as$u20$kernel..process..ProcessType$GT$16print_memory_map17h12673cff47aa73eaE+0x9c>
20001298:	4a85                	li	s5,1
2000129a:	23548a23          	sb	s5,564(s1)
2000129e:	2044a683          	lw	a3,516(s1)
200012a2:	f0d42423          	sw	a3,-248(s0)
200012a6:	2004a683          	lw	a3,512(s1)
200012aa:	f0d42823          	sw	a3,-240(s0)
200012ae:	2084aa03          	lw	s4,520(s1)
200012b2:	20c4a683          	lw	a3,524(s1)
200012b6:	f0d42623          	sw	a3,-244(s0)
200012ba:	23548a23          	sb	s5,564(s1)
200012be:	2104a683          	lw	a3,528(s1)
200012c2:	a031                	j	200012ce <_ZN82_$LT$kernel..process..Process$LT$C$GT$$u20$as$u20$kernel..process..ProcessType$GT$16print_memory_map17h12673cff47aa73eaE+0xa6>
200012c4:	4a01                	li	s4,0
200012c6:	f0042823          	sw	zero,-240(s0)
200012ca:	4a81                	li	s5,0
200012cc:	4681                	li	a3,0
200012ce:	f2d42a23          	sw	a3,-204(s0)
200012d2:	f2a42c23          	sw	a0,-200(s0)
200012d6:	40c58533          	sub	a0,a1,a2
200012da:	f2a42e23          	sw	a0,-196(s0)
200012de:	f4a42023          	sw	a0,-192(s0)
200012e2:	1f04c503          	lbu	a0,496(s1)
200012e6:	cd19                	beqz	a0,20001304 <_ZN82_$LT$kernel..process..Process$LT$C$GT$$u20$as$u20$kernel..process..ProcessType$GT$16print_memory_map17h12673cff47aa73eaE+0xdc>
200012e8:	1ec4a603          	lw	a2,492(s1)
200012ec:	1e84a583          	lw	a1,488(s1)
200012f0:	1e44a503          	lw	a0,484(s1)
200012f4:	00009097          	auipc	ra,0x9
200012f8:	b46080e7          	jalr	-1210(ra) # 20009e3a <_ZN106_$LT$kernel..common..ring_buffer..RingBuffer$LT$T$GT$$u20$as$u20$kernel..common..queue..Queue$LT$T$GT$$GT$3len17h63c07b7591620bfcE>
200012fc:	4585                	li	a1,1
200012fe:	1eb48823          	sb	a1,496(s1)
20001302:	a011                	j	20001306 <_ZN82_$LT$kernel..process..Process$LT$C$GT$$u20$as$u20$kernel..process..ProcessType$GT$16print_memory_map17h12673cff47aa73eaE+0xde>
20001304:	4501                	li	a0,0
20001306:	f4a42223          	sw	a0,-188(s0)
2000130a:	040a8463          	beqz	s5,20001352 <_ZN82_$LT$kernel..process..Process$LT$C$GT$$u20$as$u20$kernel..process..ProcessType$GT$16print_memory_map17h12673cff47aa73eaE+0x12a>
2000130e:	4505                	li	a0,1
20001310:	22a48a23          	sb	a0,564(s1)
20001314:	2144a583          	lw	a1,532(s1)
20001318:	f4b42423          	sw	a1,-184(s0)
2000131c:	2184ad83          	lw	s11,536(s1)
20001320:	2284a583          	lw	a1,552(s1)
20001324:	f4b42c23          	sw	a1,-168(s0)
20001328:	2244a583          	lw	a1,548(s1)
2000132c:	f4b42a23          	sw	a1,-172(s0)
20001330:	2204a583          	lw	a1,544(s1)
20001334:	f4b42823          	sw	a1,-176(s0)
20001338:	21c4a583          	lw	a1,540(s1)
2000133c:	f4b42623          	sw	a1,-180(s0)
20001340:	22a48a23          	sb	a0,564(s1)
20001344:	22a48a23          	sb	a0,564(s1)
20001348:	f4c40b13          	addi	s6,s0,-180
2000134c:	22c4a503          	lw	a0,556(s1)
20001350:	a039                	j	2000135e <_ZN82_$LT$kernel..process..Process$LT$C$GT$$u20$as$u20$kernel..process..ProcessType$GT$16print_memory_map17h12673cff47aa73eaE+0x136>
20001352:	f4042423          	sw	zero,-184(s0)
20001356:	4d99                	li	s11,6
20001358:	f4c40b13          	addi	s6,s0,-180
2000135c:	4501                	li	a0,0
2000135e:	f4a42e23          	sw	a0,-164(s0)
20001362:	1f44a503          	lw	a0,500(s1)
20001366:	f6a42023          	sw	a0,-160(s0)
2000136a:	f6040513          	addi	a0,s0,-160
2000136e:	23848583          	lb	a1,568(s1)
20001372:	faa42c23          	sw	a0,-72(s0)
20001376:	f5c40513          	addi	a0,s0,-164
2000137a:	faa42823          	sw	a0,-80(s0)
2000137e:	f4840513          	addi	a0,s0,-184
20001382:	faa42423          	sw	a0,-88(s0)
20001386:	20005537          	lui	a0,0x20005
2000138a:	b9250513          	addi	a0,a0,-1134 # 20004b92 <_ZN4core3fmt3num3imp52_$LT$impl$u20$core..fmt..Display$u20$for$u20$u32$GT$3fmt17hd33618c459eb254aE>
2000138e:	faa42e23          	sw	a0,-68(s0)
20001392:	faa42a23          	sw	a0,-76(s0)
20001396:	faa42623          	sw	a0,-84(s0)
2000139a:	faa42223          	sw	a0,-92(s0)
2000139e:	f4440513          	addi	a0,s0,-188
200013a2:	faa42023          	sw	a0,-96(s0)
200013a6:	20007537          	lui	a0,0x20007
200013aa:	a2250513          	addi	a0,a0,-1502 # 20006a22 <_ZN59_$LT$kernel..process..State$u20$as$u20$core..fmt..Debug$GT$3fmt17h71e90a0c72e19d61E>
200013ae:	f8a42e23          	sw	a0,-100(s0)
200013b2:	f7040913          	addi	s2,s0,-144
200013b6:	f9242c23          	sw	s2,-104(s0)
200013ba:	20007537          	lui	a0,0x20007
200013be:	47250513          	addi	a0,a0,1138 # 20007472 <_ZN44_$LT$$RF$T$u20$as$u20$core..fmt..Display$GT$3fmt17h4dc4fd09425098fcE>
200013c2:	f8a42a23          	sw	a0,-108(s0)
200013c6:	1f848513          	addi	a0,s1,504
200013ca:	f8a42823          	sw	a0,-112(s0)
200013ce:	f6b40823          	sb	a1,-144(s0)
200013d2:	f9040513          	addi	a0,s0,-112
200013d6:	8d2a                	mv	s10,a0
200013d8:	f8a42423          	sw	a0,-120(s0)
200013dc:	f8042023          	sw	zero,-128(s0)
200013e0:	451d                	li	a0,7
200013e2:	f6a42e23          	sw	a0,-132(s0)
200013e6:	10001537          	lui	a0,0x10001
200013ea:	0d850513          	addi	a0,a0,216 # 100010d8 <.L__unnamed_20>
200013ee:	f6a42c23          	sw	a0,-136(s0)
200013f2:	4b99                	li	s7,6
200013f4:	f9742623          	sw	s7,-116(s0)
200013f8:	014c2a83          	lw	s5,20(s8)
200013fc:	f7840c93          	addi	s9,s0,-136
20001400:	854e                	mv	a0,s3
20001402:	85e6                	mv	a1,s9
20001404:	9a82                	jalr	s5
20001406:	017d9d63          	bne	s11,s7,20001420 <_ZN82_$LT$kernel..process..Process$LT$C$GT$$u20$as$u20$kernel..process..ProcessType$GT$16print_memory_map17h12673cff47aa73eaE+0x1f8>
2000140a:	84ca                	mv	s1,s2
2000140c:	00cc2683          	lw	a3,12(s8)
20001410:	2000c537          	lui	a0,0x2000c
20001414:	c8b50593          	addi	a1,a0,-885 # 2000bc8b <.L__unnamed_21>
20001418:	854e                	mv	a0,s3
2000141a:	464d                	li	a2,19
2000141c:	9682                	jalr	a3
2000141e:	a8b9                	j	2000147c <_ZN82_$LT$kernel..process..Process$LT$C$GT$$u20$as$u20$kernel..process..ProcessType$GT$16print_memory_map17h12673cff47aa73eaE+0x254>
20001420:	f7b42c23          	sw	s11,-136(s0)
20001424:	000b2503          	lw	a0,0(s6)
20001428:	f6a42e23          	sw	a0,-132(s0)
2000142c:	004b2503          	lw	a0,4(s6)
20001430:	f8a42023          	sw	a0,-128(s0)
20001434:	008b2503          	lw	a0,8(s6)
20001438:	f8a42223          	sw	a0,-124(s0)
2000143c:	00cb2503          	lw	a0,12(s6)
20001440:	f8a42423          	sw	a0,-120(s0)
20001444:	84ca                	mv	s1,s2
20001446:	fb242023          	sw	s2,-96(s0)
2000144a:	f8042c23          	sw	zero,-104(s0)
2000144e:	4505                	li	a0,1
20001450:	faa42223          	sw	a0,-92(s0)
20001454:	f8a42a23          	sw	a0,-108(s0)
20001458:	10001537          	lui	a0,0x10001
2000145c:	11050513          	addi	a0,a0,272 # 10001110 <.L__unnamed_22>
20001460:	f8a42823          	sw	a0,-112(s0)
20001464:	20008537          	lui	a0,0x20008
20001468:	d9450513          	addi	a0,a0,-620 # 20007d94 <_ZN66_$LT$core..option..Option$LT$T$GT$$u20$as$u20$core..fmt..Debug$GT$3fmt17h2b9a9e804d33077aE>
2000146c:	f6a42a23          	sw	a0,-140(s0)
20001470:	f7942823          	sw	s9,-144(s0)
20001474:	f9040593          	addi	a1,s0,-112
20001478:	854e                	mv	a0,s3
2000147a:	9a82                	jalr	s5
2000147c:	8bd2                	mv	s7,s4
2000147e:	8dea                	mv	s11,s10
20001480:	f1042d03          	lw	s10,-240(s0)
20001484:	f3c42503          	lw	a0,-196(s0)
20001488:	f4042583          	lw	a1,-192(s0)
2000148c:	00a5e763          	bltu	a1,a0,2000149a <_ZN82_$LT$kernel..process..Process$LT$C$GT$$u20$as$u20$kernel..process..ProcessType$GT$16print_memory_map17h12673cff47aa73eaE+0x272>
20001490:	2000e537          	lui	a0,0x2000e
20001494:	b7450513          	addi	a0,a0,-1164 # 2000db74 <.Lanon.5734e79b67304b96ecc62fc75092324d.4>
20001498:	a029                	j	200014a2 <_ZN82_$LT$kernel..process..Process$LT$C$GT$$u20$as$u20$kernel..process..ProcessType$GT$16print_memory_map17h12673cff47aa73eaE+0x27a>
2000149a:	2000e537          	lui	a0,0x2000e
2000149e:	b6a50513          	addi	a0,a0,-1174 # 2000db6a <.Lanon.5734e79b67304b96ecc62fc75092324d.3>
200014a2:	8ca6                	mv	s9,s1
200014a4:	f9b42423          	sw	s11,-120(s0)
200014a8:	4599                	li	a1,6
200014aa:	f8b42623          	sw	a1,-116(s0)
200014ae:	f8b42223          	sw	a1,-124(s0)
200014b2:	459d                	li	a1,7
200014b4:	f6b42e23          	sw	a1,-132(s0)
200014b8:	f3040593          	addi	a1,s0,-208
200014bc:	fab42c23          	sw	a1,-72(s0)
200014c0:	f2c40593          	addi	a1,s0,-212
200014c4:	fab42823          	sw	a1,-80(s0)
200014c8:	200075b7          	lui	a1,0x20007
200014cc:	47258593          	addi	a1,a1,1138 # 20007472 <_ZN44_$LT$$RF$T$u20$as$u20$core..fmt..Display$GT$3fmt17h4dc4fd09425098fcE>
200014d0:	fab42623          	sw	a1,-84(s0)
200014d4:	fa942423          	sw	s1,-88(s0)
200014d8:	f4040593          	addi	a1,s0,-192
200014dc:	fab42023          	sw	a1,-96(s0)
200014e0:	200055b7          	lui	a1,0x20005
200014e4:	b9258593          	addi	a1,a1,-1134 # 20004b92 <_ZN4core3fmt3num3imp52_$LT$impl$u20$core..fmt..Display$u20$for$u20$u32$GT$3fmt17hd33618c459eb254aE>
200014e8:	fab42223          	sw	a1,-92(s0)
200014ec:	f8b42e23          	sw	a1,-100(s0)
200014f0:	f3c40593          	addi	a1,s0,-196
200014f4:	f8b42c23          	sw	a1,-104(s0)
200014f8:	200065b7          	lui	a1,0x20006
200014fc:	71458593          	addi	a1,a1,1812 # 20006714 <_ZN4core3fmt3num53_$LT$impl$u20$core..fmt..UpperHex$u20$for$u20$i32$GT$3fmt17had038f5c59c3e8e9E>
20001500:	fab42e23          	sw	a1,-68(s0)
20001504:	fab42a23          	sw	a1,-76(s0)
20001508:	f8b42a23          	sw	a1,-108(s0)
2000150c:	f2840593          	addi	a1,s0,-216
20001510:	f8b42823          	sw	a1,-112(s0)
20001514:	2000c5b7          	lui	a1,0x2000c
20001518:	f9058593          	addi	a1,a1,-112 # 2000bf90 <.L__unnamed_23>
2000151c:	f8b42023          	sw	a1,-128(s0)
20001520:	100015b7          	lui	a1,0x10001
20001524:	11858593          	addi	a1,a1,280 # 10001118 <.L__unnamed_24>
20001528:	f6b42c23          	sw	a1,-136(s0)
2000152c:	45a9                	li	a1,10
2000152e:	f6b42a23          	sw	a1,-140(s0)
20001532:	f6a42823          	sw	a0,-144(s0)
20001536:	f7840593          	addi	a1,s0,-136
2000153a:	854e                	mv	a0,s3
2000153c:	9a82                	jalr	s5
2000153e:	020d0563          	beqz	s10,20001568 <_ZN82_$LT$kernel..process..Process$LT$C$GT$$u20$as$u20$kernel..process..ProcessType$GT$16print_memory_map17h12673cff47aa73eaE+0x340>
20001542:	f0842603          	lw	a2,-248(s0)
20001546:	f6c42223          	sw	a2,-156(s0)
2000154a:	f3042503          	lw	a0,-208(s0)
2000154e:	40c505b3          	sub	a1,a0,a2
20001552:	f2c42503          	lw	a0,-212(s0)
20001556:	40c50633          	sub	a2,a0,a2
2000155a:	02b66263          	bltu	a2,a1,2000157e <_ZN82_$LT$kernel..process..Process$LT$C$GT$$u20$as$u20$kernel..process..ProcessType$GT$16print_memory_map17h12673cff47aa73eaE+0x356>
2000155e:	2000e537          	lui	a0,0x2000e
20001562:	b7450513          	addi	a0,a0,-1164 # 2000db74 <.Lanon.5734e79b67304b96ecc62fc75092324d.4>
20001566:	a005                	j	20001586 <_ZN82_$LT$kernel..process..Process$LT$C$GT$$u20$as$u20$kernel..process..ProcessType$GT$16print_memory_map17h12673cff47aa73eaE+0x35e>
20001568:	00cc2903          	lw	s2,12(s8)
2000156c:	2000c537          	lui	a0,0x2000c
20001570:	18450593          	addi	a1,a0,388 # 2000c184 <.L__unnamed_25>
20001574:	854e                	mv	a0,s3
20001576:	0d600613          	li	a2,214
2000157a:	9902                	jalr	s2
2000157c:	a209                	j	2000167e <_ZN82_$LT$kernel..process..Process$LT$C$GT$$u20$as$u20$kernel..process..ProcessType$GT$16print_memory_map17h12673cff47aa73eaE+0x456>
2000157e:	2000e537          	lui	a0,0x2000e
20001582:	b6a50513          	addi	a0,a0,-1174 # 2000db6a <.Lanon.5734e79b67304b96ecc62fc75092324d.3>
20001586:	f6b42423          	sw	a1,-152(s0)
2000158a:	f6c42623          	sw	a2,-148(s0)
2000158e:	f9b42423          	sw	s11,-120(s0)
20001592:	4591                	li	a1,4
20001594:	f8b42623          	sw	a1,-116(s0)
20001598:	f8b42223          	sw	a1,-124(s0)
2000159c:	2000c5b7          	lui	a1,0x2000c
200015a0:	10458593          	addi	a1,a1,260 # 2000c104 <.L__unnamed_26>
200015a4:	f8b42023          	sw	a1,-128(s0)
200015a8:	4595                	li	a1,5
200015aa:	f6b42e23          	sw	a1,-132(s0)
200015ae:	100015b7          	lui	a1,0x10001
200015b2:	15058593          	addi	a1,a1,336 # 10001150 <.L__unnamed_27>
200015b6:	f6b42c23          	sw	a1,-136(s0)
200015ba:	200065b7          	lui	a1,0x20006
200015be:	71458593          	addi	a1,a1,1812 # 20006714 <_ZN4core3fmt3num53_$LT$impl$u20$core..fmt..UpperHex$u20$for$u20$i32$GT$3fmt17had038f5c59c3e8e9E>
200015c2:	fab42623          	sw	a1,-84(s0)
200015c6:	f6440593          	addi	a1,s0,-156
200015ca:	fab42423          	sw	a1,-88(s0)
200015ce:	200075b7          	lui	a1,0x20007
200015d2:	47258593          	addi	a1,a1,1138 # 20007472 <_ZN44_$LT$$RF$T$u20$as$u20$core..fmt..Display$GT$3fmt17h4dc4fd09425098fcE>
200015d6:	fab42223          	sw	a1,-92(s0)
200015da:	fb942023          	sw	s9,-96(s0)
200015de:	f6c40b13          	addi	s6,s0,-148
200015e2:	f9642c23          	sw	s6,-104(s0)
200015e6:	200055b7          	lui	a1,0x20005
200015ea:	b9258593          	addi	a1,a1,-1134 # 20004b92 <_ZN4core3fmt3num3imp52_$LT$impl$u20$core..fmt..Display$u20$for$u20$u32$GT$3fmt17hd33618c459eb254aE>
200015ee:	f8b42e23          	sw	a1,-100(s0)
200015f2:	f8b42a23          	sw	a1,-108(s0)
200015f6:	f6840593          	addi	a1,s0,-152
200015fa:	f8b42823          	sw	a1,-112(s0)
200015fe:	45a9                	li	a1,10
20001600:	f6b42a23          	sw	a1,-140(s0)
20001604:	f6a42823          	sw	a0,-144(s0)
20001608:	f7840a13          	addi	s4,s0,-136
2000160c:	854e                	mv	a0,s3
2000160e:	85d2                	mv	a1,s4
20001610:	9a82                	jalr	s5
20001612:	060d0463          	beqz	s10,2000167a <_ZN82_$LT$kernel..process..Process$LT$C$GT$$u20$as$u20$kernel..process..ProcessType$GT$16print_memory_map17h12673cff47aa73eaE+0x452>
20001616:	060b8263          	beqz	s7,2000167a <_ZN82_$LT$kernel..process..Process$LT$C$GT$$u20$as$u20$kernel..process..ProcessType$GT$16print_memory_map17h12673cff47aa73eaE+0x452>
2000161a:	f0c42483          	lw	s1,-244(s0)
2000161e:	f0842503          	lw	a0,-248(s0)
20001622:	8d05                	sub	a0,a0,s1
20001624:	f6a42623          	sw	a0,-148(s0)
20001628:	f6a42823          	sw	a0,-144(s0)
2000162c:	fb442023          	sw	s4,-96(s0)
20001630:	4509                	li	a0,2
20001632:	faa42223          	sw	a0,-92(s0)
20001636:	f8a42e23          	sw	a0,-100(s0)
2000163a:	2000c537          	lui	a0,0x2000c
2000163e:	35c50513          	addi	a0,a0,860 # 2000c35c <.L__unnamed_28>
20001642:	f8a42c23          	sw	a0,-104(s0)
20001646:	450d                	li	a0,3
20001648:	f8a42a23          	sw	a0,-108(s0)
2000164c:	10001537          	lui	a0,0x10001
20001650:	17850513          	addi	a0,a0,376 # 10001178 <.L__unnamed_29>
20001654:	f8a42823          	sw	a0,-112(s0)
20001658:	f9942023          	sw	s9,-128(s0)
2000165c:	20005537          	lui	a0,0x20005
20001660:	b9250513          	addi	a0,a0,-1134 # 20004b92 <_ZN4core3fmt3num3imp52_$LT$impl$u20$core..fmt..Display$u20$for$u20$u32$GT$3fmt17hd33618c459eb254aE>
20001664:	f8a42223          	sw	a0,-124(s0)
20001668:	f6a42e23          	sw	a0,-132(s0)
2000166c:	f7642c23          	sw	s6,-136(s0)
20001670:	f9040593          	addi	a1,s0,-112
20001674:	854e                	mv	a0,s3
20001676:	9a82                	jalr	s5
20001678:	a839                	j	20001696 <_ZN82_$LT$kernel..process..Process$LT$C$GT$$u20$as$u20$kernel..process..ProcessType$GT$16print_memory_map17h12673cff47aa73eaE+0x46e>
2000167a:	00cc2903          	lw	s2,12(s8)
2000167e:	f0c42483          	lw	s1,-244(s0)
20001682:	2000c537          	lui	a0,0x2000c
20001686:	25a50593          	addi	a1,a0,602 # 2000c25a <.L__unnamed_30>
2000168a:	854e                	mv	a0,s3
2000168c:	03f00613          	li	a2,63
20001690:	9902                	jalr	s2
20001692:	0a0b8c63          	beqz	s7,2000174a <_ZN82_$LT$kernel..process..Process$LT$C$GT$$u20$as$u20$kernel..process..ProcessType$GT$16print_memory_map17h12673cff47aa73eaE+0x522>
20001696:	f6942223          	sw	s1,-156(s0)
2000169a:	f3442503          	lw	a0,-204(s0)
2000169e:	40a485b3          	sub	a1,s1,a0
200016a2:	f3842503          	lw	a0,-200(s0)
200016a6:	40a48633          	sub	a2,s1,a0
200016aa:	00b66763          	bltu	a2,a1,200016b8 <_ZN82_$LT$kernel..process..Process$LT$C$GT$$u20$as$u20$kernel..process..ProcessType$GT$16print_memory_map17h12673cff47aa73eaE+0x490>
200016ae:	2000e537          	lui	a0,0x2000e
200016b2:	b7450513          	addi	a0,a0,-1164 # 2000db74 <.Lanon.5734e79b67304b96ecc62fc75092324d.4>
200016b6:	a029                	j	200016c0 <_ZN82_$LT$kernel..process..Process$LT$C$GT$$u20$as$u20$kernel..process..ProcessType$GT$16print_memory_map17h12673cff47aa73eaE+0x498>
200016b8:	2000e537          	lui	a0,0x2000e
200016bc:	b6a50513          	addi	a0,a0,-1174 # 2000db6a <.Lanon.5734e79b67304b96ecc62fc75092324d.3>
200016c0:	f6b42423          	sw	a1,-152(s0)
200016c4:	f6c42623          	sw	a2,-148(s0)
200016c8:	f9b42423          	sw	s11,-120(s0)
200016cc:	2000c5b7          	lui	a1,0x2000c
200016d0:	44858593          	addi	a1,a1,1096 # 2000c448 <.L__unnamed_31>
200016d4:	f8b42023          	sw	a1,-128(s0)
200016d8:	4591                	li	a1,4
200016da:	f8b42623          	sw	a1,-116(s0)
200016de:	f8b42223          	sw	a1,-124(s0)
200016e2:	f6b42e23          	sw	a1,-132(s0)
200016e6:	100015b7          	lui	a1,0x10001
200016ea:	19058593          	addi	a1,a1,400 # 10001190 <.L__unnamed_32>
200016ee:	f6b42c23          	sw	a1,-136(s0)
200016f2:	200075b7          	lui	a1,0x20007
200016f6:	47258593          	addi	a1,a1,1138 # 20007472 <_ZN44_$LT$$RF$T$u20$as$u20$core..fmt..Display$GT$3fmt17h4dc4fd09425098fcE>
200016fa:	fab42623          	sw	a1,-84(s0)
200016fe:	fb942423          	sw	s9,-88(s0)
20001702:	f6c40593          	addi	a1,s0,-148
20001706:	fab42023          	sw	a1,-96(s0)
2000170a:	200055b7          	lui	a1,0x20005
2000170e:	b9258593          	addi	a1,a1,-1134 # 20004b92 <_ZN4core3fmt3num3imp52_$LT$impl$u20$core..fmt..Display$u20$for$u20$u32$GT$3fmt17hd33618c459eb254aE>
20001712:	fab42223          	sw	a1,-92(s0)
20001716:	f8b42e23          	sw	a1,-100(s0)
2000171a:	f6840593          	addi	a1,s0,-152
2000171e:	f8b42c23          	sw	a1,-104(s0)
20001722:	200065b7          	lui	a1,0x20006
20001726:	71458593          	addi	a1,a1,1812 # 20006714 <_ZN4core3fmt3num53_$LT$impl$u20$core..fmt..UpperHex$u20$for$u20$i32$GT$3fmt17had038f5c59c3e8e9E>
2000172a:	f8b42a23          	sw	a1,-108(s0)
2000172e:	f6440593          	addi	a1,s0,-156
20001732:	f8b42823          	sw	a1,-112(s0)
20001736:	45a9                	li	a1,10
20001738:	f6b42a23          	sw	a1,-140(s0)
2000173c:	f6a42823          	sw	a0,-144(s0)
20001740:	f7840593          	addi	a1,s0,-136
20001744:	854e                	mv	a0,s3
20001746:	9a82                	jalr	s5
20001748:	a809                	j	2000175a <_ZN82_$LT$kernel..process..Process$LT$C$GT$$u20$as$u20$kernel..process..ProcessType$GT$16print_memory_map17h12673cff47aa73eaE+0x532>
2000174a:	2000c537          	lui	a0,0x2000c
2000174e:	4c850593          	addi	a1,a0,1224 # 2000c4c8 <.L__unnamed_33>
20001752:	854e                	mv	a0,s3
20001754:	0c600613          	li	a2,198
20001758:	9902                	jalr	s2
2000175a:	f9b42423          	sw	s11,-120(s0)
2000175e:	451d                	li	a0,7
20001760:	f8a42623          	sw	a0,-116(s0)
20001764:	f8a42223          	sw	a0,-124(s0)
20001768:	4521                	li	a0,8
2000176a:	f6a42e23          	sw	a0,-132(s0)
2000176e:	f1840513          	addi	a0,s0,-232
20001772:	fca42023          	sw	a0,-64(s0)
20001776:	f1c40513          	addi	a0,s0,-228
2000177a:	faa42c23          	sw	a0,-72(s0)
2000177e:	f2040513          	addi	a0,s0,-224
20001782:	faa42823          	sw	a0,-80(s0)
20001786:	20005537          	lui	a0,0x20005
2000178a:	b9250513          	addi	a0,a0,-1134 # 20004b92 <_ZN4core3fmt3num3imp52_$LT$impl$u20$core..fmt..Display$u20$for$u20$u32$GT$3fmt17hd33618c459eb254aE>
2000178e:	faa42e23          	sw	a0,-68(s0)
20001792:	faa42623          	sw	a0,-84(s0)
20001796:	f2440513          	addi	a0,s0,-220
2000179a:	faa42423          	sw	a0,-88(s0)
2000179e:	f1440513          	addi	a0,s0,-236
200017a2:	faa42023          	sw	a0,-96(s0)
200017a6:	f3840513          	addi	a0,s0,-200
200017aa:	f8a42c23          	sw	a0,-104(s0)
200017ae:	20006537          	lui	a0,0x20006
200017b2:	71450513          	addi	a0,a0,1812 # 20006714 <_ZN4core3fmt3num53_$LT$impl$u20$core..fmt..UpperHex$u20$for$u20$i32$GT$3fmt17had038f5c59c3e8e9E>
200017b6:	fca42223          	sw	a0,-60(s0)
200017ba:	faa42a23          	sw	a0,-76(s0)
200017be:	faa42223          	sw	a0,-92(s0)
200017c2:	f8a42e23          	sw	a0,-100(s0)
200017c6:	f8a42a23          	sw	a0,-108(s0)
200017ca:	f3440513          	addi	a0,s0,-204
200017ce:	f8a42823          	sw	a0,-112(s0)
200017d2:	2000d537          	lui	a0,0x2000d
200017d6:	83c50513          	addi	a0,a0,-1988 # 2000c83c <.L__unnamed_34>
200017da:	f8a42023          	sw	a0,-128(s0)
200017de:	10001537          	lui	a0,0x10001
200017e2:	1b050513          	addi	a0,a0,432 # 100011b0 <.L__unnamed_35>
200017e6:	f6a42c23          	sw	a0,-136(s0)
200017ea:	f7840593          	addi	a1,s0,-136
200017ee:	854e                	mv	a0,s3
200017f0:	9a82                	jalr	s5
200017f2:	4dbe                	lw	s11,204(sp)
200017f4:	4d4e                	lw	s10,208(sp)
200017f6:	4cde                	lw	s9,212(sp)
200017f8:	4c6e                	lw	s8,216(sp)
200017fa:	4bfe                	lw	s7,220(sp)
200017fc:	5b0e                	lw	s6,224(sp)
200017fe:	5a9e                	lw	s5,228(sp)
20001800:	5a2e                	lw	s4,232(sp)
20001802:	59be                	lw	s3,236(sp)
20001804:	594e                	lw	s2,240(sp)
20001806:	54de                	lw	s1,244(sp)
20001808:	546e                	lw	s0,248(sp)
2000180a:	50fe                	lw	ra,252(sp)
2000180c:	6111                	addi	sp,sp,256
2000180e:	8082                	ret

20001810 <_ZN82_$LT$kernel..process..Process$LT$C$GT$$u20$as$u20$kernel..process..ProcessType$GT$17get_restart_count17h64e1169c5c5ba2abE>:
20001810:	1141                	addi	sp,sp,-16
20001812:	c606                	sw	ra,12(sp)
20001814:	c422                	sw	s0,8(sp)
20001816:	0800                	addi	s0,sp,16
20001818:	1f452503          	lw	a0,500(a0)
2000181c:	4422                	lw	s0,8(sp)
2000181e:	40b2                	lw	ra,12(sp)
20001820:	0141                	addi	sp,sp,16
20001822:	8082                	ret

20001824 <_ZN82_$LT$kernel..process..Process$LT$C$GT$$u20$as$u20$kernel..process..ProcessType$GT$17set_yielded_state17hab45915885214039E>:
20001824:	1141                	addi	sp,sp,-16
20001826:	c606                	sw	ra,12(sp)
20001828:	c422                	sw	s0,8(sp)
2000182a:	0800                	addi	s0,sp,16
2000182c:	23854583          	lbu	a1,568(a0)
20001830:	e981                	bnez	a1,20001840 <_ZN82_$LT$kernel..process..Process$LT$C$GT$$u20$as$u20$kernel..process..ProcessType$GT$17set_yielded_state17hab45915885214039E+0x1c>
20001832:	4585                	li	a1,1
20001834:	22b50c23          	sb	a1,568(a0)
20001838:	4548                	lw	a0,12(a0)
2000183a:	410c                	lw	a1,0(a0)
2000183c:	15fd                	addi	a1,a1,-1
2000183e:	c10c                	sw	a1,0(a0)
20001840:	4422                	lw	s0,8(sp)
20001842:	40b2                	lw	ra,12(sp)
20001844:	0141                	addi	sp,sp,16
20001846:	8082                	ret

20001848 <_ZN82_$LT$kernel..process..Process$LT$C$GT$$u20$as$u20$kernel..process..ProcessType$GT$18print_full_process17h6c1556f188eb7fc8E>:
20001848:	7105                	addi	sp,sp,-480
2000184a:	1c112e23          	sw	ra,476(sp)
2000184e:	1c812c23          	sw	s0,472(sp)
20001852:	1c912a23          	sw	s1,468(sp)
20001856:	1d212823          	sw	s2,464(sp)
2000185a:	1d312623          	sw	s3,460(sp)
2000185e:	1d412423          	sw	s4,456(sp)
20001862:	1d512223          	sw	s5,452(sp)
20001866:	1d612023          	sw	s6,448(sp)
2000186a:	1b712e23          	sw	s7,444(sp)
2000186e:	1b812c23          	sw	s8,440(sp)
20001872:	1380                	addi	s0,sp,480
20001874:	8a32                	mv	s4,a2
20001876:	892e                	mv	s2,a1
20001878:	8c2a                	mv	s8,a0
2000187a:	00000097          	auipc	ra,0x0
2000187e:	9ae080e7          	jalr	-1618(ra) # 20001228 <_ZN82_$LT$kernel..process..Process$LT$C$GT$$u20$as$u20$kernel..process..ProcessType$GT$16print_memory_map17h12673cff47aa73eaE>
20001882:	034c2b03          	lw	s6,52(s8)
20001886:	060c0593          	addi	a1,s8,96
2000188a:	e2040993          	addi	s3,s0,-480
2000188e:	854e                	mv	a0,s3
20001890:	08400613          	li	a2,132
20001894:	0000a097          	auipc	ra,0xa
20001898:	c4a080e7          	jalr	-950(ra) # 2000b4de <memcpy>
2000189c:	fd440a93          	addi	s5,s0,-44
200018a0:	fd542423          	sw	s5,-56(s0)
200018a4:	e9c40513          	addi	a0,s0,-356
200018a8:	fca42023          	sw	a0,-64(s0)
200018ac:	e9840513          	addi	a0,s0,-360
200018b0:	faa42c23          	sw	a0,-72(s0)
200018b4:	e5840513          	addi	a0,s0,-424
200018b8:	faa42823          	sw	a0,-80(s0)
200018bc:	e9440513          	addi	a0,s0,-364
200018c0:	faa42423          	sw	a0,-88(s0)
200018c4:	e5440513          	addi	a0,s0,-428
200018c8:	faa42023          	sw	a0,-96(s0)
200018cc:	e9040513          	addi	a0,s0,-368
200018d0:	f8a42c23          	sw	a0,-104(s0)
200018d4:	e5040513          	addi	a0,s0,-432
200018d8:	f8a42823          	sw	a0,-112(s0)
200018dc:	e8c40513          	addi	a0,s0,-372
200018e0:	f8a42423          	sw	a0,-120(s0)
200018e4:	e4c40513          	addi	a0,s0,-436
200018e8:	f8a42023          	sw	a0,-128(s0)
200018ec:	e8840513          	addi	a0,s0,-376
200018f0:	f6a42c23          	sw	a0,-136(s0)
200018f4:	e4840513          	addi	a0,s0,-440
200018f8:	f6a42823          	sw	a0,-144(s0)
200018fc:	e8440513          	addi	a0,s0,-380
20001900:	f6a42423          	sw	a0,-152(s0)
20001904:	e4440513          	addi	a0,s0,-444
20001908:	f6a42023          	sw	a0,-160(s0)
2000190c:	e8040513          	addi	a0,s0,-384
20001910:	f4a42c23          	sw	a0,-168(s0)
20001914:	e4040513          	addi	a0,s0,-448
20001918:	f4a42823          	sw	a0,-176(s0)
2000191c:	e7c40513          	addi	a0,s0,-388
20001920:	f4a42423          	sw	a0,-184(s0)
20001924:	e3c40513          	addi	a0,s0,-452
20001928:	f4a42023          	sw	a0,-192(s0)
2000192c:	e7840513          	addi	a0,s0,-392
20001930:	f2a42c23          	sw	a0,-200(s0)
20001934:	e3840513          	addi	a0,s0,-456
20001938:	f2a42823          	sw	a0,-208(s0)
2000193c:	e7440513          	addi	a0,s0,-396
20001940:	f2a42423          	sw	a0,-216(s0)
20001944:	e3440513          	addi	a0,s0,-460
20001948:	f2a42023          	sw	a0,-224(s0)
2000194c:	e7040513          	addi	a0,s0,-400
20001950:	f0a42c23          	sw	a0,-232(s0)
20001954:	e3040513          	addi	a0,s0,-464
20001958:	f0a42823          	sw	a0,-240(s0)
2000195c:	e6c40513          	addi	a0,s0,-404
20001960:	f0a42423          	sw	a0,-248(s0)
20001964:	e2c40513          	addi	a0,s0,-468
20001968:	f0a42023          	sw	a0,-256(s0)
2000196c:	e6840513          	addi	a0,s0,-408
20001970:	eea42c23          	sw	a0,-264(s0)
20001974:	e2840513          	addi	a0,s0,-472
20001978:	eea42823          	sw	a0,-272(s0)
2000197c:	e6440513          	addi	a0,s0,-412
20001980:	eea42423          	sw	a0,-280(s0)
20001984:	e2440513          	addi	a0,s0,-476
20001988:	eea42023          	sw	a0,-288(s0)
2000198c:	e6040513          	addi	a0,s0,-416
20001990:	eca42c23          	sw	a0,-296(s0)
20001994:	ed342823          	sw	s3,-304(s0)
20001998:	e5c40513          	addi	a0,s0,-420
2000199c:	eca42423          	sw	a0,-312(s0)
200019a0:	20006537          	lui	a0,0x20006
200019a4:	71450513          	addi	a0,a0,1812 # 20006714 <_ZN4core3fmt3num53_$LT$impl$u20$core..fmt..UpperHex$u20$for$u20$i32$GT$3fmt17had038f5c59c3e8e9E>
200019a8:	fca42623          	sw	a0,-52(s0)
200019ac:	fca42223          	sw	a0,-60(s0)
200019b0:	faa42e23          	sw	a0,-68(s0)
200019b4:	faa42a23          	sw	a0,-76(s0)
200019b8:	faa42623          	sw	a0,-84(s0)
200019bc:	faa42223          	sw	a0,-92(s0)
200019c0:	f8a42e23          	sw	a0,-100(s0)
200019c4:	f8a42a23          	sw	a0,-108(s0)
200019c8:	f8a42623          	sw	a0,-116(s0)
200019cc:	f8a42223          	sw	a0,-124(s0)
200019d0:	f6a42e23          	sw	a0,-132(s0)
200019d4:	f6a42a23          	sw	a0,-140(s0)
200019d8:	f6a42623          	sw	a0,-148(s0)
200019dc:	f6a42223          	sw	a0,-156(s0)
200019e0:	f4a42e23          	sw	a0,-164(s0)
200019e4:	f4a42a23          	sw	a0,-172(s0)
200019e8:	f4a42623          	sw	a0,-180(s0)
200019ec:	f4a42223          	sw	a0,-188(s0)
200019f0:	f2a42e23          	sw	a0,-196(s0)
200019f4:	f2a42a23          	sw	a0,-204(s0)
200019f8:	f2a42623          	sw	a0,-212(s0)
200019fc:	f2a42223          	sw	a0,-220(s0)
20001a00:	f0a42e23          	sw	a0,-228(s0)
20001a04:	f0a42a23          	sw	a0,-236(s0)
20001a08:	f0a42623          	sw	a0,-244(s0)
20001a0c:	f0a42223          	sw	a0,-252(s0)
20001a10:	eea42e23          	sw	a0,-260(s0)
20001a14:	eea42a23          	sw	a0,-268(s0)
20001a18:	eea42623          	sw	a0,-276(s0)
20001a1c:	eea42223          	sw	a0,-284(s0)
20001a20:	eca42e23          	sw	a0,-292(s0)
20001a24:	eca42a23          	sw	a0,-300(s0)
20001a28:	eca42623          	sw	a0,-308(s0)
20001a2c:	eca42223          	sw	a0,-316(s0)
20001a30:	2000c537          	lui	a0,0x2000c
20001a34:	e5850513          	addi	a0,a0,-424 # 2000be58 <anon.94f59e978f0f32a54617dd47149c5ef2.0.llvm.1410106067623364693+0x10>
20001a38:	eca42023          	sw	a0,-320(s0)
20001a3c:	fd642a23          	sw	s6,-44(s0)
20001a40:	ec040513          	addi	a0,s0,-320
20001a44:	eaa42c23          	sw	a0,-328(s0)
20001a48:	02200513          	li	a0,34
20001a4c:	eaa42e23          	sw	a0,-324(s0)
20001a50:	eaa42a23          	sw	a0,-332(s0)
20001a54:	2000e537          	lui	a0,0x2000e
20001a58:	70850513          	addi	a0,a0,1800 # 2000e708 <.Lanon.8ca5636dd11a6a5d568a68f45e99022f.37>
20001a5c:	eaa42823          	sw	a0,-336(s0)
20001a60:	02300513          	li	a0,35
20001a64:	eaa42623          	sw	a0,-340(s0)
20001a68:	10002537          	lui	a0,0x10002
20001a6c:	e8c50513          	addi	a0,a0,-372 # 10001e8c <.Lanon.8ca5636dd11a6a5d568a68f45e99022f.35>
20001a70:	eaa42423          	sw	a0,-344(s0)
20001a74:	014a2b03          	lw	s6,20(s4)
20001a78:	ea840a13          	addi	s4,s0,-344
20001a7c:	854a                	mv	a0,s2
20001a7e:	85d2                	mv	a1,s4
20001a80:	9b02                	jalr	s6
20001a82:	194c4503          	lbu	a0,404(s8)
20001a86:	c521                	beqz	a0,20001ace <_ZN82_$LT$kernel..process..Process$LT$C$GT$$u20$as$u20$kernel..process..ProcessType$GT$18print_full_process17h6c1556f188eb7fc8E+0x286>
20001a88:	180c0a23          	sb	zero,404(s8)
20001a8c:	0f0c0513          	addi	a0,s8,240
20001a90:	eaa42423          	sw	a0,-344(s0)
20001a94:	ed342823          	sw	s3,-304(s0)
20001a98:	ec042423          	sw	zero,-312(s0)
20001a9c:	10002537          	lui	a0,0x10002
20001aa0:	94c50513          	addi	a0,a0,-1716 # 1000194c <.L__unnamed_36>
20001aa4:	eca42023          	sw	a0,-320(s0)
20001aa8:	20008537          	lui	a0,0x20008
20001aac:	d2c50513          	addi	a0,a0,-724 # 20007d2c <_ZN52_$LT$$RF$mut$u20$T$u20$as$u20$core..fmt..Display$GT$3fmt17he53e332a23761551E>
20001ab0:	e2a42223          	sw	a0,-476(s0)
20001ab4:	e3442023          	sw	s4,-480(s0)
20001ab8:	4b85                	li	s7,1
20001aba:	ed742a23          	sw	s7,-300(s0)
20001abe:	ed742223          	sw	s7,-316(s0)
20001ac2:	ec040593          	addi	a1,s0,-320
20001ac6:	854a                	mv	a0,s2
20001ac8:	9b02                	jalr	s6
20001aca:	197c0a23          	sb	s7,404(s8)
20001ace:	014c2503          	lw	a0,20(s8)
20001ad2:	fca42a23          	sw	a0,-44(s0)
20001ad6:	03cc2483          	lw	s1,60(s8)
20001ada:	044c0513          	addi	a0,s8,68
20001ade:	00005097          	auipc	ra,0x5
20001ae2:	f1a080e7          	jalr	-230(ra) # 200069f8 <_ZN6kernel9tbfheader9TbfHeader24get_init_function_offset17he2c02b8b32c47297E>
20001ae6:	9526                	add	a0,a0,s1
20001ae8:	eaa42423          	sw	a0,-344(s0)
20001aec:	ed342823          	sw	s3,-304(s0)
20001af0:	4509                	li	a0,2
20001af2:	eca42a23          	sw	a0,-300(s0)
20001af6:	eca42623          	sw	a0,-308(s0)
20001afa:	2000d537          	lui	a0,0x2000d
20001afe:	98050513          	addi	a0,a0,-1664 # 2000c980 <.L__unnamed_37>
20001b02:	eca42423          	sw	a0,-312(s0)
20001b06:	450d                	li	a0,3
20001b08:	eca42223          	sw	a0,-316(s0)
20001b0c:	10001537          	lui	a0,0x10001
20001b10:	1f050513          	addi	a0,a0,496 # 100011f0 <.L__unnamed_38>
20001b14:	eca42023          	sw	a0,-320(s0)
20001b18:	e3442423          	sw	s4,-472(s0)
20001b1c:	20006537          	lui	a0,0x20006
20001b20:	69050513          	addi	a0,a0,1680 # 20006690 <_ZN4core3fmt3num53_$LT$impl$u20$core..fmt..LowerHex$u20$for$u20$i32$GT$3fmt17h6cea225f5f2f55d7E>
20001b24:	e2a42623          	sw	a0,-468(s0)
20001b28:	e2a42223          	sw	a0,-476(s0)
20001b2c:	e3542023          	sw	s5,-480(s0)
20001b30:	ec040593          	addi	a1,s0,-320
20001b34:	854a                	mv	a0,s2
20001b36:	9b02                	jalr	s6
20001b38:	1b812c03          	lw	s8,440(sp)
20001b3c:	1bc12b83          	lw	s7,444(sp)
20001b40:	1c012b03          	lw	s6,448(sp)
20001b44:	1c412a83          	lw	s5,452(sp)
20001b48:	1c812a03          	lw	s4,456(sp)
20001b4c:	1cc12983          	lw	s3,460(sp)
20001b50:	1d012903          	lw	s2,464(sp)
20001b54:	1d412483          	lw	s1,468(sp)
20001b58:	1d812403          	lw	s0,472(sp)
20001b5c:	1dc12083          	lw	ra,476(sp)
20001b60:	613d                	addi	sp,sp,480
20001b62:	8082                	ret

20001b64 <_ZN82_$LT$kernel..process..Process$LT$C$GT$$u20$as$u20$kernel..process..ProcessType$GT$19debug_syscall_count17h7be1b9fb71e1c809E>:
20001b64:	1141                	addi	sp,sp,-16
20001b66:	c606                	sw	ra,12(sp)
20001b68:	c422                	sw	s0,8(sp)
20001b6a:	0800                	addi	s0,sp,16
20001b6c:	23454583          	lbu	a1,564(a0)
20001b70:	c599                	beqz	a1,20001b7e <_ZN82_$LT$kernel..process..Process$LT$C$GT$$u20$as$u20$kernel..process..ProcessType$GT$19debug_syscall_count17h7be1b9fb71e1c809E+0x1a>
20001b72:	4585                	li	a1,1
20001b74:	22b50a23          	sb	a1,564(a0)
20001b78:	21452503          	lw	a0,532(a0)
20001b7c:	a011                	j	20001b80 <_ZN82_$LT$kernel..process..Process$LT$C$GT$$u20$as$u20$kernel..process..ProcessType$GT$19debug_syscall_count17h7be1b9fb71e1c809E+0x1c>
20001b7e:	4501                	li	a0,0
20001b80:	4422                	lw	s0,8(sp)
20001b82:	40b2                	lw	ra,12(sp)
20001b84:	0141                	addi	sp,sp,16
20001b86:	8082                	ret

20001b88 <_ZN82_$LT$kernel..process..Process$LT$C$GT$$u20$as$u20$kernel..process..ProcessType$GT$19kernel_memory_break17h39591df11644f530E>:
20001b88:	1141                	addi	sp,sp,-16
20001b8a:	c606                	sw	ra,12(sp)
20001b8c:	c422                	sw	s0,8(sp)
20001b8e:	0800                	addi	s0,sp,16
20001b90:	4d48                	lw	a0,28(a0)
20001b92:	4422                	lw	s0,8(sp)
20001b94:	40b2                	lw	ra,12(sp)
20001b96:	0141                	addi	sp,sp,16
20001b98:	8082                	ret

20001b9a <_ZN82_$LT$kernel..process..Process$LT$C$GT$$u20$as$u20$kernel..process..ProcessType$GT$20debug_syscall_called17hf2cf31902d7fca20E>:
20001b9a:	1141                	addi	sp,sp,-16
20001b9c:	c606                	sw	ra,12(sp)
20001b9e:	c422                	sw	s0,8(sp)
20001ba0:	c226                	sw	s1,4(sp)
20001ba2:	0800                	addi	s0,sp,16
20001ba4:	84aa                	mv	s1,a0
20001ba6:	23454503          	lbu	a0,564(a0)
20001baa:	c105                	beqz	a0,20001bca <_ZN82_$LT$kernel..process..Process$LT$C$GT$$u20$as$u20$kernel..process..ProcessType$GT$20debug_syscall_called17hf2cf31902d7fca20E+0x30>
20001bac:	2144a503          	lw	a0,532(s1)
20001bb0:	0505                	addi	a0,a0,1
20001bb2:	20a4aa23          	sw	a0,532(s1)
20001bb6:	21848513          	addi	a0,s1,536
20001bba:	4651                	li	a2,20
20001bbc:	0000a097          	auipc	ra,0xa
20001bc0:	922080e7          	jalr	-1758(ra) # 2000b4de <memcpy>
20001bc4:	4505                	li	a0,1
20001bc6:	22a48a23          	sb	a0,564(s1)
20001bca:	4492                	lw	s1,4(sp)
20001bcc:	4422                	lw	s0,8(sp)
20001bce:	40b2                	lw	ra,12(sp)
20001bd0:	0141                	addi	sp,sp,16
20001bd2:	8082                	ret

20001bd4 <_ZN82_$LT$kernel..process..Process$LT$C$GT$$u20$as$u20$kernel..process..ProcessType$GT$20set_process_function17h03a7df5664f5129aE>:
20001bd4:	712d                	addi	sp,sp,-288
20001bd6:	10112e23          	sw	ra,284(sp)
20001bda:	10812c23          	sw	s0,280(sp)
20001bde:	10912a23          	sw	s1,276(sp)
20001be2:	11212823          	sw	s2,272(sp)
20001be6:	11312623          	sw	s3,268(sp)
20001bea:	11412423          	sw	s4,264(sp)
20001bee:	11512223          	sw	s5,260(sp)
20001bf2:	11612023          	sw	s6,256(sp)
20001bf6:	dfde                	sw	s7,252(sp)
20001bf8:	dde2                	sw	s8,248(sp)
20001bfa:	dbe6                	sw	s9,244(sp)
20001bfc:	d9ea                	sw	s10,240(sp)
20001bfe:	1200                	addi	s0,sp,288
20001c00:	892e                	mv	s2,a1
20001c02:	84aa                	mv	s1,a0
20001c04:	06450593          	addi	a1,a0,100
20001c08:	f2840993          	addi	s3,s0,-216
20001c0c:	854e                	mv	a0,s3
20001c0e:	02000613          	li	a2,32
20001c12:	0000a097          	auipc	ra,0xa
20001c16:	8cc080e7          	jalr	-1844(ra) # 2000b4de <memcpy>
20001c1a:	09448593          	addi	a1,s1,148
20001c1e:	ee040a13          	addi	s4,s0,-288
20001c22:	8552                	mv	a0,s4
20001c24:	04800613          	li	a2,72
20001c28:	0000a097          	auipc	ra,0xa
20001c2c:	8b6080e7          	jalr	-1866(ra) # 2000b4de <memcpy>
20001c30:	01c92a83          	lw	s5,28(s2)
20001c34:	00c92b03          	lw	s6,12(s2)
20001c38:	01092b83          	lw	s7,16(s2)
20001c3c:	01492c03          	lw	s8,20(s2)
20001c40:	01892903          	lw	s2,24(s2)
20001c44:	44c8                	lw	a0,12(s1)
20001c46:	410c                	lw	a1,0(a0)
20001c48:	0585                	addi	a1,a1,1
20001c4a:	0e04ac83          	lw	s9,224(s1)
20001c4e:	0dc4ad03          	lw	s10,220(s1)
20001c52:	58d0                	lw	a2,52(s1)
20001c54:	c10c                	sw	a1,0(a0)
20001c56:	d8d0                	sw	a2,52(s1)
20001c58:	22048c23          	sb	zero,568(s1)
20001c5c:	8526                	mv	a0,s1
20001c5e:	fffff097          	auipc	ra,0xfffff
20001c62:	03e080e7          	jalr	62(ra) # 20000c9c <_ZN6kernel7process16Process$LT$C$GT$25debug_set_max_stack_depth17haa912d377bf7385eE>
20001c66:	f5a42423          	sw	s10,-184(s0)
20001c6a:	f4c40513          	addi	a0,s0,-180
20001c6e:	85ce                	mv	a1,s3
20001c70:	02000613          	li	a2,32
20001c74:	0000a097          	auipc	ra,0xa
20001c78:	86a080e7          	jalr	-1942(ra) # 2000b4de <memcpy>
20001c7c:	f7242c23          	sw	s2,-136(s0)
20001c80:	f7842a23          	sw	s8,-140(s0)
20001c84:	f7742823          	sw	s7,-144(s0)
20001c88:	f7642623          	sw	s6,-148(s0)
20001c8c:	f7c40513          	addi	a0,s0,-132
20001c90:	85d2                	mv	a1,s4
20001c92:	04800613          	li	a2,72
20001c96:	0000a097          	auipc	ra,0xa
20001c9a:	848080e7          	jalr	-1976(ra) # 2000b4de <memcpy>
20001c9e:	fd942423          	sw	s9,-56(s0)
20001ca2:	fd542223          	sw	s5,-60(s0)
20001ca6:	06048513          	addi	a0,s1,96
20001caa:	f4840593          	addi	a1,s0,-184
20001cae:	ffffe097          	auipc	ra,0xffffe
20001cb2:	5f6080e7          	jalr	1526(ra) # 200002a4 <_ZN4core4cell13Cell$LT$T$GT$3set17h6c514a780c36573bE>
20001cb6:	5d4e                	lw	s10,240(sp)
20001cb8:	5cde                	lw	s9,244(sp)
20001cba:	5c6e                	lw	s8,248(sp)
20001cbc:	5bfe                	lw	s7,252(sp)
20001cbe:	10012b03          	lw	s6,256(sp)
20001cc2:	10412a83          	lw	s5,260(sp)
20001cc6:	10812a03          	lw	s4,264(sp)
20001cca:	10c12983          	lw	s3,268(sp)
20001cce:	11012903          	lw	s2,272(sp)
20001cd2:	11412483          	lw	s1,276(sp)
20001cd6:	11812403          	lw	s0,280(sp)
20001cda:	11c12083          	lw	ra,284(sp)
20001cde:	6115                	addi	sp,sp,288
20001ce0:	8082                	ret

20001ce2 <_ZN82_$LT$kernel..process..Process$LT$C$GT$$u20$as$u20$kernel..process..ProcessType$GT$23debug_timeslice_expired17hb3113ef913e5db8fE>:
20001ce2:	1141                	addi	sp,sp,-16
20001ce4:	c606                	sw	ra,12(sp)
20001ce6:	c422                	sw	s0,8(sp)
20001ce8:	0800                	addi	s0,sp,16
20001cea:	23454583          	lbu	a1,564(a0)
20001cee:	c989                	beqz	a1,20001d00 <_ZN82_$LT$kernel..process..Process$LT$C$GT$$u20$as$u20$kernel..process..ProcessType$GT$23debug_timeslice_expired17hb3113ef913e5db8fE+0x1e>
20001cf0:	4585                	li	a1,1
20001cf2:	22b50a23          	sb	a1,564(a0)
20001cf6:	23052583          	lw	a1,560(a0)
20001cfa:	0585                	addi	a1,a1,1
20001cfc:	22b52823          	sw	a1,560(a0)
20001d00:	4422                	lw	s0,8(sp)
20001d02:	40b2                	lw	ra,12(sp)
20001d04:	0141                	addi	sp,sp,16
20001d06:	8082                	ret

20001d08 <_ZN82_$LT$kernel..process..Process$LT$C$GT$$u20$as$u20$kernel..process..ProcessType$GT$24remove_pending_callbacks17hb17bb095773fa4f8E>:
20001d08:	711d                	addi	sp,sp,-96
20001d0a:	ce86                	sw	ra,92(sp)
20001d0c:	cca2                	sw	s0,88(sp)
20001d0e:	caa6                	sw	s1,84(sp)
20001d10:	c8ca                	sw	s2,80(sp)
20001d12:	c6ce                	sw	s3,76(sp)
20001d14:	c4d2                	sw	s4,72(sp)
20001d16:	c2d6                	sw	s5,68(sp)
20001d18:	c0da                	sw	s6,64(sp)
20001d1a:	de5e                	sw	s7,60(sp)
20001d1c:	dc62                	sw	s8,56(sp)
20001d1e:	da66                	sw	s9,52(sp)
20001d20:	d86a                	sw	s10,48(sp)
20001d22:	d66e                	sw	s11,44(sp)
20001d24:	1080                	addi	s0,sp,96
20001d26:	8a2a                	mv	s4,a0
20001d28:	1f054503          	lbu	a0,496(a0)
20001d2c:	c145                	beqz	a0,20001dcc <_ZN82_$LT$kernel..process..Process$LT$C$GT$$u20$as$u20$kernel..process..ProcessType$GT$24remove_pending_callbacks17hb17bb095773fa4f8E+0xc4>
20001d2e:	8932                	mv	s2,a2
20001d30:	89ae                	mv	s3,a1
20001d32:	1e0a0823          	sb	zero,496(s4)
20001d36:	1e8a2a83          	lw	s5,488(s4)
20001d3a:	1e4a2c03          	lw	s8,484(s4)
20001d3e:	02400c93          	li	s9,36
20001d42:	4d05                	li	s10,1
20001d44:	fa840b13          	addi	s6,s0,-88
20001d48:	8bd6                	mv	s7,s5
20001d4a:	1eca2503          	lw	a0,492(s4)
20001d4e:	06ab8a63          	beq	s7,a0,20001dc2 <_ZN82_$LT$kernel..process..Process$LT$C$GT$$u20$as$u20$kernel..process..ProcessType$GT$24remove_pending_callbacks17hb17bb095773fa4f8E+0xba>
20001d52:	1e4a2483          	lw	s1,484(s4)
20001d56:	089bfa63          	bgeu	s7,s1,20001dea <_ZN82_$LT$kernel..process..Process$LT$C$GT$$u20$as$u20$kernel..process..ProcessType$GT$24remove_pending_callbacks17hb17bb095773fa4f8E+0xe2>
20001d5a:	039b8533          	mul	a0,s7,s9
20001d5e:	1e0a2d83          	lw	s11,480(s4)
20001d62:	00ad85b3          	add	a1,s11,a0
20001d66:	4188                	lw	a0,0(a1)
20001d68:	ed09                	bnez	a0,20001d82 <_ZN82_$LT$kernel..process..Process$LT$C$GT$$u20$as$u20$kernel..process..ProcessType$GT$24remove_pending_callbacks17hb17bb095773fa4f8E+0x7a>
20001d6a:	41c8                	lw	a0,4(a1)
20001d6c:	01a51b63          	bne	a0,s10,20001d82 <_ZN82_$LT$kernel..process..Process$LT$C$GT$$u20$as$u20$kernel..process..ProcessType$GT$24remove_pending_callbacks17hb17bb095773fa4f8E+0x7a>
20001d70:	4588                	lw	a0,8(a1)
20001d72:	01351863          	bne	a0,s3,20001d82 <_ZN82_$LT$kernel..process..Process$LT$C$GT$$u20$as$u20$kernel..process..ProcessType$GT$24remove_pending_callbacks17hb17bb095773fa4f8E+0x7a>
20001d76:	45c8                	lw	a0,12(a1)
20001d78:	01251563          	bne	a0,s2,20001d82 <_ZN82_$LT$kernel..process..Process$LT$C$GT$$u20$as$u20$kernel..process..ProcessType$GT$24remove_pending_callbacks17hb17bb095773fa4f8E+0x7a>
20001d7c:	020c1e63          	bnez	s8,20001db8 <_ZN82_$LT$kernel..process..Process$LT$C$GT$$u20$as$u20$kernel..process..ProcessType$GT$24remove_pending_callbacks17hb17bb095773fa4f8E+0xb0>
20001d80:	a85d                	j	20001e36 <_ZN82_$LT$kernel..process..Process$LT$C$GT$$u20$as$u20$kernel..process..ProcessType$GT$24remove_pending_callbacks17hb17bb095773fa4f8E+0x12e>
20001d82:	035b8563          	beq	s7,s5,20001dac <_ZN82_$LT$kernel..process..Process$LT$C$GT$$u20$as$u20$kernel..process..ProcessType$GT$24remove_pending_callbacks17hb17bb095773fa4f8E+0xa4>
20001d86:	855a                	mv	a0,s6
20001d88:	02400613          	li	a2,36
20001d8c:	00009097          	auipc	ra,0x9
20001d90:	752080e7          	jalr	1874(ra) # 2000b4de <memcpy>
20001d94:	089af363          	bgeu	s5,s1,20001e1a <_ZN82_$LT$kernel..process..Process$LT$C$GT$$u20$as$u20$kernel..process..ProcessType$GT$24remove_pending_callbacks17hb17bb095773fa4f8E+0x112>
20001d98:	039a8533          	mul	a0,s5,s9
20001d9c:	956e                	add	a0,a0,s11
20001d9e:	85da                	mv	a1,s6
20001da0:	02400613          	li	a2,36
20001da4:	00009097          	auipc	ra,0x9
20001da8:	73a080e7          	jalr	1850(ra) # 2000b4de <memcpy>
20001dac:	040c0563          	beqz	s8,20001df6 <_ZN82_$LT$kernel..process..Process$LT$C$GT$$u20$as$u20$kernel..process..ProcessType$GT$24remove_pending_callbacks17hb17bb095773fa4f8E+0xee>
20001db0:	001a8513          	addi	a0,s5,1
20001db4:	03857ab3          	remu	s5,a0,s8
20001db8:	001b8513          	addi	a0,s7,1
20001dbc:	03857bb3          	remu	s7,a0,s8
20001dc0:	b769                	j	20001d4a <_ZN82_$LT$kernel..process..Process$LT$C$GT$$u20$as$u20$kernel..process..ProcessType$GT$24remove_pending_callbacks17hb17bb095773fa4f8E+0x42>
20001dc2:	4505                	li	a0,1
20001dc4:	1eaa0823          	sb	a0,496(s4)
20001dc8:	1f5a2623          	sw	s5,492(s4)
20001dcc:	5db2                	lw	s11,44(sp)
20001dce:	5d42                	lw	s10,48(sp)
20001dd0:	5cd2                	lw	s9,52(sp)
20001dd2:	5c62                	lw	s8,56(sp)
20001dd4:	5bf2                	lw	s7,60(sp)
20001dd6:	4b06                	lw	s6,64(sp)
20001dd8:	4a96                	lw	s5,68(sp)
20001dda:	4a26                	lw	s4,72(sp)
20001ddc:	49b6                	lw	s3,76(sp)
20001dde:	4946                	lw	s2,80(sp)
20001de0:	44d6                	lw	s1,84(sp)
20001de2:	4466                	lw	s0,88(sp)
20001de4:	40f6                	lw	ra,92(sp)
20001de6:	6125                	addi	sp,sp,96
20001de8:	8082                	ret
20001dea:	10002537          	lui	a0,0x10002
20001dee:	b8850513          	addi	a0,a0,-1144 # 10001b88 <.L__unnamed_39>
20001df2:	85de                	mv	a1,s7
20001df4:	a805                	j	20001e24 <_ZN82_$LT$kernel..process..Process$LT$C$GT$$u20$as$u20$kernel..process..ProcessType$GT$24remove_pending_callbacks17hb17bb095773fa4f8E+0x11c>
20001df6:	2000e537          	lui	a0,0x2000e
20001dfa:	f8050513          	addi	a0,a0,-128 # 2000df80 <str.0.921>
20001dfe:	100025b7          	lui	a1,0x10002
20001e02:	ba858613          	addi	a2,a1,-1112 # 10001ba8 <.L__unnamed_40>
20001e06:	03900593          	li	a1,57
20001e0a:	00003097          	auipc	ra,0x3
20001e0e:	cd6080e7          	jalr	-810(ra) # 20004ae0 <_ZN4core9panicking5panic17haaa649c2263e8176E>
20001e12:	0000d097          	auipc	ra,0xd
20001e16:	dca080e7          	jalr	-566(ra) # 2000ebdc <abort>
20001e1a:	10002537          	lui	a0,0x10002
20001e1e:	b9850513          	addi	a0,a0,-1128 # 10001b98 <.L__unnamed_41>
20001e22:	85d6                	mv	a1,s5
20001e24:	8626                	mv	a2,s1
20001e26:	00003097          	auipc	ra,0x3
20001e2a:	d02080e7          	jalr	-766(ra) # 20004b28 <_ZN4core9panicking18panic_bounds_check17h95c8cd8536e82dafE>
20001e2e:	0000d097          	auipc	ra,0xd
20001e32:	dae080e7          	jalr	-594(ra) # 2000ebdc <abort>
20001e36:	2000e537          	lui	a0,0x2000e
20001e3a:	f8050513          	addi	a0,a0,-128 # 2000df80 <str.0.921>
20001e3e:	100025b7          	lui	a1,0x10002
20001e42:	bb858613          	addi	a2,a1,-1096 # 10001bb8 <.L__unnamed_42>
20001e46:	b7c1                	j	20001e06 <_ZN82_$LT$kernel..process..Process$LT$C$GT$$u20$as$u20$kernel..process..ProcessType$GT$24remove_pending_callbacks17hb17bb095773fa4f8E+0xfe>

20001e48 <_ZN82_$LT$kernel..process..Process$LT$C$GT$$u20$as$u20$kernel..process..ProcessType$GT$24set_syscall_return_value17h567bee1181193e2dE>:
20001e48:	7135                	addi	sp,sp,-160
20001e4a:	cf06                	sw	ra,156(sp)
20001e4c:	cd22                	sw	s0,152(sp)
20001e4e:	cb26                	sw	s1,148(sp)
20001e50:	c94a                	sw	s2,144(sp)
20001e52:	c74e                	sw	s3,140(sp)
20001e54:	c552                	sw	s4,136(sp)
20001e56:	1100                	addi	s0,sp,160
20001e58:	892e                	mv	s2,a1
20001e5a:	84aa                	mv	s1,a0
20001e5c:	06050993          	addi	s3,a0,96
20001e60:	f6040a13          	addi	s4,s0,-160
20001e64:	8552                	mv	a0,s4
20001e66:	85ce                	mv	a1,s3
20001e68:	02400613          	li	a2,36
20001e6c:	00009097          	auipc	ra,0x9
20001e70:	672080e7          	jalr	1650(ra) # 2000b4de <memcpy>
20001e74:	f9242223          	sw	s2,-124(s0)
20001e78:	08848593          	addi	a1,s1,136
20001e7c:	f8840513          	addi	a0,s0,-120
20001e80:	05c00613          	li	a2,92
20001e84:	00009097          	auipc	ra,0x9
20001e88:	65a080e7          	jalr	1626(ra) # 2000b4de <memcpy>
20001e8c:	854e                	mv	a0,s3
20001e8e:	85d2                	mv	a1,s4
20001e90:	ffffe097          	auipc	ra,0xffffe
20001e94:	414080e7          	jalr	1044(ra) # 200002a4 <_ZN4core4cell13Cell$LT$T$GT$3set17h6c514a780c36573bE>
20001e98:	4a2a                	lw	s4,136(sp)
20001e9a:	49ba                	lw	s3,140(sp)
20001e9c:	494a                	lw	s2,144(sp)
20001e9e:	44da                	lw	s1,148(sp)
20001ea0:	446a                	lw	s0,152(sp)
20001ea2:	40fa                	lw	ra,156(sp)
20001ea4:	610d                	addi	sp,sp,160
20001ea6:	8082                	ret

20001ea8 <_ZN82_$LT$kernel..process..Process$LT$C$GT$$u20$as$u20$kernel..process..ProcessType$GT$25flash_non_protected_start17hf557219b43e4152bE>:
20001ea8:	1141                	addi	sp,sp,-16
20001eaa:	c606                	sw	ra,12(sp)
20001eac:	c422                	sw	s0,8(sp)
20001eae:	c226                	sw	s1,4(sp)
20001eb0:	0800                	addi	s0,sp,16
20001eb2:	5d44                	lw	s1,60(a0)
20001eb4:	04450513          	addi	a0,a0,68
20001eb8:	00005097          	auipc	ra,0x5
20001ebc:	b16080e7          	jalr	-1258(ra) # 200069ce <_ZN6kernel9tbfheader9TbfHeader18get_protected_size17heece472e2d897d0aE>
20001ec0:	9526                	add	a0,a0,s1
20001ec2:	4492                	lw	s1,4(sp)
20001ec4:	4422                	lw	s0,8(sp)
20001ec6:	40b2                	lw	ra,12(sp)
20001ec8:	0141                	addi	sp,sp,16
20001eca:	8082                	ret

20001ecc <_ZN82_$LT$kernel..process..Process$LT$C$GT$$u20$as$u20$kernel..process..ProcessType$GT$25update_heap_start_pointer17h59ba5f95ee22d330E>:
20001ecc:	1141                	addi	sp,sp,-16
20001ece:	c606                	sw	ra,12(sp)
20001ed0:	c422                	sw	s0,8(sp)
20001ed2:	0800                	addi	s0,sp,16
20001ed4:	4950                	lw	a2,20(a0)
20001ed6:	02c5e063          	bltu	a1,a2,20001ef6 <_ZN82_$LT$kernel..process..Process$LT$C$GT$$u20$as$u20$kernel..process..ProcessType$GT$25update_heap_start_pointer17h59ba5f95ee22d330E+0x2a>
20001eda:	4d14                	lw	a3,24(a0)
20001edc:	9636                	add	a2,a2,a3
20001ede:	00c5fc63          	bgeu	a1,a2,20001ef6 <_ZN82_$LT$kernel..process..Process$LT$C$GT$$u20$as$u20$kernel..process..ProcessType$GT$25update_heap_start_pointer17h59ba5f95ee22d330E+0x2a>
20001ee2:	23454603          	lbu	a2,564(a0)
20001ee6:	ca01                	beqz	a2,20001ef6 <_ZN82_$LT$kernel..process..Process$LT$C$GT$$u20$as$u20$kernel..process..ProcessType$GT$25update_heap_start_pointer17h59ba5f95ee22d330E+0x2a>
20001ee8:	20b52223          	sw	a1,516(a0)
20001eec:	4585                	li	a1,1
20001eee:	22b50a23          	sb	a1,564(a0)
20001ef2:	20b52023          	sw	a1,512(a0)
20001ef6:	4422                	lw	s0,8(sp)
20001ef8:	40b2                	lw	ra,12(sp)
20001efa:	0141                	addi	sp,sp,16
20001efc:	8082                	ret

20001efe <_ZN82_$LT$kernel..process..Process$LT$C$GT$$u20$as$u20$kernel..process..ProcessType$GT$26get_writeable_flash_region17habe20290cc5b16b0E>:
20001efe:	1141                	addi	sp,sp,-16
20001f00:	c606                	sw	ra,12(sp)
20001f02:	c422                	sw	s0,8(sp)
20001f04:	0800                	addi	s0,sp,16
20001f06:	862e                	mv	a2,a1
20001f08:	4178                	lw	a4,68(a0)
20001f0a:	4581                	li	a1,0
20001f0c:	4681                	li	a3,0
20001f0e:	ef11                	bnez	a4,20001f2a <_ZN82_$LT$kernel..process..Process$LT$C$GT$$u20$as$u20$kernel..process..ProcessType$GT$26get_writeable_flash_region17habe20290cc5b16b0E+0x2c>
20001f10:	4d2c                	lw	a1,88(a0)
20001f12:	c991                	beqz	a1,20001f26 <_ZN82_$LT$kernel..process..Process$LT$C$GT$$u20$as$u20$kernel..process..ProcessType$GT$26get_writeable_flash_region17habe20290cc5b16b0E+0x28>
20001f14:	4d68                	lw	a0,92(a0)
20001f16:	00a67863          	bgeu	a2,a0,20001f26 <_ZN82_$LT$kernel..process..Process$LT$C$GT$$u20$as$u20$kernel..process..ProcessType$GT$26get_writeable_flash_region17habe20290cc5b16b0E+0x28>
20001f1a:	00361513          	slli	a0,a2,0x3
20001f1e:	952e                	add	a0,a0,a1
20001f20:	414c                	lw	a1,4(a0)
20001f22:	4114                	lw	a3,0(a0)
20001f24:	a019                	j	20001f2a <_ZN82_$LT$kernel..process..Process$LT$C$GT$$u20$as$u20$kernel..process..ProcessType$GT$26get_writeable_flash_region17habe20290cc5b16b0E+0x2c>
20001f26:	4581                	li	a1,0
20001f28:	4681                	li	a3,0
20001f2a:	8536                	mv	a0,a3
20001f2c:	4422                	lw	s0,8(sp)
20001f2e:	40b2                	lw	ra,12(sp)
20001f30:	0141                	addi	sp,sp,16
20001f32:	8082                	ret

20001f34 <_ZN82_$LT$kernel..process..Process$LT$C$GT$$u20$as$u20$kernel..process..ProcessType$GT$26update_stack_start_pointer17he7921a874ddef919E>:
20001f34:	1141                	addi	sp,sp,-16
20001f36:	c606                	sw	ra,12(sp)
20001f38:	c422                	sw	s0,8(sp)
20001f3a:	0800                	addi	s0,sp,16
20001f3c:	4950                	lw	a2,20(a0)
20001f3e:	02c5e263          	bltu	a1,a2,20001f62 <_ZN82_$LT$kernel..process..Process$LT$C$GT$$u20$as$u20$kernel..process..ProcessType$GT$26update_stack_start_pointer17he7921a874ddef919E+0x2e>
20001f42:	4d14                	lw	a3,24(a0)
20001f44:	9636                	add	a2,a2,a3
20001f46:	00c5fe63          	bgeu	a1,a2,20001f62 <_ZN82_$LT$kernel..process..Process$LT$C$GT$$u20$as$u20$kernel..process..ProcessType$GT$26update_stack_start_pointer17he7921a874ddef919E+0x2e>
20001f4a:	23454603          	lbu	a2,564(a0)
20001f4e:	ca11                	beqz	a2,20001f62 <_ZN82_$LT$kernel..process..Process$LT$C$GT$$u20$as$u20$kernel..process..ProcessType$GT$26update_stack_start_pointer17he7921a874ddef919E+0x2e>
20001f50:	20b52823          	sw	a1,528(a0)
20001f54:	20b52623          	sw	a1,524(a0)
20001f58:	4585                	li	a1,1
20001f5a:	22b50a23          	sb	a1,564(a0)
20001f5e:	20b52423          	sw	a1,520(a0)
20001f62:	4422                	lw	s0,8(sp)
20001f64:	40b2                	lw	ra,12(sp)
20001f66:	0141                	addi	sp,sp,16
20001f68:	8082                	ret

20001f6a <_ZN82_$LT$kernel..process..Process$LT$C$GT$$u20$as$u20$kernel..process..ProcessType$GT$28debug_dropped_callback_count17hdcab4d66d54f9208E>:
20001f6a:	1141                	addi	sp,sp,-16
20001f6c:	c606                	sw	ra,12(sp)
20001f6e:	c422                	sw	s0,8(sp)
20001f70:	0800                	addi	s0,sp,16
20001f72:	23454583          	lbu	a1,564(a0)
20001f76:	c599                	beqz	a1,20001f84 <_ZN82_$LT$kernel..process..Process$LT$C$GT$$u20$as$u20$kernel..process..ProcessType$GT$28debug_dropped_callback_count17hdcab4d66d54f9208E+0x1a>
20001f78:	4585                	li	a1,1
20001f7a:	22b50a23          	sb	a1,564(a0)
20001f7e:	22c52503          	lw	a0,556(a0)
20001f82:	a011                	j	20001f86 <_ZN82_$LT$kernel..process..Process$LT$C$GT$$u20$as$u20$kernel..process..ProcessType$GT$28debug_dropped_callback_count17hdcab4d66d54f9208E+0x1c>
20001f84:	4501                	li	a0,0
20001f86:	4422                	lw	s0,8(sp)
20001f88:	40b2                	lw	ra,12(sp)
20001f8a:	0141                	addi	sp,sp,16
20001f8c:	8082                	ret

20001f8e <_ZN82_$LT$kernel..process..Process$LT$C$GT$$u20$as$u20$kernel..process..ProcessType$GT$30number_writeable_flash_regions17hba9bd7403ed82e41E>:
20001f8e:	1141                	addi	sp,sp,-16
20001f90:	c606                	sw	ra,12(sp)
20001f92:	c422                	sw	s0,8(sp)
20001f94:	0800                	addi	s0,sp,16
20001f96:	4170                	lw	a2,68(a0)
20001f98:	4581                	li	a1,0
20001f9a:	e609                	bnez	a2,20001fa4 <_ZN82_$LT$kernel..process..Process$LT$C$GT$$u20$as$u20$kernel..process..ProcessType$GT$30number_writeable_flash_regions17hba9bd7403ed82e41E+0x16>
20001f9c:	4d30                	lw	a2,88(a0)
20001f9e:	4581                	li	a1,0
20001fa0:	c211                	beqz	a2,20001fa4 <_ZN82_$LT$kernel..process..Process$LT$C$GT$$u20$as$u20$kernel..process..ProcessType$GT$30number_writeable_flash_regions17hba9bd7403ed82e41E+0x16>
20001fa2:	4d6c                	lw	a1,92(a0)
20001fa4:	852e                	mv	a0,a1
20001fa6:	4422                	lw	s0,8(sp)
20001fa8:	40b2                	lw	ra,12(sp)
20001faa:	0141                	addi	sp,sp,16
20001fac:	8082                	ret

20001fae <_ZN82_$LT$kernel..process..Process$LT$C$GT$$u20$as$u20$kernel..process..ProcessType$GT$32debug_timeslice_expiration_count17h82e85df411562a85E>:
20001fae:	1141                	addi	sp,sp,-16
20001fb0:	c606                	sw	ra,12(sp)
20001fb2:	c422                	sw	s0,8(sp)
20001fb4:	0800                	addi	s0,sp,16
20001fb6:	23454583          	lbu	a1,564(a0)
20001fba:	c599                	beqz	a1,20001fc8 <_ZN82_$LT$kernel..process..Process$LT$C$GT$$u20$as$u20$kernel..process..ProcessType$GT$32debug_timeslice_expiration_count17h82e85df411562a85E+0x1a>
20001fbc:	4585                	li	a1,1
20001fbe:	22b50a23          	sb	a1,564(a0)
20001fc2:	23052503          	lw	a0,560(a0)
20001fc6:	a011                	j	20001fca <_ZN82_$LT$kernel..process..Process$LT$C$GT$$u20$as$u20$kernel..process..ProcessType$GT$32debug_timeslice_expiration_count17h82e85df411562a85E+0x1c>
20001fc8:	4501                	li	a0,0
20001fca:	4422                	lw	s0,8(sp)
20001fcc:	40b2                	lw	ra,12(sp)
20001fce:	0141                	addi	sp,sp,16
20001fd0:	8082                	ret

20001fd2 <_ZN82_$LT$kernel..process..Process$LT$C$GT$$u20$as$u20$kernel..process..ProcessType$GT$3brk17haa5592c34b08ddedE>:
20001fd2:	7179                	addi	sp,sp,-48
20001fd4:	d606                	sw	ra,44(sp)
20001fd6:	d422                	sw	s0,40(sp)
20001fd8:	d226                	sw	s1,36(sp)
20001fda:	d04a                	sw	s2,32(sp)
20001fdc:	ce4e                	sw	s3,28(sp)
20001fde:	cc52                	sw	s4,24(sp)
20001fe0:	ca56                	sw	s5,20(sp)
20001fe2:	c85a                	sw	s6,16(sp)
20001fe4:	c65e                	sw	s7,12(sp)
20001fe6:	1800                	addi	s0,sp,48
20001fe8:	84ae                	mv	s1,a1
20001fea:	892a                	mv	s2,a0
20001fec:	2385c503          	lbu	a0,568(a1)
20001ff0:	8919                	andi	a0,a0,6
20001ff2:	4591                	li	a1,4
20001ff4:	00b51763          	bne	a0,a1,20002002 <_ZN82_$LT$kernel..process..Process$LT$C$GT$$u20$as$u20$kernel..process..ProcessType$GT$3brk17haa5592c34b08ddedE+0x30>
20001ff8:	30100513          	li	a0,769
20001ffc:	00a91023          	sh	a0,0(s2)
20002000:	a09d                	j	20002066 <_ZN82_$LT$kernel..process..Process$LT$C$GT$$u20$as$u20$kernel..process..ProcessType$GT$3brk17haa5592c34b08ddedE+0x94>
20002002:	1944c503          	lbu	a0,404(s1)
20002006:	c929                	beqz	a0,20002058 <_ZN82_$LT$kernel..process..Process$LT$C$GT$$u20$as$u20$kernel..process..ProcessType$GT$3brk17haa5592c34b08ddedE+0x86>
20002008:	89b2                	mv	s3,a2
2000200a:	4a85                	li	s5,1
2000200c:	20000b13          	li	s6,512
20002010:	18048a23          	sb	zero,404(s1)
20002014:	54c8                	lw	a0,44(s1)
20002016:	02a66563          	bltu	a2,a0,20002040 <_ZN82_$LT$kernel..process..Process$LT$C$GT$$u20$as$u20$kernel..process..ProcessType$GT$3brk17haa5592c34b08ddedE+0x6e>
2000201a:	4c88                	lw	a0,24(s1)
2000201c:	48cc                	lw	a1,20(s1)
2000201e:	952e                	add	a0,a0,a1
20002020:	02a9f063          	bgeu	s3,a0,20002040 <_ZN82_$LT$kernel..process..Process$LT$C$GT$$u20$as$u20$kernel..process..ProcessType$GT$3brk17haa5592c34b08ddedE+0x6e>
20002024:	10000b13          	li	s6,256
20002028:	4ccc                	lw	a1,28(s1)
2000202a:	0135eb63          	bltu	a1,s3,20002040 <_ZN82_$LT$kernel..process..Process$LT$C$GT$$u20$as$u20$kernel..process..ProcessType$GT$3brk17haa5592c34b08ddedE+0x6e>
2000202e:	0f048a13          	addi	s4,s1,240
20002032:	854e                	mv	a0,s3
20002034:	8652                	mv	a2,s4
20002036:	00009097          	auipc	ra,0x9
2000203a:	884080e7          	jalr	-1916(ra) # 2000a8ba <_ZN68_$LT$rv32i..pmp..PMPConfig$u20$as$u20$kernel..platform..mpu..MPU$GT$24update_app_memory_region17h96ee4faf3cd0a245E>
2000203e:	cd1d                	beqz	a0,2000207c <_ZN82_$LT$kernel..process..Process$LT$C$GT$$u20$as$u20$kernel..process..ProcessType$GT$3brk17haa5592c34b08ddedE+0xaa>
20002040:	4501                	li	a0,0
20002042:	4b81                	li	s7,0
20002044:	4585                	li	a1,1
20002046:	19548a23          	sb	s5,404(s1)
2000204a:	00ab6633          	or	a2,s6,a0
2000204e:	8dd1                	or	a1,a1,a2
20002050:	01756633          	or	a2,a0,s7
20002054:	8d51                	or	a0,a0,a2
20002056:	a021                	j	2000205e <_ZN82_$LT$kernel..process..Process$LT$C$GT$$u20$as$u20$kernel..process..ProcessType$GT$3brk17haa5592c34b08ddedE+0x8c>
20002058:	40100593          	li	a1,1025
2000205c:	4501                	li	a0,0
2000205e:	00b92023          	sw	a1,0(s2)
20002062:	00a92223          	sw	a0,4(s2)
20002066:	4bb2                	lw	s7,12(sp)
20002068:	4b42                	lw	s6,16(sp)
2000206a:	4ad2                	lw	s5,20(sp)
2000206c:	4a62                	lw	s4,24(sp)
2000206e:	49f2                	lw	s3,28(sp)
20002070:	5902                	lw	s2,32(sp)
20002072:	5492                	lw	s1,36(sp)
20002074:	5422                	lw	s0,40(sp)
20002076:	50b2                	lw	ra,44(sp)
20002078:	6145                	addi	sp,sp,48
2000207a:	8082                	ret
2000207c:	0244ab83          	lw	s7,36(s1)
20002080:	0334a223          	sw	s3,36(s1)
20002084:	4888                	lw	a0,16(s1)
20002086:	85d2                	mv	a1,s4
20002088:	00009097          	auipc	ra,0x9
2000208c:	85e080e7          	jalr	-1954(ra) # 2000a8e6 <_ZN68_$LT$rv32i..pmp..PMPConfig$u20$as$u20$kernel..platform..mpu..MPU$GT$13configure_mpu17h4363cac150c4abadE>
20002090:	4501                	li	a0,0
20002092:	4b01                	li	s6,0
20002094:	4581                	li	a1,0
20002096:	bf45                	j	20002046 <_ZN82_$LT$kernel..process..Process$LT$C$GT$$u20$as$u20$kernel..process..ProcessType$GT$3brk17haa5592c34b08ddedE+0x74>

20002098 <_ZN82_$LT$kernel..process..Process$LT$C$GT$$u20$as$u20$kernel..process..ProcessType$GT$4free17h3e8da86b868cb9e9E>:
20002098:	1141                	addi	sp,sp,-16
2000209a:	c606                	sw	ra,12(sp)
2000209c:	c422                	sw	s0,8(sp)
2000209e:	0800                	addi	s0,sp,16
200020a0:	4422                	lw	s0,8(sp)
200020a2:	40b2                	lw	ra,12(sp)
200020a4:	0141                	addi	sp,sp,16
200020a6:	8082                	ret

200020a8 <_ZN82_$LT$kernel..process..Process$LT$C$GT$$u20$as$u20$kernel..process..ProcessType$GT$4sbrk17h6037303c169cb4c6E>:
200020a8:	1141                	addi	sp,sp,-16
200020aa:	c606                	sw	ra,12(sp)
200020ac:	c422                	sw	s0,8(sp)
200020ae:	0800                	addi	s0,sp,16
200020b0:	2385c683          	lbu	a3,568(a1)
200020b4:	8a99                	andi	a3,a3,6
200020b6:	4711                	li	a4,4
200020b8:	00e69763          	bne	a3,a4,200020c6 <_ZN82_$LT$kernel..process..Process$LT$C$GT$$u20$as$u20$kernel..process..ProcessType$GT$4sbrk17h6037303c169cb4c6E+0x1e>
200020bc:	30100593          	li	a1,769
200020c0:	00b51023          	sh	a1,0(a0)
200020c4:	a039                	j	200020d2 <_ZN82_$LT$kernel..process..Process$LT$C$GT$$u20$as$u20$kernel..process..ProcessType$GT$4sbrk17h6037303c169cb4c6E+0x2a>
200020c6:	51d4                	lw	a3,36(a1)
200020c8:	9636                	add	a2,a2,a3
200020ca:	00000097          	auipc	ra,0x0
200020ce:	f08080e7          	jalr	-248(ra) # 20001fd2 <_ZN82_$LT$kernel..process..Process$LT$C$GT$$u20$as$u20$kernel..process..ProcessType$GT$3brk17haa5592c34b08ddedE>
200020d2:	4422                	lw	s0,8(sp)
200020d4:	40b2                	lw	ra,12(sp)
200020d6:	0141                	addi	sp,sp,16
200020d8:	8082                	ret

200020da <_ZN82_$LT$kernel..process..Process$LT$C$GT$$u20$as$u20$kernel..process..ProcessType$GT$4stop17h31cbb8f36be1fc97E>:
200020da:	1141                	addi	sp,sp,-16
200020dc:	c606                	sw	ra,12(sp)
200020de:	c422                	sw	s0,8(sp)
200020e0:	0800                	addi	s0,sp,16
200020e2:	23854583          	lbu	a1,568(a0)
200020e6:	c591                	beqz	a1,200020f2 <_ZN82_$LT$kernel..process..Process$LT$C$GT$$u20$as$u20$kernel..process..ProcessType$GT$4stop17h31cbb8f36be1fc97E+0x18>
200020e8:	4605                	li	a2,1
200020ea:	00c59763          	bne	a1,a2,200020f8 <_ZN82_$LT$kernel..process..Process$LT$C$GT$$u20$as$u20$kernel..process..ProcessType$GT$4stop17h31cbb8f36be1fc97E+0x1e>
200020ee:	458d                	li	a1,3
200020f0:	a011                	j	200020f4 <_ZN82_$LT$kernel..process..Process$LT$C$GT$$u20$as$u20$kernel..process..ProcessType$GT$4stop17h31cbb8f36be1fc97E+0x1a>
200020f2:	4589                	li	a1,2
200020f4:	22b50c23          	sb	a1,568(a0)
200020f8:	4422                	lw	s0,8(sp)
200020fa:	40b2                	lw	ra,12(sp)
200020fc:	0141                	addi	sp,sp,16
200020fe:	8082                	ret

20002100 <_ZN82_$LT$kernel..process..Process$LT$C$GT$$u20$as$u20$kernel..process..ProcessType$GT$5alloc17h93b9c1e081576307E>:
20002100:	1101                	addi	sp,sp,-32
20002102:	ce06                	sw	ra,28(sp)
20002104:	cc22                	sw	s0,24(sp)
20002106:	ca26                	sw	s1,20(sp)
20002108:	c84a                	sw	s2,16(sp)
2000210a:	c64e                	sw	s3,12(sp)
2000210c:	1000                	addi	s0,sp,32
2000210e:	892e                	mv	s2,a1
20002110:	84aa                	mv	s1,a0
20002112:	23854503          	lbu	a0,568(a0)
20002116:	8919                	andi	a0,a0,6
20002118:	4591                	li	a1,4
2000211a:	02b50d63          	beq	a0,a1,20002154 <_ZN82_$LT$kernel..process..Process$LT$C$GT$$u20$as$u20$kernel..process..ProcessType$GT$5alloc17h93b9c1e081576307E+0x54>
2000211e:	1944c503          	lbu	a0,404(s1)
20002122:	c90d                	beqz	a0,20002154 <_ZN82_$LT$kernel..process..Process$LT$C$GT$$u20$as$u20$kernel..process..ProcessType$GT$5alloc17h93b9c1e081576307E+0x54>
20002124:	4cc8                	lw	a0,28(s1)
20002126:	41250533          	sub	a0,a0,s2
2000212a:	40c005b3          	neg	a1,a2
2000212e:	00b579b3          	and	s3,a0,a1
20002132:	18048a23          	sb	zero,404(s1)
20002136:	50cc                	lw	a1,36(s1)
20002138:	4501                	li	a0,0
2000213a:	02b9e263          	bltu	s3,a1,2000215e <_ZN82_$LT$kernel..process..Process$LT$C$GT$$u20$as$u20$kernel..process..ProcessType$GT$5alloc17h93b9c1e081576307E+0x5e>
2000213e:	0f048613          	addi	a2,s1,240
20002142:	852e                	mv	a0,a1
20002144:	85ce                	mv	a1,s3
20002146:	00008097          	auipc	ra,0x8
2000214a:	774080e7          	jalr	1908(ra) # 2000a8ba <_ZN68_$LT$rv32i..pmp..PMPConfig$u20$as$u20$kernel..platform..mpu..MPU$GT$24update_app_memory_region17h96ee4faf3cd0a245E>
2000214e:	c509                	beqz	a0,20002158 <_ZN82_$LT$kernel..process..Process$LT$C$GT$$u20$as$u20$kernel..process..ProcessType$GT$5alloc17h93b9c1e081576307E+0x58>
20002150:	4501                	li	a0,0
20002152:	a031                	j	2000215e <_ZN82_$LT$kernel..process..Process$LT$C$GT$$u20$as$u20$kernel..process..ProcessType$GT$5alloc17h93b9c1e081576307E+0x5e>
20002154:	4501                	li	a0,0
20002156:	a039                	j	20002164 <_ZN82_$LT$kernel..process..Process$LT$C$GT$$u20$as$u20$kernel..process..ProcessType$GT$5alloc17h93b9c1e081576307E+0x64>
20002158:	0134ae23          	sw	s3,28(s1)
2000215c:	854e                	mv	a0,s3
2000215e:	4585                	li	a1,1
20002160:	18b48a23          	sb	a1,404(s1)
20002164:	85ca                	mv	a1,s2
20002166:	49b2                	lw	s3,12(sp)
20002168:	4942                	lw	s2,16(sp)
2000216a:	44d2                	lw	s1,20(sp)
2000216c:	4462                	lw	s0,24(sp)
2000216e:	40f2                	lw	ra,28(sp)
20002170:	6105                	addi	sp,sp,32
20002172:	8082                	ret

20002174 <_ZN82_$LT$kernel..process..Process$LT$C$GT$$u20$as$u20$kernel..process..ProcessType$GT$5allow17h59094457d2adb0c1E>:
20002174:	1141                	addi	sp,sp,-16
20002176:	c606                	sw	ra,12(sp)
20002178:	c422                	sw	s0,8(sp)
2000217a:	0800                	addi	s0,sp,16
2000217c:	2385c703          	lbu	a4,568(a1)
20002180:	8b19                	andi	a4,a4,6
20002182:	4791                	li	a5,4
20002184:	00f71663          	bne	a4,a5,20002190 <_ZN82_$LT$kernel..process..Process$LT$C$GT$$u20$as$u20$kernel..process..ProcessType$GT$5allow17h59094457d2adb0c1E+0x1c>
20002188:	4585                	li	a1,1
2000218a:	c10c                	sw	a1,0(a0)
2000218c:	4589                	li	a1,2
2000218e:	a839                	j	200021ac <_ZN82_$LT$kernel..process..Process$LT$C$GT$$u20$as$u20$kernel..process..ProcessType$GT$5allow17h59094457d2adb0c1E+0x38>
20002190:	c21d                	beqz	a2,200021b6 <_ZN82_$LT$kernel..process..Process$LT$C$GT$$u20$as$u20$kernel..process..ProcessType$GT$5allow17h59094457d2adb0c1E+0x42>
20002192:	00d60733          	add	a4,a2,a3
20002196:	00c76863          	bltu	a4,a2,200021a6 <_ZN82_$LT$kernel..process..Process$LT$C$GT$$u20$as$u20$kernel..process..ProcessType$GT$5allow17h59094457d2adb0c1E+0x32>
2000219a:	49dc                	lw	a5,20(a1)
2000219c:	00f66563          	bltu	a2,a5,200021a6 <_ZN82_$LT$kernel..process..Process$LT$C$GT$$u20$as$u20$kernel..process..ProcessType$GT$5allow17h59094457d2adb0c1E+0x32>
200021a0:	51dc                	lw	a5,36(a1)
200021a2:	00e7ff63          	bgeu	a5,a4,200021c0 <_ZN82_$LT$kernel..process..Process$LT$C$GT$$u20$as$u20$kernel..process..ProcessType$GT$5allow17h59094457d2adb0c1E+0x4c>
200021a6:	4585                	li	a1,1
200021a8:	c10c                	sw	a1,0(a0)
200021aa:	459d                	li	a1,7
200021ac:	c14c                	sw	a1,4(a0)
200021ae:	4422                	lw	s0,8(sp)
200021b0:	40b2                	lw	ra,12(sp)
200021b2:	0141                	addi	sp,sp,16
200021b4:	8082                	ret
200021b6:	00052023          	sw	zero,0(a0)
200021ba:	00052223          	sw	zero,4(a0)
200021be:	bfc5                	j	200021ae <_ZN82_$LT$kernel..process..Process$LT$C$GT$$u20$as$u20$kernel..process..ProcessType$GT$5allow17h59094457d2adb0c1E+0x3a>
200021c0:	55dc                	lw	a5,44(a1)
200021c2:	00f76363          	bltu	a4,a5,200021c8 <_ZN82_$LT$kernel..process..Process$LT$C$GT$$u20$as$u20$kernel..process..ProcessType$GT$5allow17h59094457d2adb0c1E+0x54>
200021c6:	87ba                	mv	a5,a4
200021c8:	d5dc                	sw	a5,44(a1)
200021ca:	c150                	sw	a2,4(a0)
200021cc:	4190                	lw	a2,0(a1)
200021ce:	c510                	sw	a2,8(a0)
200021d0:	41d0                	lw	a2,4(a1)
200021d2:	c550                	sw	a2,12(a0)
200021d4:	458c                	lw	a1,8(a1)
200021d6:	c90c                	sw	a1,16(a0)
200021d8:	c954                	sw	a3,20(a0)
200021da:	00052023          	sw	zero,0(a0)
200021de:	bfc1                	j	200021ae <_ZN82_$LT$kernel..process..Process$LT$C$GT$$u20$as$u20$kernel..process..ProcessType$GT$5allow17h59094457d2adb0c1E+0x3a>

200021e0 <_ZN82_$LT$kernel..process..Process$LT$C$GT$$u20$as$u20$kernel..process..ProcessType$GT$5appid17h7436940df4a084eaE>:
200021e0:	1141                	addi	sp,sp,-16
200021e2:	c606                	sw	ra,12(sp)
200021e4:	c422                	sw	s0,8(sp)
200021e6:	0800                	addi	s0,sp,16
200021e8:	4590                	lw	a2,8(a1)
200021ea:	c510                	sw	a2,8(a0)
200021ec:	41d0                	lw	a2,4(a1)
200021ee:	c150                	sw	a2,4(a0)
200021f0:	418c                	lw	a1,0(a1)
200021f2:	c10c                	sw	a1,0(a0)
200021f4:	4422                	lw	s0,8(sp)
200021f6:	40b2                	lw	ra,12(sp)
200021f8:	0141                	addi	sp,sp,16
200021fa:	8082                	ret

200021fc <_ZN82_$LT$kernel..process..Process$LT$C$GT$$u20$as$u20$kernel..process..ProcessType$GT$6resume17h2e5cb7a280fc40f0E>:
200021fc:	1141                	addi	sp,sp,-16
200021fe:	c606                	sw	ra,12(sp)
20002200:	c422                	sw	s0,8(sp)
20002202:	0800                	addi	s0,sp,16
20002204:	23854583          	lbu	a1,568(a0)
20002208:	4609                	li	a2,2
2000220a:	00c58763          	beq	a1,a2,20002218 <_ZN82_$LT$kernel..process..Process$LT$C$GT$$u20$as$u20$kernel..process..ProcessType$GT$6resume17h2e5cb7a280fc40f0E+0x1c>
2000220e:	460d                	li	a2,3
20002210:	00c59763          	bne	a1,a2,2000221e <_ZN82_$LT$kernel..process..Process$LT$C$GT$$u20$as$u20$kernel..process..ProcessType$GT$6resume17h2e5cb7a280fc40f0E+0x22>
20002214:	4585                	li	a1,1
20002216:	a011                	j	2000221a <_ZN82_$LT$kernel..process..Process$LT$C$GT$$u20$as$u20$kernel..process..ProcessType$GT$6resume17h2e5cb7a280fc40f0E+0x1e>
20002218:	4581                	li	a1,0
2000221a:	22b50c23          	sb	a1,568(a0)
2000221e:	4422                	lw	s0,8(sp)
20002220:	40b2                	lw	ra,12(sp)
20002222:	0141                	addi	sp,sp,16
20002224:	8082                	ret

20002226 <_ZN82_$LT$kernel..process..Process$LT$C$GT$$u20$as$u20$kernel..process..ProcessType$GT$7mem_end17haef43b8d149bb04eE>:
20002226:	1141                	addi	sp,sp,-16
20002228:	c606                	sw	ra,12(sp)
2000222a:	c422                	sw	s0,8(sp)
2000222c:	0800                	addi	s0,sp,16
2000222e:	4d0c                	lw	a1,24(a0)
20002230:	4948                	lw	a0,20(a0)
20002232:	952e                	add	a0,a0,a1
20002234:	4422                	lw	s0,8(sp)
20002236:	40b2                	lw	ra,12(sp)
20002238:	0141                	addi	sp,sp,16
2000223a:	8082                	ret

2000223c <_ZN82_$LT$kernel..process..Process$LT$C$GT$$u20$as$u20$kernel..process..ProcessType$GT$9flash_end17h23c5936dcc30c296E>:
2000223c:	1141                	addi	sp,sp,-16
2000223e:	c606                	sw	ra,12(sp)
20002240:	c422                	sw	s0,8(sp)
20002242:	0800                	addi	s0,sp,16
20002244:	412c                	lw	a1,64(a0)
20002246:	5d48                	lw	a0,60(a0)
20002248:	952e                	add	a0,a0,a1
2000224a:	4422                	lw	s0,8(sp)
2000224c:	40b2                	lw	ra,12(sp)
2000224e:	0141                	addi	sp,sp,16
20002250:	8082                	ret

20002252 <_ZN82_$LT$kernel..process..Process$LT$C$GT$$u20$as$u20$kernel..process..ProcessType$GT$9get_state17ha8f3e5268b89a4a8E>:
20002252:	1141                	addi	sp,sp,-16
20002254:	c606                	sw	ra,12(sp)
20002256:	c422                	sw	s0,8(sp)
20002258:	0800                	addi	s0,sp,16
2000225a:	23850503          	lb	a0,568(a0)
2000225e:	4422                	lw	s0,8(sp)
20002260:	40b2                	lw	ra,12(sp)
20002262:	0141                	addi	sp,sp,16
20002264:	8082                	ret

20002266 <_ZN82_$LT$kernel..process..Process$LT$C$GT$$u20$as$u20$kernel..process..ProcessType$GT$9grant_ptr17ha475c6f4fa4b2425E>:
20002266:	1141                	addi	sp,sp,-16
20002268:	c606                	sw	ra,12(sp)
2000226a:	c422                	sw	s0,8(sp)
2000226c:	0800                	addi	s0,sp,16
2000226e:	23854603          	lbu	a2,568(a0)
20002272:	8a19                	andi	a2,a2,6
20002274:	4691                	li	a3,4
20002276:	00d61463          	bne	a2,a3,2000227e <_ZN82_$LT$kernel..process..Process$LT$C$GT$$u20$as$u20$kernel..process..ProcessType$GT$9grant_ptr17ha475c6f4fa4b2425E+0x18>
2000227a:	4501                	li	a0,0
2000227c:	a809                	j	2000228e <_ZN82_$LT$kernel..process..Process$LT$C$GT$$u20$as$u20$kernel..process..ProcessType$GT$9grant_ptr17ha475c6f4fa4b2425E+0x28>
2000227e:	4d10                	lw	a2,24(a0)
20002280:	4948                	lw	a0,20(a0)
20002282:	9532                	add	a0,a0,a2
20002284:	fff5c593          	not	a1,a1
20002288:	058a                	slli	a1,a1,0x2
2000228a:	95aa                	add	a1,a1,a0
2000228c:	4505                	li	a0,1
2000228e:	4422                	lw	s0,8(sp)
20002290:	40b2                	lw	ra,12(sp)
20002292:	0141                	addi	sp,sp,16
20002294:	8082                	ret

20002296 <_ZN82_$LT$kernel..process..Process$LT$C$GT$$u20$as$u20$kernel..process..ProcessType$GT$9mem_start17h13754dfae59891aaE>:
20002296:	1141                	addi	sp,sp,-16
20002298:	c606                	sw	ra,12(sp)
2000229a:	c422                	sw	s0,8(sp)
2000229c:	0800                	addi	s0,sp,16
2000229e:	4948                	lw	a0,20(a0)
200022a0:	4422                	lw	s0,8(sp)
200022a2:	40b2                	lw	ra,12(sp)
200022a4:	0141                	addi	sp,sp,16
200022a6:	8082                	ret

200022a8 <_ZN82_$LT$kernel..process..Process$LT$C$GT$$u20$as$u20$kernel..process..ProcessType$GT$9setup_mpu17he82958e2a6c42f1cE>:
200022a8:	1141                	addi	sp,sp,-16
200022aa:	c606                	sw	ra,12(sp)
200022ac:	c422                	sw	s0,8(sp)
200022ae:	c226                	sw	s1,4(sp)
200022b0:	0800                	addi	s0,sp,16
200022b2:	84aa                	mv	s1,a0
200022b4:	19454503          	lbu	a0,404(a0)
200022b8:	cd09                	beqz	a0,200022d2 <_ZN82_$LT$kernel..process..Process$LT$C$GT$$u20$as$u20$kernel..process..ProcessType$GT$9setup_mpu17he82958e2a6c42f1cE+0x2a>
200022ba:	18048a23          	sb	zero,404(s1)
200022be:	4888                	lw	a0,16(s1)
200022c0:	0f048593          	addi	a1,s1,240
200022c4:	00008097          	auipc	ra,0x8
200022c8:	622080e7          	jalr	1570(ra) # 2000a8e6 <_ZN68_$LT$rv32i..pmp..PMPConfig$u20$as$u20$kernel..platform..mpu..MPU$GT$13configure_mpu17h4363cac150c4abadE>
200022cc:	4505                	li	a0,1
200022ce:	18a48a23          	sb	a0,404(s1)
200022d2:	4492                	lw	s1,4(sp)
200022d4:	4422                	lw	s0,8(sp)
200022d6:	40b2                	lw	ra,12(sp)
200022d8:	0141                	addi	sp,sp,16
200022da:	8082                	ret

200022dc <_ZN82_$LT$kernel..process..Process$LT$C$GT$$u20$as$u20$kernel..process..ProcessType$GT$9switch_to17h2b40d63a827d008cE>:
200022dc:	7129                	addi	sp,sp,-320
200022de:	12112e23          	sw	ra,316(sp)
200022e2:	12812c23          	sw	s0,312(sp)
200022e6:	12912a23          	sw	s1,308(sp)
200022ea:	13212823          	sw	s2,304(sp)
200022ee:	13312623          	sw	s3,300(sp)
200022f2:	13412423          	sw	s4,296(sp)
200022f6:	13512223          	sw	s5,292(sp)
200022fa:	13612023          	sw	s6,288(sp)
200022fe:	11712e23          	sw	s7,284(sp)
20002302:	11812c23          	sw	s8,280(sp)
20002306:	11912a23          	sw	s9,276(sp)
2000230a:	0280                	addi	s0,sp,320
2000230c:	84ae                	mv	s1,a1
2000230e:	892a                	mv	s2,a0
20002310:	2385c503          	lbu	a0,568(a1)
20002314:	8919                	andi	a0,a0,6
20002316:	4591                	li	a1,4
20002318:	00b51663          	bne	a0,a1,20002324 <_ZN82_$LT$kernel..process..Process$LT$C$GT$$u20$as$u20$kernel..process..ProcessType$GT$9switch_to17h2b40d63a827d008cE+0x48>
2000231c:	4521                	li	a0,8
2000231e:	00a92023          	sw	a0,0(s2)
20002322:	a421                	j	2000252a <_return_to_kernel+0xfa>
20002324:	06048993          	addi	s3,s1,96
20002328:	ec840a13          	addi	s4,s0,-312
2000232c:	8552                	mv	a0,s4
2000232e:	85ce                	mv	a1,s3
20002330:	08400613          	li	a2,132
20002334:	00009097          	auipc	ra,0x9
20002338:	1aa080e7          	jalr	426(ra) # 2000b4de <memcpy>
2000233c:	f7810113          	addi	sp,sp,-136
20002340:	c606                	sw	ra,12(sp)
20002342:	c80e                	sw	gp,16(sp)
20002344:	ca12                	sw	tp,20(sp)
20002346:	cc16                	sw	t0,24(sp)
20002348:	ce1a                	sw	t1,28(sp)
2000234a:	d01e                	sw	t2,32(sp)
2000234c:	d222                	sw	s0,36(sp)
2000234e:	d426                	sw	s1,40(sp)
20002350:	d62a                	sw	a0,44(sp)
20002352:	d82e                	sw	a1,48(sp)
20002354:	da32                	sw	a2,52(sp)
20002356:	dc36                	sw	a3,56(sp)
20002358:	de3a                	sw	a4,60(sp)
2000235a:	c0be                	sw	a5,64(sp)
2000235c:	c2c2                	sw	a6,68(sp)
2000235e:	c4c6                	sw	a7,72(sp)
20002360:	c6ca                	sw	s2,76(sp)
20002362:	c8ce                	sw	s3,80(sp)
20002364:	cad2                	sw	s4,84(sp)
20002366:	ccd6                	sw	s5,88(sp)
20002368:	ceda                	sw	s6,92(sp)
2000236a:	d0de                	sw	s7,96(sp)
2000236c:	d2e2                	sw	s8,100(sp)
2000236e:	d4e6                	sw	s9,104(sp)
20002370:	d6ea                	sw	s10,108(sp)
20002372:	d8ee                	sw	s11,112(sp)
20002374:	daf2                	sw	t3,116(sp)
20002376:	dcf6                	sw	t4,120(sp)
20002378:	defa                	sw	t5,124(sp)
2000237a:	c17e                	sw	t6,128(sp)
2000237c:	c252                	sw	s4,4(sp)
2000237e:	200022b7          	lui	t0,0x20002
20002382:	43028293          	addi	t0,t0,1072 # 20002430 <_return_to_kernel>
20002386:	c416                	sw	t0,8(sp)
20002388:	34011073          	csrw	mscratch,sp
2000238c:	300022f3          	csrr	t0,mstatus
20002390:	6309                	lui	t1,0x2
20002392:	80830313          	addi	t1,t1,-2040 # 1808 <MPU_MIN_ALIGN+0x1408>
20002396:	fff34313          	not	t1,t1
2000239a:	0062f2b3          	and	t0,t0,t1
2000239e:	0802e293          	ori	t0,t0,128
200023a2:	30029073          	csrw	mstatus,t0
200023a6:	07ca2283          	lw	t0,124(s4)
200023aa:	34129073          	csrw	mepc,t0
200023ae:	82d2                	mv	t0,s4
200023b0:	0002a083          	lw	ra,0(t0)
200023b4:	0042a103          	lw	sp,4(t0)
200023b8:	0082a183          	lw	gp,8(t0)
200023bc:	00c2a203          	lw	tp,12(t0)
200023c0:	0142a303          	lw	t1,20(t0)
200023c4:	0182a383          	lw	t2,24(t0)
200023c8:	01c2a403          	lw	s0,28(t0)
200023cc:	0202a483          	lw	s1,32(t0)
200023d0:	0242a503          	lw	a0,36(t0)
200023d4:	0282a583          	lw	a1,40(t0)
200023d8:	02c2a603          	lw	a2,44(t0)
200023dc:	0302a683          	lw	a3,48(t0)
200023e0:	0342a703          	lw	a4,52(t0)
200023e4:	0382a783          	lw	a5,56(t0)
200023e8:	03c2a803          	lw	a6,60(t0)
200023ec:	0402a883          	lw	a7,64(t0)
200023f0:	0442a903          	lw	s2,68(t0)
200023f4:	0482a983          	lw	s3,72(t0)
200023f8:	04c2aa03          	lw	s4,76(t0)
200023fc:	0502aa83          	lw	s5,80(t0)
20002400:	0542ab03          	lw	s6,84(t0)
20002404:	0582ab83          	lw	s7,88(t0)
20002408:	05c2ac03          	lw	s8,92(t0)
2000240c:	0602ac83          	lw	s9,96(t0)
20002410:	0642ad03          	lw	s10,100(t0)
20002414:	0682ad83          	lw	s11,104(t0)
20002418:	06c2ae03          	lw	t3,108(t0)
2000241c:	0702ae83          	lw	t4,112(t0)
20002420:	0742af03          	lw	t5,116(t0)
20002424:	0782af83          	lw	t6,120(t0)
20002428:	0102a283          	lw	t0,16(t0)
2000242c:	30200073          	mret

20002430 <_return_to_kernel>:
20002430:	40b2                	lw	ra,12(sp)
20002432:	41c2                	lw	gp,16(sp)
20002434:	4252                	lw	tp,20(sp)
20002436:	42e2                	lw	t0,24(sp)
20002438:	4372                	lw	t1,28(sp)
2000243a:	5382                	lw	t2,32(sp)
2000243c:	5412                	lw	s0,36(sp)
2000243e:	54a2                	lw	s1,40(sp)
20002440:	5532                	lw	a0,44(sp)
20002442:	55c2                	lw	a1,48(sp)
20002444:	5652                	lw	a2,52(sp)
20002446:	56e2                	lw	a3,56(sp)
20002448:	5772                	lw	a4,60(sp)
2000244a:	4786                	lw	a5,64(sp)
2000244c:	4816                	lw	a6,68(sp)
2000244e:	48a6                	lw	a7,72(sp)
20002450:	4936                	lw	s2,76(sp)
20002452:	49c6                	lw	s3,80(sp)
20002454:	4a56                	lw	s4,84(sp)
20002456:	4ae6                	lw	s5,88(sp)
20002458:	4b76                	lw	s6,92(sp)
2000245a:	5b86                	lw	s7,96(sp)
2000245c:	5c16                	lw	s8,100(sp)
2000245e:	5ca6                	lw	s9,104(sp)
20002460:	5d36                	lw	s10,108(sp)
20002462:	5dc6                	lw	s11,112(sp)
20002464:	5e56                	lw	t3,116(sp)
20002466:	5ee6                	lw	t4,120(sp)
20002468:	5f76                	lw	t5,124(sp)
2000246a:	4f8a                	lw	t6,128(sp)
2000246c:	08810113          	addi	sp,sp,136
20002470:	f4842503          	lw	a0,-184(s0)
20002474:	00009097          	auipc	ra,0x9
20002478:	050080e7          	jalr	80(ra) # 2000b4c4 <_ZN75_$LT$rv32i..csr..mcause..Trap$u20$as$u20$core..convert..From$LT$u32$GT$$GT$4from17h20c7d60a4846e24fE>
2000247c:	8905                	andi	a0,a0,1
2000247e:	e119                	bnez	a0,20002484 <_return_to_kernel+0x54>
20002480:	4c9d                	li	s9,7
20002482:	a0b9                	j	200024d0 <_return_to_kernel+0xa0>
20002484:	4c95                	li	s9,5
20002486:	0025e513          	ori	a0,a1,2
2000248a:	0ff57513          	andi	a0,a0,255
2000248e:	45a9                	li	a1,10
20002490:	04b51063          	bne	a0,a1,200024d0 <_return_to_kernel+0xa0>
20002494:	f4442503          	lw	a0,-188(s0)
20002498:	0511                	addi	a0,a0,4
2000249a:	f4a42223          	sw	a0,-188(s0)
2000249e:	efc42c03          	lw	s8,-260(s0)
200024a2:	ef842b83          	lw	s7,-264(s0)
200024a6:	ef442b03          	lw	s6,-268(s0)
200024aa:	ef042a83          	lw	s5,-272(s0)
200024ae:	eec44503          	lbu	a0,-276(s0)
200024b2:	4591                	li	a1,4
200024b4:	0ab50363          	beq	a0,a1,2000255a <_return_to_kernel+0x12a>
200024b8:	4585                	li	a1,1
200024ba:	0ab50263          	beq	a0,a1,2000255e <_return_to_kernel+0x12e>
200024be:	4589                	li	a1,2
200024c0:	0ab50163          	beq	a0,a1,20002562 <_return_to_kernel+0x132>
200024c4:	458d                	li	a1,3
200024c6:	0ab50063          	beq	a0,a1,20002566 <_return_to_kernel+0x136>
200024ca:	e119                	bnez	a0,200024d0 <_return_to_kernel+0xa0>
200024cc:	4c81                	li	s9,0
200024ce:	a009                	j	200024d0 <_return_to_kernel+0xa0>
200024d0:	ecc42503          	lw	a0,-308(s0)
200024d4:	d8c8                	sw	a0,52(s1)
200024d6:	f5040a13          	addi	s4,s0,-176
200024da:	ec840593          	addi	a1,s0,-312
200024de:	8552                	mv	a0,s4
200024e0:	08400613          	li	a2,132
200024e4:	00009097          	auipc	ra,0x9
200024e8:	ffa080e7          	jalr	-6(ra) # 2000b4de <memcpy>
200024ec:	854e                	mv	a0,s3
200024ee:	85d2                	mv	a1,s4
200024f0:	ffffe097          	auipc	ra,0xffffe
200024f4:	db4080e7          	jalr	-588(ra) # 200002a4 <_ZN4core4cell13Cell$LT$T$GT$3set17h6c514a780c36573bE>
200024f8:	2344c503          	lbu	a0,564(s1)
200024fc:	cd09                	beqz	a0,20002516 <_return_to_kernel+0xe6>
200024fe:	22048a23          	sb	zero,564(s1)
20002502:	58c8                	lw	a0,52(s1)
20002504:	2104a583          	lw	a1,528(s1)
20002508:	00b57463          	bgeu	a0,a1,20002510 <_return_to_kernel+0xe0>
2000250c:	20a4a823          	sw	a0,528(s1)
20002510:	4505                	li	a0,1
20002512:	22a48a23          	sb	a0,564(s1)
20002516:	01892823          	sw	s8,16(s2)
2000251a:	01792623          	sw	s7,12(s2)
2000251e:	01692423          	sw	s6,8(s2)
20002522:	01592223          	sw	s5,4(s2)
20002526:	01992023          	sw	s9,0(s2)
2000252a:	11412c83          	lw	s9,276(sp)
2000252e:	11812c03          	lw	s8,280(sp)
20002532:	11c12b83          	lw	s7,284(sp)
20002536:	12012b03          	lw	s6,288(sp)
2000253a:	12412a83          	lw	s5,292(sp)
2000253e:	12812a03          	lw	s4,296(sp)
20002542:	12c12983          	lw	s3,300(sp)
20002546:	13012903          	lw	s2,304(sp)
2000254a:	13412483          	lw	s1,308(sp)
2000254e:	13812403          	lw	s0,312(sp)
20002552:	13c12083          	lw	ra,316(sp)
20002556:	6131                	addi	sp,sp,320
20002558:	8082                	ret
2000255a:	4c91                	li	s9,4
2000255c:	bf95                	j	200024d0 <_return_to_kernel+0xa0>
2000255e:	4c85                	li	s9,1
20002560:	bf85                	j	200024d0 <_return_to_kernel+0xa0>
20002562:	4c89                	li	s9,2
20002564:	b7b5                	j	200024d0 <_return_to_kernel+0xa0>
20002566:	4c8d                	li	s9,3
20002568:	b7a5                	j	200024d0 <_return_to_kernel+0xa0>

2000256a <_ZN10tock_cells9take_cell17TakeCell$LT$T$GT$7is_none17h336e9ee827e529e9E>:
2000256a:	1141                	addi	sp,sp,-16
2000256c:	c606                	sw	ra,12(sp)
2000256e:	c422                	sw	s0,8(sp)
20002570:	0800                	addi	s0,sp,16
20002572:	4108                	lw	a0,0(a0)
20002574:	00153513          	seqz	a0,a0
20002578:	4422                	lw	s0,8(sp)
2000257a:	40b2                	lw	ra,12(sp)
2000257c:	0141                	addi	sp,sp,16
2000257e:	8082                	ret

20002580 <_ZN4core5slice29_$LT$impl$u20$$u5b$T$u5d$$GT$15copy_from_slice17hef2276671e8bc7a2E>:
20002580:	711d                	addi	sp,sp,-96
20002582:	ce86                	sw	ra,92(sp)
20002584:	cca2                	sw	s0,88(sp)
20002586:	1080                	addi	s0,sp,96
20002588:	fab42023          	sw	a1,-96(s0)
2000258c:	fad42223          	sw	a3,-92(s0)
20002590:	00d59c63          	bne	a1,a3,200025a8 <_ZN4core5slice29_$LT$impl$u20$$u5b$T$u5d$$GT$15copy_from_slice17hef2276671e8bc7a2E+0x28>
20002594:	8732                	mv	a4,a2
20002596:	862e                	mv	a2,a1
20002598:	85ba                	mv	a1,a4
2000259a:	4466                	lw	s0,88(sp)
2000259c:	40f6                	lw	ra,92(sp)
2000259e:	6125                	addi	sp,sp,96
200025a0:	00009317          	auipc	t1,0x9
200025a4:	f3e30067          	jr	-194(t1) # 2000b4de <memcpy>
200025a8:	fa040513          	addi	a0,s0,-96
200025ac:	fca42c23          	sw	a0,-40(s0)
200025b0:	fa440513          	addi	a0,s0,-92
200025b4:	fca42e23          	sw	a0,-36(s0)
200025b8:	fc040513          	addi	a0,s0,-64
200025bc:	faa42c23          	sw	a0,-72(s0)
200025c0:	450d                	li	a0,3
200025c2:	faa42e23          	sw	a0,-68(s0)
200025c6:	faa42623          	sw	a0,-84(s0)
200025ca:	20006537          	lui	a0,0x20006
200025ce:	60e50513          	addi	a0,a0,1550 # 2000660e <_ZN59_$LT$core..fmt..Arguments$u20$as$u20$core..fmt..Display$GT$3fmt17h283731f7baa9247cE>
200025d2:	fca42a23          	sw	a0,-44(s0)
200025d6:	fe040513          	addi	a0,s0,-32
200025da:	fca42823          	sw	a0,-48(s0)
200025de:	fdc40513          	addi	a0,s0,-36
200025e2:	fca42423          	sw	a0,-56(s0)
200025e6:	20007537          	lui	a0,0x20007
200025ea:	3c650513          	addi	a0,a0,966 # 200073c6 <_ZN42_$LT$$RF$T$u20$as$u20$core..fmt..Debug$GT$3fmt17h7fd6ada3b997587aE>
200025ee:	fca42623          	sw	a0,-52(s0)
200025f2:	fca42223          	sw	a0,-60(s0)
200025f6:	fd840513          	addi	a0,s0,-40
200025fa:	fca42023          	sw	a0,-64(s0)
200025fe:	10001537          	lui	a0,0x10001
20002602:	20850513          	addi	a0,a0,520 # 10001208 <anon.df4ef2eca40d8df31d41968dfc3d5204.3.llvm.2216583931208702471>
20002606:	faa42423          	sw	a0,-88(s0)
2000260a:	2000e537          	lui	a0,0x2000e
2000260e:	00c50513          	addi	a0,a0,12 # 2000e00c <.Lanon.d9778860540cf11319bb138777b2a7cb.67>
20002612:	fea42823          	sw	a0,-16(s0)
20002616:	fa042823          	sw	zero,-80(s0)
2000261a:	fe042a23          	sw	zero,-12(s0)
2000261e:	fe042423          	sw	zero,-24(s0)
20002622:	4505                	li	a0,1
20002624:	fea42223          	sw	a0,-28(s0)
20002628:	10001537          	lui	a0,0x10001
2000262c:	22050513          	addi	a0,a0,544 # 10001220 <anon.df4ef2eca40d8df31d41968dfc3d5204.5.llvm.2216583931208702471>
20002630:	fea42023          	sw	a0,-32(s0)
20002634:	10001537          	lui	a0,0x10001
20002638:	22850593          	addi	a1,a0,552 # 10001228 <anon.df4ef2eca40d8df31d41968dfc3d5204.8.llvm.2216583931208702471>
2000263c:	fa840513          	addi	a0,s0,-88
20002640:	00002097          	auipc	ra,0x2
20002644:	56a080e7          	jalr	1386(ra) # 20004baa <_ZN4core9panicking9panic_fmt17he3c5aeb68fe54ef4E>
20002648:	0000c097          	auipc	ra,0xc
2000264c:	594080e7          	jalr	1428(ra) # 2000ebdc <abort>

20002650 <_ZN4core3ptr13drop_in_place17h9658d033c47788cbE>:
20002650:	1141                	addi	sp,sp,-16
20002652:	c606                	sw	ra,12(sp)
20002654:	c422                	sw	s0,8(sp)
20002656:	0800                	addi	s0,sp,16
20002658:	410c                	lw	a1,0(a0)
2000265a:	c589                	beqz	a1,20002664 <_ZN4core3ptr13drop_in_place17h9658d033c47788cbE+0x14>
2000265c:	00004097          	auipc	ra,0x4
20002660:	530080e7          	jalr	1328(ra) # 20006b8c <_ZN74_$LT$kernel..mem..AppPtr$LT$L$C$T$GT$$u20$as$u20$core..ops..drop..Drop$GT$4drop17h5721b51cc2d71355E>
20002664:	4422                	lw	s0,8(sp)
20002666:	40b2                	lw	ra,12(sp)
20002668:	0141                	addi	sp,sp,16
2000266a:	8082                	ret

2000266c <_ZN61_$LT$capsules..led..LED$u20$as$u20$kernel..driver..Driver$GT$7command17h184d4bb7c68e23beE>:
2000266c:	1141                	addi	sp,sp,-16
2000266e:	c606                	sw	ra,12(sp)
20002670:	c422                	sw	s0,8(sp)
20002672:	c226                	sw	s1,4(sp)
20002674:	c04a                	sw	s2,0(sp)
20002676:	0800                	addi	s0,sp,16
20002678:	00452903          	lw	s2,4(a0)
2000267c:	4108                	lw	a0,0(a0)
2000267e:	468d                	li	a3,3
20002680:	04d58b63          	beq	a1,a3,200026d6 <_ZN61_$LT$capsules..led..LED$u20$as$u20$kernel..driver..Driver$GT$7command17h184d4bb7c68e23beE+0x6a>
20002684:	4685                	li	a3,1
20002686:	00d58963          	beq	a1,a3,20002698 <_ZN61_$LT$capsules..led..LED$u20$as$u20$kernel..driver..Driver$GT$7command17h184d4bb7c68e23beE+0x2c>
2000268a:	4689                	li	a3,2
2000268c:	02d58663          	beq	a1,a3,200026b8 <_ZN61_$LT$capsules..led..LED$u20$as$u20$kernel..driver..Driver$GT$7command17h184d4bb7c68e23beE+0x4c>
20002690:	44ad                	li	s1,11
20002692:	edb1                	bnez	a1,200026ee <_ZN61_$LT$capsules..led..LED$u20$as$u20$kernel..driver..Driver$GT$7command17h184d4bb7c68e23beE+0x82>
20002694:	4481                	li	s1,0
20002696:	a8a1                	j	200026ee <_ZN61_$LT$capsules..led..LED$u20$as$u20$kernel..driver..Driver$GT$7command17h184d4bb7c68e23beE+0x82>
20002698:	449d                	li	s1,7
2000269a:	05267a63          	bgeu	a2,s2,200026ee <_ZN61_$LT$capsules..led..LED$u20$as$u20$kernel..driver..Driver$GT$7command17h184d4bb7c68e23beE+0x82>
2000269e:	45b1                	li	a1,12
200026a0:	02b605b3          	mul	a1,a2,a1
200026a4:	95aa                	add	a1,a1,a0
200026a6:	0085c603          	lbu	a2,8(a1)
200026aa:	4188                	lw	a0,0(a1)
200026ac:	41cc                	lw	a1,4(a1)
200026ae:	5194                	lw	a3,32(a1)
200026b0:	4485                	li	s1,1
200026b2:	4585                	li	a1,1
200026b4:	9682                	jalr	a3
200026b6:	a825                	j	200026ee <_ZN61_$LT$capsules..led..LED$u20$as$u20$kernel..driver..Driver$GT$7command17h184d4bb7c68e23beE+0x82>
200026b8:	449d                	li	s1,7
200026ba:	03267a63          	bgeu	a2,s2,200026ee <_ZN61_$LT$capsules..led..LED$u20$as$u20$kernel..driver..Driver$GT$7command17h184d4bb7c68e23beE+0x82>
200026be:	45b1                	li	a1,12
200026c0:	02b605b3          	mul	a1,a2,a1
200026c4:	95aa                	add	a1,a1,a0
200026c6:	0085c603          	lbu	a2,8(a1)
200026ca:	4188                	lw	a0,0(a1)
200026cc:	41cc                	lw	a1,4(a1)
200026ce:	5194                	lw	a3,32(a1)
200026d0:	4581                	li	a1,0
200026d2:	9682                	jalr	a3
200026d4:	a821                	j	200026ec <_ZN61_$LT$capsules..led..LED$u20$as$u20$kernel..driver..Driver$GT$7command17h184d4bb7c68e23beE+0x80>
200026d6:	449d                	li	s1,7
200026d8:	01267b63          	bgeu	a2,s2,200026ee <_ZN61_$LT$capsules..led..LED$u20$as$u20$kernel..driver..Driver$GT$7command17h184d4bb7c68e23beE+0x82>
200026dc:	45b1                	li	a1,12
200026de:	02b605b3          	mul	a1,a2,a1
200026e2:	95aa                	add	a1,a1,a0
200026e4:	4188                	lw	a0,0(a1)
200026e6:	41cc                	lw	a1,4(a1)
200026e8:	4dcc                	lw	a1,28(a1)
200026ea:	9582                	jalr	a1
200026ec:	4485                	li	s1,1
200026ee:	8526                	mv	a0,s1
200026f0:	85ca                	mv	a1,s2
200026f2:	4902                	lw	s2,0(sp)
200026f4:	4492                	lw	s1,4(sp)
200026f6:	4422                	lw	s0,8(sp)
200026f8:	40b2                	lw	ra,12(sp)
200026fa:	0141                	addi	sp,sp,16
200026fc:	8082                	ret

200026fe <_ZN85_$LT$capsules..virtual_uart..MuxUart$u20$as$u20$kernel..hil..uart..TransmitClient$GT$18transmitted_buffer17hecbf0585c97e4e72E>:
200026fe:	1141                	addi	sp,sp,-16
20002700:	c606                	sw	ra,12(sp)
20002702:	c422                	sw	s0,8(sp)
20002704:	c226                	sw	s1,4(sp)
20002706:	c04a                	sw	s2,0(sp)
20002708:	0800                	addi	s0,sp,16
2000270a:	892a                	mv	s2,a0
2000270c:	4904                	lw	s1,16(a0)
2000270e:	cc81                	beqz	s1,20002726 <_ZN85_$LT$capsules..virtual_uart..MuxUart$u20$as$u20$kernel..hil..uart..TransmitClient$GT$18transmitted_buffer17hecbf0585c97e4e72E+0x28>
20002710:	00092823          	sw	zero,16(s2)
20002714:	5888                	lw	a0,48(s1)
20002716:	c901                	beqz	a0,20002726 <_ZN85_$LT$capsules..virtual_uart..MuxUart$u20$as$u20$kernel..hil..uart..TransmitClient$GT$18transmitted_buffer17hecbf0585c97e4e72E+0x28>
20002718:	0344a803          	lw	a6,52(s1)
2000271c:	02048d23          	sb	zero,58(s1)
20002720:	01082483          	lw	s1,16(a6)
20002724:	9482                	jalr	s1
20002726:	854a                	mv	a0,s2
20002728:	4902                	lw	s2,0(sp)
2000272a:	4492                	lw	s1,4(sp)
2000272c:	4422                	lw	s0,8(sp)
2000272e:	40b2                	lw	ra,12(sp)
20002730:	0141                	addi	sp,sp,16
20002732:	00000317          	auipc	t1,0x0
20002736:	00830067          	jr	8(t1) # 2000273a <_ZN8capsules12virtual_uart7MuxUart10do_next_op17h1bafba8c399d1c32E>

2000273a <_ZN8capsules12virtual_uart7MuxUart10do_next_op17h1bafba8c399d1c32E>:
2000273a:	7179                	addi	sp,sp,-48
2000273c:	d606                	sw	ra,44(sp)
2000273e:	d422                	sw	s0,40(sp)
20002740:	d226                	sw	s1,36(sp)
20002742:	d04a                	sw	s2,32(sp)
20002744:	ce4e                	sw	s3,28(sp)
20002746:	1800                	addi	s0,sp,48
20002748:	892a                	mv	s2,a0
2000274a:	4908                	lw	a0,16(a0)
2000274c:	e15d                	bnez	a0,200027f2 <_ZN8capsules12virtual_uart7MuxUart10do_next_op17h1bafba8c399d1c32E+0xb8>
2000274e:	00c90613          	addi	a2,s2,12
20002752:	4509                	li	a0,2
20002754:	4204                	lw	s1,0(a2)
20002756:	ccd1                	beqz	s1,200027f2 <_ZN8capsules12virtual_uart7MuxUart10do_next_op17h1bafba8c399d1c32E+0xb8>
20002758:	02448613          	addi	a2,s1,36
2000275c:	4ccc                	lw	a1,28(s1)
2000275e:	fea58be3          	beq	a1,a0,20002754 <_ZN8capsules12virtual_uart7MuxUart10do_next_op17h1bafba8c399d1c32E+0x1a>
20002762:	40d0                	lw	a2,4(s1)
20002764:	0004a223          	sw	zero,4(s1)
20002768:	ce3d                	beqz	a2,200027e6 <_ZN8capsules12virtual_uart7MuxUart10do_next_op17h1bafba8c399d1c32E+0xac>
2000276a:	5098                	lw	a4,32(s1)
2000276c:	4985                	li	s3,1
2000276e:	03359b63          	bne	a1,s3,200027a4 <_ZN8capsules12virtual_uart7MuxUart10do_next_op17h1bafba8c399d1c32E+0x6a>
20002772:	00092503          	lw	a0,0(s2)
20002776:	00492583          	lw	a1,4(s2)
2000277a:	51d0                	lw	a2,36(a1)
2000277c:	85ba                	mv	a1,a4
2000277e:	9602                	jalr	a2
20002780:	fcb42e23          	sw	a1,-36(s0)
20002784:	fca42c23          	sw	a0,-40(s0)
20002788:	05350f63          	beq	a0,s3,200027e6 <_ZN8capsules12virtual_uart7MuxUart10do_next_op17h1bafba8c399d1c32E+0xac>
2000278c:	862a                	mv	a2,a0
2000278e:	5888                	lw	a0,48(s1)
20002790:	c939                	beqz	a0,200027e6 <_ZN8capsules12virtual_uart7MuxUart10do_next_op17h1bafba8c399d1c32E+0xac>
20002792:	86ae                	mv	a3,a1
20002794:	58cc                	lw	a1,52(s1)
20002796:	02048d23          	sb	zero,58(s1)
2000279a:	45d8                	lw	a4,12(a1)
2000279c:	85b2                	mv	a1,a2
2000279e:	8636                	mv	a2,a3
200027a0:	9702                	jalr	a4
200027a2:	a091                	j	200027e6 <_ZN8capsules12virtual_uart7MuxUart10do_next_op17h1bafba8c399d1c32E+0xac>
200027a4:	4494                	lw	a3,8(s1)
200027a6:	00092583          	lw	a1,0(s2)
200027aa:	00492503          	lw	a0,4(s2)
200027ae:	511c                	lw	a5,32(a0)
200027b0:	fd840513          	addi	a0,s0,-40
200027b4:	9782                	jalr	a5
200027b6:	fe442603          	lw	a2,-28(s0)
200027ba:	fe042583          	lw	a1,-32(s0)
200027be:	fdc42783          	lw	a5,-36(s0)
200027c2:	fcf42a23          	sw	a5,-44(s0)
200027c6:	fd842703          	lw	a4,-40(s0)
200027ca:	fce42823          	sw	a4,-48(s0)
200027ce:	01370c63          	beq	a4,s3,200027e6 <_ZN8capsules12virtual_uart7MuxUart10do_next_op17h1bafba8c399d1c32E+0xac>
200027d2:	5888                	lw	a0,48(s1)
200027d4:	c909                	beqz	a0,200027e6 <_ZN8capsules12virtual_uart7MuxUart10do_next_op17h1bafba8c399d1c32E+0xac>
200027d6:	58d4                	lw	a3,52(s1)
200027d8:	02048d23          	sb	zero,58(s1)
200027dc:	c195                	beqz	a1,20002800 <_ZN8capsules12virtual_uart7MuxUart10do_next_op17h1bafba8c399d1c32E+0xc6>
200027de:	0106a803          	lw	a6,16(a3)
200027e2:	4681                	li	a3,0
200027e4:	9802                	jalr	a6
200027e6:	0204a023          	sw	zero,32(s1)
200027ea:	4509                	li	a0,2
200027ec:	ccc8                	sw	a0,28(s1)
200027ee:	00992823          	sw	s1,16(s2)
200027f2:	49f2                	lw	s3,28(sp)
200027f4:	5902                	lw	s2,32(sp)
200027f6:	5492                	lw	s1,36(sp)
200027f8:	5422                	lw	s0,40(sp)
200027fa:	50b2                	lw	ra,44(sp)
200027fc:	6145                	addi	sp,sp,48
200027fe:	8082                	ret
20002800:	2000d537          	lui	a0,0x2000d
20002804:	dc450513          	addi	a0,a0,-572 # 2000cdc4 <.Lanon.f9bb9288c9d7617347bc8817bc65a1df.159>
20002808:	100015b7          	lui	a1,0x10001
2000280c:	25858613          	addi	a2,a1,600 # 10001258 <.Lanon.74e246f328b6922f19353390cfc12dbf.26>
20002810:	02b00593          	li	a1,43
20002814:	00002097          	auipc	ra,0x2
20002818:	2cc080e7          	jalr	716(ra) # 20004ae0 <_ZN4core9panicking5panic17haaa649c2263e8176E>
2000281c:	0000c097          	auipc	ra,0xc
20002820:	3c0080e7          	jalr	960(ra) # 2000ebdc <abort>

20002824 <_ZN84_$LT$capsules..virtual_uart..MuxUart$u20$as$u20$kernel..hil..uart..ReceiveClient$GT$15received_buffer17h105950d4da6a339bE>:
20002824:	7179                	addi	sp,sp,-48
20002826:	d606                	sw	ra,44(sp)
20002828:	d422                	sw	s0,40(sp)
2000282a:	d226                	sw	s1,36(sp)
2000282c:	d04a                	sw	s2,32(sp)
2000282e:	ce4e                	sw	s3,28(sp)
20002830:	cc52                	sw	s4,24(sp)
20002832:	ca56                	sw	s5,20(sp)
20002834:	c85a                	sw	s6,16(sp)
20002836:	c65e                	sw	s7,12(sp)
20002838:	c462                	sw	s8,8(sp)
2000283a:	c266                	sw	s9,4(sp)
2000283c:	1800                	addi	s0,sp,48
2000283e:	8942                	mv	s2,a6
20002840:	89be                	mv	s3,a5
20002842:	8a3a                	mv	s4,a4
20002844:	8b2a                	mv	s6,a0
20002846:	4805                	li	a6,1
20002848:	03050423          	sb	a6,40(a0)
2000284c:	00c52883          	lw	a7,12(a0)
20002850:	08088163          	beqz	a7,200028d2 <_ZN84_$LT$capsules..virtual_uart..MuxUart$u20$as$u20$kernel..hil..uart..ReceiveClient$GT$15received_buffer17h105950d4da6a339bE+0xae>
20002854:	8546                	mv	a0,a7
20002856:	0248a883          	lw	a7,36(a7)
2000285a:	03954703          	lbu	a4,57(a0)
2000285e:	db6d                	beqz	a4,20002850 <_ZN84_$LT$capsules..virtual_uart..MuxUart$u20$as$u20$kernel..hil..uart..ReceiveClient$GT$15received_buffer17h105950d4da6a339bE+0x2c>
20002860:	00c52283          	lw	t0,12(a0)
20002864:	00052623          	sw	zero,12(a0)
20002868:	fe0284e3          	beqz	t0,20002850 <_ZN84_$LT$capsules..virtual_uart..MuxUart$u20$as$u20$kernel..hil..uart..ReceiveClient$GT$15received_buffer17h105950d4da6a339bE+0x2c>
2000286c:	01052303          	lw	t1,16(a0)
20002870:	01452383          	lw	t2,20(a0)
20002874:	4d18                	lw	a4,24(a0)
20002876:	40770eb3          	sub	t4,a4,t2
2000287a:	00dee363          	bltu	t4,a3,20002880 <_ZN84_$LT$capsules..virtual_uart..MuxUart$u20$as$u20$kernel..hil..uart..ReceiveClient$GT$15received_buffer17h105950d4da6a339bE+0x5c>
2000287e:	8eb6                	mv	t4,a3
20002880:	03850703          	lb	a4,56(a0)
20002884:	177d                	addi	a4,a4,-1
20002886:	0ff77713          	andi	a4,a4,255
2000288a:	02e86b63          	bltu	a6,a4,200028c0 <_ZN84_$LT$capsules..virtual_uart..MuxUart$u20$as$u20$kernel..hil..uart..ReceiveClient$GT$15received_buffer17h105950d4da6a339bE+0x9c>
2000288e:	00728e33          	add	t3,t0,t2
20002892:	4781                	li	a5,0
20002894:	03d7f663          	bgeu	a5,t4,200028c0 <_ZN84_$LT$capsules..virtual_uart..MuxUart$u20$as$u20$kernel..hil..uart..ReceiveClient$GT$15received_buffer17h105950d4da6a339bE+0x9c>
20002898:	00178713          	addi	a4,a5,1
2000289c:	02f76263          	bltu	a4,a5,200028c0 <_ZN84_$LT$capsules..virtual_uart..MuxUart$u20$as$u20$kernel..hil..uart..ReceiveClient$GT$15received_buffer17h105950d4da6a339bE+0x9c>
200028a0:	0ec7f263          	bgeu	a5,a2,20002984 <_ZN84_$LT$capsules..virtual_uart..MuxUart$u20$as$u20$kernel..hil..uart..ReceiveClient$GT$15received_buffer17h105950d4da6a339bE+0x160>
200028a4:	00f384b3          	add	s1,t2,a5
200028a8:	0e64f463          	bgeu	s1,t1,20002990 <_ZN84_$LT$capsules..virtual_uart..MuxUart$u20$as$u20$kernel..hil..uart..ReceiveClient$GT$15received_buffer17h105950d4da6a339bE+0x16c>
200028ac:	00fe04b3          	add	s1,t3,a5
200028b0:	97ae                	add	a5,a5,a1
200028b2:	00078783          	lb	a5,0(a5)
200028b6:	00f48023          	sb	a5,0(s1)
200028ba:	87ba                	mv	a5,a4
200028bc:	fdd7eee3          	bltu	a5,t4,20002898 <_ZN84_$LT$capsules..virtual_uart..MuxUart$u20$as$u20$kernel..hil..uart..ReceiveClient$GT$15received_buffer17h105950d4da6a339bE+0x74>
200028c0:	00652823          	sw	t1,16(a0)
200028c4:	00552623          	sw	t0,12(a0)
200028c8:	007e8733          	add	a4,t4,t2
200028cc:	c958                	sw	a4,20(a0)
200028ce:	f80893e3          	bnez	a7,20002854 <_ZN84_$LT$capsules..virtual_uart..MuxUart$u20$as$u20$kernel..hil..uart..ReceiveClient$GT$15received_buffer17h105950d4da6a339bE+0x30>
200028d2:	00cb2c23          	sw	a2,24(s6)
200028d6:	00bb2a23          	sw	a1,20(s6)
200028da:	04000a93          	li	s5,64
200028de:	00cb2c03          	lw	s8,12(s6)
200028e2:	4b89                	li	s7,2
200028e4:	4c81                	li	s9,0
200028e6:	060c0763          	beqz	s8,20002954 <_ZN84_$LT$capsules..virtual_uart..MuxUart$u20$as$u20$kernel..hil..uart..ReceiveClient$GT$15received_buffer17h105950d4da6a339bE+0x130>
200028ea:	84e2                	mv	s1,s8
200028ec:	024c2c03          	lw	s8,36(s8)
200028f0:	0394c503          	lbu	a0,57(s1)
200028f4:	d96d                	beqz	a0,200028e6 <_ZN84_$LT$capsules..virtual_uart..MuxUart$u20$as$u20$kernel..hil..uart..ReceiveClient$GT$15received_buffer17h105950d4da6a339bE+0xc2>
200028f6:	44cc                	lw	a1,12(s1)
200028f8:	0004a623          	sw	zero,12(s1)
200028fc:	d5ed                	beqz	a1,200028e6 <_ZN84_$LT$capsules..virtual_uart..MuxUart$u20$as$u20$kernel..hil..uart..ReceiveClient$GT$15received_buffer17h105950d4da6a339bE+0xc2>
200028fe:	4890                	lw	a2,16(s1)
20002900:	48d4                	lw	a3,20(s1)
20002902:	4c88                	lw	a0,24(s1)
20002904:	8d15                	sub	a0,a0,a3
20002906:	c919                	beqz	a0,2000291c <_ZN84_$LT$capsules..virtual_uart..MuxUart$u20$as$u20$kernel..hil..uart..ReceiveClient$GT$15received_buffer17h105950d4da6a339bE+0xf8>
20002908:	0384c703          	lbu	a4,56(s1)
2000290c:	03771c63          	bne	a4,s7,20002944 <_ZN84_$LT$capsules..virtual_uart..MuxUart$u20$as$u20$kernel..hil..uart..ReceiveClient$GT$15received_buffer17h105950d4da6a339bE+0x120>
20002910:	02048c23          	sb	zero,56(s1)
20002914:	8526                	mv	a0,s1
20002916:	4725                	li	a4,9
20002918:	4819                	li	a6,6
2000291a:	a039                	j	20002928 <_ZN84_$LT$capsules..virtual_uart..MuxUart$u20$as$u20$kernel..hil..uart..ReceiveClient$GT$15received_buffer17h105950d4da6a339bE+0x104>
2000291c:	02048c23          	sb	zero,56(s1)
20002920:	8526                	mv	a0,s1
20002922:	8752                	mv	a4,s4
20002924:	87ce                	mv	a5,s3
20002926:	884a                	mv	a6,s2
20002928:	00000097          	auipc	ra,0x0
2000292c:	084080e7          	jalr	132(ra) # 200029ac <_ZN87_$LT$capsules..virtual_uart..UartDevice$u20$as$u20$kernel..hil..uart..ReceiveClient$GT$15received_buffer17ha0f773a3592c4826E>
20002930:	0384c583          	lbu	a1,56(s1)
20002934:	4505                	li	a0,1
20002936:	00a58363          	beq	a1,a0,2000293c <_ZN84_$LT$capsules..virtual_uart..MuxUart$u20$as$u20$kernel..hil..uart..ReceiveClient$GT$15received_buffer17h105950d4da6a339bE+0x118>
2000293a:	8566                	mv	a0,s9
2000293c:	8caa                	mv	s9,a0
2000293e:	fa0c16e3          	bnez	s8,200028ea <_ZN84_$LT$capsules..virtual_uart..MuxUart$u20$as$u20$kernel..hil..uart..ReceiveClient$GT$15received_buffer17h105950d4da6a339bE+0xc6>
20002942:	a809                	j	20002954 <_ZN84_$LT$capsules..virtual_uart..MuxUart$u20$as$u20$kernel..hil..uart..ReceiveClient$GT$15received_buffer17h105950d4da6a339bE+0x130>
20002944:	c4cc                	sw	a1,12(s1)
20002946:	01556363          	bltu	a0,s5,2000294c <_ZN84_$LT$capsules..virtual_uart..MuxUart$u20$as$u20$kernel..hil..uart..ReceiveClient$GT$15received_buffer17h105950d4da6a339bE+0x128>
2000294a:	8556                	mv	a0,s5
2000294c:	4c85                	li	s9,1
2000294e:	8aaa                	mv	s5,a0
20002950:	f80c1de3          	bnez	s8,200028ea <_ZN84_$LT$capsules..virtual_uart..MuxUart$u20$as$u20$kernel..hil..uart..ReceiveClient$GT$15received_buffer17h105950d4da6a339bE+0xc6>
20002954:	020b0423          	sb	zero,40(s6)
20002958:	0ffcf513          	andi	a0,s9,255
2000295c:	c519                	beqz	a0,2000296a <_ZN84_$LT$capsules..virtual_uart..MuxUart$u20$as$u20$kernel..hil..uart..ReceiveClient$GT$15received_buffer17h105950d4da6a339bE+0x146>
2000295e:	855a                	mv	a0,s6
20002960:	85d6                	mv	a1,s5
20002962:	00000097          	auipc	ra,0x0
20002966:	06e080e7          	jalr	110(ra) # 200029d0 <_ZN8capsules12virtual_uart7MuxUart13start_receive17h9466b899151ce568E.llvm.7451552779126310041>
2000296a:	4c92                	lw	s9,4(sp)
2000296c:	4c22                	lw	s8,8(sp)
2000296e:	4bb2                	lw	s7,12(sp)
20002970:	4b42                	lw	s6,16(sp)
20002972:	4ad2                	lw	s5,20(sp)
20002974:	4a62                	lw	s4,24(sp)
20002976:	49f2                	lw	s3,28(sp)
20002978:	5902                	lw	s2,32(sp)
2000297a:	5492                	lw	s1,36(sp)
2000297c:	5422                	lw	s0,40(sp)
2000297e:	50b2                	lw	ra,44(sp)
20002980:	6145                	addi	sp,sp,48
20002982:	8082                	ret
20002984:	10001537          	lui	a0,0x10001
20002988:	23850513          	addi	a0,a0,568 # 10001238 <.Lanon.3c0d4a00c77a4e6f3bf8ec2b8ed430b9.16>
2000298c:	85be                	mv	a1,a5
2000298e:	a039                	j	2000299c <_ZN84_$LT$capsules..virtual_uart..MuxUart$u20$as$u20$kernel..hil..uart..ReceiveClient$GT$15received_buffer17h105950d4da6a339bE+0x178>
20002990:	10001537          	lui	a0,0x10001
20002994:	24850513          	addi	a0,a0,584 # 10001248 <.Lanon.3c0d4a00c77a4e6f3bf8ec2b8ed430b9.17>
20002998:	85a6                	mv	a1,s1
2000299a:	861a                	mv	a2,t1
2000299c:	00002097          	auipc	ra,0x2
200029a0:	18c080e7          	jalr	396(ra) # 20004b28 <_ZN4core9panicking18panic_bounds_check17h95c8cd8536e82dafE>
200029a4:	0000c097          	auipc	ra,0xc
200029a8:	238080e7          	jalr	568(ra) # 2000ebdc <abort>

200029ac <_ZN87_$LT$capsules..virtual_uart..UartDevice$u20$as$u20$kernel..hil..uart..ReceiveClient$GT$15received_buffer17ha0f773a3592c4826E>:
200029ac:	1141                	addi	sp,sp,-16
200029ae:	c606                	sw	ra,12(sp)
200029b0:	c422                	sw	s0,8(sp)
200029b2:	0800                	addi	s0,sp,16
200029b4:	88aa                	mv	a7,a0
200029b6:	5508                	lw	a0,40(a0)
200029b8:	c901                	beqz	a0,200029c8 <_ZN87_$LT$capsules..virtual_uart..UartDevice$u20$as$u20$kernel..hil..uart..ReceiveClient$GT$15received_buffer17ha0f773a3592c4826E+0x1c>
200029ba:	02c8a283          	lw	t0,44(a7)
200029be:	02088c23          	sb	zero,56(a7)
200029c2:	0102a883          	lw	a7,16(t0)
200029c6:	9882                	jalr	a7
200029c8:	4422                	lw	s0,8(sp)
200029ca:	40b2                	lw	ra,12(sp)
200029cc:	0141                	addi	sp,sp,16
200029ce:	8082                	ret

200029d0 <_ZN8capsules12virtual_uart7MuxUart13start_receive17h9466b899151ce568E.llvm.7451552779126310041>:
200029d0:	1101                	addi	sp,sp,-32
200029d2:	ce06                	sw	ra,28(sp)
200029d4:	cc22                	sw	s0,24(sp)
200029d6:	1000                	addi	s0,sp,32
200029d8:	4950                	lw	a2,20(a0)
200029da:	00052a23          	sw	zero,20(a0)
200029de:	ce09                	beqz	a2,200029f8 <_ZN8capsules12virtual_uart7MuxUart13start_receive17h9466b899151ce568E.llvm.7451552779126310041+0x28>
200029e0:	4d14                	lw	a3,24(a0)
200029e2:	8736                	mv	a4,a3
200029e4:	00b6e363          	bltu	a3,a1,200029ea <_ZN8capsules12virtual_uart7MuxUart13start_receive17h9466b899151ce568E.llvm.7451552779126310041+0x1a>
200029e8:	872e                	mv	a4,a1
200029ea:	410c                	lw	a1,0(a0)
200029ec:	4148                	lw	a0,4(a0)
200029ee:	491c                	lw	a5,16(a0)
200029f0:	fe840513          	addi	a0,s0,-24
200029f4:	9782                	jalr	a5
200029f6:	a809                	j	20002a08 <_ZN8capsules12virtual_uart7MuxUart13start_receive17h9466b899151ce568E.llvm.7451552779126310041+0x38>
200029f8:	02854583          	lbu	a1,40(a0)
200029fc:	e591                	bnez	a1,20002a08 <_ZN8capsules12virtual_uart7MuxUart13start_receive17h9466b899151ce568E.llvm.7451552779126310041+0x38>
200029fe:	410c                	lw	a1,0(a0)
20002a00:	4148                	lw	a0,4(a0)
20002a02:	4d10                	lw	a2,24(a0)
20002a04:	852e                	mv	a0,a1
20002a06:	9602                	jalr	a2
20002a08:	4462                	lw	s0,24(sp)
20002a0a:	40f2                	lw	ra,28(sp)
20002a0c:	6105                	addi	sp,sp,32
20002a0e:	8082                	ret

20002a10 <_ZN116_$LT$capsules..virtual_uart..MuxUart$u20$as$u20$kernel..common..dynamic_deferred_call..DynamicDeferredCallClient$GT$4call17hce6704ccc8611324E>:
20002a10:	1141                	addi	sp,sp,-16
20002a12:	c606                	sw	ra,12(sp)
20002a14:	c422                	sw	s0,8(sp)
20002a16:	0800                	addi	s0,sp,16
20002a18:	4422                	lw	s0,8(sp)
20002a1a:	40b2                	lw	ra,12(sp)
20002a1c:	0141                	addi	sp,sp,16
20002a1e:	00000317          	auipc	t1,0x0
20002a22:	d1c30067          	jr	-740(t1) # 2000273a <_ZN8capsules12virtual_uart7MuxUart10do_next_op17h1bafba8c399d1c32E>

20002a26 <_ZN82_$LT$capsules..virtual_uart..UartDevice$u20$as$u20$kernel..hil..uart..Transmit$GT$19set_transmit_client17h2a84daaa33de684fE>:
20002a26:	1141                	addi	sp,sp,-16
20002a28:	c606                	sw	ra,12(sp)
20002a2a:	c422                	sw	s0,8(sp)
20002a2c:	0800                	addi	s0,sp,16
20002a2e:	d950                	sw	a2,52(a0)
20002a30:	d90c                	sw	a1,48(a0)
20002a32:	4422                	lw	s0,8(sp)
20002a34:	40b2                	lw	ra,12(sp)
20002a36:	0141                	addi	sp,sp,16
20002a38:	8082                	ret

20002a3a <_ZN82_$LT$capsules..virtual_uart..UartDevice$u20$as$u20$kernel..hil..uart..Transmit$GT$14transmit_abort17h2a1c25fdb0fabd20E>:
20002a3a:	1141                	addi	sp,sp,-16
20002a3c:	c606                	sw	ra,12(sp)
20002a3e:	c422                	sw	s0,8(sp)
20002a40:	0800                	addi	s0,sp,16
20002a42:	4509                	li	a0,2
20002a44:	4422                	lw	s0,8(sp)
20002a46:	40b2                	lw	ra,12(sp)
20002a48:	0141                	addi	sp,sp,16
20002a4a:	8082                	ret

20002a4c <_ZN82_$LT$capsules..virtual_uart..UartDevice$u20$as$u20$kernel..hil..uart..Transmit$GT$15transmit_buffer17heb3b4b7eb1f62e29E>:
20002a4c:	1141                	addi	sp,sp,-16
20002a4e:	c606                	sw	ra,12(sp)
20002a50:	c422                	sw	s0,8(sp)
20002a52:	c226                	sw	s1,4(sp)
20002a54:	c04a                	sw	s2,0(sp)
20002a56:	0800                	addi	s0,sp,16
20002a58:	84aa                	mv	s1,a0
20002a5a:	03a5c503          	lbu	a0,58(a1)
20002a5e:	c501                	beqz	a0,20002a66 <_ZN82_$LT$capsules..virtual_uart..UartDevice$u20$as$u20$kernel..hil..uart..Transmit$GT$15transmit_buffer17heb3b4b7eb1f62e29E+0x1a>
20002a60:	c4d4                	sw	a3,12(s1)
20002a62:	490d                	li	s2,3
20002a64:	a839                	j	20002a82 <_ZN82_$LT$capsules..virtual_uart..UartDevice$u20$as$u20$kernel..hil..uart..Transmit$GT$15transmit_buffer17heb3b4b7eb1f62e29E+0x36>
20002a66:	d198                	sw	a4,32(a1)
20002a68:	c594                	sw	a3,8(a1)
20002a6a:	c1d0                	sw	a2,4(a1)
20002a6c:	0005ae23          	sw	zero,28(a1)
20002a70:	4905                	li	s2,1
20002a72:	03258d23          	sb	s2,58(a1)
20002a76:	4188                	lw	a0,0(a1)
20002a78:	00000097          	auipc	ra,0x0
20002a7c:	01c080e7          	jalr	28(ra) # 20002a94 <_ZN8capsules12virtual_uart7MuxUart16do_next_op_async17hefa63ee6757175cfE>
20002a80:	4601                	li	a2,0
20002a82:	c490                	sw	a2,8(s1)
20002a84:	0124a023          	sw	s2,0(s1)
20002a88:	4902                	lw	s2,0(sp)
20002a8a:	4492                	lw	s1,4(sp)
20002a8c:	4422                	lw	s0,8(sp)
20002a8e:	40b2                	lw	ra,12(sp)
20002a90:	0141                	addi	sp,sp,16
20002a92:	8082                	ret

20002a94 <_ZN8capsules12virtual_uart7MuxUart16do_next_op_async17hefa63ee6757175cfE>:
20002a94:	1141                	addi	sp,sp,-16
20002a96:	c606                	sw	ra,12(sp)
20002a98:	c422                	sw	s0,8(sp)
20002a9a:	0800                	addi	s0,sp,16
20002a9c:	510c                	lw	a1,32(a0)
20002a9e:	c595                	beqz	a1,20002aca <_ZN8capsules12virtual_uart7MuxUart16do_next_op_async17hefa63ee6757175cfE+0x36>
20002aa0:	514c                	lw	a1,36(a0)
20002aa2:	4d48                	lw	a0,28(a0)
20002aa4:	4150                	lw	a2,4(a0)
20002aa6:	02c5f663          	bgeu	a1,a2,20002ad2 <_ZN8capsules12virtual_uart7MuxUart16do_next_op_async17hefa63ee6757175cfE+0x3e>
20002aaa:	4631                	li	a2,12
20002aac:	02c585b3          	mul	a1,a1,a2
20002ab0:	4110                	lw	a2,0(a0)
20002ab2:	95b2                	add	a1,a1,a2
20002ab4:	4190                	lw	a2,0(a1)
20002ab6:	ca11                	beqz	a2,20002aca <_ZN8capsules12virtual_uart7MuxUart16do_next_op_async17hefa63ee6757175cfE+0x36>
20002ab8:	05a1                	addi	a1,a1,8
20002aba:	0005c603          	lbu	a2,0(a1)
20002abe:	e611                	bnez	a2,20002aca <_ZN8capsules12virtual_uart7MuxUart16do_next_op_async17hefa63ee6757175cfE+0x36>
20002ac0:	4605                	li	a2,1
20002ac2:	00c58023          	sb	a2,0(a1)
20002ac6:	00c50623          	sb	a2,12(a0)
20002aca:	4422                	lw	s0,8(sp)
20002acc:	40b2                	lw	ra,12(sp)
20002ace:	0141                	addi	sp,sp,16
20002ad0:	8082                	ret
20002ad2:	10002537          	lui	a0,0x10002
20002ad6:	89c50513          	addi	a0,a0,-1892 # 1000189c <.Lanon.4c464de74907d66a71b3f87dff4c9859.1>
20002ada:	00002097          	auipc	ra,0x2
20002ade:	04e080e7          	jalr	78(ra) # 20004b28 <_ZN4core9panicking18panic_bounds_check17h95c8cd8536e82dafE>
20002ae2:	0000c097          	auipc	ra,0xc
20002ae6:	0fa080e7          	jalr	250(ra) # 2000ebdc <abort>

20002aea <_ZN82_$LT$capsules..virtual_uart..UartDevice$u20$as$u20$kernel..hil..uart..Transmit$GT$13transmit_word17h9478ad3eaec7ecbfE>:
20002aea:	1141                	addi	sp,sp,-16
20002aec:	c606                	sw	ra,12(sp)
20002aee:	c422                	sw	s0,8(sp)
20002af0:	c226                	sw	s1,4(sp)
20002af2:	0800                	addi	s0,sp,16
20002af4:	448d                	li	s1,3
20002af6:	03a54603          	lbu	a2,58(a0)
20002afa:	ea19                	bnez	a2,20002b10 <_ZN82_$LT$capsules..virtual_uart..UartDevice$u20$as$u20$kernel..hil..uart..Transmit$GT$13transmit_word17h9478ad3eaec7ecbfE+0x26>
20002afc:	d10c                	sw	a1,32(a0)
20002afe:	4485                	li	s1,1
20002b00:	cd44                	sw	s1,28(a0)
20002b02:	02950d23          	sb	s1,58(a0)
20002b06:	4108                	lw	a0,0(a0)
20002b08:	00000097          	auipc	ra,0x0
20002b0c:	f8c080e7          	jalr	-116(ra) # 20002a94 <_ZN8capsules12virtual_uart7MuxUart16do_next_op_async17hefa63ee6757175cfE>
20002b10:	8526                	mv	a0,s1
20002b12:	4492                	lw	s1,4(sp)
20002b14:	4422                	lw	s0,8(sp)
20002b16:	40b2                	lw	ra,12(sp)
20002b18:	0141                	addi	sp,sp,16
20002b1a:	8082                	ret

20002b1c <_ZN81_$LT$capsules..virtual_uart..UartDevice$u20$as$u20$kernel..hil..uart..Receive$GT$18set_receive_client17h03a4aa7db4d6aa92E>:
20002b1c:	1141                	addi	sp,sp,-16
20002b1e:	c606                	sw	ra,12(sp)
20002b20:	c422                	sw	s0,8(sp)
20002b22:	0800                	addi	s0,sp,16
20002b24:	d550                	sw	a2,44(a0)
20002b26:	d50c                	sw	a1,40(a0)
20002b28:	4422                	lw	s0,8(sp)
20002b2a:	40b2                	lw	ra,12(sp)
20002b2c:	0141                	addi	sp,sp,16
20002b2e:	8082                	ret

20002b30 <_ZN81_$LT$capsules..virtual_uart..UartDevice$u20$as$u20$kernel..hil..uart..Receive$GT$14receive_buffer17h385739172351be04E>:
20002b30:	1101                	addi	sp,sp,-32
20002b32:	ce06                	sw	ra,28(sp)
20002b34:	cc22                	sw	s0,24(sp)
20002b36:	ca26                	sw	s1,20(sp)
20002b38:	c84a                	sw	s2,16(sp)
20002b3a:	c64e                	sw	s3,12(sp)
20002b3c:	c452                	sw	s4,8(sp)
20002b3e:	c256                	sw	s5,4(sp)
20002b40:	1000                	addi	s0,sp,32
20002b42:	8a3a                	mv	s4,a4
20002b44:	8ab6                	mv	s5,a3
20002b46:	89b2                	mv	s3,a2
20002b48:	84ae                	mv	s1,a1
20002b4a:	892a                	mv	s2,a0
20002b4c:	00c58513          	addi	a0,a1,12
20002b50:	00000097          	auipc	ra,0x0
20002b54:	a1a080e7          	jalr	-1510(ra) # 2000256a <_ZN10tock_cells9take_cell17TakeCell$LT$T$GT$7is_none17h336e9ee827e529e9E>
20002b58:	c515                	beqz	a0,20002b84 <_ZN81_$LT$capsules..virtual_uart..UartDevice$u20$as$u20$kernel..hil..uart..Receive$GT$14receive_buffer17h385739172351be04E+0x54>
20002b5a:	0154a823          	sw	s5,16(s1)
20002b5e:	0134a623          	sw	s3,12(s1)
20002b62:	0144ac23          	sw	s4,24(s1)
20002b66:	02048c23          	sb	zero,56(s1)
20002b6a:	0004aa23          	sw	zero,20(s1)
20002b6e:	4088                	lw	a0,0(s1)
20002b70:	85d2                	mv	a1,s4
20002b72:	00000097          	auipc	ra,0x0
20002b76:	e5e080e7          	jalr	-418(ra) # 200029d0 <_ZN8capsules12virtual_uart7MuxUart13start_receive17h9466b899151ce568E.llvm.7451552779126310041>
20002b7a:	4505                	li	a0,1
20002b7c:	02a48c23          	sb	a0,56(s1)
20002b80:	4981                	li	s3,0
20002b82:	a021                	j	20002b8a <_ZN81_$LT$capsules..virtual_uart..UartDevice$u20$as$u20$kernel..hil..uart..Receive$GT$14receive_buffer17h385739172351be04E+0x5a>
20002b84:	01592623          	sw	s5,12(s2)
20002b88:	450d                	li	a0,3
20002b8a:	01392423          	sw	s3,8(s2)
20002b8e:	00a92023          	sw	a0,0(s2)
20002b92:	4a92                	lw	s5,4(sp)
20002b94:	4a22                	lw	s4,8(sp)
20002b96:	49b2                	lw	s3,12(sp)
20002b98:	4942                	lw	s2,16(sp)
20002b9a:	44d2                	lw	s1,20(sp)
20002b9c:	4462                	lw	s0,24(sp)
20002b9e:	40f2                	lw	ra,28(sp)
20002ba0:	6105                	addi	sp,sp,32
20002ba2:	8082                	ret

20002ba4 <_ZN81_$LT$capsules..virtual_uart..UartDevice$u20$as$u20$kernel..hil..uart..Receive$GT$13receive_abort17hf401e70265598021E>:
20002ba4:	1141                	addi	sp,sp,-16
20002ba6:	c606                	sw	ra,12(sp)
20002ba8:	c422                	sw	s0,8(sp)
20002baa:	0800                	addi	s0,sp,16
20002bac:	4589                	li	a1,2
20002bae:	02b50c23          	sb	a1,56(a0)
20002bb2:	410c                	lw	a1,0(a0)
20002bb4:	4188                	lw	a0,0(a1)
20002bb6:	41cc                	lw	a1,4(a1)
20002bb8:	4d8c                	lw	a1,24(a1)
20002bba:	9582                	jalr	a1
20002bbc:	450d                	li	a0,3
20002bbe:	4422                	lw	s0,8(sp)
20002bc0:	40b2                	lw	ra,12(sp)
20002bc2:	0141                	addi	sp,sp,16
20002bc4:	8082                	ret

20002bc6 <_ZN81_$LT$capsules..virtual_uart..UartDevice$u20$as$u20$kernel..hil..uart..Receive$GT$12receive_word17ha8bfde264b064d7bE>:
20002bc6:	1141                	addi	sp,sp,-16
20002bc8:	c606                	sw	ra,12(sp)
20002bca:	c422                	sw	s0,8(sp)
20002bcc:	0800                	addi	s0,sp,16
20002bce:	4509                	li	a0,2
20002bd0:	4422                	lw	s0,8(sp)
20002bd2:	40b2                	lw	ra,12(sp)
20002bd4:	0141                	addi	sp,sp,16
20002bd6:	8082                	ret

20002bd8 <_ZN8capsules7console7Console4send17h20a0534538ac05b3E.llvm.1572837499751554839>:
20002bd8:	7159                	addi	sp,sp,-112
20002bda:	d686                	sw	ra,108(sp)
20002bdc:	d4a2                	sw	s0,104(sp)
20002bde:	d2a6                	sw	s1,100(sp)
20002be0:	d0ca                	sw	s2,96(sp)
20002be2:	cece                	sw	s3,92(sp)
20002be4:	ccd2                	sw	s4,88(sp)
20002be6:	1880                	addi	s0,sp,112
20002be8:	89b6                	mv	s3,a3
20002bea:	f8c42a23          	sw	a2,-108(s0)
20002bee:	f8a42823          	sw	a0,-112(s0)
20002bf2:	4914                	lw	a3,16(a0)
20002bf4:	c29d                	beqz	a3,20002c1a <_ZN8capsules7console7Console4send17h20a0534538ac05b3E.llvm.1572837499751554839+0x42>
20002bf6:	4505                	li	a0,1
20002bf8:	06a60623          	sb	a0,108(a2)
20002bfc:	01c60493          	addi	s1,a2,28
20002c00:	8526                	mv	a0,s1
20002c02:	00000097          	auipc	ra,0x0
20002c06:	12c080e7          	jalr	300(ra) # 20002d2e <_ZN4core3ptr13drop_in_place17h9658d033c47788cbE.240>
20002c0a:	8526                	mv	a0,s1
20002c0c:	85ce                	mv	a1,s3
20002c0e:	4651                	li	a2,20
20002c10:	00009097          	auipc	ra,0x9
20002c14:	8ce080e7          	jalr	-1842(ra) # 2000b4de <memcpy>
20002c18:	a8dd                	j	20002d0e <_ZN8capsules7console7Console4send17h20a0534538ac05b3E.llvm.1572837499751554839+0x136>
20002c1a:	01050613          	addi	a2,a0,16
20002c1e:	4594                	lw	a3,8(a1)
20002c20:	c614                	sw	a3,8(a2)
20002c22:	41d4                	lw	a3,4(a1)
20002c24:	c254                	sw	a3,4(a2)
20002c26:	418c                	lw	a1,0(a1)
20002c28:	c20c                	sw	a1,0(a2)
20002c2a:	01c52903          	lw	s2,28(a0)
20002c2e:	00052e23          	sw	zero,28(a0)
20002c32:	5104                	lw	s1,32(a0)
20002c34:	f9440513          	addi	a0,s0,-108
20002c38:	f8a42c23          	sw	a0,-104(s0)
20002c3c:	f9c40a13          	addi	s4,s0,-100
20002c40:	8552                	mv	a0,s4
20002c42:	85ce                	mv	a1,s3
20002c44:	4651                	li	a2,20
20002c46:	00009097          	auipc	ra,0x9
20002c4a:	898080e7          	jalr	-1896(ra) # 2000b4de <memcpy>
20002c4e:	f9040513          	addi	a0,s0,-112
20002c52:	faa42823          	sw	a0,-80(s0)
20002c56:	08090563          	beqz	s2,20002ce0 <_ZN8capsules7console7Console4send17h20a0534538ac05b3E.llvm.1572837499751554839+0x108>
20002c5a:	fb840513          	addi	a0,s0,-72
20002c5e:	f9840593          	addi	a1,s0,-104
20002c62:	4671                	li	a2,28
20002c64:	00009097          	auipc	ra,0x9
20002c68:	87a080e7          	jalr	-1926(ra) # 2000b4de <memcpy>
20002c6c:	fb842a03          	lw	s4,-72(s0)
20002c70:	000a2503          	lw	a0,0(s4)
20002c74:	5958                	lw	a4,52(a0)
20002c76:	fcc42583          	lw	a1,-52(s0)
20002c7a:	40e58533          	sub	a0,a1,a4
20002c7e:	0ae5e063          	bltu	a1,a4,20002d1e <_ZN8capsules7console7Console4send17h20a0534538ac05b3E.llvm.1572837499751554839+0x146>
20002c82:	fbc40993          	addi	s3,s0,-68
20002c86:	fbc42583          	lw	a1,-68(s0)
20002c8a:	952e                	add	a0,a0,a1
20002c8c:	4581                	li	a1,0
20002c8e:	00b70f63          	beq	a4,a1,20002cac <_ZN8capsules7console7Console4send17h20a0534538ac05b3E.llvm.1572837499751554839+0xd4>
20002c92:	00b48d63          	beq	s1,a1,20002cac <_ZN8capsules7console7Console4send17h20a0534538ac05b3E.llvm.1572837499751554839+0xd4>
20002c96:	00b50633          	add	a2,a0,a1
20002c9a:	00b906b3          	add	a3,s2,a1
20002c9e:	00060603          	lb	a2,0(a2)
20002ca2:	00c68023          	sb	a2,0(a3)
20002ca6:	0585                	addi	a1,a1,1
20002ca8:	feb715e3          	bne	a4,a1,20002c92 <_ZN8capsules7console7Console4send17h20a0534538ac05b3E.llvm.1572837499751554839+0xba>
20002cac:	000a2503          	lw	a0,0(s4)
20002cb0:	594c                	lw	a1,52(a0)
20002cb2:	02b4f963          	bgeu	s1,a1,20002ce4 <_ZN8capsules7console7Console4send17h20a0534538ac05b3E.llvm.1572837499751554839+0x10c>
20002cb6:	8d85                	sub	a1,a1,s1
20002cb8:	d94c                	sw	a1,52(a0)
20002cba:	000a2503          	lw	a0,0(s4)
20002cbe:	0571                	addi	a0,a0,28
20002cc0:	00000097          	auipc	ra,0x0
20002cc4:	06e080e7          	jalr	110(ra) # 20002d2e <_ZN4core3ptr13drop_in_place17h9658d033c47788cbE.240>
20002cc8:	000a2503          	lw	a0,0(s4)
20002ccc:	0571                	addi	a0,a0,28
20002cce:	85ce                	mv	a1,s3
20002cd0:	4651                	li	a2,20
20002cd2:	00009097          	auipc	ra,0x9
20002cd6:	80c080e7          	jalr	-2036(ra) # 2000b4de <memcpy>
20002cda:	4a01                	li	s4,0
20002cdc:	8726                	mv	a4,s1
20002cde:	a031                	j	20002cea <_ZN8capsules7console7Console4send17h20a0534538ac05b3E.llvm.1572837499751554839+0x112>
20002ce0:	8552                	mv	a0,s4
20002ce2:	a015                	j	20002d06 <_ZN8capsules7console7Console4send17h20a0534538ac05b3E.llvm.1572837499751554839+0x12e>
20002ce4:	02052a23          	sw	zero,52(a0)
20002ce8:	4a05                	li	s4,1
20002cea:	fd042503          	lw	a0,-48(s0)
20002cee:	4108                	lw	a0,0(a0)
20002cf0:	410c                	lw	a1,0(a0)
20002cf2:	4148                	lw	a0,4(a0)
20002cf4:	511c                	lw	a5,32(a0)
20002cf6:	fd840513          	addi	a0,s0,-40
20002cfa:	864a                	mv	a2,s2
20002cfc:	86a6                	mv	a3,s1
20002cfe:	9782                	jalr	a5
20002d00:	000a0763          	beqz	s4,20002d0e <_ZN8capsules7console7Console4send17h20a0534538ac05b3E.llvm.1572837499751554839+0x136>
20002d04:	854e                	mv	a0,s3
20002d06:	00004097          	auipc	ra,0x4
20002d0a:	e86080e7          	jalr	-378(ra) # 20006b8c <_ZN74_$LT$kernel..mem..AppPtr$LT$L$C$T$GT$$u20$as$u20$core..ops..drop..Drop$GT$4drop17h5721b51cc2d71355E>
20002d0e:	4a66                	lw	s4,88(sp)
20002d10:	49f6                	lw	s3,92(sp)
20002d12:	5906                	lw	s2,96(sp)
20002d14:	5496                	lw	s1,100(sp)
20002d16:	5426                	lw	s0,104(sp)
20002d18:	50b6                	lw	ra,108(sp)
20002d1a:	6165                	addi	sp,sp,112
20002d1c:	8082                	ret
20002d1e:	00002097          	auipc	ra,0x2
20002d22:	358080e7          	jalr	856(ra) # 20005076 <_ZN4core5slice22slice_index_order_fail17hc5e99223d4aacee0E>
20002d26:	0000c097          	auipc	ra,0xc
20002d2a:	eb6080e7          	jalr	-330(ra) # 2000ebdc <abort>

20002d2e <_ZN4core3ptr13drop_in_place17h9658d033c47788cbE.240>:
20002d2e:	1141                	addi	sp,sp,-16
20002d30:	c606                	sw	ra,12(sp)
20002d32:	c422                	sw	s0,8(sp)
20002d34:	0800                	addi	s0,sp,16
20002d36:	410c                	lw	a1,0(a0)
20002d38:	c589                	beqz	a1,20002d42 <_ZN4core3ptr13drop_in_place17h9658d033c47788cbE.240+0x14>
20002d3a:	00004097          	auipc	ra,0x4
20002d3e:	e52080e7          	jalr	-430(ra) # 20006b8c <_ZN74_$LT$kernel..mem..AppPtr$LT$L$C$T$GT$$u20$as$u20$core..ops..drop..Drop$GT$4drop17h5721b51cc2d71355E>
20002d42:	4422                	lw	s0,8(sp)
20002d44:	40b2                	lw	ra,12(sp)
20002d46:	0141                	addi	sp,sp,16
20002d48:	8082                	ret

20002d4a <_ZN8capsules7console7Console13send_continue17h044f730e38ed9be4E>:
20002d4a:	7139                	addi	sp,sp,-64
20002d4c:	de06                	sw	ra,60(sp)
20002d4e:	dc22                	sw	s0,56(sp)
20002d50:	da26                	sw	s1,52(sp)
20002d52:	0080                	addi	s0,sp,64
20002d54:	84aa                	mv	s1,a0
20002d56:	5ac8                	lw	a0,52(a3)
20002d58:	cd2d                	beqz	a0,20002dd2 <_ZN8capsules7console7Console13send_continue17h044f730e38ed9be4E+0x88>
20002d5a:	4ec8                	lw	a0,28(a3)
20002d5c:	0006ae23          	sw	zero,28(a3)
20002d60:	56d8                	lw	a4,44(a3)
20002d62:	fce42623          	sw	a4,-52(s0)
20002d66:	5698                	lw	a4,40(a3)
20002d68:	fce42423          	sw	a4,-56(s0)
20002d6c:	52d8                	lw	a4,36(a3)
20002d6e:	fce42223          	sw	a4,-60(s0)
20002d72:	5298                	lw	a4,32(a3)
20002d74:	fce42023          	sw	a4,-64(s0)
20002d78:	c125                	beqz	a0,20002dd8 <_ZN8capsules7console7Console13send_continue17h044f730e38ed9be4E+0x8e>
20002d7a:	4618                	lw	a4,8(a2)
20002d7c:	fce42c23          	sw	a4,-40(s0)
20002d80:	4258                	lw	a4,4(a2)
20002d82:	fce42a23          	sw	a4,-44(s0)
20002d86:	4210                	lw	a2,0(a2)
20002d88:	fcc42823          	sw	a2,-48(s0)
20002d8c:	fea42023          	sw	a0,-32(s0)
20002d90:	fc042503          	lw	a0,-64(s0)
20002d94:	fea42223          	sw	a0,-28(s0)
20002d98:	fc442503          	lw	a0,-60(s0)
20002d9c:	fea42423          	sw	a0,-24(s0)
20002da0:	fc842503          	lw	a0,-56(s0)
20002da4:	fea42623          	sw	a0,-20(s0)
20002da8:	fcc42503          	lw	a0,-52(s0)
20002dac:	fea42823          	sw	a0,-16(s0)
20002db0:	fd040613          	addi	a2,s0,-48
20002db4:	fe040713          	addi	a4,s0,-32
20002db8:	852e                	mv	a0,a1
20002dba:	85b2                	mv	a1,a2
20002dbc:	8636                	mv	a2,a3
20002dbe:	86ba                	mv	a3,a4
20002dc0:	00000097          	auipc	ra,0x0
20002dc4:	e18080e7          	jalr	-488(ra) # 20002bd8 <_ZN8capsules7console7Console4send17h20a0534538ac05b3E.llvm.1572837499751554839>
20002dc8:	4505                	li	a0,1
20002dca:	00a480a3          	sb	a0,1(s1)
20002dce:	4501                	li	a0,0
20002dd0:	a01d                	j	20002df6 <_ZN8capsules7console7Console13send_continue17h044f730e38ed9be4E+0xac>
20002dd2:	00049023          	sh	zero,0(s1)
20002dd6:	a015                	j	20002dfa <_ZN8capsules7console7Console13send_continue17h044f730e38ed9be4E+0xb0>
20002dd8:	fe240503          	lb	a0,-30(s0)
20002ddc:	00a481a3          	sb	a0,3(s1)
20002de0:	fe140503          	lb	a0,-31(s0)
20002de4:	00a48123          	sb	a0,2(s1)
20002de8:	fe040503          	lb	a0,-32(s0)
20002dec:	00a480a3          	sb	a0,1(s1)
20002df0:	4519                	li	a0,6
20002df2:	c0c8                	sw	a0,4(s1)
20002df4:	4505                	li	a0,1
20002df6:	00a48023          	sb	a0,0(s1)
20002dfa:	54d2                	lw	s1,52(sp)
20002dfc:	5462                	lw	s0,56(sp)
20002dfe:	50f2                	lw	ra,60(sp)
20002e00:	6121                	addi	sp,sp,64
20002e02:	8082                	ret

20002e04 <_ZN69_$LT$capsules..console..Console$u20$as$u20$kernel..driver..Driver$GT$5allow17h9da434dd85ed24edE>:
20002e04:	7111                	addi	sp,sp,-256
20002e06:	df86                	sw	ra,252(sp)
20002e08:	dda2                	sw	s0,248(sp)
20002e0a:	dba6                	sw	s1,244(sp)
20002e0c:	d9ca                	sw	s2,240(sp)
20002e0e:	d7ce                	sw	s3,236(sp)
20002e10:	d5d2                	sw	s4,232(sp)
20002e12:	d3d6                	sw	s5,228(sp)
20002e14:	d1da                	sw	s6,224(sp)
20002e16:	0200                	addi	s0,sp,256
20002e18:	4709                	li	a4,2
20002e1a:	16e60763          	beq	a2,a4,20002f88 <_ZN69_$LT$capsules..console..Console$u20$as$u20$kernel..driver..Driver$GT$5allow17h9da434dd85ed24edE+0x184>
20002e1e:	4705                	li	a4,1
20002e20:	2ae61f63          	bne	a2,a4,200030de <_ZN69_$LT$capsules..console..Console$u20$as$u20$kernel..driver..Driver$GT$5allow17h9da434dd85ed24edE+0x2da>
20002e24:	4590                	lw	a2,8(a1)
20002e26:	f0c42423          	sw	a2,-248(s0)
20002e2a:	41c4                	lw	s1,4(a1)
20002e2c:	f0942223          	sw	s1,-252(s0)
20002e30:	418c                	lw	a1,0(a1)
20002e32:	f0b42023          	sw	a1,-256(s0)
20002e36:	0521                	addi	a0,a0,8
20002e38:	f0a42623          	sw	a0,-244(s0)
20002e3c:	f0c42c23          	sw	a2,-232(s0)
20002e40:	f0942a23          	sw	s1,-236(s0)
20002e44:	f0b42823          	sw	a1,-240(s0)
20002e48:	0045a983          	lw	s3,4(a1)
20002e4c:	0085aa03          	lw	s4,8(a1)
20002e50:	f0040513          	addi	a0,s0,-256
20002e54:	f2a42423          	sw	a0,-216(s0)
20002e58:	f0c40513          	addi	a0,s0,-244
20002e5c:	f2a42223          	sw	a0,-220(s0)
20002e60:	f1040b13          	addi	s6,s0,-240
20002e64:	f3642023          	sw	s6,-224(s0)
20002e68:	f2c40913          	addi	s2,s0,-212
20002e6c:	854a                	mv	a0,s2
20002e6e:	85b6                	mv	a1,a3
20002e70:	4651                	li	a2,20
20002e72:	00008097          	auipc	ra,0x8
20002e76:	66c080e7          	jalr	1644(ra) # 2000b4de <memcpy>
20002e7a:	2744f963          	bgeu	s1,s4,200030ec <_ZN69_$LT$capsules..console..Console$u20$as$u20$kernel..driver..Driver$GT$5allow17h9da434dd85ed24edE+0x2e8>
20002e7e:	f2440593          	addi	a1,s0,-220
20002e82:	00349513          	slli	a0,s1,0x3
20002e86:	954e                	add	a0,a0,s3
20002e88:	00452a83          	lw	s5,4(a0)
20002e8c:	00052a03          	lw	s4,0(a0)
20002e90:	f5642023          	sw	s6,-192(s0)
20002e94:	f4440513          	addi	a0,s0,-188
20002e98:	4671                	li	a2,28
20002e9a:	00008097          	auipc	ra,0x8
20002e9e:	644080e7          	jalr	1604(ra) # 2000b4de <memcpy>
20002ea2:	240a0763          	beqz	s4,200030f0 <_ZN69_$LT$capsules..console..Console$u20$as$u20$kernel..driver..Driver$GT$5allow17h9da434dd85ed24edE+0x2ec>
20002ea6:	f6040513          	addi	a0,s0,-160
20002eaa:	f4040593          	addi	a1,s0,-192
20002eae:	02000613          	li	a2,32
20002eb2:	00008097          	auipc	ra,0x8
20002eb6:	62c080e7          	jalr	1580(ra) # 2000b4de <memcpy>
20002eba:	00caa603          	lw	a2,12(s5)
20002ebe:	fc040513          	addi	a0,s0,-64
20002ec2:	85d2                	mv	a1,s4
20002ec4:	9602                	jalr	a2
20002ec6:	f6042503          	lw	a0,-160(s0)
20002eca:	4508                	lw	a0,8(a0)
20002ecc:	fc842583          	lw	a1,-56(s0)
20002ed0:	22a59363          	bne	a1,a0,200030f6 <_ZN69_$LT$capsules..console..Console$u20$as$u20$kernel..driver..Driver$GT$5allow17h9da434dd85ed24edE+0x2f2>
20002ed4:	f8040513          	addi	a0,s0,-128
20002ed8:	f6440593          	addi	a1,s0,-156
20002edc:	4671                	li	a2,28
20002ede:	00008097          	auipc	ra,0x8
20002ee2:	600080e7          	jalr	1536(ra) # 2000b4de <memcpy>
20002ee6:	07caa603          	lw	a2,124(s5)
20002eea:	f8042503          	lw	a0,-128(s0)
20002eee:	4108                	lw	a0,0(a0)
20002ef0:	414c                	lw	a1,4(a0)
20002ef2:	8552                	mv	a0,s4
20002ef4:	9602                	jalr	a2
20002ef6:	4485                	li	s1,1
20002ef8:	24951463          	bne	a0,s1,20003140 <_ZN69_$LT$capsules..console..Console$u20$as$u20$kernel..driver..Driver$GT$5allow17h9da434dd85ed24edE+0x33c>
20002efc:	89ae                	mv	s3,a1
20002efe:	0005a903          	lw	s2,0(a1)
20002f02:	02091e63          	bnez	s2,20002f3e <_ZN69_$LT$capsules..console..Console$u20$as$u20$kernel..driver..Driver$GT$5allow17h9da434dd85ed24edE+0x13a>
20002f06:	074aa683          	lw	a3,116(s5)
20002f0a:	8552                	mv	a0,s4
20002f0c:	07000593          	li	a1,112
20002f10:	4611                	li	a2,4
20002f12:	9682                	jalr	a3
20002f14:	26050a63          	beqz	a0,20003188 <_ZN69_$LT$capsules..console..Console$u20$as$u20$kernel..driver..Driver$GT$5allow17h9da434dd85ed24edE+0x384>
20002f18:	892a                	mv	s2,a0
20002f1a:	06050623          	sb	zero,108(a0)
20002f1e:	06052423          	sw	zero,104(a0)
20002f22:	04052a23          	sw	zero,84(a0)
20002f26:	02052c23          	sw	zero,56(a0)
20002f2a:	02052a23          	sw	zero,52(a0)
20002f2e:	02052823          	sw	zero,48(a0)
20002f32:	00052e23          	sw	zero,28(a0)
20002f36:	00052023          	sw	zero,0(a0)
20002f3a:	00a9a023          	sw	a0,0(s3)
20002f3e:	4481                	li	s1,0
20002f40:	f8442503          	lw	a0,-124(s0)
20002f44:	410c                	lw	a1,0(a0)
20002f46:	fab42023          	sw	a1,-96(s0)
20002f4a:	414c                	lw	a1,4(a0)
20002f4c:	fab42223          	sw	a1,-92(s0)
20002f50:	4508                	lw	a0,8(a0)
20002f52:	faa42423          	sw	a0,-88(s0)
20002f56:	fac40993          	addi	s3,s0,-84
20002f5a:	f8840593          	addi	a1,s0,-120
20002f5e:	854e                	mv	a0,s3
20002f60:	4651                	li	a2,20
20002f62:	00008097          	auipc	ra,0x8
20002f66:	57c080e7          	jalr	1404(ra) # 2000b4de <memcpy>
20002f6a:	16049363          	bnez	s1,200030d0 <_ZN69_$LT$capsules..console..Console$u20$as$u20$kernel..driver..Driver$GT$5allow17h9da434dd85ed24edE+0x2cc>
20002f6e:	fc040513          	addi	a0,s0,-64
20002f72:	fa040593          	addi	a1,s0,-96
20002f76:	02000613          	li	a2,32
20002f7a:	00008097          	auipc	ra,0x8
20002f7e:	564080e7          	jalr	1380(ra) # 2000b4de <memcpy>
20002f82:	01c90493          	addi	s1,s2,28
20002f86:	a2cd                	j	20003168 <_ZN69_$LT$capsules..console..Console$u20$as$u20$kernel..driver..Driver$GT$5allow17h9da434dd85ed24edE+0x364>
20002f88:	4590                	lw	a2,8(a1)
20002f8a:	f0c42423          	sw	a2,-248(s0)
20002f8e:	41c4                	lw	s1,4(a1)
20002f90:	f0942223          	sw	s1,-252(s0)
20002f94:	418c                	lw	a1,0(a1)
20002f96:	f0b42023          	sw	a1,-256(s0)
20002f9a:	0521                	addi	a0,a0,8
20002f9c:	f0a42623          	sw	a0,-244(s0)
20002fa0:	f0c42c23          	sw	a2,-232(s0)
20002fa4:	f0942a23          	sw	s1,-236(s0)
20002fa8:	f0b42823          	sw	a1,-240(s0)
20002fac:	0045a983          	lw	s3,4(a1)
20002fb0:	0085aa03          	lw	s4,8(a1)
20002fb4:	f0040513          	addi	a0,s0,-256
20002fb8:	f2a42423          	sw	a0,-216(s0)
20002fbc:	f0c40513          	addi	a0,s0,-244
20002fc0:	f2a42223          	sw	a0,-220(s0)
20002fc4:	f1040b13          	addi	s6,s0,-240
20002fc8:	f3642023          	sw	s6,-224(s0)
20002fcc:	f2c40913          	addi	s2,s0,-212
20002fd0:	854a                	mv	a0,s2
20002fd2:	85b6                	mv	a1,a3
20002fd4:	4651                	li	a2,20
20002fd6:	00008097          	auipc	ra,0x8
20002fda:	508080e7          	jalr	1288(ra) # 2000b4de <memcpy>
20002fde:	1144f763          	bgeu	s1,s4,200030ec <_ZN69_$LT$capsules..console..Console$u20$as$u20$kernel..driver..Driver$GT$5allow17h9da434dd85ed24edE+0x2e8>
20002fe2:	f2440593          	addi	a1,s0,-220
20002fe6:	00349513          	slli	a0,s1,0x3
20002fea:	954e                	add	a0,a0,s3
20002fec:	00452a83          	lw	s5,4(a0)
20002ff0:	00052a03          	lw	s4,0(a0)
20002ff4:	f5642023          	sw	s6,-192(s0)
20002ff8:	f4440513          	addi	a0,s0,-188
20002ffc:	4671                	li	a2,28
20002ffe:	00008097          	auipc	ra,0x8
20003002:	4e0080e7          	jalr	1248(ra) # 2000b4de <memcpy>
20003006:	0e0a0563          	beqz	s4,200030f0 <_ZN69_$LT$capsules..console..Console$u20$as$u20$kernel..driver..Driver$GT$5allow17h9da434dd85ed24edE+0x2ec>
2000300a:	f6040513          	addi	a0,s0,-160
2000300e:	f4040593          	addi	a1,s0,-192
20003012:	02000613          	li	a2,32
20003016:	00008097          	auipc	ra,0x8
2000301a:	4c8080e7          	jalr	1224(ra) # 2000b4de <memcpy>
2000301e:	00caa603          	lw	a2,12(s5)
20003022:	fc040513          	addi	a0,s0,-64
20003026:	85d2                	mv	a1,s4
20003028:	9602                	jalr	a2
2000302a:	f6042503          	lw	a0,-160(s0)
2000302e:	4508                	lw	a0,8(a0)
20003030:	fc842583          	lw	a1,-56(s0)
20003034:	0ca59163          	bne	a1,a0,200030f6 <_ZN69_$LT$capsules..console..Console$u20$as$u20$kernel..driver..Driver$GT$5allow17h9da434dd85ed24edE+0x2f2>
20003038:	f8040513          	addi	a0,s0,-128
2000303c:	f6440593          	addi	a1,s0,-156
20003040:	4671                	li	a2,28
20003042:	00008097          	auipc	ra,0x8
20003046:	49c080e7          	jalr	1180(ra) # 2000b4de <memcpy>
2000304a:	07caa603          	lw	a2,124(s5)
2000304e:	f8042503          	lw	a0,-128(s0)
20003052:	4108                	lw	a0,0(a0)
20003054:	414c                	lw	a1,4(a0)
20003056:	8552                	mv	a0,s4
20003058:	9602                	jalr	a2
2000305a:	4485                	li	s1,1
2000305c:	0e951263          	bne	a0,s1,20003140 <_ZN69_$LT$capsules..console..Console$u20$as$u20$kernel..driver..Driver$GT$5allow17h9da434dd85ed24edE+0x33c>
20003060:	89ae                	mv	s3,a1
20003062:	0005a903          	lw	s2,0(a1)
20003066:	02091e63          	bnez	s2,200030a2 <_ZN69_$LT$capsules..console..Console$u20$as$u20$kernel..driver..Driver$GT$5allow17h9da434dd85ed24edE+0x29e>
2000306a:	074aa683          	lw	a3,116(s5)
2000306e:	8552                	mv	a0,s4
20003070:	07000593          	li	a1,112
20003074:	4611                	li	a2,4
20003076:	9682                	jalr	a3
20003078:	10050b63          	beqz	a0,2000318e <_ZN69_$LT$capsules..console..Console$u20$as$u20$kernel..driver..Driver$GT$5allow17h9da434dd85ed24edE+0x38a>
2000307c:	892a                	mv	s2,a0
2000307e:	06050623          	sb	zero,108(a0)
20003082:	06052423          	sw	zero,104(a0)
20003086:	04052a23          	sw	zero,84(a0)
2000308a:	02052c23          	sw	zero,56(a0)
2000308e:	02052a23          	sw	zero,52(a0)
20003092:	02052823          	sw	zero,48(a0)
20003096:	00052e23          	sw	zero,28(a0)
2000309a:	00052023          	sw	zero,0(a0)
2000309e:	00a9a023          	sw	a0,0(s3)
200030a2:	4481                	li	s1,0
200030a4:	f8442503          	lw	a0,-124(s0)
200030a8:	410c                	lw	a1,0(a0)
200030aa:	fab42023          	sw	a1,-96(s0)
200030ae:	414c                	lw	a1,4(a0)
200030b0:	fab42223          	sw	a1,-92(s0)
200030b4:	4508                	lw	a0,8(a0)
200030b6:	faa42423          	sw	a0,-88(s0)
200030ba:	fac40993          	addi	s3,s0,-84
200030be:	f8840593          	addi	a1,s0,-120
200030c2:	854e                	mv	a0,s3
200030c4:	4651                	li	a2,20
200030c6:	00008097          	auipc	ra,0x8
200030ca:	418080e7          	jalr	1048(ra) # 2000b4de <memcpy>
200030ce:	c0c9                	beqz	s1,20003150 <_ZN69_$LT$capsules..console..Console$u20$as$u20$kernel..driver..Driver$GT$5allow17h9da434dd85ed24edE+0x34c>
200030d0:	854e                	mv	a0,s3
200030d2:	fffff097          	auipc	ra,0xfffff
200030d6:	57e080e7          	jalr	1406(ra) # 20002650 <_ZN4core3ptr13drop_in_place17h9658d033c47788cbE>
200030da:	4485                	li	s1,1
200030dc:	a065                	j	20003184 <_ZN69_$LT$capsules..console..Console$u20$as$u20$kernel..driver..Driver$GT$5allow17h9da434dd85ed24edE+0x380>
200030de:	8536                	mv	a0,a3
200030e0:	00000097          	auipc	ra,0x0
200030e4:	c4e080e7          	jalr	-946(ra) # 20002d2e <_ZN4core3ptr13drop_in_place17h9658d033c47788cbE.240>
200030e8:	452d                	li	a0,11
200030ea:	a089                	j	2000312c <_ZN69_$LT$capsules..console..Console$u20$as$u20$kernel..driver..Driver$GT$5allow17h9da434dd85ed24edE+0x328>
200030ec:	854a                	mv	a0,s2
200030ee:	a031                	j	200030fa <_ZN69_$LT$capsules..console..Console$u20$as$u20$kernel..driver..Driver$GT$5allow17h9da434dd85ed24edE+0x2f6>
200030f0:	f4c40513          	addi	a0,s0,-180
200030f4:	a019                	j	200030fa <_ZN69_$LT$capsules..console..Console$u20$as$u20$kernel..driver..Driver$GT$5allow17h9da434dd85ed24edE+0x2f6>
200030f6:	f6c40513          	addi	a0,s0,-148
200030fa:	fffff097          	auipc	ra,0xfffff
200030fe:	556080e7          	jalr	1366(ra) # 20002650 <_ZN4core3ptr13drop_in_place17h9658d033c47788cbE>
20003102:	4489                	li	s1,2
20003104:	4581                	li	a1,0
20003106:	fff48513          	addi	a0,s1,-1
2000310a:	0ff57613          	andi	a2,a0,255
2000310e:	4505                	li	a0,1
20003110:	00c56e63          	bltu	a0,a2,2000312c <_ZN69_$LT$capsules..console..Console$u20$as$u20$kernel..driver..Driver$GT$5allow17h9da434dd85ed24edE+0x328>
20003114:	4609                	li	a2,2
20003116:	4501                	li	a0,0
20003118:	00c48363          	beq	s1,a2,2000311e <_ZN69_$LT$capsules..console..Console$u20$as$u20$kernel..driver..Driver$GT$5allow17h9da434dd85ed24edE+0x31a>
2000311c:	852e                	mv	a0,a1
2000311e:	050a                	slli	a0,a0,0x2
20003120:	2000e5b7          	lui	a1,0x2000e
20003124:	c9058593          	addi	a1,a1,-880 # 2000dc90 <.Lswitch.table._ZN6kernel7process110_$LT$impl$u20$core..convert..From$LT$kernel..process..Error$GT$$u20$for$u20$kernel..returncode..ReturnCode$GT$4from17h3567326624cf5547E>
20003128:	952e                	add	a0,a0,a1
2000312a:	4108                	lw	a0,0(a0)
2000312c:	5b0e                	lw	s6,224(sp)
2000312e:	5a9e                	lw	s5,228(sp)
20003130:	5a2e                	lw	s4,232(sp)
20003132:	59be                	lw	s3,236(sp)
20003134:	594e                	lw	s2,240(sp)
20003136:	54de                	lw	s1,244(sp)
20003138:	546e                	lw	s0,248(sp)
2000313a:	50fe                	lw	ra,252(sp)
2000313c:	6111                	addi	sp,sp,256
2000313e:	8082                	ret
20003140:	f8840513          	addi	a0,s0,-120
20003144:	fffff097          	auipc	ra,0xfffff
20003148:	50c080e7          	jalr	1292(ra) # 20002650 <_ZN4core3ptr13drop_in_place17h9658d033c47788cbE>
2000314c:	458d                	li	a1,3
2000314e:	bf65                	j	20003106 <_ZN69_$LT$capsules..console..Console$u20$as$u20$kernel..driver..Driver$GT$5allow17h9da434dd85ed24edE+0x302>
20003150:	fc040513          	addi	a0,s0,-64
20003154:	fa040593          	addi	a1,s0,-96
20003158:	02000613          	li	a2,32
2000315c:	00008097          	auipc	ra,0x8
20003160:	382080e7          	jalr	898(ra) # 2000b4de <memcpy>
20003164:	05490493          	addi	s1,s2,84
20003168:	8526                	mv	a0,s1
2000316a:	fffff097          	auipc	ra,0xfffff
2000316e:	4e6080e7          	jalr	1254(ra) # 20002650 <_ZN4core3ptr13drop_in_place17h9658d033c47788cbE>
20003172:	fcc40593          	addi	a1,s0,-52
20003176:	8526                	mv	a0,s1
20003178:	4651                	li	a2,20
2000317a:	00008097          	auipc	ra,0x8
2000317e:	364080e7          	jalr	868(ra) # 2000b4de <memcpy>
20003182:	4481                	li	s1,0
20003184:	4585                	li	a1,1
20003186:	b741                	j	20003106 <_ZN69_$LT$capsules..console..Console$u20$as$u20$kernel..driver..Driver$GT$5allow17h9da434dd85ed24edE+0x302>
20003188:	4485                	li	s1,1
2000318a:	4901                	li	s2,0
2000318c:	bb55                	j	20002f40 <_ZN69_$LT$capsules..console..Console$u20$as$u20$kernel..driver..Driver$GT$5allow17h9da434dd85ed24edE+0x13c>
2000318e:	4485                	li	s1,1
20003190:	4901                	li	s2,0
20003192:	bf09                	j	200030a4 <_ZN69_$LT$capsules..console..Console$u20$as$u20$kernel..driver..Driver$GT$5allow17h9da434dd85ed24edE+0x2a0>

20003194 <_ZN69_$LT$capsules..console..Console$u20$as$u20$kernel..driver..Driver$GT$9subscribe17h40123f211cbce485E>:
20003194:	711d                	addi	sp,sp,-96
20003196:	ce86                	sw	ra,92(sp)
20003198:	cca2                	sw	s0,88(sp)
2000319a:	caa6                	sw	s1,84(sp)
2000319c:	c8ca                	sw	s2,80(sp)
2000319e:	c6ce                	sw	s3,76(sp)
200031a0:	c4d2                	sw	s4,72(sp)
200031a2:	c2d6                	sw	s5,68(sp)
200031a4:	c0da                	sw	s6,64(sp)
200031a6:	1080                	addi	s0,sp,96
200031a8:	8932                	mv	s2,a2
200031aa:	8a2a                	mv	s4,a0
200031ac:	4509                	li	a0,2
200031ae:	08a58f63          	beq	a1,a0,2000324c <_ZN69_$LT$capsules..console..Console$u20$as$u20$kernel..driver..Driver$GT$9subscribe17h40123f211cbce485E+0xb8>
200031b2:	4505                	li	a0,1
200031b4:	1ca59263          	bne	a1,a0,20003378 <_ZN69_$LT$capsules..console..Console$u20$as$u20$kernel..driver..Driver$GT$9subscribe17h40123f211cbce485E+0x1e4>
200031b8:	4684                	lw	s1,8(a3)
200031ba:	fa942823          	sw	s1,-80(s0)
200031be:	42c8                	lw	a0,4(a3)
200031c0:	faa42623          	sw	a0,-84(s0)
200031c4:	428c                	lw	a1,0(a3)
200031c6:	fab42423          	sw	a1,-88(s0)
200031ca:	4590                	lw	a2,8(a1)
200031cc:	14c57b63          	bgeu	a0,a2,20003322 <_ZN69_$LT$capsules..console..Console$u20$as$u20$kernel..driver..Driver$GT$9subscribe17h40123f211cbce485E+0x18e>
200031d0:	41cc                	lw	a1,4(a1)
200031d2:	050e                	slli	a0,a0,0x3
200031d4:	952e                	add	a0,a0,a1
200031d6:	00052983          	lw	s3,0(a0)
200031da:	14098463          	beqz	s3,20003322 <_ZN69_$LT$capsules..console..Console$u20$as$u20$kernel..driver..Driver$GT$9subscribe17h40123f211cbce485E+0x18e>
200031de:	00452b03          	lw	s6,4(a0)
200031e2:	00cb2603          	lw	a2,12(s6)
200031e6:	fd040513          	addi	a0,s0,-48
200031ea:	85ce                	mv	a1,s3
200031ec:	9602                	jalr	a2
200031ee:	fd842503          	lw	a0,-40(s0)
200031f2:	12951863          	bne	a0,s1,20003322 <_ZN69_$LT$capsules..console..Console$u20$as$u20$kernel..driver..Driver$GT$9subscribe17h40123f211cbce485E+0x18e>
200031f6:	07cb2603          	lw	a2,124(s6)
200031fa:	00ca2583          	lw	a1,12(s4)
200031fe:	854e                	mv	a0,s3
20003200:	9602                	jalr	a2
20003202:	8aae                	mv	s5,a1
20003204:	458d                	li	a1,3
20003206:	4a05                	li	s4,1
20003208:	4485                	li	s1,1
2000320a:	0f451363          	bne	a0,s4,200032f0 <_ZN69_$LT$capsules..console..Console$u20$as$u20$kernel..driver..Driver$GT$9subscribe17h40123f211cbce485E+0x15c>
2000320e:	000aa503          	lw	a0,0(s5)
20003212:	e579                	bnez	a0,200032e0 <_ZN69_$LT$capsules..console..Console$u20$as$u20$kernel..driver..Driver$GT$9subscribe17h40123f211cbce485E+0x14c>
20003214:	074b2683          	lw	a3,116(s6)
20003218:	854e                	mv	a0,s3
2000321a:	07000593          	li	a1,112
2000321e:	4611                	li	a2,4
20003220:	9682                	jalr	a3
20003222:	16050c63          	beqz	a0,2000339a <_ZN69_$LT$capsules..console..Console$u20$as$u20$kernel..driver..Driver$GT$9subscribe17h40123f211cbce485E+0x206>
20003226:	06050623          	sb	zero,108(a0)
2000322a:	06052423          	sw	zero,104(a0)
2000322e:	04052a23          	sw	zero,84(a0)
20003232:	02052c23          	sw	zero,56(a0)
20003236:	02052a23          	sw	zero,52(a0)
2000323a:	02052823          	sw	zero,48(a0)
2000323e:	00052e23          	sw	zero,28(a0)
20003242:	00052023          	sw	zero,0(a0)
20003246:	00aaa023          	sw	a0,0(s5)
2000324a:	a859                	j	200032e0 <_ZN69_$LT$capsules..console..Console$u20$as$u20$kernel..driver..Driver$GT$9subscribe17h40123f211cbce485E+0x14c>
2000324c:	4684                	lw	s1,8(a3)
2000324e:	fa942823          	sw	s1,-80(s0)
20003252:	42c8                	lw	a0,4(a3)
20003254:	faa42623          	sw	a0,-84(s0)
20003258:	428c                	lw	a1,0(a3)
2000325a:	fab42423          	sw	a1,-88(s0)
2000325e:	4590                	lw	a2,8(a1)
20003260:	0cc57163          	bgeu	a0,a2,20003322 <_ZN69_$LT$capsules..console..Console$u20$as$u20$kernel..driver..Driver$GT$9subscribe17h40123f211cbce485E+0x18e>
20003264:	41cc                	lw	a1,4(a1)
20003266:	050e                	slli	a0,a0,0x3
20003268:	952e                	add	a0,a0,a1
2000326a:	00052983          	lw	s3,0(a0)
2000326e:	0a098a63          	beqz	s3,20003322 <_ZN69_$LT$capsules..console..Console$u20$as$u20$kernel..driver..Driver$GT$9subscribe17h40123f211cbce485E+0x18e>
20003272:	00452b03          	lw	s6,4(a0)
20003276:	00cb2603          	lw	a2,12(s6)
2000327a:	fd040513          	addi	a0,s0,-48
2000327e:	85ce                	mv	a1,s3
20003280:	9602                	jalr	a2
20003282:	fd842503          	lw	a0,-40(s0)
20003286:	08951e63          	bne	a0,s1,20003322 <_ZN69_$LT$capsules..console..Console$u20$as$u20$kernel..driver..Driver$GT$9subscribe17h40123f211cbce485E+0x18e>
2000328a:	07cb2603          	lw	a2,124(s6)
2000328e:	00ca2583          	lw	a1,12(s4)
20003292:	854e                	mv	a0,s3
20003294:	9602                	jalr	a2
20003296:	8aae                	mv	s5,a1
20003298:	458d                	li	a1,3
2000329a:	4a05                	li	s4,1
2000329c:	4485                	li	s1,1
2000329e:	05451963          	bne	a0,s4,200032f0 <_ZN69_$LT$capsules..console..Console$u20$as$u20$kernel..driver..Driver$GT$9subscribe17h40123f211cbce485E+0x15c>
200032a2:	000aa503          	lw	a0,0(s5)
200032a6:	e91d                	bnez	a0,200032dc <_ZN69_$LT$capsules..console..Console$u20$as$u20$kernel..driver..Driver$GT$9subscribe17h40123f211cbce485E+0x148>
200032a8:	074b2683          	lw	a3,116(s6)
200032ac:	854e                	mv	a0,s3
200032ae:	07000593          	li	a1,112
200032b2:	4611                	li	a2,4
200032b4:	9682                	jalr	a3
200032b6:	c175                	beqz	a0,2000339a <_ZN69_$LT$capsules..console..Console$u20$as$u20$kernel..driver..Driver$GT$9subscribe17h40123f211cbce485E+0x206>
200032b8:	06050623          	sb	zero,108(a0)
200032bc:	06052423          	sw	zero,104(a0)
200032c0:	04052a23          	sw	zero,84(a0)
200032c4:	02052c23          	sw	zero,56(a0)
200032c8:	02052a23          	sw	zero,52(a0)
200032cc:	02052823          	sw	zero,48(a0)
200032d0:	00052e23          	sw	zero,28(a0)
200032d4:	00052023          	sw	zero,0(a0)
200032d8:	00aaa023          	sw	a0,0(s5)
200032dc:	03850513          	addi	a0,a0,56
200032e0:	85ca                	mv	a1,s2
200032e2:	4671                	li	a2,28
200032e4:	00008097          	auipc	ra,0x8
200032e8:	1fa080e7          	jalr	506(ra) # 2000b4de <memcpy>
200032ec:	4585                	li	a1,1
200032ee:	4481                	li	s1,0
200032f0:	fc045503          	lhu	a0,-64(s0)
200032f4:	0542                	slli	a0,a0,0x10
200032f6:	fbe45603          	lhu	a2,-66(s0)
200032fa:	8d51                	or	a0,a0,a2
200032fc:	fc241603          	lh	a2,-62(s0)
20003300:	fcc41623          	sh	a2,-52(s0)
20003304:	fd442a23          	sw	s4,-44(s0)
20003308:	fc940823          	sb	s1,-48(s0)
2000330c:	fca42423          	sw	a0,-56(s0)
20003310:	fbc45503          	lhu	a0,-68(s0)
20003314:	0542                	slli	a0,a0,0x10
20003316:	fba45603          	lhu	a2,-70(s0)
2000331a:	8d51                	or	a0,a0,a2
2000331c:	fca42223          	sw	a0,-60(s0)
20003320:	a091                	j	20003364 <_ZN69_$LT$capsules..console..Console$u20$as$u20$kernel..driver..Driver$GT$9subscribe17h40123f211cbce485E+0x1d0>
20003322:	fc045503          	lhu	a0,-64(s0)
20003326:	0542                	slli	a0,a0,0x10
20003328:	fbe45583          	lhu	a1,-66(s0)
2000332c:	8d4d                	or	a0,a0,a1
2000332e:	fc241583          	lh	a1,-62(s0)
20003332:	fcb41623          	sh	a1,-52(s0)
20003336:	fca42423          	sw	a0,-56(s0)
2000333a:	fbc45503          	lhu	a0,-68(s0)
2000333e:	0542                	slli	a0,a0,0x10
20003340:	fba45583          	lhu	a1,-70(s0)
20003344:	8d4d                	or	a0,a0,a1
20003346:	fca42223          	sw	a0,-60(s0)
2000334a:	4485                	li	s1,1
2000334c:	fc940823          	sb	s1,-48(s0)
20003350:	fd240513          	addi	a0,s0,-46
20003354:	fc440593          	addi	a1,s0,-60
20003358:	4629                	li	a2,10
2000335a:	00008097          	auipc	ra,0x8
2000335e:	184080e7          	jalr	388(ra) # 2000b4de <memcpy>
20003362:	4581                	li	a1,0
20003364:	fcb408a3          	sb	a1,-47(s0)
20003368:	c891                	beqz	s1,2000337c <_ZN69_$LT$capsules..console..Console$u20$as$u20$kernel..driver..Driver$GT$9subscribe17h40123f211cbce485E+0x1e8>
2000336a:	2000e537          	lui	a0,0x2000e
2000336e:	c9050513          	addi	a0,a0,-880 # 2000dc90 <.Lswitch.table._ZN6kernel7process110_$LT$impl$u20$core..convert..From$LT$kernel..process..Error$GT$$u20$for$u20$kernel..returncode..ReturnCode$GT$4from17h3567326624cf5547E>
20003372:	058a                	slli	a1,a1,0x2
20003374:	952e                	add	a0,a0,a1
20003376:	a039                	j	20003384 <_ZN69_$LT$capsules..console..Console$u20$as$u20$kernel..driver..Driver$GT$9subscribe17h40123f211cbce485E+0x1f0>
20003378:	452d                	li	a0,11
2000337a:	a031                	j	20003386 <_ZN69_$LT$capsules..console..Console$u20$as$u20$kernel..driver..Driver$GT$9subscribe17h40123f211cbce485E+0x1f2>
2000337c:	fd842583          	lw	a1,-40(s0)
20003380:	fd440513          	addi	a0,s0,-44
20003384:	4108                	lw	a0,0(a0)
20003386:	4b06                	lw	s6,64(sp)
20003388:	4a96                	lw	s5,68(sp)
2000338a:	4a26                	lw	s4,72(sp)
2000338c:	49b6                	lw	s3,76(sp)
2000338e:	4946                	lw	s2,80(sp)
20003390:	44d6                	lw	s1,84(sp)
20003392:	4466                	lw	s0,88(sp)
20003394:	40f6                	lw	ra,92(sp)
20003396:	6125                	addi	sp,sp,96
20003398:	8082                	ret
2000339a:	4585                	li	a1,1
2000339c:	4485                	li	s1,1
2000339e:	bf89                	j	200032f0 <_ZN69_$LT$capsules..console..Console$u20$as$u20$kernel..driver..Driver$GT$9subscribe17h40123f211cbce485E+0x15c>

200033a0 <_ZN69_$LT$capsules..console..Console$u20$as$u20$kernel..driver..Driver$GT$7command17h4a9aacc5f6f559ecE>:
200033a0:	7119                	addi	sp,sp,-128
200033a2:	de86                	sw	ra,124(sp)
200033a4:	dca2                	sw	s0,120(sp)
200033a6:	daa6                	sw	s1,116(sp)
200033a8:	d8ca                	sw	s2,112(sp)
200033aa:	d6ce                	sw	s3,108(sp)
200033ac:	d4d2                	sw	s4,104(sp)
200033ae:	d2d6                	sw	s5,100(sp)
200033b0:	d0da                	sw	s6,96(sp)
200033b2:	cede                	sw	s7,92(sp)
200033b4:	0100                	addi	s0,sp,128
200033b6:	892a                	mv	s2,a0
200033b8:	f8a42023          	sw	a0,-128(s0)
200033bc:	450d                	li	a0,3
200033be:	00a58d63          	beq	a1,a0,200033d8 <_ZN69_$LT$capsules..console..Console$u20$as$u20$kernel..driver..Driver$GT$7command17h4a9aacc5f6f559ecE+0x38>
200033c2:	84ba                	mv	s1,a4
200033c4:	89b2                	mv	s3,a2
200033c6:	4505                	li	a0,1
200033c8:	02a58063          	beq	a1,a0,200033e8 <_ZN69_$LT$capsules..console..Console$u20$as$u20$kernel..driver..Driver$GT$7command17h4a9aacc5f6f559ecE+0x48>
200033cc:	4509                	li	a0,2
200033ce:	14a58163          	beq	a1,a0,20003510 <_ZN69_$LT$capsules..console..Console$u20$as$u20$kernel..driver..Driver$GT$7command17h4a9aacc5f6f559ecE+0x170>
200033d2:	44ad                	li	s1,11
200033d4:	c981                	beqz	a1,200033e4 <_ZN69_$LT$capsules..console..Console$u20$as$u20$kernel..driver..Driver$GT$7command17h4a9aacc5f6f559ecE+0x44>
200033d6:	a435                	j	20003602 <_ZN69_$LT$capsules..console..Console$u20$as$u20$kernel..driver..Driver$GT$7command17h4a9aacc5f6f559ecE+0x262>
200033d8:	00092503          	lw	a0,0(s2)
200033dc:	00492583          	lw	a1,4(s2)
200033e0:	4d8c                	lw	a1,24(a1)
200033e2:	9582                	jalr	a1
200033e4:	4485                	li	s1,1
200033e6:	ac31                	j	20003602 <_ZN69_$LT$capsules..console..Console$u20$as$u20$kernel..driver..Driver$GT$7command17h4a9aacc5f6f559ecE+0x262>
200033e8:	f9342223          	sw	s3,-124(s0)
200033ec:	0084aa83          	lw	s5,8(s1)
200033f0:	f9542823          	sw	s5,-112(s0)
200033f4:	40c8                	lw	a0,4(s1)
200033f6:	f8a42623          	sw	a0,-116(s0)
200033fa:	408c                	lw	a1,0(s1)
200033fc:	f8b42423          	sw	a1,-120(s0)
20003400:	4590                	lw	a2,8(a1)
20003402:	1ec57863          	bgeu	a0,a2,200035f2 <_ZN69_$LT$capsules..console..Console$u20$as$u20$kernel..driver..Driver$GT$7command17h4a9aacc5f6f559ecE+0x252>
20003406:	41cc                	lw	a1,4(a1)
20003408:	050e                	slli	a0,a0,0x3
2000340a:	952e                	add	a0,a0,a1
2000340c:	00052a03          	lw	s4,0(a0)
20003410:	1e0a0163          	beqz	s4,200035f2 <_ZN69_$LT$capsules..console..Console$u20$as$u20$kernel..driver..Driver$GT$7command17h4a9aacc5f6f559ecE+0x252>
20003414:	00452b03          	lw	s6,4(a0)
20003418:	00cb2603          	lw	a2,12(s6)
2000341c:	fb840513          	addi	a0,s0,-72
20003420:	85d2                	mv	a1,s4
20003422:	9602                	jalr	a2
20003424:	fc042503          	lw	a0,-64(s0)
20003428:	1d551563          	bne	a0,s5,200035f2 <_ZN69_$LT$capsules..console..Console$u20$as$u20$kernel..driver..Driver$GT$7command17h4a9aacc5f6f559ecE+0x252>
2000342c:	07cb2603          	lw	a2,124(s6)
20003430:	00c92583          	lw	a1,12(s2)
20003434:	8552                	mv	a0,s4
20003436:	9602                	jalr	a2
20003438:	8aae                	mv	s5,a1
2000343a:	458d                	li	a1,3
2000343c:	4605                	li	a2,1
2000343e:	1ac51b63          	bne	a0,a2,200035f4 <_ZN69_$LT$capsules..console..Console$u20$as$u20$kernel..driver..Driver$GT$7command17h4a9aacc5f6f559ecE+0x254>
20003442:	000aa603          	lw	a2,0(s5)
20003446:	e229                	bnez	a2,20003488 <_ZN69_$LT$capsules..console..Console$u20$as$u20$kernel..driver..Driver$GT$7command17h4a9aacc5f6f559ecE+0xe8>
20003448:	074b2683          	lw	a3,116(s6)
2000344c:	8552                	mv	a0,s4
2000344e:	07000593          	li	a1,112
20003452:	4611                	li	a2,4
20003454:	9682                	jalr	a3
20003456:	1c050463          	beqz	a0,2000361e <_ZN69_$LT$capsules..console..Console$u20$as$u20$kernel..driver..Driver$GT$7command17h4a9aacc5f6f559ecE+0x27e>
2000345a:	862a                	mv	a2,a0
2000345c:	06050623          	sb	zero,108(a0)
20003460:	06052423          	sw	zero,104(a0)
20003464:	04052a23          	sw	zero,84(a0)
20003468:	02052c23          	sw	zero,56(a0)
2000346c:	02052a23          	sw	zero,52(a0)
20003470:	02052823          	sw	zero,48(a0)
20003474:	00052e23          	sw	zero,28(a0)
20003478:	00052023          	sw	zero,0(a0)
2000347c:	00aaa023          	sw	a0,0(s5)
20003480:	f8442983          	lw	s3,-124(s0)
20003484:	f8042903          	lw	s2,-128(s0)
20003488:	4488                	lw	a0,8(s1)
2000348a:	faa42023          	sw	a0,-96(s0)
2000348e:	40c8                	lw	a0,4(s1)
20003490:	f8a42e23          	sw	a0,-100(s0)
20003494:	4088                	lw	a0,0(s1)
20003496:	f8a42c23          	sw	a0,-104(s0)
2000349a:	4e48                	lw	a0,28(a2)
2000349c:	00062e23          	sw	zero,28(a2)
200034a0:	560c                	lw	a1,40(a2)
200034a2:	fab42823          	sw	a1,-80(s0)
200034a6:	524c                	lw	a1,36(a2)
200034a8:	fab42623          	sw	a1,-84(s0)
200034ac:	520c                	lw	a1,32(a2)
200034ae:	fab42423          	sw	a1,-88(s0)
200034b2:	16050463          	beqz	a0,2000361a <_ZN69_$LT$capsules..console..Console$u20$as$u20$kernel..driver..Driver$GT$7command17h4a9aacc5f6f559ecE+0x27a>
200034b6:	564c                	lw	a1,44(a2)
200034b8:	86ae                	mv	a3,a1
200034ba:	0135e363          	bltu	a1,s3,200034c0 <_ZN69_$LT$capsules..console..Console$u20$as$u20$kernel..driver..Driver$GT$7command17h4a9aacc5f6f559ecE+0x120>
200034be:	86ce                	mv	a3,s3
200034c0:	da54                	sw	a3,52(a2)
200034c2:	da14                	sw	a3,48(a2)
200034c4:	fa042683          	lw	a3,-96(s0)
200034c8:	fcd42c23          	sw	a3,-40(s0)
200034cc:	f9c42683          	lw	a3,-100(s0)
200034d0:	fcd42a23          	sw	a3,-44(s0)
200034d4:	f9842683          	lw	a3,-104(s0)
200034d8:	fcd42823          	sw	a3,-48(s0)
200034dc:	faa42c23          	sw	a0,-72(s0)
200034e0:	fa842503          	lw	a0,-88(s0)
200034e4:	faa42e23          	sw	a0,-68(s0)
200034e8:	fac42503          	lw	a0,-84(s0)
200034ec:	fca42023          	sw	a0,-64(s0)
200034f0:	fb042503          	lw	a0,-80(s0)
200034f4:	fca42223          	sw	a0,-60(s0)
200034f8:	fcb42423          	sw	a1,-56(s0)
200034fc:	fd040593          	addi	a1,s0,-48
20003500:	fb840693          	addi	a3,s0,-72
20003504:	854a                	mv	a0,s2
20003506:	fffff097          	auipc	ra,0xfffff
2000350a:	6d2080e7          	jalr	1746(ra) # 20002bd8 <_ZN8capsules7console7Console4send17h20a0534538ac05b3E.llvm.1572837499751554839>
2000350e:	bdd9                	j	200033e4 <_ZN69_$LT$capsules..console..Console$u20$as$u20$kernel..driver..Driver$GT$7command17h4a9aacc5f6f559ecE+0x44>
20003510:	f9342c23          	sw	s3,-104(s0)
20003514:	0084aa03          	lw	s4,8(s1)
20003518:	fb442823          	sw	s4,-80(s0)
2000351c:	40c8                	lw	a0,4(s1)
2000351e:	faa42623          	sw	a0,-84(s0)
20003522:	408c                	lw	a1,0(s1)
20003524:	fab42423          	sw	a1,-88(s0)
20003528:	4590                	lw	a2,8(a1)
2000352a:	0cc57463          	bgeu	a0,a2,200035f2 <_ZN69_$LT$capsules..console..Console$u20$as$u20$kernel..driver..Driver$GT$7command17h4a9aacc5f6f559ecE+0x252>
2000352e:	41cc                	lw	a1,4(a1)
20003530:	050e                	slli	a0,a0,0x3
20003532:	952e                	add	a0,a0,a1
20003534:	00052a83          	lw	s5,0(a0)
20003538:	0a0a8d63          	beqz	s5,200035f2 <_ZN69_$LT$capsules..console..Console$u20$as$u20$kernel..driver..Driver$GT$7command17h4a9aacc5f6f559ecE+0x252>
2000353c:	00452b83          	lw	s7,4(a0)
20003540:	00cba603          	lw	a2,12(s7)
20003544:	fb840513          	addi	a0,s0,-72
20003548:	85d6                	mv	a1,s5
2000354a:	9602                	jalr	a2
2000354c:	fc042503          	lw	a0,-64(s0)
20003550:	0b451163          	bne	a0,s4,200035f2 <_ZN69_$LT$capsules..console..Console$u20$as$u20$kernel..driver..Driver$GT$7command17h4a9aacc5f6f559ecE+0x252>
20003554:	07cba603          	lw	a2,124(s7)
20003558:	00c92583          	lw	a1,12(s2)
2000355c:	8556                	mv	a0,s5
2000355e:	9602                	jalr	a2
20003560:	8b2e                	mv	s6,a1
20003562:	458d                	li	a1,3
20003564:	4605                	li	a2,1
20003566:	08c51763          	bne	a0,a2,200035f4 <_ZN69_$LT$capsules..console..Console$u20$as$u20$kernel..driver..Driver$GT$7command17h4a9aacc5f6f559ecE+0x254>
2000356a:	000b2a03          	lw	s4,0(s6)
2000356e:	040a1163          	bnez	s4,200035b0 <_ZN69_$LT$capsules..console..Console$u20$as$u20$kernel..driver..Driver$GT$7command17h4a9aacc5f6f559ecE+0x210>
20003572:	074ba683          	lw	a3,116(s7)
20003576:	8556                	mv	a0,s5
20003578:	07000593          	li	a1,112
2000357c:	4611                	li	a2,4
2000357e:	9682                	jalr	a3
20003580:	cd59                	beqz	a0,2000361e <_ZN69_$LT$capsules..console..Console$u20$as$u20$kernel..driver..Driver$GT$7command17h4a9aacc5f6f559ecE+0x27e>
20003582:	8a2a                	mv	s4,a0
20003584:	06050623          	sb	zero,108(a0)
20003588:	06052423          	sw	zero,104(a0)
2000358c:	04052a23          	sw	zero,84(a0)
20003590:	02052c23          	sw	zero,56(a0)
20003594:	02052a23          	sw	zero,52(a0)
20003598:	02052823          	sw	zero,48(a0)
2000359c:	00052e23          	sw	zero,28(a0)
200035a0:	00052023          	sw	zero,0(a0)
200035a4:	00ab2023          	sw	a0,0(s6)
200035a8:	f9842983          	lw	s3,-104(s0)
200035ac:	f8042903          	lw	s2,-128(s0)
200035b0:	4488                	lw	a0,8(s1)
200035b2:	fca42c23          	sw	a0,-40(s0)
200035b6:	40c8                	lw	a0,4(s1)
200035b8:	fca42a23          	sw	a0,-44(s0)
200035bc:	4088                	lw	a0,0(s1)
200035be:	fca42823          	sw	a0,-48(s0)
200035c2:	03090a93          	addi	s5,s2,48
200035c6:	8556                	mv	a0,s5
200035c8:	fffff097          	auipc	ra,0xfffff
200035cc:	fa2080e7          	jalr	-94(ra) # 2000256a <_ZN10tock_cells9take_cell17TakeCell$LT$T$GT$7is_none17h336e9ee827e529e9E>
200035d0:	448d                	li	s1,3
200035d2:	e905                	bnez	a0,20003602 <_ZN69_$LT$capsules..console..Console$u20$as$u20$kernel..driver..Driver$GT$7command17h4a9aacc5f6f559ecE+0x262>
200035d4:	449d                	li	s1,7
200035d6:	054a2503          	lw	a0,84(s4)
200035da:	c505                	beqz	a0,20003602 <_ZN69_$LT$capsules..console..Console$u20$as$u20$kernel..driver..Driver$GT$7command17h4a9aacc5f6f559ecE+0x262>
200035dc:	064a2503          	lw	a0,100(s4)
200035e0:	01356363          	bltu	a0,s3,200035e6 <_ZN69_$LT$capsules..console..Console$u20$as$u20$kernel..driver..Driver$GT$7command17h4a9aacc5f6f559ecE+0x246>
200035e4:	854e                	mv	a0,s3
200035e6:	03092583          	lw	a1,48(s2)
200035ea:	cd85                	beqz	a1,20003622 <_ZN69_$LT$capsules..console..Console$u20$as$u20$kernel..driver..Driver$GT$7command17h4a9aacc5f6f559ecE+0x282>
200035ec:	03492603          	lw	a2,52(s2)
200035f0:	a81d                	j	20003626 <_ZN69_$LT$capsules..console..Console$u20$as$u20$kernel..driver..Driver$GT$7command17h4a9aacc5f6f559ecE+0x286>
200035f2:	4581                	li	a1,0
200035f4:	2000e537          	lui	a0,0x2000e
200035f8:	c9050513          	addi	a0,a0,-880 # 2000dc90 <.Lswitch.table._ZN6kernel7process110_$LT$impl$u20$core..convert..From$LT$kernel..process..Error$GT$$u20$for$u20$kernel..returncode..ReturnCode$GT$4from17h3567326624cf5547E>
200035fc:	058a                	slli	a1,a1,0x2
200035fe:	952e                	add	a0,a0,a1
20003600:	4104                	lw	s1,0(a0)
20003602:	8526                	mv	a0,s1
20003604:	4bf6                	lw	s7,92(sp)
20003606:	5b06                	lw	s6,96(sp)
20003608:	5a96                	lw	s5,100(sp)
2000360a:	5a26                	lw	s4,104(sp)
2000360c:	59b6                	lw	s3,108(sp)
2000360e:	5946                	lw	s2,112(sp)
20003610:	54d6                	lw	s1,116(sp)
20003612:	5466                	lw	s0,120(sp)
20003614:	50f6                	lw	ra,124(sp)
20003616:	6109                	addi	sp,sp,128
20003618:	8082                	ret
2000361a:	448d                	li	s1,3
2000361c:	b7dd                	j	20003602 <_ZN69_$LT$capsules..console..Console$u20$as$u20$kernel..driver..Driver$GT$7command17h4a9aacc5f6f559ecE+0x262>
2000361e:	4585                	li	a1,1
20003620:	bfd1                	j	200035f4 <_ZN69_$LT$capsules..console..Console$u20$as$u20$kernel..driver..Driver$GT$7command17h4a9aacc5f6f559ecE+0x254>
20003622:	4581                	li	a1,0
20003624:	4601                	li	a2,0
20003626:	00baa023          	sw	a1,0(s5)
2000362a:	fca66ce3          	bltu	a2,a0,20003602 <_ZN69_$LT$capsules..console..Console$u20$as$u20$kernel..driver..Driver$GT$7command17h4a9aacc5f6f559ecE+0x262>
2000362e:	06aa2423          	sw	a0,104(s4)
20003632:	4485                	li	s1,1
20003634:	03092603          	lw	a2,48(s2)
20003638:	02092823          	sw	zero,48(s2)
2000363c:	d279                	beqz	a2,20003602 <_ZN69_$LT$capsules..console..Console$u20$as$u20$kernel..driver..Driver$GT$7command17h4a9aacc5f6f559ecE+0x262>
2000363e:	03492683          	lw	a3,52(s2)
20003642:	fd842503          	lw	a0,-40(s0)
20003646:	02a92623          	sw	a0,44(s2)
2000364a:	fd442503          	lw	a0,-44(s0)
2000364e:	02a92423          	sw	a0,40(s2)
20003652:	fd042503          	lw	a0,-48(s0)
20003656:	02a92223          	sw	a0,36(s2)
2000365a:	068a2703          	lw	a4,104(s4)
2000365e:	00092583          	lw	a1,0(s2)
20003662:	00492503          	lw	a0,4(s2)
20003666:	491c                	lw	a5,16(a0)
20003668:	fb840513          	addi	a0,s0,-72
2000366c:	9782                	jalr	a5
2000366e:	bf51                	j	20003602 <_ZN69_$LT$capsules..console..Console$u20$as$u20$kernel..driver..Driver$GT$7command17h4a9aacc5f6f559ecE+0x262>

20003670 <_ZN80_$LT$capsules..console..Console$u20$as$u20$kernel..hil..uart..TransmitClient$GT$18transmitted_buffer17h6341c2039f69c7acE>:
20003670:	7131                	addi	sp,sp,-192
20003672:	df06                	sw	ra,188(sp)
20003674:	dd22                	sw	s0,184(sp)
20003676:	db26                	sw	s1,180(sp)
20003678:	d94a                	sw	s2,176(sp)
2000367a:	d74e                	sw	s3,172(sp)
2000367c:	d552                	sw	s4,168(sp)
2000367e:	d356                	sw	s5,164(sp)
20003680:	d15a                	sw	s6,160(sp)
20003682:	cf5e                	sw	s7,156(sp)
20003684:	cd62                	sw	s8,152(sp)
20003686:	cb66                	sw	s9,148(sp)
20003688:	c96a                	sw	s10,144(sp)
2000368a:	c76e                	sw	s11,140(sp)
2000368c:	0180                	addi	s0,sp,192
2000368e:	8baa                	mv	s7,a0
20003690:	f4a42a23          	sw	a0,-172(s0)
20003694:	d110                	sw	a2,32(a0)
20003696:	cd4c                	sw	a1,28(a0)
20003698:	4d04                	lw	s1,24(a0)
2000369a:	4908                	lw	a0,16(a0)
2000369c:	000ba823          	sw	zero,16(s7)
200036a0:	1a050c63          	beqz	a0,20003858 <_ZN80_$LT$capsules..console..Console$u20$as$u20$kernel..hil..uart..TransmitClient$GT$18transmitted_buffer17h6341c2039f69c7acE+0x1e8>
200036a4:	014ba583          	lw	a1,20(s7)
200036a8:	f4b42e23          	sw	a1,-164(s0)
200036ac:	f4a42c23          	sw	a0,-168(s0)
200036b0:	f6942023          	sw	s1,-160(s0)
200036b4:	f6942823          	sw	s1,-144(s0)
200036b8:	f6b42623          	sw	a1,-148(s0)
200036bc:	f6a42423          	sw	a0,-152(s0)
200036c0:	4510                	lw	a2,8(a0)
200036c2:	18c5f763          	bgeu	a1,a2,20003850 <_ZN80_$LT$capsules..console..Console$u20$as$u20$kernel..hil..uart..TransmitClient$GT$18transmitted_buffer17h6341c2039f69c7acE+0x1e0>
200036c6:	4148                	lw	a0,4(a0)
200036c8:	058e                	slli	a1,a1,0x3
200036ca:	952e                	add	a0,a0,a1
200036cc:	00052a03          	lw	s4,0(a0)
200036d0:	180a0063          	beqz	s4,20003850 <_ZN80_$LT$capsules..console..Console$u20$as$u20$kernel..hil..uart..TransmitClient$GT$18transmitted_buffer17h6341c2039f69c7acE+0x1e0>
200036d4:	00452a83          	lw	s5,4(a0)
200036d8:	00caa603          	lw	a2,12(s5)
200036dc:	fb040513          	addi	a0,s0,-80
200036e0:	85d2                	mv	a1,s4
200036e2:	9602                	jalr	a2
200036e4:	fb842503          	lw	a0,-72(s0)
200036e8:	16951463          	bne	a0,s1,20003850 <_ZN80_$LT$capsules..console..Console$u20$as$u20$kernel..hil..uart..TransmitClient$GT$18transmitted_buffer17h6341c2039f69c7acE+0x1e0>
200036ec:	07caa603          	lw	a2,124(s5)
200036f0:	00cba583          	lw	a1,12(s7)
200036f4:	8552                	mv	a0,s4
200036f6:	9602                	jalr	a2
200036f8:	89ae                	mv	s3,a1
200036fa:	4585                	li	a1,1
200036fc:	14b51a63          	bne	a0,a1,20003850 <_ZN80_$LT$capsules..console..Console$u20$as$u20$kernel..hil..uart..TransmitClient$GT$18transmitted_buffer17h6341c2039f69c7acE+0x1e0>
20003700:	0009a903          	lw	s2,0(s3)
20003704:	04091063          	bnez	s2,20003744 <_ZN80_$LT$capsules..console..Console$u20$as$u20$kernel..hil..uart..TransmitClient$GT$18transmitted_buffer17h6341c2039f69c7acE+0xd4>
20003708:	074aa683          	lw	a3,116(s5)
2000370c:	8552                	mv	a0,s4
2000370e:	07000593          	li	a1,112
20003712:	4611                	li	a2,4
20003714:	9682                	jalr	a3
20003716:	12050163          	beqz	a0,20003838 <_ZN80_$LT$capsules..console..Console$u20$as$u20$kernel..hil..uart..TransmitClient$GT$18transmitted_buffer17h6341c2039f69c7acE+0x1c8>
2000371a:	892a                	mv	s2,a0
2000371c:	06050623          	sb	zero,108(a0)
20003720:	06052423          	sw	zero,104(a0)
20003724:	04052a23          	sw	zero,84(a0)
20003728:	02052c23          	sw	zero,56(a0)
2000372c:	02052a23          	sw	zero,52(a0)
20003730:	02052823          	sw	zero,48(a0)
20003734:	00052e23          	sw	zero,28(a0)
20003738:	00052023          	sw	zero,0(a0)
2000373c:	00a9a023          	sw	a0,0(s3)
20003740:	f5442b83          	lw	s7,-172(s0)
20003744:	f7042503          	lw	a0,-144(s0)
20003748:	f8a42023          	sw	a0,-128(s0)
2000374c:	f6c42503          	lw	a0,-148(s0)
20003750:	f6a42e23          	sw	a0,-132(s0)
20003754:	f6842503          	lw	a0,-152(s0)
20003758:	f6a42c23          	sw	a0,-136(s0)
2000375c:	f6042503          	lw	a0,-160(s0)
20003760:	faa42c23          	sw	a0,-72(s0)
20003764:	f5c42503          	lw	a0,-164(s0)
20003768:	faa42a23          	sw	a0,-76(s0)
2000376c:	f5842503          	lw	a0,-168(s0)
20003770:	faa42823          	sw	a0,-80(s0)
20003774:	f8840513          	addi	a0,s0,-120
20003778:	fb040613          	addi	a2,s0,-80
2000377c:	85de                	mv	a1,s7
2000377e:	86ca                	mv	a3,s2
20003780:	fffff097          	auipc	ra,0xfffff
20003784:	5ca080e7          	jalr	1482(ra) # 20002d4a <_ZN8capsules7console7Console13send_continue17h044f730e38ed9be4E>
20003788:	4505                	li	a0,1
2000378a:	f8844583          	lbu	a1,-120(s0)
2000378e:	04a59e63          	bne	a1,a0,200037ea <_ZN80_$LT$capsules..console..Console$u20$as$u20$kernel..hil..uart..TransmitClient$GT$18transmitted_buffer17h6341c2039f69c7acE+0x17a>
20003792:	f9042983          	lw	s3,-112(s0)
20003796:	f8c42a03          	lw	s4,-116(s0)
2000379a:	06090623          	sb	zero,108(s2)
2000379e:	02092a23          	sw	zero,52(s2)
200037a2:	02092823          	sw	zero,48(s2)
200037a6:	00092483          	lw	s1,0(s2)
200037aa:	00490593          	addi	a1,s2,4
200037ae:	f9840513          	addi	a0,s0,-104
200037b2:	4661                	li	a2,24
200037b4:	00008097          	auipc	ra,0x8
200037b8:	d2a080e7          	jalr	-726(ra) # 2000b4de <memcpy>
200037bc:	c8d1                	beqz	s1,20003850 <_ZN80_$LT$capsules..console..Console$u20$as$u20$kernel..hil..uart..TransmitClient$GT$18transmitted_buffer17h6341c2039f69c7acE+0x1e0>
200037be:	8552                	mv	a0,s4
200037c0:	85ce                	mv	a1,s3
200037c2:	00004097          	auipc	ra,0x4
200037c6:	cce080e7          	jalr	-818(ra) # 20007490 <_ZN6kernel10returncode93_$LT$impl$u20$core..convert..From$LT$kernel..returncode..ReturnCode$GT$$u20$for$u20$isize$GT$4from17h57f8dfadf44faa39E>
200037ca:	892a                	mv	s2,a0
200037cc:	fa942823          	sw	s1,-80(s0)
200037d0:	fb440513          	addi	a0,s0,-76
200037d4:	f9840593          	addi	a1,s0,-104
200037d8:	4661                	li	a2,24
200037da:	00008097          	auipc	ra,0x8
200037de:	d04080e7          	jalr	-764(ra) # 2000b4de <memcpy>
200037e2:	fb040513          	addi	a0,s0,-80
200037e6:	85ca                	mv	a1,s2
200037e8:	a091                	j	2000382c <_ZN80_$LT$capsules..console..Console$u20$as$u20$kernel..hil..uart..TransmitClient$GT$18transmitted_buffer17h6341c2039f69c7acE+0x1bc>
200037ea:	f8944503          	lbu	a0,-119(s0)
200037ee:	e12d                	bnez	a0,20003850 <_ZN80_$LT$capsules..console..Console$u20$as$u20$kernel..hil..uart..TransmitClient$GT$18transmitted_buffer17h6341c2039f69c7acE+0x1e0>
200037f0:	03092983          	lw	s3,48(s2)
200037f4:	02092823          	sw	zero,48(s2)
200037f8:	00092483          	lw	s1,0(s2)
200037fc:	00490593          	addi	a1,s2,4
20003800:	f9840513          	addi	a0,s0,-104
20003804:	4661                	li	a2,24
20003806:	00008097          	auipc	ra,0x8
2000380a:	cd8080e7          	jalr	-808(ra) # 2000b4de <memcpy>
2000380e:	c0a9                	beqz	s1,20003850 <_ZN80_$LT$capsules..console..Console$u20$as$u20$kernel..hil..uart..TransmitClient$GT$18transmitted_buffer17h6341c2039f69c7acE+0x1e0>
20003810:	fa942823          	sw	s1,-80(s0)
20003814:	fb440513          	addi	a0,s0,-76
20003818:	f9840593          	addi	a1,s0,-104
2000381c:	4661                	li	a2,24
2000381e:	00008097          	auipc	ra,0x8
20003822:	cc0080e7          	jalr	-832(ra) # 2000b4de <memcpy>
20003826:	fb040513          	addi	a0,s0,-80
2000382a:	85ce                	mv	a1,s3
2000382c:	4601                	li	a2,0
2000382e:	00003097          	auipc	ra,0x3
20003832:	2c2080e7          	jalr	706(ra) # 20006af0 <_ZN6kernel8callback8Callback8schedule17h74c330256afd1722E>
20003836:	a829                	j	20003850 <_ZN80_$LT$capsules..console..Console$u20$as$u20$kernel..hil..uart..TransmitClient$GT$18transmitted_buffer17h6341c2039f69c7acE+0x1e0>
20003838:	f7042503          	lw	a0,-144(s0)
2000383c:	f8a42023          	sw	a0,-128(s0)
20003840:	f6c42503          	lw	a0,-148(s0)
20003844:	f6a42e23          	sw	a0,-132(s0)
20003848:	f6842503          	lw	a0,-152(s0)
2000384c:	f6a42c23          	sw	a0,-136(s0)
20003850:	010ba503          	lw	a0,16(s7)
20003854:	1a051a63          	bnez	a0,20003a08 <_ZN80_$LT$capsules..console..Console$u20$as$u20$kernel..hil..uart..TransmitClient$GT$18transmitted_buffer17h6341c2039f69c7acE+0x398>
20003858:	008ba503          	lw	a0,8(s7)
2000385c:	00452c83          	lw	s9,4(a0)
20003860:	4508                	lw	a0,8(a0)
20003862:	050e                	slli	a0,a0,0x3
20003864:	00ac8d33          	add	s10,s9,a0
20003868:	4d85                	li	s11,1
2000386a:	fb040993          	addi	s3,s0,-80
2000386e:	f9840613          	addi	a2,s0,-104
20003872:	00cbab03          	lw	s6,12(s7)
20003876:	199d0963          	beq	s10,s9,20003a08 <_ZN80_$LT$capsules..console..Console$u20$as$u20$kernel..hil..uart..TransmitClient$GT$18transmitted_buffer17h6341c2039f69c7acE+0x398>
2000387a:	000ca483          	lw	s1,0(s9)
2000387e:	c88d                	beqz	s1,200038b0 <_ZN80_$LT$capsules..console..Console$u20$as$u20$kernel..hil..uart..TransmitClient$GT$18transmitted_buffer17h6341c2039f69c7acE+0x240>
20003880:	004ca903          	lw	s2,4(s9)
20003884:	8a32                	mv	s4,a2
20003886:	07c92603          	lw	a2,124(s2)
2000388a:	8526                	mv	a0,s1
2000388c:	85da                	mv	a1,s6
2000388e:	9602                	jalr	a2
20003890:	8652                	mv	a2,s4
20003892:	01b51f63          	bne	a0,s11,200038b0 <_ZN80_$LT$capsules..console..Console$u20$as$u20$kernel..hil..uart..TransmitClient$GT$18transmitted_buffer17h6341c2039f69c7acE+0x240>
20003896:	4188                	lw	a0,0(a1)
20003898:	cd01                	beqz	a0,200038b0 <_ZN80_$LT$capsules..console..Console$u20$as$u20$kernel..hil..uart..TransmitClient$GT$18transmitted_buffer17h6341c2039f69c7acE+0x240>
2000389a:	00c92603          	lw	a2,12(s2)
2000389e:	854e                	mv	a0,s3
200038a0:	85a6                	mv	a1,s1
200038a2:	9602                	jalr	a2
200038a4:	8652                	mv	a2,s4
200038a6:	fb042c03          	lw	s8,-80(s0)
200038aa:	000c0563          	beqz	s8,200038b4 <_ZN80_$LT$capsules..console..Console$u20$as$u20$kernel..hil..uart..TransmitClient$GT$18transmitted_buffer17h6341c2039f69c7acE+0x244>
200038ae:	a039                	j	200038bc <_ZN80_$LT$capsules..console..Console$u20$as$u20$kernel..hil..uart..TransmitClient$GT$18transmitted_buffer17h6341c2039f69c7acE+0x24c>
200038b0:	fa042823          	sw	zero,-80(s0)
200038b4:	0ca1                	addi	s9,s9,8
200038b6:	fd9d12e3          	bne	s10,s9,2000387a <_ZN80_$LT$capsules..console..Console$u20$as$u20$kernel..hil..uart..TransmitClient$GT$18transmitted_buffer17h6341c2039f69c7acE+0x20a>
200038ba:	a2b9                	j	20003a08 <_ZN80_$LT$capsules..console..Console$u20$as$u20$kernel..hil..uart..TransmitClient$GT$18transmitted_buffer17h6341c2039f69c7acE+0x398>
200038bc:	fb442a83          	lw	s5,-76(s0)
200038c0:	008c2503          	lw	a0,8(s8)
200038c4:	14aaf263          	bgeu	s5,a0,20003a08 <_ZN80_$LT$capsules..console..Console$u20$as$u20$kernel..hil..uart..TransmitClient$GT$18transmitted_buffer17h6341c2039f69c7acE+0x398>
200038c8:	004c2503          	lw	a0,4(s8)
200038cc:	003a9593          	slli	a1,s5,0x3
200038d0:	f4b42823          	sw	a1,-176(s0)
200038d4:	952e                	add	a0,a0,a1
200038d6:	00052b03          	lw	s6,0(a0)
200038da:	120b0763          	beqz	s6,20003a08 <_ZN80_$LT$capsules..console..Console$u20$as$u20$kernel..hil..uart..TransmitClient$GT$18transmitted_buffer17h6341c2039f69c7acE+0x398>
200038de:	fb842903          	lw	s2,-72(s0)
200038e2:	4144                	lw	s1,4(a0)
200038e4:	44d0                	lw	a2,12(s1)
200038e6:	854e                	mv	a0,s3
200038e8:	85da                	mv	a1,s6
200038ea:	9602                	jalr	a2
200038ec:	fb842503          	lw	a0,-72(s0)
200038f0:	11251c63          	bne	a0,s2,20003a08 <_ZN80_$LT$capsules..console..Console$u20$as$u20$kernel..hil..uart..TransmitClient$GT$18transmitted_buffer17h6341c2039f69c7acE+0x398>
200038f4:	5cf0                	lw	a2,124(s1)
200038f6:	00cba583          	lw	a1,12(s7)
200038fa:	855a                	mv	a0,s6
200038fc:	9602                	jalr	a2
200038fe:	11b51563          	bne	a0,s11,20003a08 <_ZN80_$LT$capsules..console..Console$u20$as$u20$kernel..hil..uart..TransmitClient$GT$18transmitted_buffer17h6341c2039f69c7acE+0x398>
20003902:	0005ab03          	lw	s6,0(a1)
20003906:	100b0163          	beqz	s6,20003a08 <_ZN80_$LT$capsules..console..Console$u20$as$u20$kernel..hil..uart..TransmitClient$GT$18transmitted_buffer17h6341c2039f69c7acE+0x398>
2000390a:	06cb4503          	lbu	a0,108(s6)
2000390e:	c155                	beqz	a0,200039b2 <_ZN80_$LT$capsules..console..Console$u20$as$u20$kernel..hil..uart..TransmitClient$GT$18transmitted_buffer17h6341c2039f69c7acE+0x342>
20003910:	060b0623          	sb	zero,108(s6)
20003914:	fb242c23          	sw	s2,-72(s0)
20003918:	fb542a23          	sw	s5,-76(s0)
2000391c:	fb842823          	sw	s8,-80(s0)
20003920:	f8840513          	addi	a0,s0,-120
20003924:	85de                	mv	a1,s7
20003926:	864e                	mv	a2,s3
20003928:	86da                	mv	a3,s6
2000392a:	fffff097          	auipc	ra,0xfffff
2000392e:	420080e7          	jalr	1056(ra) # 20002d4a <_ZN8capsules7console7Console13send_continue17h044f730e38ed9be4E>
20003932:	f8844503          	lbu	a0,-120(s0)
20003936:	09b51163          	bne	a0,s11,200039b8 <_ZN80_$LT$capsules..console..Console$u20$as$u20$kernel..hil..uart..TransmitClient$GT$18transmitted_buffer17h6341c2039f69c7acE+0x348>
2000393a:	f9042503          	lw	a0,-112(s0)
2000393e:	f4a42623          	sw	a0,-180(s0)
20003942:	f8c42503          	lw	a0,-116(s0)
20003946:	f4a42223          	sw	a0,-188(s0)
2000394a:	060b0623          	sb	zero,108(s6)
2000394e:	020b2a23          	sw	zero,52(s6)
20003952:	020b2823          	sw	zero,48(s6)
20003956:	000b2483          	lw	s1,0(s6)
2000395a:	004b0593          	addi	a1,s6,4
2000395e:	8552                	mv	a0,s4
20003960:	4661                	li	a2,24
20003962:	00008097          	auipc	ra,0x8
20003966:	b7c080e7          	jalr	-1156(ra) # 2000b4de <memcpy>
2000396a:	f4942423          	sw	s1,-184(s0)
2000396e:	cc95                	beqz	s1,200039aa <_ZN80_$LT$capsules..console..Console$u20$as$u20$kernel..hil..uart..TransmitClient$GT$18transmitted_buffer17h6341c2039f69c7acE+0x33a>
20003970:	f4442503          	lw	a0,-188(s0)
20003974:	f4c42583          	lw	a1,-180(s0)
20003978:	00004097          	auipc	ra,0x4
2000397c:	b18080e7          	jalr	-1256(ra) # 20007490 <_ZN6kernel10returncode93_$LT$impl$u20$core..convert..From$LT$kernel..returncode..ReturnCode$GT$$u20$for$u20$isize$GT$4from17h57f8dfadf44faa39E>
20003980:	84aa                	mv	s1,a0
20003982:	f4842503          	lw	a0,-184(s0)
20003986:	faa42823          	sw	a0,-80(s0)
2000398a:	fb440513          	addi	a0,s0,-76
2000398e:	f9840593          	addi	a1,s0,-104
20003992:	4661                	li	a2,24
20003994:	00008097          	auipc	ra,0x8
20003998:	b4a080e7          	jalr	-1206(ra) # 2000b4de <memcpy>
2000399c:	854e                	mv	a0,s3
2000399e:	85a6                	mv	a1,s1
200039a0:	4601                	li	a2,0
200039a2:	00003097          	auipc	ra,0x3
200039a6:	14e080e7          	jalr	334(ra) # 20006af0 <_ZN6kernel8callback8Callback8schedule17h74c330256afd1722E>
200039aa:	4681                	li	a3,0
200039ac:	f9840613          	addi	a2,s0,-104
200039b0:	a809                	j	200039c2 <_ZN80_$LT$capsules..console..Console$u20$as$u20$kernel..hil..uart..TransmitClient$GT$18transmitted_buffer17h6341c2039f69c7acE+0x352>
200039b2:	8652                	mv	a2,s4
200039b4:	4681                	li	a3,0
200039b6:	a031                	j	200039c2 <_ZN80_$LT$capsules..console..Console$u20$as$u20$kernel..hil..uart..TransmitClient$GT$18transmitted_buffer17h6341c2039f69c7acE+0x352>
200039b8:	f8944503          	lbu	a0,-119(s0)
200039bc:	00a036b3          	snez	a3,a0
200039c0:	8652                	mv	a2,s4
200039c2:	008c2503          	lw	a0,8(s8)
200039c6:	02aafe63          	bgeu	s5,a0,20003a02 <_ZN80_$LT$capsules..console..Console$u20$as$u20$kernel..hil..uart..TransmitClient$GT$18transmitted_buffer17h6341c2039f69c7acE+0x392>
200039ca:	004c2503          	lw	a0,4(s8)
200039ce:	f5042583          	lw	a1,-176(s0)
200039d2:	952e                	add	a0,a0,a1
200039d4:	4104                	lw	s1,0(a0)
200039d6:	c495                	beqz	s1,20003a02 <_ZN80_$LT$capsules..console..Console$u20$as$u20$kernel..hil..uart..TransmitClient$GT$18transmitted_buffer17h6341c2039f69c7acE+0x392>
200039d8:	00452a83          	lw	s5,4(a0)
200039dc:	00caa603          	lw	a2,12(s5)
200039e0:	854e                	mv	a0,s3
200039e2:	85a6                	mv	a1,s1
200039e4:	8c36                	mv	s8,a3
200039e6:	9602                	jalr	a2
200039e8:	86e2                	mv	a3,s8
200039ea:	8652                	mv	a2,s4
200039ec:	fb842503          	lw	a0,-72(s0)
200039f0:	01251963          	bne	a0,s2,20003a02 <_ZN80_$LT$capsules..console..Console$u20$as$u20$kernel..hil..uart..TransmitClient$GT$18transmitted_buffer17h6341c2039f69c7acE+0x392>
200039f4:	078aa603          	lw	a2,120(s5)
200039f8:	8526                	mv	a0,s1
200039fa:	85da                	mv	a1,s6
200039fc:	9602                	jalr	a2
200039fe:	86e2                	mv	a3,s8
20003a00:	8652                	mv	a2,s4
20003a02:	0ca1                	addi	s9,s9,8
20003a04:	e60687e3          	beqz	a3,20003872 <_ZN80_$LT$capsules..console..Console$u20$as$u20$kernel..hil..uart..TransmitClient$GT$18transmitted_buffer17h6341c2039f69c7acE+0x202>
20003a08:	4dba                	lw	s11,140(sp)
20003a0a:	4d4a                	lw	s10,144(sp)
20003a0c:	4cda                	lw	s9,148(sp)
20003a0e:	4c6a                	lw	s8,152(sp)
20003a10:	4bfa                	lw	s7,156(sp)
20003a12:	5b0a                	lw	s6,160(sp)
20003a14:	5a9a                	lw	s5,164(sp)
20003a16:	5a2a                	lw	s4,168(sp)
20003a18:	59ba                	lw	s3,172(sp)
20003a1a:	594a                	lw	s2,176(sp)
20003a1c:	54da                	lw	s1,180(sp)
20003a1e:	546a                	lw	s0,184(sp)
20003a20:	50fa                	lw	ra,188(sp)
20003a22:	6129                	addi	sp,sp,192
20003a24:	8082                	ret

20003a26 <_ZN79_$LT$capsules..console..Console$u20$as$u20$kernel..hil..uart..ReceiveClient$GT$15received_buffer17hdbe718056f0f7a03E>:
20003a26:	7135                	addi	sp,sp,-160
20003a28:	cf06                	sw	ra,156(sp)
20003a2a:	cd22                	sw	s0,152(sp)
20003a2c:	cb26                	sw	s1,148(sp)
20003a2e:	c94a                	sw	s2,144(sp)
20003a30:	c74e                	sw	s3,140(sp)
20003a32:	c552                	sw	s4,136(sp)
20003a34:	c356                	sw	s5,132(sp)
20003a36:	1100                	addi	s0,sp,160
20003a38:	84aa                	mv	s1,a0
20003a3a:	f6c42623          	sw	a2,-148(s0)
20003a3e:	f6b42423          	sw	a1,-152(s0)
20003a42:	f6d42a23          	sw	a3,-140(s0)
20003a46:	f6f42e23          	sw	a5,-132(s0)
20003a4a:	f6e42c23          	sw	a4,-136(s0)
20003a4e:	f90403a3          	sb	a6,-121(s0)
20003a52:	02c52903          	lw	s2,44(a0)
20003a56:	5148                	lw	a0,36(a0)
20003a58:	0204a223          	sw	zero,36(s1)
20003a5c:	18050263          	beqz	a0,20003be0 <_ZN79_$LT$capsules..console..Console$u20$as$u20$kernel..hil..uart..ReceiveClient$GT$15received_buffer17hdbe718056f0f7a03E+0x1ba>
20003a60:	548c                	lw	a1,40(s1)
20003a62:	4510                	lw	a2,8(a0)
20003a64:	16c5fa63          	bgeu	a1,a2,20003bd8 <_ZN79_$LT$capsules..console..Console$u20$as$u20$kernel..hil..uart..ReceiveClient$GT$15received_buffer17hdbe718056f0f7a03E+0x1b2>
20003a68:	4148                	lw	a0,4(a0)
20003a6a:	058e                	slli	a1,a1,0x3
20003a6c:	952e                	add	a0,a0,a1
20003a6e:	00052983          	lw	s3,0(a0)
20003a72:	16098363          	beqz	s3,20003bd8 <_ZN79_$LT$capsules..console..Console$u20$as$u20$kernel..hil..uart..ReceiveClient$GT$15received_buffer17hdbe718056f0f7a03E+0x1b2>
20003a76:	00452a83          	lw	s5,4(a0)
20003a7a:	00caa603          	lw	a2,12(s5)
20003a7e:	fa040513          	addi	a0,s0,-96
20003a82:	85ce                	mv	a1,s3
20003a84:	9602                	jalr	a2
20003a86:	fa842503          	lw	a0,-88(s0)
20003a8a:	15251763          	bne	a0,s2,20003bd8 <_ZN79_$LT$capsules..console..Console$u20$as$u20$kernel..hil..uart..ReceiveClient$GT$15received_buffer17hdbe718056f0f7a03E+0x1b2>
20003a8e:	07caa603          	lw	a2,124(s5)
20003a92:	44cc                	lw	a1,12(s1)
20003a94:	854e                	mv	a0,s3
20003a96:	9602                	jalr	a2
20003a98:	8a2e                	mv	s4,a1
20003a9a:	4585                	li	a1,1
20003a9c:	12b51e63          	bne	a0,a1,20003bd8 <_ZN79_$LT$capsules..console..Console$u20$as$u20$kernel..hil..uart..ReceiveClient$GT$15received_buffer17hdbe718056f0f7a03E+0x1b2>
20003aa0:	000a2903          	lw	s2,0(s4)
20003aa4:	02091e63          	bnez	s2,20003ae0 <_ZN79_$LT$capsules..console..Console$u20$as$u20$kernel..hil..uart..ReceiveClient$GT$15received_buffer17hdbe718056f0f7a03E+0xba>
20003aa8:	074aa683          	lw	a3,116(s5)
20003aac:	854e                	mv	a0,s3
20003aae:	07000593          	li	a1,112
20003ab2:	4611                	li	a2,4
20003ab4:	9682                	jalr	a3
20003ab6:	12050163          	beqz	a0,20003bd8 <_ZN79_$LT$capsules..console..Console$u20$as$u20$kernel..hil..uart..ReceiveClient$GT$15received_buffer17hdbe718056f0f7a03E+0x1b2>
20003aba:	892a                	mv	s2,a0
20003abc:	06050623          	sb	zero,108(a0)
20003ac0:	06052423          	sw	zero,104(a0)
20003ac4:	04052a23          	sw	zero,84(a0)
20003ac8:	02052c23          	sw	zero,56(a0)
20003acc:	02052a23          	sw	zero,52(a0)
20003ad0:	02052823          	sw	zero,48(a0)
20003ad4:	00052e23          	sw	zero,28(a0)
20003ad8:	00052023          	sw	zero,0(a0)
20003adc:	00aa2023          	sw	a0,0(s4)
20003ae0:	03892983          	lw	s3,56(s2)
20003ae4:	03c90593          	addi	a1,s2,60
20003ae8:	f8840513          	addi	a0,s0,-120
20003aec:	4661                	li	a2,24
20003aee:	00008097          	auipc	ra,0x8
20003af2:	9f0080e7          	jalr	-1552(ra) # 2000b4de <memcpy>
20003af6:	0e098163          	beqz	s3,20003bd8 <_ZN79_$LT$capsules..console..Console$u20$as$u20$kernel..hil..uart..ReceiveClient$GT$15received_buffer17hdbe718056f0f7a03E+0x1b2>
20003afa:	fb342023          	sw	s3,-96(s0)
20003afe:	fa440513          	addi	a0,s0,-92
20003b02:	f8840593          	addi	a1,s0,-120
20003b06:	4661                	li	a2,24
20003b08:	00008097          	auipc	ra,0x8
20003b0c:	9d6080e7          	jalr	-1578(ra) # 2000b4de <memcpy>
20003b10:	f7442503          	lw	a0,-140(s0)
20003b14:	f6c42583          	lw	a1,-148(s0)
20003b18:	f6842603          	lw	a2,-152(s0)
20003b1c:	f8744683          	lbu	a3,-121(s0)
20003b20:	c681                	beqz	a3,20003b28 <_ZN79_$LT$capsules..console..Console$u20$as$u20$kernel..hil..uart..ReceiveClient$GT$15received_buffer17hdbe718056f0f7a03E+0x102>
20003b22:	4719                	li	a4,6
20003b24:	08e69e63          	bne	a3,a4,20003bc0 <_ZN79_$LT$capsules..console..Console$u20$as$u20$kernel..hil..uart..ReceiveClient$GT$15received_buffer17hdbe718056f0f7a03E+0x19a>
20003b28:	05492683          	lw	a3,84(s2)
20003b2c:	04092a23          	sw	zero,84(s2)
20003b30:	06492703          	lw	a4,100(s2)
20003b34:	fce42623          	sw	a4,-52(s0)
20003b38:	06092703          	lw	a4,96(s2)
20003b3c:	fce42423          	sw	a4,-56(s0)
20003b40:	05c92703          	lw	a4,92(s2)
20003b44:	fce42223          	sw	a4,-60(s0)
20003b48:	05892703          	lw	a4,88(s2)
20003b4c:	fce42023          	sw	a4,-64(s0)
20003b50:	cea5                	beqz	a3,20003bc8 <_ZN79_$LT$capsules..console..Console$u20$as$u20$kernel..hil..uart..ReceiveClient$GT$15received_buffer17hdbe718056f0f7a03E+0x1a2>
20003b52:	fc042703          	lw	a4,-64(s0)
20003b56:	fce42a23          	sw	a4,-44(s0)
20003b5a:	fc442703          	lw	a4,-60(s0)
20003b5e:	fce42c23          	sw	a4,-40(s0)
20003b62:	fc842703          	lw	a4,-56(s0)
20003b66:	fce42e23          	sw	a4,-36(s0)
20003b6a:	fcd42823          	sw	a3,-48(s0)
20003b6e:	fcc42703          	lw	a4,-52(s0)
20003b72:	fee42023          	sw	a4,-32(s0)
20003b76:	cf09                	beqz	a4,20003b90 <_ZN79_$LT$capsules..console..Console$u20$as$u20$kernel..hil..uart..ReceiveClient$GT$15received_buffer17hdbe718056f0f7a03E+0x16a>
20003b78:	cd81                	beqz	a1,20003b90 <_ZN79_$LT$capsules..console..Console$u20$as$u20$kernel..hil..uart..ReceiveClient$GT$15received_buffer17hdbe718056f0f7a03E+0x16a>
20003b7a:	c919                	beqz	a0,20003b90 <_ZN79_$LT$capsules..console..Console$u20$as$u20$kernel..hil..uart..ReceiveClient$GT$15received_buffer17hdbe718056f0f7a03E+0x16a>
20003b7c:	00060783          	lb	a5,0(a2)
20003b80:	00f68023          	sb	a5,0(a3)
20003b84:	177d                	addi	a4,a4,-1
20003b86:	15fd                	addi	a1,a1,-1
20003b88:	0605                	addi	a2,a2,1
20003b8a:	157d                	addi	a0,a0,-1
20003b8c:	0685                	addi	a3,a3,1
20003b8e:	f76d                	bnez	a4,20003b78 <_ZN79_$LT$capsules..console..Console$u20$as$u20$kernel..hil..uart..ReceiveClient$GT$15received_buffer17hdbe718056f0f7a03E+0x152>
20003b90:	f7c42583          	lw	a1,-132(s0)
20003b94:	f7842503          	lw	a0,-136(s0)
20003b98:	00004097          	auipc	ra,0x4
20003b9c:	8f8080e7          	jalr	-1800(ra) # 20007490 <_ZN6kernel10returncode93_$LT$impl$u20$core..convert..From$LT$kernel..returncode..ReturnCode$GT$$u20$for$u20$isize$GT$4from17h57f8dfadf44faa39E>
20003ba0:	85aa                	mv	a1,a0
20003ba2:	f7442603          	lw	a2,-140(s0)
20003ba6:	fa040513          	addi	a0,s0,-96
20003baa:	00003097          	auipc	ra,0x3
20003bae:	f46080e7          	jalr	-186(ra) # 20006af0 <_ZN6kernel8callback8Callback8schedule17h74c330256afd1722E>
20003bb2:	fd040513          	addi	a0,s0,-48
20003bb6:	00003097          	auipc	ra,0x3
20003bba:	fd6080e7          	jalr	-42(ra) # 20006b8c <_ZN74_$LT$kernel..mem..AppPtr$LT$L$C$T$GT$$u20$as$u20$core..ops..drop..Drop$GT$4drop17h5721b51cc2d71355E>
20003bbe:	a829                	j	20003bd8 <_ZN79_$LT$capsules..console..Console$u20$as$u20$kernel..hil..uart..ReceiveClient$GT$15received_buffer17hdbe718056f0f7a03E+0x1b2>
20003bc0:	fa040513          	addi	a0,s0,-96
20003bc4:	55fd                	li	a1,-1
20003bc6:	a021                	j	20003bce <_ZN79_$LT$capsules..console..Console$u20$as$u20$kernel..hil..uart..ReceiveClient$GT$15received_buffer17hdbe718056f0f7a03E+0x1a8>
20003bc8:	fa040513          	addi	a0,s0,-96
20003bcc:	55e9                	li	a1,-6
20003bce:	4601                	li	a2,0
20003bd0:	00003097          	auipc	ra,0x3
20003bd4:	f20080e7          	jalr	-224(ra) # 20006af0 <_ZN6kernel8callback8Callback8schedule17h74c330256afd1722E>
20003bd8:	f6c42603          	lw	a2,-148(s0)
20003bdc:	f6842583          	lw	a1,-152(s0)
20003be0:	d8d0                	sw	a2,52(s1)
20003be2:	d88c                	sw	a1,48(s1)
20003be4:	4a9a                	lw	s5,132(sp)
20003be6:	4a2a                	lw	s4,136(sp)
20003be8:	49ba                	lw	s3,140(sp)
20003bea:	494a                	lw	s2,144(sp)
20003bec:	44da                	lw	s1,148(sp)
20003bee:	446a                	lw	s0,152(sp)
20003bf0:	40fa                	lw	ra,156(sp)
20003bf2:	610d                	addi	sp,sp,160
20003bf4:	8082                	ret

20003bf6 <_ZN75_$LT$capsules..gpio..GPIO$u20$as$u20$kernel..hil..gpio..ClientWithValue$GT$5fired17h3ebd002d6885d2c9E>:
20003bf6:	7159                	addi	sp,sp,-112
20003bf8:	d686                	sw	ra,108(sp)
20003bfa:	d4a2                	sw	s0,104(sp)
20003bfc:	d2a6                	sw	s1,100(sp)
20003bfe:	d0ca                	sw	s2,96(sp)
20003c00:	cece                	sw	s3,92(sp)
20003c02:	ccd2                	sw	s4,88(sp)
20003c04:	cad6                	sw	s5,84(sp)
20003c06:	c8da                	sw	s6,80(sp)
20003c08:	c6de                	sw	s7,76(sp)
20003c0a:	c4e2                	sw	s8,72(sp)
20003c0c:	c2e6                	sw	s9,68(sp)
20003c0e:	c0ea                	sw	s10,64(sp)
20003c10:	de6e                	sw	s11,60(sp)
20003c12:	1880                	addi	s0,sp,112
20003c14:	4150                	lw	a2,4(a0)
20003c16:	10c5f663          	bgeu	a1,a2,20003d22 <_ZN75_$LT$capsules..gpio..GPIO$u20$as$u20$kernel..hil..gpio..ClientWithValue$GT$5fired17h3ebd002d6885d2c9E+0x12c>
20003c1a:	8baa                	mv	s7,a0
20003c1c:	4108                	lw	a0,0(a0)
20003c1e:	f8b42823          	sw	a1,-112(s0)
20003c22:	058e                	slli	a1,a1,0x3
20003c24:	95aa                	add	a1,a1,a0
20003c26:	4188                	lw	a0,0(a1)
20003c28:	41cc                	lw	a1,4(a1)
20003c2a:	51cc                	lw	a1,36(a1)
20003c2c:	9582                	jalr	a1
20003c2e:	f8a42a23          	sw	a0,-108(s0)
20003c32:	008ba503          	lw	a0,8(s7)
20003c36:	450c                	lw	a1,8(a0)
20003c38:	00359c93          	slli	s9,a1,0x3
20003c3c:	4148                	lw	a0,4(a0)
20003c3e:	00450d13          	addi	s10,a0,4
20003c42:	4d85                	li	s11,1
20003c44:	fb040a93          	addi	s5,s0,-80
20003c48:	f9840913          	addi	s2,s0,-104
20003c4c:	0a0c8c63          	beqz	s9,20003d04 <_ZN75_$LT$capsules..gpio..GPIO$u20$as$u20$kernel..hil..gpio..ClientWithValue$GT$5fired17h3ebd002d6885d2c9E+0x10e>
20003c50:	ffcd2483          	lw	s1,-4(s10)
20003c54:	c4c5                	beqz	s1,20003cfc <_ZN75_$LT$capsules..gpio..GPIO$u20$as$u20$kernel..hil..gpio..ClientWithValue$GT$5fired17h3ebd002d6885d2c9E+0x106>
20003c56:	00cba583          	lw	a1,12(s7)
20003c5a:	000d2983          	lw	s3,0(s10)
20003c5e:	07c9a603          	lw	a2,124(s3)
20003c62:	8526                	mv	a0,s1
20003c64:	9602                	jalr	a2
20003c66:	09b51b63          	bne	a0,s11,20003cfc <_ZN75_$LT$capsules..gpio..GPIO$u20$as$u20$kernel..hil..gpio..ClientWithValue$GT$5fired17h3ebd002d6885d2c9E+0x106>
20003c6a:	0005ac03          	lw	s8,0(a1)
20003c6e:	080c0763          	beqz	s8,20003cfc <_ZN75_$LT$capsules..gpio..GPIO$u20$as$u20$kernel..hil..gpio..ClientWithValue$GT$5fired17h3ebd002d6885d2c9E+0x106>
20003c72:	00c9a603          	lw	a2,12(s3)
20003c76:	8556                	mv	a0,s5
20003c78:	85a6                	mv	a1,s1
20003c7a:	9602                	jalr	a2
20003c7c:	fb842a03          	lw	s4,-72(s0)
20003c80:	fb442483          	lw	s1,-76(s0)
20003c84:	fb042983          	lw	s3,-80(s0)
20003c88:	000c2b03          	lw	s6,0(s8)
20003c8c:	004c0593          	addi	a1,s8,4
20003c90:	854a                	mv	a0,s2
20003c92:	4661                	li	a2,24
20003c94:	00008097          	auipc	ra,0x8
20003c98:	84a080e7          	jalr	-1974(ra) # 2000b4de <memcpy>
20003c9c:	020b0563          	beqz	s6,20003cc6 <_ZN75_$LT$capsules..gpio..GPIO$u20$as$u20$kernel..hil..gpio..ClientWithValue$GT$5fired17h3ebd002d6885d2c9E+0xd0>
20003ca0:	fb642823          	sw	s6,-80(s0)
20003ca4:	fb440513          	addi	a0,s0,-76
20003ca8:	85ca                	mv	a1,s2
20003caa:	4661                	li	a2,24
20003cac:	00008097          	auipc	ra,0x8
20003cb0:	832080e7          	jalr	-1998(ra) # 2000b4de <memcpy>
20003cb4:	8556                	mv	a0,s5
20003cb6:	f9042583          	lw	a1,-112(s0)
20003cba:	f9442603          	lw	a2,-108(s0)
20003cbe:	00003097          	auipc	ra,0x3
20003cc2:	e32080e7          	jalr	-462(ra) # 20006af0 <_ZN6kernel8callback8Callback8schedule17h74c330256afd1722E>
20003cc6:	0089a503          	lw	a0,8(s3)
20003cca:	02a4f963          	bgeu	s1,a0,20003cfc <_ZN75_$LT$capsules..gpio..GPIO$u20$as$u20$kernel..hil..gpio..ClientWithValue$GT$5fired17h3ebd002d6885d2c9E+0x106>
20003cce:	0049a503          	lw	a0,4(s3)
20003cd2:	00349593          	slli	a1,s1,0x3
20003cd6:	952e                	add	a0,a0,a1
20003cd8:	4104                	lw	s1,0(a0)
20003cda:	c08d                	beqz	s1,20003cfc <_ZN75_$LT$capsules..gpio..GPIO$u20$as$u20$kernel..hil..gpio..ClientWithValue$GT$5fired17h3ebd002d6885d2c9E+0x106>
20003cdc:	00452983          	lw	s3,4(a0)
20003ce0:	00c9a603          	lw	a2,12(s3)
20003ce4:	8556                	mv	a0,s5
20003ce6:	85a6                	mv	a1,s1
20003ce8:	9602                	jalr	a2
20003cea:	fb842503          	lw	a0,-72(s0)
20003cee:	01451763          	bne	a0,s4,20003cfc <_ZN75_$LT$capsules..gpio..GPIO$u20$as$u20$kernel..hil..gpio..ClientWithValue$GT$5fired17h3ebd002d6885d2c9E+0x106>
20003cf2:	0789a603          	lw	a2,120(s3)
20003cf6:	8526                	mv	a0,s1
20003cf8:	85e2                	mv	a1,s8
20003cfa:	9602                	jalr	a2
20003cfc:	1ce1                	addi	s9,s9,-8
20003cfe:	0d21                	addi	s10,s10,8
20003d00:	f40c98e3          	bnez	s9,20003c50 <_ZN75_$LT$capsules..gpio..GPIO$u20$as$u20$kernel..hil..gpio..ClientWithValue$GT$5fired17h3ebd002d6885d2c9E+0x5a>
20003d04:	5df2                	lw	s11,60(sp)
20003d06:	4d06                	lw	s10,64(sp)
20003d08:	4c96                	lw	s9,68(sp)
20003d0a:	4c26                	lw	s8,72(sp)
20003d0c:	4bb6                	lw	s7,76(sp)
20003d0e:	4b46                	lw	s6,80(sp)
20003d10:	4ad6                	lw	s5,84(sp)
20003d12:	4a66                	lw	s4,88(sp)
20003d14:	49f6                	lw	s3,92(sp)
20003d16:	5906                	lw	s2,96(sp)
20003d18:	5496                	lw	s1,100(sp)
20003d1a:	5426                	lw	s0,104(sp)
20003d1c:	50b6                	lw	ra,108(sp)
20003d1e:	6165                	addi	sp,sp,112
20003d20:	8082                	ret
20003d22:	10001537          	lui	a0,0x10001
20003d26:	26850513          	addi	a0,a0,616 # 10001268 <.Lanon.05c3764499f3745b8ff54a94c704932a.5>
20003d2a:	00001097          	auipc	ra,0x1
20003d2e:	dfe080e7          	jalr	-514(ra) # 20004b28 <_ZN4core9panicking18panic_bounds_check17h95c8cd8536e82dafE>
20003d32:	0000b097          	auipc	ra,0xb
20003d36:	eaa080e7          	jalr	-342(ra) # 2000ebdc <abort>

20003d3a <_ZN63_$LT$capsules..gpio..GPIO$u20$as$u20$kernel..driver..Driver$GT$9subscribe17hbdf46189f5c03a2dE>:
20003d3a:	7139                	addi	sp,sp,-64
20003d3c:	de06                	sw	ra,60(sp)
20003d3e:	dc22                	sw	s0,56(sp)
20003d40:	da26                	sw	s1,52(sp)
20003d42:	d84a                	sw	s2,48(sp)
20003d44:	d64e                	sw	s3,44(sp)
20003d46:	d452                	sw	s4,40(sp)
20003d48:	d256                	sw	s5,36(sp)
20003d4a:	0080                	addi	s0,sp,64
20003d4c:	84aa                	mv	s1,a0
20003d4e:	452d                	li	a0,11
20003d50:	e9c1                	bnez	a1,20003de0 <_ZN63_$LT$capsules..gpio..GPIO$u20$as$u20$kernel..driver..Driver$GT$9subscribe17hbdf46189f5c03a2dE+0xa6>
20003d52:	89b2                	mv	s3,a2
20003d54:	0086aa83          	lw	s5,8(a3)
20003d58:	fd542823          	sw	s5,-48(s0)
20003d5c:	42c8                	lw	a0,4(a3)
20003d5e:	fca42623          	sw	a0,-52(s0)
20003d62:	428c                	lw	a1,0(a3)
20003d64:	fcb42423          	sw	a1,-56(s0)
20003d68:	4590                	lw	a2,8(a1)
20003d6a:	06c57363          	bgeu	a0,a2,20003dd0 <_ZN63_$LT$capsules..gpio..GPIO$u20$as$u20$kernel..driver..Driver$GT$9subscribe17hbdf46189f5c03a2dE+0x96>
20003d6e:	41cc                	lw	a1,4(a1)
20003d70:	050e                	slli	a0,a0,0x3
20003d72:	952e                	add	a0,a0,a1
20003d74:	00052903          	lw	s2,0(a0)
20003d78:	04090c63          	beqz	s2,20003dd0 <_ZN63_$LT$capsules..gpio..GPIO$u20$as$u20$kernel..driver..Driver$GT$9subscribe17hbdf46189f5c03a2dE+0x96>
20003d7c:	00452a03          	lw	s4,4(a0)
20003d80:	00ca2603          	lw	a2,12(s4)
20003d84:	fd840513          	addi	a0,s0,-40
20003d88:	85ca                	mv	a1,s2
20003d8a:	9602                	jalr	a2
20003d8c:	fe042503          	lw	a0,-32(s0)
20003d90:	05551063          	bne	a0,s5,20003dd0 <_ZN63_$LT$capsules..gpio..GPIO$u20$as$u20$kernel..driver..Driver$GT$9subscribe17hbdf46189f5c03a2dE+0x96>
20003d94:	07ca2603          	lw	a2,124(s4)
20003d98:	44cc                	lw	a1,12(s1)
20003d9a:	854a                	mv	a0,s2
20003d9c:	9602                	jalr	a2
20003d9e:	84ae                	mv	s1,a1
20003da0:	458d                	li	a1,3
20003da2:	4605                	li	a2,1
20003da4:	02c51763          	bne	a0,a2,20003dd2 <_ZN63_$LT$capsules..gpio..GPIO$u20$as$u20$kernel..driver..Driver$GT$9subscribe17hbdf46189f5c03a2dE+0x98>
20003da8:	4088                	lw	a0,0(s1)
20003daa:	e919                	bnez	a0,20003dc0 <_ZN63_$LT$capsules..gpio..GPIO$u20$as$u20$kernel..driver..Driver$GT$9subscribe17hbdf46189f5c03a2dE+0x86>
20003dac:	074a2683          	lw	a3,116(s4)
20003db0:	854a                	mv	a0,s2
20003db2:	45f1                	li	a1,28
20003db4:	4611                	li	a2,4
20003db6:	9682                	jalr	a3
20003db8:	cd0d                	beqz	a0,20003df2 <_ZN63_$LT$capsules..gpio..GPIO$u20$as$u20$kernel..driver..Driver$GT$9subscribe17hbdf46189f5c03a2dE+0xb8>
20003dba:	00052023          	sw	zero,0(a0)
20003dbe:	c088                	sw	a0,0(s1)
20003dc0:	85ce                	mv	a1,s3
20003dc2:	4671                	li	a2,28
20003dc4:	00007097          	auipc	ra,0x7
20003dc8:	71a080e7          	jalr	1818(ra) # 2000b4de <memcpy>
20003dcc:	4505                	li	a0,1
20003dce:	a809                	j	20003de0 <_ZN63_$LT$capsules..gpio..GPIO$u20$as$u20$kernel..driver..Driver$GT$9subscribe17hbdf46189f5c03a2dE+0xa6>
20003dd0:	4581                	li	a1,0
20003dd2:	2000e537          	lui	a0,0x2000e
20003dd6:	c9050513          	addi	a0,a0,-880 # 2000dc90 <.Lswitch.table._ZN6kernel7process110_$LT$impl$u20$core..convert..From$LT$kernel..process..Error$GT$$u20$for$u20$kernel..returncode..ReturnCode$GT$4from17h3567326624cf5547E>
20003dda:	058a                	slli	a1,a1,0x2
20003ddc:	952e                	add	a0,a0,a1
20003dde:	4108                	lw	a0,0(a0)
20003de0:	5a92                	lw	s5,36(sp)
20003de2:	5a22                	lw	s4,40(sp)
20003de4:	59b2                	lw	s3,44(sp)
20003de6:	5942                	lw	s2,48(sp)
20003de8:	54d2                	lw	s1,52(sp)
20003dea:	5462                	lw	s0,56(sp)
20003dec:	50f2                	lw	ra,60(sp)
20003dee:	6121                	addi	sp,sp,64
20003df0:	8082                	ret
20003df2:	4585                	li	a1,1
20003df4:	bff9                	j	20003dd2 <_ZN63_$LT$capsules..gpio..GPIO$u20$as$u20$kernel..driver..Driver$GT$9subscribe17hbdf46189f5c03a2dE+0x98>

20003df6 <_ZN63_$LT$capsules..gpio..GPIO$u20$as$u20$kernel..driver..Driver$GT$7command17h93723834fea12ecdE>:
20003df6:	1101                	addi	sp,sp,-32
20003df8:	ce06                	sw	ra,28(sp)
20003dfa:	cc22                	sw	s0,24(sp)
20003dfc:	ca26                	sw	s1,20(sp)
20003dfe:	c84a                	sw	s2,16(sp)
20003e00:	c64e                	sw	s3,12(sp)
20003e02:	c452                	sw	s4,8(sp)
20003e04:	1000                	addi	s0,sp,32
20003e06:	8936                	mv	s2,a3
20003e08:	86ae                	mv	a3,a1
20003e0a:	414c                	lw	a1,4(a0)
20003e0c:	4108                	lw	a0,0(a0)
20003e0e:	4725                	li	a4,9
20003e10:	10e68263          	beq	a3,a4,20003f14 <_ZN63_$LT$capsules..gpio..GPIO$u20$as$u20$kernel..driver..Driver$GT$7command17h93723834fea12ecdE+0x11e>
20003e14:	4705                	li	a4,1
20003e16:	02e68a63          	beq	a3,a4,20003e4a <_ZN63_$LT$capsules..gpio..GPIO$u20$as$u20$kernel..driver..Driver$GT$7command17h93723834fea12ecdE+0x54>
20003e1a:	4709                	li	a4,2
20003e1c:	10e68563          	beq	a3,a4,20003f26 <_ZN63_$LT$capsules..gpio..GPIO$u20$as$u20$kernel..driver..Driver$GT$7command17h93723834fea12ecdE+0x130>
20003e20:	470d                	li	a4,3
20003e22:	02e68d63          	beq	a3,a4,20003e5c <_ZN63_$LT$capsules..gpio..GPIO$u20$as$u20$kernel..driver..Driver$GT$7command17h93723834fea12ecdE+0x66>
20003e26:	4711                	li	a4,4
20003e28:	04e68363          	beq	a3,a4,20003e6e <_ZN63_$LT$capsules..gpio..GPIO$u20$as$u20$kernel..driver..Driver$GT$7command17h93723834fea12ecdE+0x78>
20003e2c:	4715                	li	a4,5
20003e2e:	04e68a63          	beq	a3,a4,20003e82 <_ZN63_$LT$capsules..gpio..GPIO$u20$as$u20$kernel..driver..Driver$GT$7command17h93723834fea12ecdE+0x8c>
20003e32:	4719                	li	a4,6
20003e34:	08e68363          	beq	a3,a4,20003eba <_ZN63_$LT$capsules..gpio..GPIO$u20$as$u20$kernel..driver..Driver$GT$7command17h93723834fea12ecdE+0xc4>
20003e38:	449d                	li	s1,7
20003e3a:	08968c63          	beq	a3,s1,20003ed2 <_ZN63_$LT$capsules..gpio..GPIO$u20$as$u20$kernel..driver..Driver$GT$7command17h93723834fea12ecdE+0xdc>
20003e3e:	4721                	li	a4,8
20003e40:	0ae68d63          	beq	a3,a4,20003efa <_ZN63_$LT$capsules..gpio..GPIO$u20$as$u20$kernel..driver..Driver$GT$7command17h93723834fea12ecdE+0x104>
20003e44:	44ad                	li	s1,11
20003e46:	c6c1                	beqz	a3,20003ece <_ZN63_$LT$capsules..gpio..GPIO$u20$as$u20$kernel..driver..Driver$GT$7command17h93723834fea12ecdE+0xd8>
20003e48:	a8dd                	j	20003f3e <_ZN63_$LT$capsules..gpio..GPIO$u20$as$u20$kernel..driver..Driver$GT$7command17h93723834fea12ecdE+0x148>
20003e4a:	0eb67963          	bgeu	a2,a1,20003f3c <_ZN63_$LT$capsules..gpio..GPIO$u20$as$u20$kernel..driver..Driver$GT$7command17h93723834fea12ecdE+0x146>
20003e4e:	00361593          	slli	a1,a2,0x3
20003e52:	95aa                	add	a1,a1,a0
20003e54:	4188                	lw	a0,0(a1)
20003e56:	41cc                	lw	a1,4(a1)
20003e58:	41ac                	lw	a1,64(a1)
20003e5a:	a015                	j	20003e7e <_ZN63_$LT$capsules..gpio..GPIO$u20$as$u20$kernel..driver..Driver$GT$7command17h93723834fea12ecdE+0x88>
20003e5c:	0eb67063          	bgeu	a2,a1,20003f3c <_ZN63_$LT$capsules..gpio..GPIO$u20$as$u20$kernel..driver..Driver$GT$7command17h93723834fea12ecdE+0x146>
20003e60:	00361593          	slli	a1,a2,0x3
20003e64:	95aa                	add	a1,a1,a0
20003e66:	4188                	lw	a0,0(a1)
20003e68:	41cc                	lw	a1,4(a1)
20003e6a:	598c                	lw	a1,48(a1)
20003e6c:	a0e9                	j	20003f36 <_ZN63_$LT$capsules..gpio..GPIO$u20$as$u20$kernel..driver..Driver$GT$7command17h93723834fea12ecdE+0x140>
20003e6e:	0cb67763          	bgeu	a2,a1,20003f3c <_ZN63_$LT$capsules..gpio..GPIO$u20$as$u20$kernel..driver..Driver$GT$7command17h93723834fea12ecdE+0x146>
20003e72:	00361593          	slli	a1,a2,0x3
20003e76:	95aa                	add	a1,a1,a0
20003e78:	4188                	lw	a0,0(a1)
20003e7a:	41cc                	lw	a1,4(a1)
20003e7c:	59cc                	lw	a1,52(a1)
20003e7e:	9582                	jalr	a1
20003e80:	a865                	j	20003f38 <_ZN63_$LT$capsules..gpio..GPIO$u20$as$u20$kernel..driver..Driver$GT$7command17h93723834fea12ecdE+0x142>
20003e82:	0ab67d63          	bgeu	a2,a1,20003f3c <_ZN63_$LT$capsules..gpio..GPIO$u20$as$u20$kernel..driver..Driver$GT$7command17h93723834fea12ecdE+0x146>
20003e86:	00361593          	slli	a1,a2,0x3
20003e8a:	952e                	add	a0,a0,a1
20003e8c:	00052983          	lw	s3,0(a0)
20003e90:	00452a03          	lw	s4,4(a0)
20003e94:	048a2583          	lw	a1,72(s4)
20003e98:	854e                	mv	a0,s3
20003e9a:	9582                	jalr	a1
20003e9c:	4509                	li	a0,2
20003e9e:	0aa90963          	beq	s2,a0,20003f50 <_ZN63_$LT$capsules..gpio..GPIO$u20$as$u20$kernel..driver..Driver$GT$7command17h93723834fea12ecdE+0x15a>
20003ea2:	4485                	li	s1,1
20003ea4:	0a990c63          	beq	s2,s1,20003f5c <_ZN63_$LT$capsules..gpio..GPIO$u20$as$u20$kernel..driver..Driver$GT$7command17h93723834fea12ecdE+0x166>
20003ea8:	44ad                	li	s1,11
20003eaa:	08091a63          	bnez	s2,20003f3e <_ZN63_$LT$capsules..gpio..GPIO$u20$as$u20$kernel..driver..Driver$GT$7command17h93723834fea12ecdE+0x148>
20003eae:	054a2603          	lw	a2,84(s4)
20003eb2:	854e                	mv	a0,s3
20003eb4:	4589                	li	a1,2
20003eb6:	9602                	jalr	a2
20003eb8:	a041                	j	20003f38 <_ZN63_$LT$capsules..gpio..GPIO$u20$as$u20$kernel..driver..Driver$GT$7command17h93723834fea12ecdE+0x142>
20003eba:	08b67163          	bgeu	a2,a1,20003f3c <_ZN63_$LT$capsules..gpio..GPIO$u20$as$u20$kernel..driver..Driver$GT$7command17h93723834fea12ecdE+0x146>
20003ebe:	00361593          	slli	a1,a2,0x3
20003ec2:	95aa                	add	a1,a1,a0
20003ec4:	4188                	lw	a0,0(a1)
20003ec6:	41cc                	lw	a1,4(a1)
20003ec8:	51cc                	lw	a1,36(a1)
20003eca:	9582                	jalr	a1
20003ecc:	85aa                	mv	a1,a0
20003ece:	4481                	li	s1,0
20003ed0:	a0bd                	j	20003f3e <_ZN63_$LT$capsules..gpio..GPIO$u20$as$u20$kernel..driver..Driver$GT$7command17h93723834fea12ecdE+0x148>
20003ed2:	06b67663          	bgeu	a2,a1,20003f3e <_ZN63_$LT$capsules..gpio..GPIO$u20$as$u20$kernel..driver..Driver$GT$7command17h93723834fea12ecdE+0x148>
20003ed6:	4589                	li	a1,2
20003ed8:	08b90863          	beq	s2,a1,20003f68 <_ZN63_$LT$capsules..gpio..GPIO$u20$as$u20$kernel..driver..Driver$GT$7command17h93723834fea12ecdE+0x172>
20003edc:	4485                	li	s1,1
20003ede:	08990e63          	beq	s2,s1,20003f7a <_ZN63_$LT$capsules..gpio..GPIO$u20$as$u20$kernel..driver..Driver$GT$7command17h93723834fea12ecdE+0x184>
20003ee2:	44ad                	li	s1,11
20003ee4:	04091d63          	bnez	s2,20003f3e <_ZN63_$LT$capsules..gpio..GPIO$u20$as$u20$kernel..driver..Driver$GT$7command17h93723834fea12ecdE+0x148>
20003ee8:	00361593          	slli	a1,a2,0x3
20003eec:	95aa                	add	a1,a1,a0
20003eee:	4188                	lw	a0,0(a1)
20003ef0:	41cc                	lw	a1,4(a1)
20003ef2:	4990                	lw	a2,16(a1)
20003ef4:	4589                	li	a1,2
20003ef6:	9602                	jalr	a2
20003ef8:	a081                	j	20003f38 <_ZN63_$LT$capsules..gpio..GPIO$u20$as$u20$kernel..driver..Driver$GT$7command17h93723834fea12ecdE+0x142>
20003efa:	04b67163          	bgeu	a2,a1,20003f3c <_ZN63_$LT$capsules..gpio..GPIO$u20$as$u20$kernel..driver..Driver$GT$7command17h93723834fea12ecdE+0x146>
20003efe:	00361593          	slli	a1,a2,0x3
20003f02:	00b504b3          	add	s1,a0,a1
20003f06:	40c8                	lw	a0,4(s1)
20003f08:	494c                	lw	a1,20(a0)
20003f0a:	4088                	lw	a0,0(s1)
20003f0c:	9582                	jalr	a1
20003f0e:	4088                	lw	a0,0(s1)
20003f10:	40cc                	lw	a1,4(s1)
20003f12:	a801                	j	20003f22 <_ZN63_$LT$capsules..gpio..GPIO$u20$as$u20$kernel..driver..Driver$GT$7command17h93723834fea12ecdE+0x12c>
20003f14:	02b67463          	bgeu	a2,a1,20003f3c <_ZN63_$LT$capsules..gpio..GPIO$u20$as$u20$kernel..driver..Driver$GT$7command17h93723834fea12ecdE+0x146>
20003f18:	00361593          	slli	a1,a2,0x3
20003f1c:	95aa                	add	a1,a1,a0
20003f1e:	4188                	lw	a0,0(a1)
20003f20:	41cc                	lw	a1,4(a1)
20003f22:	49ac                	lw	a1,80(a1)
20003f24:	a809                	j	20003f36 <_ZN63_$LT$capsules..gpio..GPIO$u20$as$u20$kernel..driver..Driver$GT$7command17h93723834fea12ecdE+0x140>
20003f26:	00b67b63          	bgeu	a2,a1,20003f3c <_ZN63_$LT$capsules..gpio..GPIO$u20$as$u20$kernel..driver..Driver$GT$7command17h93723834fea12ecdE+0x146>
20003f2a:	00361593          	slli	a1,a2,0x3
20003f2e:	95aa                	add	a1,a1,a0
20003f30:	4188                	lw	a0,0(a1)
20003f32:	41cc                	lw	a1,4(a1)
20003f34:	55cc                	lw	a1,44(a1)
20003f36:	9582                	jalr	a1
20003f38:	4485                	li	s1,1
20003f3a:	a011                	j	20003f3e <_ZN63_$LT$capsules..gpio..GPIO$u20$as$u20$kernel..driver..Driver$GT$7command17h93723834fea12ecdE+0x148>
20003f3c:	449d                	li	s1,7
20003f3e:	8526                	mv	a0,s1
20003f40:	4a22                	lw	s4,8(sp)
20003f42:	49b2                	lw	s3,12(sp)
20003f44:	4942                	lw	s2,16(sp)
20003f46:	44d2                	lw	s1,20(sp)
20003f48:	4462                	lw	s0,24(sp)
20003f4a:	40f2                	lw	ra,28(sp)
20003f4c:	6105                	addi	sp,sp,32
20003f4e:	8082                	ret
20003f50:	054a2603          	lw	a2,84(s4)
20003f54:	4485                	li	s1,1
20003f56:	854e                	mv	a0,s3
20003f58:	4585                	li	a1,1
20003f5a:	a029                	j	20003f64 <_ZN63_$LT$capsules..gpio..GPIO$u20$as$u20$kernel..driver..Driver$GT$7command17h93723834fea12ecdE+0x16e>
20003f5c:	054a2603          	lw	a2,84(s4)
20003f60:	854e                	mv	a0,s3
20003f62:	4581                	li	a1,0
20003f64:	9602                	jalr	a2
20003f66:	bfe1                	j	20003f3e <_ZN63_$LT$capsules..gpio..GPIO$u20$as$u20$kernel..driver..Driver$GT$7command17h93723834fea12ecdE+0x148>
20003f68:	00361593          	slli	a1,a2,0x3
20003f6c:	95aa                	add	a1,a1,a0
20003f6e:	4188                	lw	a0,0(a1)
20003f70:	41cc                	lw	a1,4(a1)
20003f72:	4990                	lw	a2,16(a1)
20003f74:	4485                	li	s1,1
20003f76:	4585                	li	a1,1
20003f78:	a801                	j	20003f88 <_ZN63_$LT$capsules..gpio..GPIO$u20$as$u20$kernel..driver..Driver$GT$7command17h93723834fea12ecdE+0x192>
20003f7a:	00361593          	slli	a1,a2,0x3
20003f7e:	95aa                	add	a1,a1,a0
20003f80:	4188                	lw	a0,0(a1)
20003f82:	41cc                	lw	a1,4(a1)
20003f84:	4990                	lw	a2,16(a1)
20003f86:	4581                	li	a1,0
20003f88:	9602                	jalr	a2
20003f8a:	bf55                	j	20003f3e <_ZN63_$LT$capsules..gpio..GPIO$u20$as$u20$kernel..driver..Driver$GT$7command17h93723834fea12ecdE+0x148>

20003f8c <_ZN4core3fmt5Write10write_char17h1ca6bfe508167904E>:
20003f8c:	1141                	addi	sp,sp,-16
20003f8e:	c606                	sw	ra,12(sp)
20003f90:	c422                	sw	s0,8(sp)
20003f92:	0800                	addi	s0,sp,16
20003f94:	fe042a23          	sw	zero,-12(s0)
20003f98:	08000613          	li	a2,128
20003f9c:	00c5f663          	bgeu	a1,a2,20003fa8 <_ZN4core3fmt5Write10write_char17h1ca6bfe508167904E+0x1c>
20003fa0:	feb40a23          	sb	a1,-12(s0)
20003fa4:	4605                	li	a2,1
20003fa6:	a079                	j	20004034 <_ZN4core3fmt5Write10write_char17h1ca6bfe508167904E+0xa8>
20003fa8:	00b5d613          	srli	a2,a1,0xb
20003fac:	ee19                	bnez	a2,20003fca <_ZN4core3fmt5Write10write_char17h1ca6bfe508167904E+0x3e>
20003fae:	03f5f613          	andi	a2,a1,63
20003fb2:	08066613          	ori	a2,a2,128
20003fb6:	fec40aa3          	sb	a2,-11(s0)
20003fba:	8199                	srli	a1,a1,0x6
20003fbc:	89fd                	andi	a1,a1,31
20003fbe:	0c05e593          	ori	a1,a1,192
20003fc2:	feb40a23          	sb	a1,-12(s0)
20003fc6:	4609                	li	a2,2
20003fc8:	a0b5                	j	20004034 <_ZN4core3fmt5Write10write_char17h1ca6bfe508167904E+0xa8>
20003fca:	0105d613          	srli	a2,a1,0x10
20003fce:	e61d                	bnez	a2,20003ffc <_ZN4core3fmt5Write10write_char17h1ca6bfe508167904E+0x70>
20003fd0:	03f5f613          	andi	a2,a1,63
20003fd4:	08066613          	ori	a2,a2,128
20003fd8:	fec40b23          	sb	a2,-10(s0)
20003fdc:	0065d613          	srli	a2,a1,0x6
20003fe0:	03f67613          	andi	a2,a2,63
20003fe4:	08066613          	ori	a2,a2,128
20003fe8:	fec40aa3          	sb	a2,-11(s0)
20003fec:	81b1                	srli	a1,a1,0xc
20003fee:	89bd                	andi	a1,a1,15
20003ff0:	0e05e593          	ori	a1,a1,224
20003ff4:	feb40a23          	sb	a1,-12(s0)
20003ff8:	460d                	li	a2,3
20003ffa:	a82d                	j	20004034 <_ZN4core3fmt5Write10write_char17h1ca6bfe508167904E+0xa8>
20003ffc:	03f5f613          	andi	a2,a1,63
20004000:	08066613          	ori	a2,a2,128
20004004:	fec40ba3          	sb	a2,-9(s0)
20004008:	0125d613          	srli	a2,a1,0x12
2000400c:	0f066613          	ori	a2,a2,240
20004010:	fec40a23          	sb	a2,-12(s0)
20004014:	0065d613          	srli	a2,a1,0x6
20004018:	03f67613          	andi	a2,a2,63
2000401c:	08066613          	ori	a2,a2,128
20004020:	fec40b23          	sb	a2,-10(s0)
20004024:	81b1                	srli	a1,a1,0xc
20004026:	03f5f593          	andi	a1,a1,63
2000402a:	0805e593          	ori	a1,a1,128
2000402e:	feb40aa3          	sb	a1,-11(s0)
20004032:	4611                	li	a2,4
20004034:	ff440593          	addi	a1,s0,-12
20004038:	00000097          	auipc	ra,0x0
2000403c:	012080e7          	jalr	18(ra) # 2000404a <_ZN81_$LT$capsules..low_level_debug..fmt..WriteAdapter$u20$as$u20$core..fmt..Write$GT$9write_str17hdd21f97351132ca0E>
20004040:	4501                	li	a0,0
20004042:	4422                	lw	s0,8(sp)
20004044:	40b2                	lw	ra,12(sp)
20004046:	0141                	addi	sp,sp,16
20004048:	8082                	ret

2000404a <_ZN81_$LT$capsules..low_level_debug..fmt..WriteAdapter$u20$as$u20$core..fmt..Write$GT$9write_str17hdd21f97351132ca0E>:
2000404a:	1141                	addi	sp,sp,-16
2000404c:	c606                	sw	ra,12(sp)
2000404e:	c422                	sw	s0,8(sp)
20004050:	c226                	sw	s1,4(sp)
20004052:	c04a                	sw	s2,0(sp)
20004054:	0800                	addi	s0,sp,16
20004056:	8932                	mv	s2,a2
20004058:	862e                	mv	a2,a1
2000405a:	84aa                	mv	s1,a0
2000405c:	4508                	lw	a0,8(a0)
2000405e:	012505b3          	add	a1,a0,s2
20004062:	02a5e063          	bltu	a1,a0,20004082 <_ZN81_$LT$capsules..low_level_debug..fmt..WriteAdapter$u20$as$u20$core..fmt..Write$GT$9write_str17hdd21f97351132ca0E+0x38>
20004066:	40d4                	lw	a3,4(s1)
20004068:	00b6ed63          	bltu	a3,a1,20004082 <_ZN81_$LT$capsules..low_level_debug..fmt..WriteAdapter$u20$as$u20$core..fmt..Write$GT$9write_str17hdd21f97351132ca0E+0x38>
2000406c:	408c                	lw	a1,0(s1)
2000406e:	952e                	add	a0,a0,a1
20004070:	85ca                	mv	a1,s2
20004072:	86ca                	mv	a3,s2
20004074:	ffffe097          	auipc	ra,0xffffe
20004078:	50c080e7          	jalr	1292(ra) # 20002580 <_ZN4core5slice29_$LT$impl$u20$$u5b$T$u5d$$GT$15copy_from_slice17hef2276671e8bc7a2E>
2000407c:	4488                	lw	a0,8(s1)
2000407e:	954a                	add	a0,a0,s2
20004080:	c488                	sw	a0,8(s1)
20004082:	4501                	li	a0,0
20004084:	4902                	lw	s2,0(sp)
20004086:	4492                	lw	s1,4(sp)
20004088:	4422                	lw	s0,8(sp)
2000408a:	40b2                	lw	ra,12(sp)
2000408c:	0141                	addi	sp,sp,16
2000408e:	8082                	ret

20004090 <_ZN4core3fmt5Write9write_fmt17h322c79dee0ab4dcbE>:
20004090:	7179                	addi	sp,sp,-48
20004092:	d606                	sw	ra,44(sp)
20004094:	d422                	sw	s0,40(sp)
20004096:	d226                	sw	s1,36(sp)
20004098:	1800                	addi	s0,sp,48
2000409a:	fca42a23          	sw	a0,-44(s0)
2000409e:	fd840493          	addi	s1,s0,-40
200040a2:	8526                	mv	a0,s1
200040a4:	4661                	li	a2,24
200040a6:	00007097          	auipc	ra,0x7
200040aa:	438080e7          	jalr	1080(ra) # 2000b4de <memcpy>
200040ae:	10001537          	lui	a0,0x10001
200040b2:	27850593          	addi	a1,a0,632 # 10001278 <.Lanon.feac3395153e28be8a3a74fc51ace254.0>
200040b6:	fd440513          	addi	a0,s0,-44
200040ba:	8626                	mv	a2,s1
200040bc:	00002097          	auipc	ra,0x2
200040c0:	c0e080e7          	jalr	-1010(ra) # 20005cca <_ZN4core3fmt5write17hb7761afb3ce3b207E>
200040c4:	5492                	lw	s1,36(sp)
200040c6:	5422                	lw	s0,40(sp)
200040c8:	50b2                	lw	ra,44(sp)
200040ca:	6145                	addi	sp,sp,48
200040cc:	8082                	ret

200040ce <_ZN4core3ptr13drop_in_place17hbd2e6f0d03030ce3E>:
200040ce:	1141                	addi	sp,sp,-16
200040d0:	c606                	sw	ra,12(sp)
200040d2:	c422                	sw	s0,8(sp)
200040d4:	0800                	addi	s0,sp,16
200040d6:	4422                	lw	s0,8(sp)
200040d8:	40b2                	lw	ra,12(sp)
200040da:	0141                	addi	sp,sp,16
200040dc:	8082                	ret

200040de <_ZN50_$LT$$RF$mut$u20$W$u20$as$u20$core..fmt..Write$GT$9write_str17h9c74695b1e0e82c4E>:
200040de:	1141                	addi	sp,sp,-16
200040e0:	c606                	sw	ra,12(sp)
200040e2:	c422                	sw	s0,8(sp)
200040e4:	0800                	addi	s0,sp,16
200040e6:	4108                	lw	a0,0(a0)
200040e8:	00000097          	auipc	ra,0x0
200040ec:	f62080e7          	jalr	-158(ra) # 2000404a <_ZN81_$LT$capsules..low_level_debug..fmt..WriteAdapter$u20$as$u20$core..fmt..Write$GT$9write_str17hdd21f97351132ca0E>
200040f0:	4501                	li	a0,0
200040f2:	4422                	lw	s0,8(sp)
200040f4:	40b2                	lw	ra,12(sp)
200040f6:	0141                	addi	sp,sp,16
200040f8:	8082                	ret

200040fa <_ZN50_$LT$$RF$mut$u20$W$u20$as$u20$core..fmt..Write$GT$10write_char17hada226f72c6a6357E>:
200040fa:	1141                	addi	sp,sp,-16
200040fc:	c606                	sw	ra,12(sp)
200040fe:	c422                	sw	s0,8(sp)
20004100:	0800                	addi	s0,sp,16
20004102:	4108                	lw	a0,0(a0)
20004104:	00000097          	auipc	ra,0x0
20004108:	e88080e7          	jalr	-376(ra) # 20003f8c <_ZN4core3fmt5Write10write_char17h1ca6bfe508167904E>
2000410c:	4501                	li	a0,0
2000410e:	4422                	lw	s0,8(sp)
20004110:	40b2                	lw	ra,12(sp)
20004112:	0141                	addi	sp,sp,16
20004114:	8082                	ret

20004116 <_ZN50_$LT$$RF$mut$u20$W$u20$as$u20$core..fmt..Write$GT$9write_fmt17h7b26c2989da77ce5E>:
20004116:	7179                	addi	sp,sp,-48
20004118:	d606                	sw	ra,44(sp)
2000411a:	d422                	sw	s0,40(sp)
2000411c:	d226                	sw	s1,36(sp)
2000411e:	d04a                	sw	s2,32(sp)
20004120:	1800                	addi	s0,sp,48
20004122:	4104                	lw	s1,0(a0)
20004124:	fd840913          	addi	s2,s0,-40
20004128:	854a                	mv	a0,s2
2000412a:	4661                	li	a2,24
2000412c:	00007097          	auipc	ra,0x7
20004130:	3b2080e7          	jalr	946(ra) # 2000b4de <memcpy>
20004134:	8526                	mv	a0,s1
20004136:	85ca                	mv	a1,s2
20004138:	00000097          	auipc	ra,0x0
2000413c:	f58080e7          	jalr	-168(ra) # 20004090 <_ZN4core3fmt5Write9write_fmt17h322c79dee0ab4dcbE>
20004140:	5902                	lw	s2,32(sp)
20004142:	5492                	lw	s1,36(sp)
20004144:	5422                	lw	s0,40(sp)
20004146:	50b2                	lw	ra,44(sp)
20004148:	6145                	addi	sp,sp,48
2000414a:	8082                	ret

2000414c <_ZN4core3ptr13drop_in_place17h04e29aa62d3650dbE>:
2000414c:	1141                	addi	sp,sp,-16
2000414e:	c606                	sw	ra,12(sp)
20004150:	c422                	sw	s0,8(sp)
20004152:	0800                	addi	s0,sp,16
20004154:	4422                	lw	s0,8(sp)
20004156:	40b2                	lw	ra,12(sp)
20004158:	0141                	addi	sp,sp,16
2000415a:	8082                	ret

2000415c <_ZN89_$LT$components..lldb..LowLevelDebugComponent$u20$as$u20$kernel..component..Component$GT$8finalize17h6152f0712eb04426E>:
2000415c:	1141                	addi	sp,sp,-16
2000415e:	c606                	sw	ra,12(sp)
20004160:	c422                	sw	s0,8(sp)
20004162:	0800                	addi	s0,sp,16
20004164:	100025b7          	lui	a1,0x10002
20004168:	06458513          	addi	a0,a1,100 # 10002064 <_ZN89_$LT$components..lldb..LowLevelDebugComponent$u20$as$u20$kernel..component..Component$GT$8finalize3BUF17h601c2b3c32833f6fE>
2000416c:	10000613          	li	a2,256
20004170:	02c51c23          	sh	a2,56(a0)
20004174:	4609                	li	a2,2
20004176:	cd50                	sw	a2,28(a0)
20004178:	10002637          	lui	a2,0x10002
2000417c:	10860613          	addi	a2,a2,264 # 10002108 <_ZN86_$LT$components..console..UartMuxComponent$u20$as$u20$kernel..component..Component$GT$8finalize3BUF17h354cdfeace9a849fE>
20004180:	06c5a223          	sw	a2,100(a1)
20004184:	464c                	lw	a1,12(a2)
20004186:	c648                	sw	a0,12(a2)
20004188:	d14c                	sw	a1,36(a0)
2000418a:	02050d23          	sb	zero,58(a0)
2000418e:	02052823          	sw	zero,48(a0)
20004192:	02052423          	sw	zero,40(a0)
20004196:	00052c23          	sw	zero,24(a0)
2000419a:	00052a23          	sw	zero,20(a0)
2000419e:	00052623          	sw	zero,12(a0)
200041a2:	00052223          	sw	zero,4(a0)
200041a6:	100025b7          	lui	a1,0x10002
200041aa:	64858593          	addi	a1,a1,1608 # 10002648 <_ZN9opentitan13reset_handler3BUF17hde44aa74b73c5f78E>
200041ae:	0145c603          	lbu	a2,20(a1)
200041b2:	e221                	bnez	a2,200041f2 <_ZN89_$LT$components..lldb..LowLevelDebugComponent$u20$as$u20$kernel..component..Component$GT$8finalize17h6152f0712eb04426E+0x96>
200041b4:	10002637          	lui	a2,0x10002
200041b8:	0b860613          	addi	a2,a2,184 # 100020b8 <_ZN89_$LT$components..lldb..LowLevelDebugComponent$u20$as$u20$kernel..component..Component$GT$8finalize5MYBUF17h5a644449ce0bb127E>
200041bc:	100026b7          	lui	a3,0x10002
200041c0:	0ac6a023          	sw	a2,160(a3) # 100020a0 <_ZN89_$LT$components..lldb..LowLevelDebugComponent$u20$as$u20$kernel..component..Component$GT$8finalize3BUF17hede49bfbf5684d28E>
200041c4:	0a068613          	addi	a2,a3,160
200041c8:	00060a23          	sb	zero,20(a2)
200041cc:	03d00693          	li	a3,61
200041d0:	c254                	sw	a3,4(a2)
200041d2:	100016b7          	lui	a3,0x10001
200041d6:	31068693          	addi	a3,a3,784 # 10001310 <.Lanon.e269aae0080833408ff358fbc7d81902.1>
200041da:	d954                	sw	a3,52(a0)
200041dc:	ca08                	sw	a0,16(a2)
200041de:	d910                	sw	a2,48(a0)
200041e0:	c60c                	sw	a1,8(a2)
200041e2:	4988                	lw	a0,16(a1)
200041e4:	c648                	sw	a0,12(a2)
200041e6:	0505                	addi	a0,a0,1
200041e8:	c988                	sw	a0,16(a1)
200041ea:	4422                	lw	s0,8(sp)
200041ec:	40b2                	lw	ra,12(sp)
200041ee:	0141                	addi	sp,sp,16
200041f0:	8082                	ret
200041f2:	2000e537          	lui	a0,0x2000e
200041f6:	e4450513          	addi	a0,a0,-444 # 2000de44 <.L__unnamed_43>
200041fa:	100025b7          	lui	a1,0x10002
200041fe:	b3058613          	addi	a2,a1,-1232 # 10001b30 <.L__unnamed_44>
20004202:	02c00593          	li	a1,44
20004206:	00001097          	auipc	ra,0x1
2000420a:	8da080e7          	jalr	-1830(ra) # 20004ae0 <_ZN4core9panicking5panic17haaa649c2263e8176E>
2000420e:	0000b097          	auipc	ra,0xb
20004212:	9ce080e7          	jalr	-1586(ra) # 2000ebdc <abort>

20004216 <_ZN4core3ptr13drop_in_place17h968b3d904cab8f94E>:
20004216:	1141                	addi	sp,sp,-16
20004218:	c606                	sw	ra,12(sp)
2000421a:	c422                	sw	s0,8(sp)
2000421c:	0800                	addi	s0,sp,16
2000421e:	4422                	lw	s0,8(sp)
20004220:	40b2                	lw	ra,12(sp)
20004222:	0141                	addi	sp,sp,16
20004224:	8082                	ret

20004226 <_ZN80_$LT$components..gpio..GpioComponent$u20$as$u20$kernel..component..Component$GT$8finalize17hcab897b1489959baE>:
20004226:	1101                	addi	sp,sp,-32
20004228:	ce06                	sw	ra,28(sp)
2000422a:	cc22                	sw	s0,24(sp)
2000422c:	ca26                	sw	s1,20(sp)
2000422e:	c84a                	sw	s2,16(sp)
20004230:	c64e                	sw	s3,12(sp)
20004232:	c452                	sw	s4,8(sp)
20004234:	1000                	addi	s0,sp,32
20004236:	10002537          	lui	a0,0x10002
2000423a:	64850513          	addi	a0,a0,1608 # 10002648 <_ZN9opentitan13reset_handler3BUF17hde44aa74b73c5f78E>
2000423e:	01454583          	lbu	a1,20(a0)
20004242:	e9c1                	bnez	a1,200042d2 <_ZN80_$LT$components..gpio..GpioComponent$u20$as$u20$kernel..component..Component$GT$8finalize17hcab897b1489959baE+0xac>
20004244:	01052983          	lw	s3,16(a0)
20004248:	00198593          	addi	a1,s3,1
2000424c:	c90c                	sw	a1,16(a0)
2000424e:	04000913          	li	s2,64
20004252:	10003537          	lui	a0,0x10003
20004256:	82050493          	addi	s1,a0,-2016 # 10002820 <_ZN9opentitan13reset_handler3BUF17hb8ab9135bab695eaE>
2000425a:	4a01                	li	s4,0
2000425c:	00090c63          	beqz	s2,20004274 <_ZN80_$LT$components..gpio..GpioComponent$u20$as$u20$kernel..component..Component$GT$8finalize17hcab897b1489959baE+0x4e>
20004260:	40c8                	lw	a0,4(s1)
20004262:	4d50                	lw	a2,28(a0)
20004264:	4088                	lw	a0,0(s1)
20004266:	85d2                	mv	a1,s4
20004268:	9602                	jalr	a2
2000426a:	1961                	addi	s2,s2,-8
2000426c:	04a1                	addi	s1,s1,8
2000426e:	0a05                	addi	s4,s4,1
20004270:	fe0918e3          	bnez	s2,20004260 <_ZN80_$LT$components..gpio..GpioComponent$u20$as$u20$kernel..component..Component$GT$8finalize17hcab897b1489959baE+0x3a>
20004274:	10002537          	lui	a0,0x10002
20004278:	0f850913          	addi	s2,a0,248 # 100020f8 <_ZN80_$LT$components..gpio..GpioComponent$u20$as$u20$kernel..component..Component$GT$8finalize3BUF17h69d7f153c7f0310fE>
2000427c:	01392623          	sw	s3,12(s2)
20004280:	100025b7          	lui	a1,0x10002
20004284:	64858593          	addi	a1,a1,1608 # 10002648 <_ZN9opentitan13reset_handler3BUF17hde44aa74b73c5f78E>
20004288:	00b92423          	sw	a1,8(s2)
2000428c:	45a1                	li	a1,8
2000428e:	00b92223          	sw	a1,4(s2)
20004292:	100035b7          	lui	a1,0x10003
20004296:	82058493          	addi	s1,a1,-2016 # 10002820 <_ZN9opentitan13reset_handler3BUF17hb8ab9135bab695eaE>
2000429a:	0e952c23          	sw	s1,248(a0)
2000429e:	04000a13          	li	s4,64
200042a2:	10001537          	lui	a0,0x10001
200042a6:	32450993          	addi	s3,a0,804 # 10001324 <.Lanon.0796100357c9f8fdc45992f773cd392c.1>
200042aa:	000a0c63          	beqz	s4,200042c2 <_ZN80_$LT$components..gpio..GpioComponent$u20$as$u20$kernel..component..Component$GT$8finalize17hcab897b1489959baE+0x9c>
200042ae:	40c8                	lw	a0,4(s1)
200042b0:	4554                	lw	a3,12(a0)
200042b2:	4088                	lw	a0,0(s1)
200042b4:	85ca                	mv	a1,s2
200042b6:	864e                	mv	a2,s3
200042b8:	9682                	jalr	a3
200042ba:	1a61                	addi	s4,s4,-8
200042bc:	04a1                	addi	s1,s1,8
200042be:	fe0a18e3          	bnez	s4,200042ae <_ZN80_$LT$components..gpio..GpioComponent$u20$as$u20$kernel..component..Component$GT$8finalize17hcab897b1489959baE+0x88>
200042c2:	4a22                	lw	s4,8(sp)
200042c4:	49b2                	lw	s3,12(sp)
200042c6:	4942                	lw	s2,16(sp)
200042c8:	44d2                	lw	s1,20(sp)
200042ca:	4462                	lw	s0,24(sp)
200042cc:	40f2                	lw	ra,28(sp)
200042ce:	6105                	addi	sp,sp,32
200042d0:	8082                	ret
200042d2:	2000e537          	lui	a0,0x2000e
200042d6:	e4450513          	addi	a0,a0,-444 # 2000de44 <.L__unnamed_43>
200042da:	100025b7          	lui	a1,0x10002
200042de:	b3058613          	addi	a2,a1,-1232 # 10001b30 <.L__unnamed_44>
200042e2:	02c00593          	li	a1,44
200042e6:	00000097          	auipc	ra,0x0
200042ea:	7fa080e7          	jalr	2042(ra) # 20004ae0 <_ZN4core9panicking5panic17haaa649c2263e8176E>
200042ee:	0000b097          	auipc	ra,0xb
200042f2:	8ee080e7          	jalr	-1810(ra) # 2000ebdc <abort>

200042f6 <_ZN4core3ptr13drop_in_place17hd96dccd29c9c8d4eE>:
200042f6:	1141                	addi	sp,sp,-16
200042f8:	c606                	sw	ra,12(sp)
200042fa:	c422                	sw	s0,8(sp)
200042fc:	0800                	addi	s0,sp,16
200042fe:	4422                	lw	s0,8(sp)
20004300:	40b2                	lw	ra,12(sp)
20004302:	0141                	addi	sp,sp,16
20004304:	8082                	ret

20004306 <_ZN6kernel3hil4uart13ReceiveClient13received_word17h273e3b7bfc66a214E>:
20004306:	1141                	addi	sp,sp,-16
20004308:	c606                	sw	ra,12(sp)
2000430a:	c422                	sw	s0,8(sp)
2000430c:	0800                	addi	s0,sp,16
2000430e:	4422                	lw	s0,8(sp)
20004310:	40b2                	lw	ra,12(sp)
20004312:	0141                	addi	sp,sp,16
20004314:	8082                	ret

20004316 <_ZN6kernel3hil4uart13ReceiveClient13received_word17h8ce2e47828946fe3E>:
20004316:	1141                	addi	sp,sp,-16
20004318:	c606                	sw	ra,12(sp)
2000431a:	c422                	sw	s0,8(sp)
2000431c:	0800                	addi	s0,sp,16
2000431e:	4422                	lw	s0,8(sp)
20004320:	40b2                	lw	ra,12(sp)
20004322:	0141                	addi	sp,sp,16
20004324:	8082                	ret

20004326 <_ZN6kernel3hil4uart14TransmitClient16transmitted_word17h58dc9614bb313170E>:
20004326:	1141                	addi	sp,sp,-16
20004328:	c606                	sw	ra,12(sp)
2000432a:	c422                	sw	s0,8(sp)
2000432c:	0800                	addi	s0,sp,16
2000432e:	4422                	lw	s0,8(sp)
20004330:	40b2                	lw	ra,12(sp)
20004332:	0141                	addi	sp,sp,16
20004334:	8082                	ret

20004336 <_ZN6kernel3hil4uart14TransmitClient16transmitted_word17h683857e31fab5a13E>:
20004336:	1141                	addi	sp,sp,-16
20004338:	c606                	sw	ra,12(sp)
2000433a:	c422                	sw	s0,8(sp)
2000433c:	0800                	addi	s0,sp,16
2000433e:	4422                	lw	s0,8(sp)
20004340:	40b2                	lw	ra,12(sp)
20004342:	0141                	addi	sp,sp,16
20004344:	8082                	ret

20004346 <_ZN86_$LT$components..console..UartMuxComponent$u20$as$u20$kernel..component..Component$GT$8finalize17h6a6aafe28baa65f7E>:
20004346:	1101                	addi	sp,sp,-32
20004348:	ce06                	sw	ra,28(sp)
2000434a:	cc22                	sw	s0,24(sp)
2000434c:	ca26                	sw	s1,20(sp)
2000434e:	c84a                	sw	s2,16(sp)
20004350:	c64e                	sw	s3,12(sp)
20004352:	1000                	addi	s0,sp,32
20004354:	00052903          	lw	s2,0(a0)
20004358:	00452983          	lw	s3,4(a0)
2000435c:	454c                	lw	a1,12(a0)
2000435e:	4510                	lw	a2,8(a0)
20004360:	10002537          	lui	a0,0x10002
20004364:	10850493          	addi	s1,a0,264 # 10002108 <_ZN86_$LT$components..console..UartMuxComponent$u20$as$u20$kernel..component..Component$GT$8finalize3BUF17h354cdfeace9a849fE>
20004368:	04000693          	li	a3,64
2000436c:	cc94                	sw	a3,24(s1)
2000436e:	100026b7          	lui	a3,0x10002
20004372:	fa468693          	addi	a3,a3,-92 # 10001fa4 <_erelocate>
20004376:	c8d4                	sw	a3,20(s1)
20004378:	02048423          	sb	zero,40(s1)
2000437c:	0204a023          	sw	zero,32(s1)
20004380:	0004a823          	sw	zero,16(s1)
20004384:	0004a623          	sw	zero,12(s1)
20004388:	c490                	sw	a2,8(s1)
2000438a:	cccc                	sw	a1,28(s1)
2000438c:	0134a223          	sw	s3,4(s1)
20004390:	11252423          	sw	s2,264(a0)
20004394:	4590                	lw	a2,8(a1)
20004396:	41d4                	lw	a3,4(a1)
20004398:	06d67b63          	bgeu	a2,a3,2000440e <_ZN86_$LT$components..console..UartMuxComponent$u20$as$u20$kernel..component..Component$GT$8finalize17h6a6aafe28baa65f7E+0xc8>
2000439c:	46b1                	li	a3,12
2000439e:	02d606b3          	mul	a3,a2,a3
200043a2:	4198                	lw	a4,0(a1)
200043a4:	96ba                	add	a3,a3,a4
200043a6:	10001737          	lui	a4,0x10001
200043aa:	33470713          	addi	a4,a4,820 # 10001334 <.Lanon.beaecb7a7e66f7266837a47152f7994d.0>
200043ae:	c2d8                	sw	a4,4(a3)
200043b0:	00068423          	sb	zero,8(a3)
200043b4:	c284                	sw	s1,0(a3)
200043b6:	00160693          	addi	a3,a2,1
200043ba:	c594                	sw	a3,8(a1)
200043bc:	d0d0                	sw	a2,36(s1)
200043be:	4585                	li	a1,1
200043c0:	d08c                	sw	a1,32(s1)
200043c2:	10852503          	lw	a0,264(a0)
200043c6:	40cc                	lw	a1,4(s1)
200043c8:	6641                	lui	a2,0x10
200043ca:	0621                	addi	a2,a2,8
200043cc:	fec42223          	sw	a2,-28(s0)
200043d0:	4490                	lw	a2,8(s1)
200043d2:	fec42023          	sw	a2,-32(s0)
200043d6:	55d0                	lw	a2,44(a1)
200043d8:	fe040593          	addi	a1,s0,-32
200043dc:	9602                	jalr	a2
200043de:	10001537          	lui	a0,0x10001
200043e2:	35450613          	addi	a2,a0,852 # 10001354 <.Lanon.beaecb7a7e66f7266837a47152f7994d.4>
200043e6:	01c9a683          	lw	a3,28(s3)
200043ea:	854a                	mv	a0,s2
200043ec:	85a6                	mv	a1,s1
200043ee:	9682                	jalr	a3
200043f0:	10001537          	lui	a0,0x10001
200043f4:	36850613          	addi	a2,a0,872 # 10001368 <.Lanon.beaecb7a7e66f7266837a47152f7994d.5>
200043f8:	00c9a783          	lw	a5,12(s3)
200043fc:	854a                	mv	a0,s2
200043fe:	85a6                	mv	a1,s1
20004400:	49b2                	lw	s3,12(sp)
20004402:	4942                	lw	s2,16(sp)
20004404:	44d2                	lw	s1,20(sp)
20004406:	4462                	lw	s0,24(sp)
20004408:	40f2                	lw	ra,28(sp)
2000440a:	6105                	addi	sp,sp,32
2000440c:	8782                	jr	a5
2000440e:	2000d537          	lui	a0,0x2000d
20004412:	b1050513          	addi	a0,a0,-1264 # 2000cb10 <.Lanon.beaecb7a7e66f7266837a47152f7994d.1>
20004416:	100015b7          	lui	a1,0x10001
2000441a:	34458613          	addi	a2,a1,836 # 10001344 <.Lanon.beaecb7a7e66f7266837a47152f7994d.3>
2000441e:	02c00593          	li	a1,44
20004422:	00002097          	auipc	ra,0x2
20004426:	abc080e7          	jalr	-1348(ra) # 20005ede <_ZN4core6option13expect_failed17h88e0a9ad8faed78dE>
2000442a:	0000a097          	auipc	ra,0xa
2000442e:	7b2080e7          	jalr	1970(ra) # 2000ebdc <abort>

20004432 <_ZN4core3ptr13drop_in_place17hb9ef17518d221441E>:
20004432:	1141                	addi	sp,sp,-16
20004434:	c606                	sw	ra,12(sp)
20004436:	c422                	sw	s0,8(sp)
20004438:	0800                	addi	s0,sp,16
2000443a:	4422                	lw	s0,8(sp)
2000443c:	40b2                	lw	ra,12(sp)
2000443e:	0141                	addi	sp,sp,16
20004440:	8082                	ret

20004442 <_ZN86_$LT$components..console..ConsoleComponent$u20$as$u20$kernel..component..Component$GT$8finalize17h1138843be2e67c3bE>:
20004442:	1101                	addi	sp,sp,-32
20004444:	ce06                	sw	ra,28(sp)
20004446:	cc22                	sw	s0,24(sp)
20004448:	1000                	addi	s0,sp,32
2000444a:	100025b7          	lui	a1,0x10002
2000444e:	13458513          	addi	a0,a1,308 # 10002134 <_ZN86_$LT$components..console..ConsoleComponent$u20$as$u20$kernel..component..Component$GT$8finalize3BUF17h8aeec6195f3c0470E>
20004452:	10000613          	li	a2,256
20004456:	02c51c23          	sh	a2,56(a0)
2000445a:	4609                	li	a2,2
2000445c:	cd50                	sw	a2,28(a0)
2000445e:	10002637          	lui	a2,0x10002
20004462:	10860613          	addi	a2,a2,264 # 10002108 <_ZN86_$LT$components..console..UartMuxComponent$u20$as$u20$kernel..component..Component$GT$8finalize3BUF17h354cdfeace9a849fE>
20004466:	12c5aa23          	sw	a2,308(a1)
2000446a:	464c                	lw	a1,12(a2)
2000446c:	c648                	sw	a0,12(a2)
2000446e:	d14c                	sw	a1,36(a0)
20004470:	02050d23          	sb	zero,58(a0)
20004474:	02052823          	sw	zero,48(a0)
20004478:	02052423          	sw	zero,40(a0)
2000447c:	00052c23          	sw	zero,24(a0)
20004480:	00052a23          	sw	zero,20(a0)
20004484:	00052623          	sw	zero,12(a0)
20004488:	00052223          	sw	zero,4(a0)
2000448c:	100025b7          	lui	a1,0x10002
20004490:	64858593          	addi	a1,a1,1608 # 10002648 <_ZN9opentitan13reset_handler3BUF17hde44aa74b73c5f78E>
20004494:	0145c603          	lbu	a2,20(a1)
20004498:	e241                	bnez	a2,20004518 <_ZN86_$LT$components..console..ConsoleComponent$u20$as$u20$kernel..component..Component$GT$8finalize17h1138843be2e67c3bE+0xd6>
2000449a:	10002637          	lui	a2,0x10002
2000449e:	17060693          	addi	a3,a2,368 # 10002170 <_ZN86_$LT$components..console..ConsoleComponent$u20$as$u20$kernel..component..Component$GT$8finalize3BUF17h2ac1d594c373289cE>
200044a2:	ff442703          	lw	a4,-12(s0)
200044a6:	ce98                	sw	a4,24(a3)
200044a8:	ff042703          	lw	a4,-16(s0)
200044ac:	cad8                	sw	a4,20(a3)
200044ae:	fec42703          	lw	a4,-20(s0)
200044b2:	d6d8                	sw	a4,44(a3)
200044b4:	fe842703          	lw	a4,-24(s0)
200044b8:	d698                	sw	a4,40(a3)
200044ba:	4998                	lw	a4,16(a1)
200044bc:	00170793          	addi	a5,a4,1
200044c0:	c99c                	sw	a5,16(a1)
200044c2:	c68c                	sw	a1,8(a3)
200044c4:	100015b7          	lui	a1,0x10001
200044c8:	37c58593          	addi	a1,a1,892 # 1000137c <.Lanon.beaecb7a7e66f7266837a47152f7994d.6>
200044cc:	c2cc                	sw	a1,4(a3)
200044ce:	16a62823          	sw	a0,368(a2)
200044d2:	0006a823          	sw	zero,16(a3)
200044d6:	0206a223          	sw	zero,36(a3)
200044da:	100025b7          	lui	a1,0x10002
200044de:	fe458593          	addi	a1,a1,-28 # 10001fe4 <_ZN8capsules7console9WRITE_BUF17hc79d2c0de38f3a6bE>
200044e2:	cecc                	sw	a1,28(a3)
200044e4:	04000593          	li	a1,64
200044e8:	d28c                	sw	a1,32(a3)
200044ea:	dacc                	sw	a1,52(a3)
200044ec:	100025b7          	lui	a1,0x10002
200044f0:	02458593          	addi	a1,a1,36 # 10002024 <_ZN8capsules7console8READ_BUF17h6e0b2b2ce0ebb9daE>
200044f4:	da8c                	sw	a1,48(a3)
200044f6:	c6d8                	sw	a4,12(a3)
200044f8:	100015b7          	lui	a1,0x10001
200044fc:	3a858593          	addi	a1,a1,936 # 100013a8 <.Lanon.beaecb7a7e66f7266837a47152f7994d.8>
20004500:	d94c                	sw	a1,52(a0)
20004502:	d914                	sw	a3,48(a0)
20004504:	d514                	sw	a3,40(a0)
20004506:	100015b7          	lui	a1,0x10001
2000450a:	3bc58593          	addi	a1,a1,956 # 100013bc <.Lanon.beaecb7a7e66f7266837a47152f7994d.9>
2000450e:	d54c                	sw	a1,44(a0)
20004510:	4462                	lw	s0,24(sp)
20004512:	40f2                	lw	ra,28(sp)
20004514:	6105                	addi	sp,sp,32
20004516:	8082                	ret
20004518:	2000e537          	lui	a0,0x2000e
2000451c:	e4450513          	addi	a0,a0,-444 # 2000de44 <.L__unnamed_43>
20004520:	100025b7          	lui	a1,0x10002
20004524:	b3058613          	addi	a2,a1,-1232 # 10001b30 <.L__unnamed_44>
20004528:	02c00593          	li	a1,44
2000452c:	00000097          	auipc	ra,0x0
20004530:	5b4080e7          	jalr	1460(ra) # 20004ae0 <_ZN4core9panicking5panic17haaa649c2263e8176E>
20004534:	0000a097          	auipc	ra,0xa
20004538:	6a8080e7          	jalr	1704(ra) # 2000ebdc <abort>

2000453c <_ZN4core3ptr13drop_in_place17hb6c1ab1a2a4c3fdcE>:
2000453c:	1141                	addi	sp,sp,-16
2000453e:	c606                	sw	ra,12(sp)
20004540:	c422                	sw	s0,8(sp)
20004542:	0800                	addi	s0,sp,16
20004544:	4422                	lw	s0,8(sp)
20004546:	40b2                	lw	ra,12(sp)
20004548:	0141                	addi	sp,sp,16
2000454a:	8082                	ret

2000454c <_ZN4core3ptr13drop_in_place17h4fbdbbafd566f22eE>:
2000454c:	1141                	addi	sp,sp,-16
2000454e:	c606                	sw	ra,12(sp)
20004550:	c422                	sw	s0,8(sp)
20004552:	0800                	addi	s0,sp,16
20004554:	4422                	lw	s0,8(sp)
20004556:	40b2                	lw	ra,12(sp)
20004558:	0141                	addi	sp,sp,16
2000455a:	8082                	ret

2000455c <_ZN95_$LT$components..debug_writer..DebugWriterComponent$u20$as$u20$kernel..component..Component$GT$8finalize17h9bcfcc9ffe2a17ecE>:
2000455c:	1101                	addi	sp,sp,-32
2000455e:	ce06                	sw	ra,28(sp)
20004560:	cc22                	sw	s0,24(sp)
20004562:	ca26                	sw	s1,20(sp)
20004564:	c84a                	sw	s2,16(sp)
20004566:	c64e                	sw	s3,12(sp)
20004568:	1000                	addi	s0,sp,32
2000456a:	10002537          	lui	a0,0x10002
2000456e:	1a850913          	addi	s2,a0,424 # 100021a8 <_ZN95_$LT$components..debug_writer..DebugWriterComponent$u20$as$u20$kernel..component..Component$GT$8finalize3BUF17h2b555e9c418e2d7bE>
20004572:	854a                	mv	a0,s2
20004574:	4581                	li	a1,0
20004576:	40000613          	li	a2,1024
2000457a:	00007097          	auipc	ra,0x7
2000457e:	f88080e7          	jalr	-120(ra) # 2000b502 <memset>
20004582:	10002537          	lui	a0,0x10002
20004586:	5a850493          	addi	s1,a0,1448 # 100025a8 <_ZN95_$LT$components..debug_writer..DebugWriterComponent$u20$as$u20$kernel..component..Component$GT$8finalize3BUF17h0cc882db2c16b183E>
2000458a:	4589                	li	a1,2
2000458c:	cccc                	sw	a1,28(s1)
2000458e:	100025b7          	lui	a1,0x10002
20004592:	10858993          	addi	s3,a1,264 # 10002108 <_ZN86_$LT$components..console..UartMuxComponent$u20$as$u20$kernel..component..Component$GT$8finalize3BUF17h354cdfeace9a849fE>
20004596:	5b352423          	sw	s3,1448(a0)
2000459a:	0004ac23          	sw	zero,24(s1)
2000459e:	0004aa23          	sw	zero,20(s1)
200045a2:	0004a623          	sw	zero,12(s1)
200045a6:	0004a223          	sw	zero,4(s1)
200045aa:	02048513          	addi	a0,s1,32
200045ae:	4581                	li	a1,0
200045b0:	466d                	li	a2,27
200045b2:	00007097          	auipc	ra,0x7
200045b6:	f50080e7          	jalr	-176(ra) # 2000b502 <memset>
200045ba:	10002537          	lui	a0,0x10002
200045be:	60c50593          	addi	a1,a0,1548 # 1000260c <_ZN95_$LT$components..debug_writer..DebugWriterComponent$u20$as$u20$kernel..component..Component$GT$8finalize3BUF17h81ead427c2389b77E>
200045c2:	4605                	li	a2,1
200045c4:	00c58223          	sb	a2,4(a1)
200045c8:	10002637          	lui	a2,0x10002
200045cc:	62b62023          	sw	a1,1568(a2) # 10002620 <_ZN6kernel5debug12DEBUG_WRITER17h52b54f2ed5d2398cE>
200045d0:	04090593          	addi	a1,s2,64
200045d4:	10002637          	lui	a2,0x10002
200045d8:	5eb62223          	sw	a1,1508(a2) # 100025e4 <_ZN95_$LT$components..debug_writer..DebugWriterComponent$u20$as$u20$kernel..component..Component$GT$8finalize3BUF17ha26a66b875e30767E>
200045dc:	5e460593          	addi	a1,a2,1508
200045e0:	3c000613          	li	a2,960
200045e4:	c1d0                	sw	a2,4(a1)
200045e6:	0005a623          	sw	zero,12(a1)
200045ea:	0005a423          	sw	zero,8(a1)
200045ee:	10002637          	lui	a2,0x10002
200045f2:	5f460693          	addi	a3,a2,1524 # 100025f4 <_ZN95_$LT$components..debug_writer..DebugWriterComponent$u20$as$u20$kernel..component..Component$GT$8finalize3BUF17hb67278d8f061fdfeE>
200045f6:	0006aa23          	sw	zero,20(a3)
200045fa:	ca8c                	sw	a1,16(a3)
200045fc:	04000593          	li	a1,64
20004600:	c6cc                	sw	a1,12(a3)
20004602:	0126a423          	sw	s2,8(a3)
20004606:	100015b7          	lui	a1,0x10001
2000460a:	3d058593          	addi	a1,a1,976 # 100013d0 <.Lanon.5881b36df8c2b9616f93343419760abb.0>
2000460e:	c2cc                	sw	a1,4(a3)
20004610:	5e962a23          	sw	s1,1524(a2)
20004614:	100015b7          	lui	a1,0x10001
20004618:	3ec58593          	addi	a1,a1,1004 # 100013ec <.Lanon.5881b36df8c2b9616f93343419760abb.1>
2000461c:	d8cc                	sw	a1,52(s1)
2000461e:	60d52623          	sw	a3,1548(a0)
20004622:	d894                	sw	a3,48(s1)
20004624:	00c9a503          	lw	a0,12(s3)
20004628:	0099a623          	sw	s1,12(s3)
2000462c:	d0c8                	sw	a0,36(s1)
2000462e:	49b2                	lw	s3,12(sp)
20004630:	4942                	lw	s2,16(sp)
20004632:	44d2                	lw	s1,20(sp)
20004634:	4462                	lw	s0,24(sp)
20004636:	40f2                	lw	ra,28(sp)
20004638:	6105                	addi	sp,sp,32
2000463a:	8082                	ret

2000463c <_ZN4core3ptr13drop_in_place17h556a4700845e5f10E>:
2000463c:	1141                	addi	sp,sp,-16
2000463e:	c606                	sw	ra,12(sp)
20004640:	c422                	sw	s0,8(sp)
20004642:	0800                	addi	s0,sp,16
20004644:	4422                	lw	s0,8(sp)
20004646:	40b2                	lw	ra,12(sp)
20004648:	0141                	addi	sp,sp,16
2000464a:	8082                	ret

2000464c <_ZN4core3ptr13drop_in_place17h4fbdbbafd566f22eE.475>:
2000464c:	1141                	addi	sp,sp,-16
2000464e:	c606                	sw	ra,12(sp)
20004650:	c422                	sw	s0,8(sp)
20004652:	0800                	addi	s0,sp,16
20004654:	4422                	lw	s0,8(sp)
20004656:	40b2                	lw	ra,12(sp)
20004658:	0141                	addi	sp,sp,16
2000465a:	8082                	ret

2000465c <_ZN103_$LT$capsules..low_level_debug..LowLevelDebug$LT$U$GT$$u20$as$u20$kernel..hil..uart..TransmitClient$GT$18transmitted_buffer17h8271e459ccaaca1bE>:
2000465c:	711d                	addi	sp,sp,-96
2000465e:	ce86                	sw	ra,92(sp)
20004660:	cca2                	sw	s0,88(sp)
20004662:	caa6                	sw	s1,84(sp)
20004664:	c8ca                	sw	s2,80(sp)
20004666:	c6ce                	sw	s3,76(sp)
20004668:	c4d2                	sw	s4,72(sp)
2000466a:	c2d6                	sw	s5,68(sp)
2000466c:	c0da                	sw	s6,64(sp)
2000466e:	de5e                	sw	s7,60(sp)
20004670:	dc62                	sw	s8,56(sp)
20004672:	da66                	sw	s9,52(sp)
20004674:	d86a                	sw	s10,48(sp)
20004676:	d66e                	sw	s11,44(sp)
20004678:	1080                	addi	s0,sp,96
2000467a:	8932                	mv	s2,a2
2000467c:	89ae                	mv	s3,a1
2000467e:	8b2a                	mv	s6,a0
20004680:	01454503          	lbu	a0,20(a0)
20004684:	000b0a23          	sb	zero,20(s6)
20004688:	8905                	andi	a0,a0,1
2000468a:	1a051f63          	bnez	a0,20004848 <_ZN103_$LT$capsules..low_level_debug..LowLevelDebug$LT$U$GT$$u20$as$u20$kernel..hil..uart..TransmitClient$GT$18transmitted_buffer17h8271e459ccaaca1bE+0x1ec>
2000468e:	008b2503          	lw	a0,8(s6)
20004692:	00452c03          	lw	s8,4(a0)
20004696:	4508                	lw	a0,8(a0)
20004698:	050e                	slli	a0,a0,0x3
2000469a:	00ac0cb3          	add	s9,s8,a0
2000469e:	4d05                	li	s10,1
200046a0:	fb040a13          	addi	s4,s0,-80
200046a4:	00cb2a83          	lw	s5,12(s6)
200046a8:	1f8c8163          	beq	s9,s8,2000488a <_ZN103_$LT$capsules..low_level_debug..LowLevelDebug$LT$U$GT$$u20$as$u20$kernel..hil..uart..TransmitClient$GT$18transmitted_buffer17h8271e459ccaaca1bE+0x22e>
200046ac:	000c2483          	lw	s1,0(s8)
200046b0:	c48d                	beqz	s1,200046da <_ZN103_$LT$capsules..low_level_debug..LowLevelDebug$LT$U$GT$$u20$as$u20$kernel..hil..uart..TransmitClient$GT$18transmitted_buffer17h8271e459ccaaca1bE+0x7e>
200046b2:	004c2b83          	lw	s7,4(s8)
200046b6:	07cba603          	lw	a2,124(s7)
200046ba:	8526                	mv	a0,s1
200046bc:	85d6                	mv	a1,s5
200046be:	9602                	jalr	a2
200046c0:	01a51d63          	bne	a0,s10,200046da <_ZN103_$LT$capsules..low_level_debug..LowLevelDebug$LT$U$GT$$u20$as$u20$kernel..hil..uart..TransmitClient$GT$18transmitted_buffer17h8271e459ccaaca1bE+0x7e>
200046c4:	4188                	lw	a0,0(a1)
200046c6:	c911                	beqz	a0,200046da <_ZN103_$LT$capsules..low_level_debug..LowLevelDebug$LT$U$GT$$u20$as$u20$kernel..hil..uart..TransmitClient$GT$18transmitted_buffer17h8271e459ccaaca1bE+0x7e>
200046c8:	00cba603          	lw	a2,12(s7)
200046cc:	8552                	mv	a0,s4
200046ce:	85a6                	mv	a1,s1
200046d0:	9602                	jalr	a2
200046d2:	fb042483          	lw	s1,-80(s0)
200046d6:	c481                	beqz	s1,200046de <_ZN103_$LT$capsules..low_level_debug..LowLevelDebug$LT$U$GT$$u20$as$u20$kernel..hil..uart..TransmitClient$GT$18transmitted_buffer17h8271e459ccaaca1bE+0x82>
200046d8:	a039                	j	200046e6 <_ZN103_$LT$capsules..low_level_debug..LowLevelDebug$LT$U$GT$$u20$as$u20$kernel..hil..uart..TransmitClient$GT$18transmitted_buffer17h8271e459ccaaca1bE+0x8a>
200046da:	fa042823          	sw	zero,-80(s0)
200046de:	0c21                	addi	s8,s8,8
200046e0:	fd8c96e3          	bne	s9,s8,200046ac <_ZN103_$LT$capsules..low_level_debug..LowLevelDebug$LT$U$GT$$u20$as$u20$kernel..hil..uart..TransmitClient$GT$18transmitted_buffer17h8271e459ccaaca1bE+0x50>
200046e4:	a25d                	j	2000488a <_ZN103_$LT$capsules..low_level_debug..LowLevelDebug$LT$U$GT$$u20$as$u20$kernel..hil..uart..TransmitClient$GT$18transmitted_buffer17h8271e459ccaaca1bE+0x22e>
200046e6:	fb442583          	lw	a1,-76(s0)
200046ea:	4488                	lw	a0,8(s1)
200046ec:	fab42623          	sw	a1,-84(s0)
200046f0:	18a5fd63          	bgeu	a1,a0,2000488a <_ZN103_$LT$capsules..low_level_debug..LowLevelDebug$LT$U$GT$$u20$as$u20$kernel..hil..uart..TransmitClient$GT$18transmitted_buffer17h8271e459ccaaca1bE+0x22e>
200046f4:	40c8                	lw	a0,4(s1)
200046f6:	fac42583          	lw	a1,-84(s0)
200046fa:	058e                	slli	a1,a1,0x3
200046fc:	fab42423          	sw	a1,-88(s0)
20004700:	952e                	add	a0,a0,a1
20004702:	00052b83          	lw	s7,0(a0)
20004706:	180b8263          	beqz	s7,2000488a <_ZN103_$LT$capsules..low_level_debug..LowLevelDebug$LT$U$GT$$u20$as$u20$kernel..hil..uart..TransmitClient$GT$18transmitted_buffer17h8271e459ccaaca1bE+0x22e>
2000470a:	fb842a83          	lw	s5,-72(s0)
2000470e:	00452d83          	lw	s11,4(a0)
20004712:	00cda603          	lw	a2,12(s11)
20004716:	8552                	mv	a0,s4
20004718:	85de                	mv	a1,s7
2000471a:	9602                	jalr	a2
2000471c:	fb842503          	lw	a0,-72(s0)
20004720:	fb542223          	sw	s5,-92(s0)
20004724:	17551363          	bne	a0,s5,2000488a <_ZN103_$LT$capsules..low_level_debug..LowLevelDebug$LT$U$GT$$u20$as$u20$kernel..hil..uart..TransmitClient$GT$18transmitted_buffer17h8271e459ccaaca1bE+0x22e>
20004728:	07cda603          	lw	a2,124(s11)
2000472c:	00cb2583          	lw	a1,12(s6)
20004730:	855e                	mv	a0,s7
20004732:	9602                	jalr	a2
20004734:	15a51b63          	bne	a0,s10,2000488a <_ZN103_$LT$capsules..low_level_debug..LowLevelDebug$LT$U$GT$$u20$as$u20$kernel..hil..uart..TransmitClient$GT$18transmitted_buffer17h8271e459ccaaca1bE+0x22e>
20004738:	0005ad83          	lw	s11,0(a1)
2000473c:	140d8763          	beqz	s11,2000488a <_ZN103_$LT$capsules..low_level_debug..LowLevelDebug$LT$U$GT$$u20$as$u20$kernel..hil..uart..TransmitClient$GT$18transmitted_buffer17h8271e459ccaaca1bE+0x22e>
20004740:	0c21                	addi	s8,s8,8
20004742:	008da503          	lw	a0,8(s11)
20004746:	fca42423          	sw	a0,-56(s0)
2000474a:	004da503          	lw	a0,4(s11)
2000474e:	fca42223          	sw	a0,-60(s0)
20004752:	000da503          	lw	a0,0(s11)
20004756:	fca42023          	sw	a0,-64(s0)
2000475a:	02400513          	li	a0,36
2000475e:	00ad85b3          	add	a1,s11,a0
20004762:	4590                	lw	a2,8(a1)
20004764:	fac42c23          	sw	a2,-72(s0)
20004768:	41d0                	lw	a2,4(a1)
2000476a:	fac42a23          	sw	a2,-76(s0)
2000476e:	4190                	lw	a2,0(a1)
20004770:	fac42823          	sw	a2,-80(s0)
20004774:	fc842603          	lw	a2,-56(s0)
20004778:	c590                	sw	a2,8(a1)
2000477a:	fc442603          	lw	a2,-60(s0)
2000477e:	c1d0                	sw	a2,4(a1)
20004780:	fc042603          	lw	a2,-64(s0)
20004784:	c190                	sw	a2,0(a1)
20004786:	fb842583          	lw	a1,-72(s0)
2000478a:	fcb42423          	sw	a1,-56(s0)
2000478e:	fb442583          	lw	a1,-76(s0)
20004792:	fcb42223          	sw	a1,-60(s0)
20004796:	fb042583          	lw	a1,-80(s0)
2000479a:	fcb42023          	sw	a1,-64(s0)
2000479e:	1551                	addi	a0,a0,-12
200047a0:	fd5d                	bnez	a0,2000475e <_ZN103_$LT$capsules..low_level_debug..LowLevelDebug$LT$U$GT$$u20$as$u20$kernel..hil..uart..TransmitClient$GT$18transmitted_buffer17h8271e459ccaaca1bE+0x102>
200047a2:	fc842503          	lw	a0,-56(s0)
200047a6:	00ada423          	sw	a0,8(s11)
200047aa:	fc442503          	lw	a0,-60(s0)
200047ae:	00ada223          	sw	a0,4(s11)
200047b2:	fc042503          	lw	a0,-64(s0)
200047b6:	00ada023          	sw	a0,0(s11)
200047ba:	024daa83          	lw	s5,36(s11)
200047be:	4511                	li	a0,4
200047c0:	02ada223          	sw	a0,36(s11)
200047c4:	02cda603          	lw	a2,44(s11)
200047c8:	028da683          	lw	a3,40(s11)
200047cc:	4488                	lw	a0,8(s1)
200047ce:	fac42583          	lw	a1,-84(s0)
200047d2:	04a5f663          	bgeu	a1,a0,2000481e <_ZN103_$LT$capsules..low_level_debug..LowLevelDebug$LT$U$GT$$u20$as$u20$kernel..hil..uart..TransmitClient$GT$18transmitted_buffer17h8271e459ccaaca1bE+0x1c2>
200047d6:	40c8                	lw	a0,4(s1)
200047d8:	fa842583          	lw	a1,-88(s0)
200047dc:	952e                	add	a0,a0,a1
200047de:	00052b83          	lw	s7,0(a0)
200047e2:	020b8e63          	beqz	s7,2000481e <_ZN103_$LT$capsules..low_level_debug..LowLevelDebug$LT$U$GT$$u20$as$u20$kernel..hil..uart..TransmitClient$GT$18transmitted_buffer17h8271e459ccaaca1bE+0x1c2>
200047e6:	4148                	lw	a0,4(a0)
200047e8:	fac42623          	sw	a2,-84(s0)
200047ec:	faa42423          	sw	a0,-88(s0)
200047f0:	4550                	lw	a2,12(a0)
200047f2:	8552                	mv	a0,s4
200047f4:	85de                	mv	a1,s7
200047f6:	84b6                	mv	s1,a3
200047f8:	9602                	jalr	a2
200047fa:	86a6                	mv	a3,s1
200047fc:	fac42603          	lw	a2,-84(s0)
20004800:	fb842503          	lw	a0,-72(s0)
20004804:	fa442583          	lw	a1,-92(s0)
20004808:	00b51b63          	bne	a0,a1,2000481e <_ZN103_$LT$capsules..low_level_debug..LowLevelDebug$LT$U$GT$$u20$as$u20$kernel..hil..uart..TransmitClient$GT$18transmitted_buffer17h8271e459ccaaca1bE+0x1c2>
2000480c:	fa842503          	lw	a0,-88(s0)
20004810:	5d30                	lw	a2,120(a0)
20004812:	855e                	mv	a0,s7
20004814:	85ee                	mv	a1,s11
20004816:	9602                	jalr	a2
20004818:	86a6                	mv	a3,s1
2000481a:	fac42603          	lw	a2,-84(s0)
2000481e:	4511                	li	a0,4
20004820:	e8aa82e3          	beq	s5,a0,200046a4 <_ZN103_$LT$capsules..low_level_debug..LowLevelDebug$LT$U$GT$$u20$as$u20$kernel..hil..uart..TransmitClient$GT$18transmitted_buffer17h8271e459ccaaca1bE+0x48>
20004824:	fad42a23          	sw	a3,-76(s0)
20004828:	fb542823          	sw	s5,-80(s0)
2000482c:	fac42c23          	sw	a2,-72(s0)
20004830:	fb040713          	addi	a4,s0,-80
20004834:	855a                	mv	a0,s6
20004836:	85ce                	mv	a1,s3
20004838:	864a                	mv	a2,s2
2000483a:	fa442683          	lw	a3,-92(s0)
2000483e:	00000097          	auipc	ra,0x0
20004842:	072080e7          	jalr	114(ra) # 200048b0 <_ZN8capsules15low_level_debug22LowLevelDebug$LT$U$GT$14transmit_entry17hde3fc441a038aecfE>
20004846:	a0b1                	j	20004892 <_ZN103_$LT$capsules..low_level_debug..LowLevelDebug$LT$U$GT$$u20$as$u20$kernel..hil..uart..TransmitClient$GT$18transmitted_buffer17h8271e459ccaaca1bE+0x236>
20004848:	2000d537          	lui	a0,0x2000d
2000484c:	b6150613          	addi	a2,a0,-1183 # 2000cb61 <.Lanon.5307d46a70a516668bc8f698eac18c61.0>
20004850:	854e                	mv	a0,s3
20004852:	85ca                	mv	a1,s2
20004854:	02100693          	li	a3,33
20004858:	ffffe097          	auipc	ra,0xffffe
2000485c:	d28080e7          	jalr	-728(ra) # 20002580 <_ZN4core5slice29_$LT$impl$u20$$u5b$T$u5d$$GT$15copy_from_slice17hef2276671e8bc7a2E>
20004860:	010b2583          	lw	a1,16(s6)
20004864:	fb040513          	addi	a0,s0,-80
20004868:	864e                	mv	a2,s3
2000486a:	86ca                	mv	a3,s2
2000486c:	02100713          	li	a4,33
20004870:	ffffe097          	auipc	ra,0xffffe
20004874:	1dc080e7          	jalr	476(ra) # 20002a4c <_ZN82_$LT$capsules..virtual_uart..UartDevice$u20$as$u20$kernel..hil..uart..Transmit$GT$15transmit_buffer17heb3b4b7eb1f62e29E>
20004878:	fb842503          	lw	a0,-72(s0)
2000487c:	fbc42583          	lw	a1,-68(s0)
20004880:	00bb2223          	sw	a1,4(s6)
20004884:	00ab2023          	sw	a0,0(s6)
20004888:	a029                	j	20004892 <_ZN103_$LT$capsules..low_level_debug..LowLevelDebug$LT$U$GT$$u20$as$u20$kernel..hil..uart..TransmitClient$GT$18transmitted_buffer17h8271e459ccaaca1bE+0x236>
2000488a:	012b2223          	sw	s2,4(s6)
2000488e:	013b2023          	sw	s3,0(s6)
20004892:	5db2                	lw	s11,44(sp)
20004894:	5d42                	lw	s10,48(sp)
20004896:	5cd2                	lw	s9,52(sp)
20004898:	5c62                	lw	s8,56(sp)
2000489a:	5bf2                	lw	s7,60(sp)
2000489c:	4b06                	lw	s6,64(sp)
2000489e:	4a96                	lw	s5,68(sp)
200048a0:	4a26                	lw	s4,72(sp)
200048a2:	49b6                	lw	s3,76(sp)
200048a4:	4946                	lw	s2,80(sp)
200048a6:	44d6                	lw	s1,84(sp)
200048a8:	4466                	lw	s0,88(sp)
200048aa:	40f6                	lw	ra,92(sp)
200048ac:	6125                	addi	sp,sp,96
200048ae:	8082                	ret

200048b0 <_ZN8capsules15low_level_debug22LowLevelDebug$LT$U$GT$14transmit_entry17hde3fc441a038aecfE>:
200048b0:	7159                	addi	sp,sp,-112
200048b2:	d686                	sw	ra,108(sp)
200048b4:	d4a2                	sw	s0,104(sp)
200048b6:	d2a6                	sw	s1,100(sp)
200048b8:	d0ca                	sw	s2,96(sp)
200048ba:	cece                	sw	s3,92(sp)
200048bc:	1880                	addi	s0,sp,112
200048be:	8932                	mv	s2,a2
200048c0:	89ae                	mv	s3,a1
200048c2:	84aa                	mv	s1,a0
200048c4:	470c                	lw	a1,8(a4)
200048c6:	4348                	lw	a0,4(a4)
200048c8:	4310                	lw	a2,0(a4)
200048ca:	f8d42e23          	sw	a3,-100(s0)
200048ce:	fb242223          	sw	s2,-92(s0)
200048d2:	fb342023          	sw	s3,-96(s0)
200048d6:	fa042423          	sw	zero,-88(s0)
200048da:	ce25                	beqz	a2,20004952 <_ZN8capsules15low_level_debug22LowLevelDebug$LT$U$GT$14transmit_entry17hde3fc441a038aecfE+0xa2>
200048dc:	4685                	li	a3,1
200048de:	0ad60f63          	beq	a2,a3,2000499c <_ZN8capsules15low_level_debug22LowLevelDebug$LT$U$GT$14transmit_entry17hde3fc441a038aecfE+0xec>
200048e2:	4689                	li	a3,2
200048e4:	0cd60f63          	beq	a2,a3,200049c2 <_ZN8capsules15low_level_debug22LowLevelDebug$LT$U$GT$14transmit_entry17hde3fc441a038aecfE+0x112>
200048e8:	faa42823          	sw	a0,-80(s0)
200048ec:	fab42a23          	sw	a1,-76(s0)
200048f0:	450d                	li	a0,3
200048f2:	fca42623          	sw	a0,-52(s0)
200048f6:	fd040513          	addi	a0,s0,-48
200048fa:	fca42423          	sw	a0,-56(s0)
200048fe:	fc042023          	sw	zero,-64(s0)
20004902:	4511                	li	a0,4
20004904:	faa42e23          	sw	a0,-68(s0)
20004908:	10001537          	lui	a0,0x10001
2000490c:	29050513          	addi	a0,a0,656 # 10001290 <.Lanon.feac3395153e28be8a3a74fc51ace254.25>
20004910:	faa42c23          	sw	a0,-72(s0)
20004914:	fb440513          	addi	a0,s0,-76
20004918:	fea42023          	sw	a0,-32(s0)
2000491c:	20006537          	lui	a0,0x20006
20004920:	69050513          	addi	a0,a0,1680 # 20006690 <_ZN4core3fmt3num53_$LT$impl$u20$core..fmt..LowerHex$u20$for$u20$i32$GT$3fmt17h6cea225f5f2f55d7E>
20004924:	fea42223          	sw	a0,-28(s0)
20004928:	fca42e23          	sw	a0,-36(s0)
2000492c:	fca42a23          	sw	a0,-44(s0)
20004930:	f9c40513          	addi	a0,s0,-100
20004934:	fca42823          	sw	a0,-48(s0)
20004938:	fb040513          	addi	a0,s0,-80
2000493c:	fca42c23          	sw	a0,-40(s0)
20004940:	10001537          	lui	a0,0x10001
20004944:	2b050593          	addi	a1,a0,688 # 100012b0 <.Lanon.feac3395153e28be8a3a74fc51ace254.20>
20004948:	fa040513          	addi	a0,s0,-96
2000494c:	fb840613          	addi	a2,s0,-72
20004950:	a0e1                	j	20004a18 <_ZN8capsules15low_level_debug22LowLevelDebug$LT$U$GT$14transmit_entry17hde3fc441a038aecfE+0x168>
20004952:	faa42a23          	sw	a0,-76(s0)
20004956:	4509                	li	a0,2
20004958:	fea42223          	sw	a0,-28(s0)
2000495c:	fb840513          	addi	a0,s0,-72
20004960:	fea42023          	sw	a0,-32(s0)
20004964:	fc042c23          	sw	zero,-40(s0)
20004968:	450d                	li	a0,3
2000496a:	fca42a23          	sw	a0,-44(s0)
2000496e:	10001537          	lui	a0,0x10001
20004972:	2c850513          	addi	a0,a0,712 # 100012c8 <.Lanon.feac3395153e28be8a3a74fc51ace254.31>
20004976:	fca42823          	sw	a0,-48(s0)
2000497a:	f9c40513          	addi	a0,s0,-100
2000497e:	fca42023          	sw	a0,-64(s0)
20004982:	20006537          	lui	a0,0x20006
20004986:	69050513          	addi	a0,a0,1680 # 20006690 <_ZN4core3fmt3num53_$LT$impl$u20$core..fmt..LowerHex$u20$for$u20$i32$GT$3fmt17h6cea225f5f2f55d7E>
2000498a:	fca42223          	sw	a0,-60(s0)
2000498e:	faa42e23          	sw	a0,-68(s0)
20004992:	fb440513          	addi	a0,s0,-76
20004996:	faa42c23          	sw	a0,-72(s0)
2000499a:	a0bd                	j	20004a08 <_ZN8capsules15low_level_debug22LowLevelDebug$LT$U$GT$14transmit_entry17hde3fc441a038aecfE+0x158>
2000499c:	faa42a23          	sw	a0,-76(s0)
200049a0:	4509                	li	a0,2
200049a2:	fea42223          	sw	a0,-28(s0)
200049a6:	fb840513          	addi	a0,s0,-72
200049aa:	fea42023          	sw	a0,-32(s0)
200049ae:	fc042c23          	sw	zero,-40(s0)
200049b2:	450d                	li	a0,3
200049b4:	fca42a23          	sw	a0,-44(s0)
200049b8:	10001537          	lui	a0,0x10001
200049bc:	2e050513          	addi	a0,a0,736 # 100012e0 <.Lanon.feac3395153e28be8a3a74fc51ace254.28>
200049c0:	a015                	j	200049e4 <_ZN8capsules15low_level_debug22LowLevelDebug$LT$U$GT$14transmit_entry17hde3fc441a038aecfE+0x134>
200049c2:	faa42a23          	sw	a0,-76(s0)
200049c6:	fed42223          	sw	a3,-28(s0)
200049ca:	fb840513          	addi	a0,s0,-72
200049ce:	fea42023          	sw	a0,-32(s0)
200049d2:	fc042c23          	sw	zero,-40(s0)
200049d6:	450d                	li	a0,3
200049d8:	fca42a23          	sw	a0,-44(s0)
200049dc:	10001537          	lui	a0,0x10001
200049e0:	2f850513          	addi	a0,a0,760 # 100012f8 <.Lanon.feac3395153e28be8a3a74fc51ace254.26>
200049e4:	fca42823          	sw	a0,-48(s0)
200049e8:	20006537          	lui	a0,0x20006
200049ec:	69050513          	addi	a0,a0,1680 # 20006690 <_ZN4core3fmt3num53_$LT$impl$u20$core..fmt..LowerHex$u20$for$u20$i32$GT$3fmt17h6cea225f5f2f55d7E>
200049f0:	fca42223          	sw	a0,-60(s0)
200049f4:	faa42e23          	sw	a0,-68(s0)
200049f8:	f9c40513          	addi	a0,s0,-100
200049fc:	faa42c23          	sw	a0,-72(s0)
20004a00:	fb440513          	addi	a0,s0,-76
20004a04:	fca42023          	sw	a0,-64(s0)
20004a08:	10001537          	lui	a0,0x10001
20004a0c:	2b050593          	addi	a1,a0,688 # 100012b0 <.Lanon.feac3395153e28be8a3a74fc51ace254.20>
20004a10:	fa040513          	addi	a0,s0,-96
20004a14:	fd040613          	addi	a2,s0,-48
20004a18:	00001097          	auipc	ra,0x1
20004a1c:	2b2080e7          	jalr	690(ra) # 20005cca <_ZN4core3fmt5write17hb7761afb3ce3b207E>
20004a20:	fa842703          	lw	a4,-88(s0)
20004a24:	488c                	lw	a1,16(s1)
20004a26:	fd040513          	addi	a0,s0,-48
20004a2a:	864e                	mv	a2,s3
20004a2c:	86ca                	mv	a3,s2
20004a2e:	ffffe097          	auipc	ra,0xffffe
20004a32:	01e080e7          	jalr	30(ra) # 20002a4c <_ZN82_$LT$capsules..virtual_uart..UartDevice$u20$as$u20$kernel..hil..uart..Transmit$GT$15transmit_buffer17heb3b4b7eb1f62e29E>
20004a36:	fd842503          	lw	a0,-40(s0)
20004a3a:	fdc42583          	lw	a1,-36(s0)
20004a3e:	c0cc                	sw	a1,4(s1)
20004a40:	c088                	sw	a0,0(s1)
20004a42:	49f6                	lw	s3,92(sp)
20004a44:	5906                	lw	s2,96(sp)
20004a46:	5496                	lw	s1,100(sp)
20004a48:	5426                	lw	s0,104(sp)
20004a4a:	50b6                	lw	ra,108(sp)
20004a4c:	6165                	addi	sp,sp,112
20004a4e:	8082                	ret

20004a50 <_ZN6kernel3hil4uart14TransmitClient16transmitted_word17hdc6f6fefb62606d3E>:
20004a50:	1141                	addi	sp,sp,-16
20004a52:	c606                	sw	ra,12(sp)
20004a54:	c422                	sw	s0,8(sp)
20004a56:	0800                	addi	s0,sp,16
20004a58:	4422                	lw	s0,8(sp)
20004a5a:	40b2                	lw	ra,12(sp)
20004a5c:	0141                	addi	sp,sp,16
20004a5e:	8082                	ret

20004a60 <_ZN79_$LT$components..led..LedsComponent$u20$as$u20$kernel..component..Component$GT$8finalize17h9436afbb63e4c433E>:
20004a60:	1101                	addi	sp,sp,-32
20004a62:	ce06                	sw	ra,28(sp)
20004a64:	cc22                	sw	s0,24(sp)
20004a66:	ca26                	sw	s1,20(sp)
20004a68:	c84a                	sw	s2,16(sp)
20004a6a:	c64e                	sw	s3,12(sp)
20004a6c:	c452                	sw	s4,8(sp)
20004a6e:	c256                	sw	s5,4(sp)
20004a70:	1000                	addi	s0,sp,32
20004a72:	06000993          	li	s3,96
20004a76:	10002537          	lui	a0,0x10002
20004a7a:	72050a93          	addi	s5,a0,1824 # 10002720 <_ZN9opentitan13reset_handler3BUF17h5e3b81dfa7bc1726E>
20004a7e:	02098463          	beqz	s3,20004aa6 <_ZN79_$LT$components..led..LedsComponent$u20$as$u20$kernel..component..Component$GT$8finalize17h9436afbb63e4c433E+0x46>
20004a82:	008ac903          	lbu	s2,8(s5)
20004a86:	000aaa03          	lw	s4,0(s5)
20004a8a:	004aa483          	lw	s1,4(s5)
20004a8e:	548c                	lw	a1,40(s1)
20004a90:	8552                	mv	a0,s4
20004a92:	9582                	jalr	a1
20004a94:	5094                	lw	a3,32(s1)
20004a96:	8552                	mv	a0,s4
20004a98:	4581                	li	a1,0
20004a9a:	864a                	mv	a2,s2
20004a9c:	9682                	jalr	a3
20004a9e:	19d1                	addi	s3,s3,-12
20004aa0:	0ab1                	addi	s5,s5,12
20004aa2:	fe0990e3          	bnez	s3,20004a82 <_ZN79_$LT$components..led..LedsComponent$u20$as$u20$kernel..component..Component$GT$8finalize17h9436afbb63e4c433E+0x22>
20004aa6:	10002537          	lui	a0,0x10002
20004aaa:	61450593          	addi	a1,a0,1556 # 10002614 <_ZN79_$LT$components..led..LedsComponent$u20$as$u20$kernel..component..Component$GT$8finalize3BUF17h250b6545546eaacfE>
20004aae:	4621                	li	a2,8
20004ab0:	c1d0                	sw	a2,4(a1)
20004ab2:	100025b7          	lui	a1,0x10002
20004ab6:	72058593          	addi	a1,a1,1824 # 10002720 <_ZN9opentitan13reset_handler3BUF17h5e3b81dfa7bc1726E>
20004aba:	60b52a23          	sw	a1,1556(a0)
20004abe:	4a92                	lw	s5,4(sp)
20004ac0:	4a22                	lw	s4,8(sp)
20004ac2:	49b2                	lw	s3,12(sp)
20004ac4:	4942                	lw	s2,16(sp)
20004ac6:	44d2                	lw	s1,20(sp)
20004ac8:	4462                	lw	s0,24(sp)
20004aca:	40f2                	lw	ra,28(sp)
20004acc:	6105                	addi	sp,sp,32
20004ace:	8082                	ret

20004ad0 <_ZN4core3ops8function6FnOnce9call_once17hf4a3437c2e17fa1eE>:
20004ad0:	1141                	addi	sp,sp,-16
20004ad2:	c606                	sw	ra,12(sp)
20004ad4:	c422                	sw	s0,8(sp)
20004ad6:	0800                	addi	s0,sp,16
20004ad8:	0000a097          	auipc	ra,0xa
20004adc:	104080e7          	jalr	260(ra) # 2000ebdc <abort>

20004ae0 <_ZN4core9panicking5panic17haaa649c2263e8176E>:
20004ae0:	7179                	addi	sp,sp,-48
20004ae2:	d606                	sw	ra,44(sp)
20004ae4:	d422                	sw	s0,40(sp)
20004ae6:	1800                	addi	s0,sp,48
20004ae8:	fe042623          	sw	zero,-20(s0)
20004aec:	fe042023          	sw	zero,-32(s0)
20004af0:	4685                	li	a3,1
20004af2:	fcd42e23          	sw	a3,-36(s0)
20004af6:	ff040693          	addi	a3,s0,-16
20004afa:	fcd42c23          	sw	a3,-40(s0)
20004afe:	feb42a23          	sw	a1,-12(s0)
20004b02:	fea42823          	sw	a0,-16(s0)
20004b06:	2000e537          	lui	a0,0x2000e
20004b0a:	00c50513          	addi	a0,a0,12 # 2000e00c <.Lanon.d9778860540cf11319bb138777b2a7cb.67>
20004b0e:	fea42423          	sw	a0,-24(s0)
20004b12:	fd840513          	addi	a0,s0,-40
20004b16:	85b2                	mv	a1,a2
20004b18:	00000097          	auipc	ra,0x0
20004b1c:	092080e7          	jalr	146(ra) # 20004baa <_ZN4core9panicking9panic_fmt17he3c5aeb68fe54ef4E>
20004b20:	0000a097          	auipc	ra,0xa
20004b24:	0bc080e7          	jalr	188(ra) # 2000ebdc <abort>

20004b28 <_ZN4core9panicking18panic_bounds_check17h95c8cd8536e82dafE>:
20004b28:	7139                	addi	sp,sp,-64
20004b2a:	de06                	sw	ra,60(sp)
20004b2c:	dc22                	sw	s0,56(sp)
20004b2e:	0080                	addi	s0,sp,64
20004b30:	86aa                	mv	a3,a0
20004b32:	fcc42623          	sw	a2,-52(s0)
20004b36:	fcb42423          	sw	a1,-56(s0)
20004b3a:	fe840513          	addi	a0,s0,-24
20004b3e:	fea42023          	sw	a0,-32(s0)
20004b42:	fc042c23          	sw	zero,-40(s0)
20004b46:	4509                	li	a0,2
20004b48:	fea42223          	sw	a0,-28(s0)
20004b4c:	fca42a23          	sw	a0,-44(s0)
20004b50:	10001537          	lui	a0,0x10001
20004b54:	40050513          	addi	a0,a0,1024 # 10001400 <.Lanon.f9bb9288c9d7617347bc8817bc65a1df.172>
20004b58:	fca42823          	sw	a0,-48(s0)
20004b5c:	fc840513          	addi	a0,s0,-56
20004b60:	fea42823          	sw	a0,-16(s0)
20004b64:	20005537          	lui	a0,0x20005
20004b68:	b9250513          	addi	a0,a0,-1134 # 20004b92 <_ZN4core3fmt3num3imp52_$LT$impl$u20$core..fmt..Display$u20$for$u20$u32$GT$3fmt17hd33618c459eb254aE>
20004b6c:	fea42a23          	sw	a0,-12(s0)
20004b70:	fea42623          	sw	a0,-20(s0)
20004b74:	fcc40513          	addi	a0,s0,-52
20004b78:	fea42423          	sw	a0,-24(s0)
20004b7c:	fd040513          	addi	a0,s0,-48
20004b80:	85b6                	mv	a1,a3
20004b82:	00000097          	auipc	ra,0x0
20004b86:	028080e7          	jalr	40(ra) # 20004baa <_ZN4core9panicking9panic_fmt17he3c5aeb68fe54ef4E>
20004b8a:	0000a097          	auipc	ra,0xa
20004b8e:	052080e7          	jalr	82(ra) # 2000ebdc <abort>

20004b92 <_ZN4core3fmt3num3imp52_$LT$impl$u20$core..fmt..Display$u20$for$u20$u32$GT$3fmt17hd33618c459eb254aE>:
20004b92:	1141                	addi	sp,sp,-16
20004b94:	c606                	sw	ra,12(sp)
20004b96:	c422                	sw	s0,8(sp)
20004b98:	0800                	addi	s0,sp,16
20004b9a:	4108                	lw	a0,0(a0)
20004b9c:	4422                	lw	s0,8(sp)
20004b9e:	40b2                	lw	ra,12(sp)
20004ba0:	0141                	addi	sp,sp,16
20004ba2:	00000317          	auipc	t1,0x0
20004ba6:	07430067          	jr	116(t1) # 20004c16 <_ZN4core3fmt3num3imp7fmt_u3217hdb269d4aad7dde49E>

20004baa <_ZN4core9panicking9panic_fmt17he3c5aeb68fe54ef4E>:
20004baa:	1101                	addi	sp,sp,-32
20004bac:	ce06                	sw	ra,28(sp)
20004bae:	cc22                	sw	s0,24(sp)
20004bb0:	1000                	addi	s0,sp,32
20004bb2:	feb42a23          	sw	a1,-12(s0)
20004bb6:	fea42823          	sw	a0,-16(s0)
20004bba:	10001537          	lui	a0,0x10001
20004bbe:	41050513          	addi	a0,a0,1040 # 10001410 <.Lanon.f9bb9288c9d7617347bc8817bc65a1df.163>
20004bc2:	fea42623          	sw	a0,-20(s0)
20004bc6:	2000e537          	lui	a0,0x2000e
20004bca:	00c50513          	addi	a0,a0,12 # 2000e00c <.Lanon.d9778860540cf11319bb138777b2a7cb.67>
20004bce:	fea42423          	sw	a0,-24(s0)
20004bd2:	fe840513          	addi	a0,s0,-24
20004bd6:	00006097          	auipc	ra,0x6
20004bda:	b5a080e7          	jalr	-1190(ra) # 2000a730 <rust_begin_unwind>
20004bde:	0000a097          	auipc	ra,0xa
20004be2:	ffe080e7          	jalr	-2(ra) # 2000ebdc <abort>

20004be6 <_ZN4core3ptr13drop_in_place17h010033dde131fabbE>:
20004be6:	1141                	addi	sp,sp,-16
20004be8:	c606                	sw	ra,12(sp)
20004bea:	c422                	sw	s0,8(sp)
20004bec:	0800                	addi	s0,sp,16
20004bee:	4422                	lw	s0,8(sp)
20004bf0:	40b2                	lw	ra,12(sp)
20004bf2:	0141                	addi	sp,sp,16
20004bf4:	8082                	ret

20004bf6 <_ZN36_$LT$T$u20$as$u20$core..any..Any$GT$7type_id17hdecca5c40aa07f3eE>:
20004bf6:	1141                	addi	sp,sp,-16
20004bf8:	c606                	sw	ra,12(sp)
20004bfa:	c422                	sw	s0,8(sp)
20004bfc:	0800                	addi	s0,sp,16
20004bfe:	1b527537          	lui	a0,0x1b527
20004c02:	3d150513          	addi	a0,a0,977 # 1b5273d1 <_ZN9opentitan10APP_MEMORY17hac56809d9b5aaf15E+0xb5247d1>
20004c06:	44bcd5b7          	lui	a1,0x44bcd
20004c0a:	09e58593          	addi	a1,a1,158 # 44bcd09e <_sapps+0x24b9d09e>
20004c0e:	4422                	lw	s0,8(sp)
20004c10:	40b2                	lw	ra,12(sp)
20004c12:	0141                	addi	sp,sp,16
20004c14:	8082                	ret

20004c16 <_ZN4core3fmt3num3imp7fmt_u3217hdb269d4aad7dde49E>:
20004c16:	7139                	addi	sp,sp,-64
20004c18:	de06                	sw	ra,60(sp)
20004c1a:	dc22                	sw	s0,56(sp)
20004c1c:	da26                	sw	s1,52(sp)
20004c1e:	d84a                	sw	s2,48(sp)
20004c20:	0080                	addi	s0,sp,64
20004c22:	882e                	mv	a6,a1
20004c24:	02700593          	li	a1,39
20004c28:	00455613          	srli	a2,a0,0x4
20004c2c:	27100693          	li	a3,625
20004c30:	08d66b63          	bltu	a2,a3,20004cc6 <_ZN4core3fmt3num3imp7fmt_u3217hdb269d4aad7dde49E+0xb0>
20004c34:	d1b715b7          	lui	a1,0xd1b71
20004c38:	75958293          	addi	t0,a1,1881 # d1b71759 <_sapps+0xb1b41759>
20004c3c:	75f9                	lui	a1,0xffffe
20004c3e:	8f058393          	addi	t2,a1,-1808 # ffffd8f0 <_sapps+0xdffcd8f0>
20004c42:	65c1                	lui	a1,0x10
20004c44:	fff58e13          	addi	t3,a1,-1 # ffff <.Lline_table_start77+0x2c7>
20004c48:	51eb8637          	lui	a2,0x51eb8
20004c4c:	51f60e93          	addi	t4,a2,1311 # 51eb851f <_sapps+0x31e8851f>
20004c50:	f9c00893          	li	a7,-100
20004c54:	ffe58f13          	addi	t5,a1,-2
20004c58:	2000d5b7          	lui	a1,0x2000d
20004c5c:	c9458913          	addi	s2,a1,-876 # 2000cc94 <.Lanon.f9bb9288c9d7617347bc8817bc65a1df.205>
20004c60:	fc940313          	addi	t1,s0,-55
20004c64:	05f5e6b7          	lui	a3,0x5f5e
20004c68:	0ff68f93          	addi	t6,a3,255 # 5f5e0ff <.Lline_table_start0+0x5f4c090>
20004c6c:	4681                	li	a3,0
20004c6e:	87aa                	mv	a5,a0
20004c70:	02553533          	mulhu	a0,a0,t0
20004c74:	8135                	srli	a0,a0,0xd
20004c76:	02750633          	mul	a2,a0,t2
20004c7a:	963e                	add	a2,a2,a5
20004c7c:	01c67733          	and	a4,a2,t3
20004c80:	03d73733          	mulhu	a4,a4,t4
20004c84:	8315                	srli	a4,a4,0x5
20004c86:	031704b3          	mul	s1,a4,a7
20004c8a:	9626                	add	a2,a2,s1
20004c8c:	0606                	slli	a2,a2,0x1
20004c8e:	01e67633          	and	a2,a2,t5
20004c92:	0706                	slli	a4,a4,0x1
20004c94:	964a                	add	a2,a2,s2
20004c96:	974a                	add	a4,a4,s2
20004c98:	00d304b3          	add	s1,t1,a3
20004c9c:	00170583          	lb	a1,1(a4)
20004ca0:	02b48223          	sb	a1,36(s1)
20004ca4:	00074583          	lbu	a1,0(a4)
20004ca8:	02b481a3          	sb	a1,35(s1)
20004cac:	00160583          	lb	a1,1(a2)
20004cb0:	02b48323          	sb	a1,38(s1)
20004cb4:	00064583          	lbu	a1,0(a2)
20004cb8:	02b482a3          	sb	a1,37(s1)
20004cbc:	16f1                	addi	a3,a3,-4
20004cbe:	faffe8e3          	bltu	t6,a5,20004c6e <_ZN4core3fmt3num3imp7fmt_u3217hdb269d4aad7dde49E+0x58>
20004cc2:	02768593          	addi	a1,a3,39
20004cc6:	06300613          	li	a2,99
20004cca:	06a65b63          	bge	a2,a0,20004d40 <_ZN4core3fmt3num3imp7fmt_u3217hdb269d4aad7dde49E+0x12a>
20004cce:	66c1                	lui	a3,0x10
20004cd0:	fff68613          	addi	a2,a3,-1 # ffff <.Lline_table_start77+0x2c7>
20004cd4:	8e69                	and	a2,a2,a0
20004cd6:	51eb8737          	lui	a4,0x51eb8
20004cda:	51f70713          	addi	a4,a4,1311 # 51eb851f <_sapps+0x31e8851f>
20004cde:	02e63633          	mulhu	a2,a2,a4
20004ce2:	8215                	srli	a2,a2,0x5
20004ce4:	f9c00713          	li	a4,-100
20004ce8:	02e60733          	mul	a4,a2,a4
20004cec:	953a                	add	a0,a0,a4
20004cee:	0506                	slli	a0,a0,0x1
20004cf0:	16f9                	addi	a3,a3,-2
20004cf2:	8d75                	and	a0,a0,a3
20004cf4:	2000d6b7          	lui	a3,0x2000d
20004cf8:	c9468693          	addi	a3,a3,-876 # 2000cc94 <.Lanon.f9bb9288c9d7617347bc8817bc65a1df.205>
20004cfc:	9536                	add	a0,a0,a3
20004cfe:	15f9                	addi	a1,a1,-2
20004d00:	fc940693          	addi	a3,s0,-55
20004d04:	96ae                	add	a3,a3,a1
20004d06:	00150703          	lb	a4,1(a0)
20004d0a:	00e680a3          	sb	a4,1(a3)
20004d0e:	00054503          	lbu	a0,0(a0)
20004d12:	00a68023          	sb	a0,0(a3)
20004d16:	4529                	li	a0,10
20004d18:	02a64863          	blt	a2,a0,20004d48 <_ZN4core3fmt3num3imp7fmt_u3217hdb269d4aad7dde49E+0x132>
20004d1c:	2000d537          	lui	a0,0x2000d
20004d20:	c9450513          	addi	a0,a0,-876 # 2000cc94 <.Lanon.f9bb9288c9d7617347bc8817bc65a1df.205>
20004d24:	0606                	slli	a2,a2,0x1
20004d26:	962a                	add	a2,a2,a0
20004d28:	ffe58513          	addi	a0,a1,-2
20004d2c:	fc940593          	addi	a1,s0,-55
20004d30:	95aa                	add	a1,a1,a0
20004d32:	00160683          	lb	a3,1(a2)
20004d36:	00d580a3          	sb	a3,1(a1)
20004d3a:	00064603          	lbu	a2,0(a2)
20004d3e:	a821                	j	20004d56 <_ZN4core3fmt3num3imp7fmt_u3217hdb269d4aad7dde49E+0x140>
20004d40:	862a                	mv	a2,a0
20004d42:	4529                	li	a0,10
20004d44:	fca65ce3          	bge	a2,a0,20004d1c <_ZN4core3fmt3num3imp7fmt_u3217hdb269d4aad7dde49E+0x106>
20004d48:	fff58513          	addi	a0,a1,-1
20004d4c:	fc940593          	addi	a1,s0,-55
20004d50:	95aa                	add	a1,a1,a0
20004d52:	03060613          	addi	a2,a2,48
20004d56:	00c58023          	sb	a2,0(a1)
20004d5a:	fc940593          	addi	a1,s0,-55
20004d5e:	00a586b3          	add	a3,a1,a0
20004d62:	02700593          	li	a1,39
20004d66:	40a58733          	sub	a4,a1,a0
20004d6a:	2000e537          	lui	a0,0x2000e
20004d6e:	00c50593          	addi	a1,a0,12 # 2000e00c <.Lanon.d9778860540cf11319bb138777b2a7cb.67>
20004d72:	8542                	mv	a0,a6
20004d74:	4601                	li	a2,0
20004d76:	00000097          	auipc	ra,0x0
20004d7a:	014080e7          	jalr	20(ra) # 20004d8a <_ZN4core3fmt9Formatter12pad_integral17hf11ba08f895f8514E>
20004d7e:	5942                	lw	s2,48(sp)
20004d80:	54d2                	lw	s1,52(sp)
20004d82:	5462                	lw	s0,56(sp)
20004d84:	50f2                	lw	ra,60(sp)
20004d86:	6121                	addi	sp,sp,64
20004d88:	8082                	ret

20004d8a <_ZN4core3fmt9Formatter12pad_integral17hf11ba08f895f8514E>:
20004d8a:	7139                	addi	sp,sp,-64
20004d8c:	de06                	sw	ra,60(sp)
20004d8e:	dc22                	sw	s0,56(sp)
20004d90:	da26                	sw	s1,52(sp)
20004d92:	d84a                	sw	s2,48(sp)
20004d94:	d64e                	sw	s3,44(sp)
20004d96:	d452                	sw	s4,40(sp)
20004d98:	d256                	sw	s5,36(sp)
20004d9a:	d05a                	sw	s6,32(sp)
20004d9c:	ce5e                	sw	s7,28(sp)
20004d9e:	cc62                	sw	s8,24(sp)
20004da0:	ca66                	sw	s9,20(sp)
20004da2:	c86a                	sw	s10,16(sp)
20004da4:	c66e                	sw	s11,12(sp)
20004da6:	0080                	addi	s0,sp,64
20004da8:	893a                	mv	s2,a4
20004daa:	89b6                	mv	s3,a3
20004dac:	8a32                	mv	s4,a2
20004dae:	8aae                	mv	s5,a1
20004db0:	8caa                	mv	s9,a0
20004db2:	4108                	lw	a0,0(a0)
20004db4:	00157593          	andi	a1,a0,1
20004db8:	00110b37          	lui	s6,0x110
20004dbc:	c199                	beqz	a1,20004dc2 <_ZN4core3fmt9Formatter12pad_integral17hf11ba08f895f8514E+0x38>
20004dbe:	02b00b13          	li	s6,43
20004dc2:	01258d33          	add	s10,a1,s2
20004dc6:	00457593          	andi	a1,a0,4
20004dca:	e199                	bnez	a1,20004dd0 <_ZN4core3fmt9Formatter12pad_integral17hf11ba08f895f8514E+0x46>
20004dcc:	4a81                	li	s5,0
20004dce:	a805                	j	20004dfe <_ZN4core3fmt9Formatter12pad_integral17hf11ba08f895f8514E+0x74>
20004dd0:	020a0263          	beqz	s4,20004df4 <_ZN4core3fmt9Formatter12pad_integral17hf11ba08f895f8514E+0x6a>
20004dd4:	8652                	mv	a2,s4
20004dd6:	4581                	li	a1,0
20004dd8:	86d6                	mv	a3,s5
20004dda:	0006c703          	lbu	a4,0(a3)
20004dde:	0c077713          	andi	a4,a4,192
20004de2:	08074713          	xori	a4,a4,128
20004de6:	00173713          	seqz	a4,a4
20004dea:	95ba                	add	a1,a1,a4
20004dec:	0685                	addi	a3,a3,1
20004dee:	167d                	addi	a2,a2,-1
20004df0:	f66d                	bnez	a2,20004dda <_ZN4core3fmt9Formatter12pad_integral17hf11ba08f895f8514E+0x50>
20004df2:	a011                	j	20004df6 <_ZN4core3fmt9Formatter12pad_integral17hf11ba08f895f8514E+0x6c>
20004df4:	4581                	li	a1,0
20004df6:	014d0633          	add	a2,s10,s4
20004dfa:	40b60d33          	sub	s10,a2,a1
20004dfe:	008ca583          	lw	a1,8(s9)
20004e02:	4b85                	li	s7,1
20004e04:	03759863          	bne	a1,s7,20004e34 <_ZN4core3fmt9Formatter12pad_integral17hf11ba08f895f8514E+0xaa>
20004e08:	00ccad83          	lw	s11,12(s9)
20004e0c:	03bd7463          	bgeu	s10,s11,20004e34 <_ZN4core3fmt9Formatter12pad_integral17hf11ba08f895f8514E+0xaa>
20004e10:	8921                	andi	a0,a0,8
20004e12:	e13d                	bnez	a0,20004e78 <_ZN4core3fmt9Formatter12pad_integral17hf11ba08f895f8514E+0xee>
20004e14:	020cc503          	lbu	a0,32(s9)
20004e18:	4605                	li	a2,1
20004e1a:	468d                	li	a3,3
20004e1c:	4585                	li	a1,1
20004e1e:	00d50363          	beq	a0,a3,20004e24 <_ZN4core3fmt9Formatter12pad_integral17hf11ba08f895f8514E+0x9a>
20004e22:	85aa                	mv	a1,a0
20004e24:	41ad8533          	sub	a0,s11,s10
20004e28:	08b64d63          	blt	a2,a1,20004ec2 <_ZN4core3fmt9Formatter12pad_integral17hf11ba08f895f8514E+0x138>
20004e2c:	edd1                	bnez	a1,20004ec8 <_ZN4core3fmt9Formatter12pad_integral17hf11ba08f895f8514E+0x13e>
20004e2e:	8d2a                	mv	s10,a0
20004e30:	4501                	li	a0,0
20004e32:	a84d                	j	20004ee4 <_ZN4core3fmt9Formatter12pad_integral17hf11ba08f895f8514E+0x15a>
20004e34:	8566                	mv	a0,s9
20004e36:	85da                	mv	a1,s6
20004e38:	8656                	mv	a2,s5
20004e3a:	86d2                	mv	a3,s4
20004e3c:	00000097          	auipc	ra,0x0
20004e40:	180080e7          	jalr	384(ra) # 20004fbc <_ZN4core3fmt9Formatter12pad_integral12write_prefix17h3bdabb2faa9a4b36E>
20004e44:	e911                	bnez	a0,20004e58 <_ZN4core3fmt9Formatter12pad_integral17hf11ba08f895f8514E+0xce>
20004e46:	018ca503          	lw	a0,24(s9)
20004e4a:	01cca583          	lw	a1,28(s9)
20004e4e:	45d4                	lw	a3,12(a1)
20004e50:	85ce                	mv	a1,s3
20004e52:	864a                	mv	a2,s2
20004e54:	9682                	jalr	a3
20004e56:	8baa                	mv	s7,a0
20004e58:	855e                	mv	a0,s7
20004e5a:	4db2                	lw	s11,12(sp)
20004e5c:	4d42                	lw	s10,16(sp)
20004e5e:	4cd2                	lw	s9,20(sp)
20004e60:	4c62                	lw	s8,24(sp)
20004e62:	4bf2                	lw	s7,28(sp)
20004e64:	5b02                	lw	s6,32(sp)
20004e66:	5a92                	lw	s5,36(sp)
20004e68:	5a22                	lw	s4,40(sp)
20004e6a:	59b2                	lw	s3,44(sp)
20004e6c:	5942                	lw	s2,48(sp)
20004e6e:	54d2                	lw	s1,52(sp)
20004e70:	5462                	lw	s0,56(sp)
20004e72:	50f2                	lw	ra,60(sp)
20004e74:	6121                	addi	sp,sp,64
20004e76:	8082                	ret
20004e78:	004ca483          	lw	s1,4(s9)
20004e7c:	03000513          	li	a0,48
20004e80:	00aca223          	sw	a0,4(s9)
20004e84:	020ccc03          	lbu	s8,32(s9)
20004e88:	4b85                	li	s7,1
20004e8a:	037c8023          	sb	s7,32(s9)
20004e8e:	8566                	mv	a0,s9
20004e90:	85da                	mv	a1,s6
20004e92:	8656                	mv	a2,s5
20004e94:	86d2                	mv	a3,s4
20004e96:	00000097          	auipc	ra,0x0
20004e9a:	126080e7          	jalr	294(ra) # 20004fbc <_ZN4core3fmt9Formatter12pad_integral12write_prefix17h3bdabb2faa9a4b36E>
20004e9e:	fd4d                	bnez	a0,20004e58 <_ZN4core3fmt9Formatter12pad_integral17hf11ba08f895f8514E+0xce>
20004ea0:	020cc503          	lbu	a0,32(s9)
20004ea4:	4605                	li	a2,1
20004ea6:	468d                	li	a3,3
20004ea8:	4585                	li	a1,1
20004eaa:	00d50363          	beq	a0,a3,20004eb0 <_ZN4core3fmt9Formatter12pad_integral17hf11ba08f895f8514E+0x126>
20004eae:	85aa                	mv	a1,a0
20004eb0:	41ad8533          	sub	a0,s11,s10
20004eb4:	00b64c63          	blt	a2,a1,20004ecc <_ZN4core3fmt9Formatter12pad_integral17hf11ba08f895f8514E+0x142>
20004eb8:	ed89                	bnez	a1,20004ed2 <_ZN4core3fmt9Formatter12pad_integral17hf11ba08f895f8514E+0x148>
20004eba:	8b26                	mv	s6,s1
20004ebc:	8aaa                	mv	s5,a0
20004ebe:	4501                	li	a0,0
20004ec0:	a859                	j	20004f56 <_ZN4core3fmt9Formatter12pad_integral17hf11ba08f895f8514E+0x1cc>
20004ec2:	460d                	li	a2,3
20004ec4:	00c59a63          	bne	a1,a2,20004ed8 <_ZN4core3fmt9Formatter12pad_integral17hf11ba08f895f8514E+0x14e>
20004ec8:	4d01                	li	s10,0
20004eca:	a829                	j	20004ee4 <_ZN4core3fmt9Formatter12pad_integral17hf11ba08f895f8514E+0x15a>
20004ecc:	460d                	li	a2,3
20004ece:	06c59d63          	bne	a1,a2,20004f48 <_ZN4core3fmt9Formatter12pad_integral17hf11ba08f895f8514E+0x1be>
20004ed2:	8b26                	mv	s6,s1
20004ed4:	4a81                	li	s5,0
20004ed6:	a041                	j	20004f56 <_ZN4core3fmt9Formatter12pad_integral17hf11ba08f895f8514E+0x1cc>
20004ed8:	00155593          	srli	a1,a0,0x1
20004edc:	0505                	addi	a0,a0,1
20004ede:	00155d13          	srli	s10,a0,0x1
20004ee2:	852e                	mv	a0,a1
20004ee4:	00150493          	addi	s1,a0,1
20004ee8:	14fd                	addi	s1,s1,-1
20004eea:	c899                	beqz	s1,20004f00 <_ZN4core3fmt9Formatter12pad_integral17hf11ba08f895f8514E+0x176>
20004eec:	004ca583          	lw	a1,4(s9)
20004ef0:	018ca503          	lw	a0,24(s9)
20004ef4:	01cca603          	lw	a2,28(s9)
20004ef8:	4a10                	lw	a2,16(a2)
20004efa:	9602                	jalr	a2
20004efc:	d575                	beqz	a0,20004ee8 <_ZN4core3fmt9Formatter12pad_integral17hf11ba08f895f8514E+0x15e>
20004efe:	a88d                	j	20004f70 <_ZN4core3fmt9Formatter12pad_integral17hf11ba08f895f8514E+0x1e6>
20004f00:	004cac03          	lw	s8,4(s9)
20004f04:	8566                	mv	a0,s9
20004f06:	85da                	mv	a1,s6
20004f08:	8656                	mv	a2,s5
20004f0a:	86d2                	mv	a3,s4
20004f0c:	00000097          	auipc	ra,0x0
20004f10:	0b0080e7          	jalr	176(ra) # 20004fbc <_ZN4core3fmt9Formatter12pad_integral12write_prefix17h3bdabb2faa9a4b36E>
20004f14:	4b85                	li	s7,1
20004f16:	f129                	bnez	a0,20004e58 <_ZN4core3fmt9Formatter12pad_integral17hf11ba08f895f8514E+0xce>
20004f18:	018ca503          	lw	a0,24(s9)
20004f1c:	01cca583          	lw	a1,28(s9)
20004f20:	45d4                	lw	a3,12(a1)
20004f22:	85ce                	mv	a1,s3
20004f24:	864a                	mv	a2,s2
20004f26:	9682                	jalr	a3
20004f28:	f905                	bnez	a0,20004e58 <_ZN4core3fmt9Formatter12pad_integral17hf11ba08f895f8514E+0xce>
20004f2a:	001d0493          	addi	s1,s10,1
20004f2e:	01cca983          	lw	s3,28(s9)
20004f32:	018ca903          	lw	s2,24(s9)
20004f36:	14fd                	addi	s1,s1,-1
20004f38:	c8b5                	beqz	s1,20004fac <_ZN4core3fmt9Formatter12pad_integral17hf11ba08f895f8514E+0x222>
20004f3a:	0109a603          	lw	a2,16(s3)
20004f3e:	854a                	mv	a0,s2
20004f40:	85e2                	mv	a1,s8
20004f42:	9602                	jalr	a2
20004f44:	d96d                	beqz	a0,20004f36 <_ZN4core3fmt9Formatter12pad_integral17hf11ba08f895f8514E+0x1ac>
20004f46:	bf09                	j	20004e58 <_ZN4core3fmt9Formatter12pad_integral17hf11ba08f895f8514E+0xce>
20004f48:	8b26                	mv	s6,s1
20004f4a:	00155593          	srli	a1,a0,0x1
20004f4e:	0505                	addi	a0,a0,1
20004f50:	00155a93          	srli	s5,a0,0x1
20004f54:	852e                	mv	a0,a1
20004f56:	00150493          	addi	s1,a0,1
20004f5a:	14fd                	addi	s1,s1,-1
20004f5c:	cc81                	beqz	s1,20004f74 <_ZN4core3fmt9Formatter12pad_integral17hf11ba08f895f8514E+0x1ea>
20004f5e:	004ca583          	lw	a1,4(s9)
20004f62:	018ca503          	lw	a0,24(s9)
20004f66:	01cca603          	lw	a2,28(s9)
20004f6a:	4a10                	lw	a2,16(a2)
20004f6c:	9602                	jalr	a2
20004f6e:	d575                	beqz	a0,20004f5a <_ZN4core3fmt9Formatter12pad_integral17hf11ba08f895f8514E+0x1d0>
20004f70:	4b85                	li	s7,1
20004f72:	b5dd                	j	20004e58 <_ZN4core3fmt9Formatter12pad_integral17hf11ba08f895f8514E+0xce>
20004f74:	004caa03          	lw	s4,4(s9)
20004f78:	018ca503          	lw	a0,24(s9)
20004f7c:	01cca583          	lw	a1,28(s9)
20004f80:	45d4                	lw	a3,12(a1)
20004f82:	85ce                	mv	a1,s3
20004f84:	864a                	mv	a2,s2
20004f86:	9682                	jalr	a3
20004f88:	4b85                	li	s7,1
20004f8a:	ec0517e3          	bnez	a0,20004e58 <_ZN4core3fmt9Formatter12pad_integral17hf11ba08f895f8514E+0xce>
20004f8e:	001a8493          	addi	s1,s5,1
20004f92:	01cca983          	lw	s3,28(s9)
20004f96:	018ca903          	lw	s2,24(s9)
20004f9a:	14fd                	addi	s1,s1,-1
20004f9c:	c891                	beqz	s1,20004fb0 <_ZN4core3fmt9Formatter12pad_integral17hf11ba08f895f8514E+0x226>
20004f9e:	0109a603          	lw	a2,16(s3)
20004fa2:	854a                	mv	a0,s2
20004fa4:	85d2                	mv	a1,s4
20004fa6:	9602                	jalr	a2
20004fa8:	d96d                	beqz	a0,20004f9a <_ZN4core3fmt9Formatter12pad_integral17hf11ba08f895f8514E+0x210>
20004faa:	b57d                	j	20004e58 <_ZN4core3fmt9Formatter12pad_integral17hf11ba08f895f8514E+0xce>
20004fac:	4b81                	li	s7,0
20004fae:	b56d                	j	20004e58 <_ZN4core3fmt9Formatter12pad_integral17hf11ba08f895f8514E+0xce>
20004fb0:	038c8023          	sb	s8,32(s9)
20004fb4:	016ca223          	sw	s6,4(s9)
20004fb8:	4b81                	li	s7,0
20004fba:	bd79                	j	20004e58 <_ZN4core3fmt9Formatter12pad_integral17hf11ba08f895f8514E+0xce>

20004fbc <_ZN4core3fmt9Formatter12pad_integral12write_prefix17h3bdabb2faa9a4b36E>:
20004fbc:	1101                	addi	sp,sp,-32
20004fbe:	ce06                	sw	ra,28(sp)
20004fc0:	cc22                	sw	s0,24(sp)
20004fc2:	ca26                	sw	s1,20(sp)
20004fc4:	c84a                	sw	s2,16(sp)
20004fc6:	c64e                	sw	s3,12(sp)
20004fc8:	1000                	addi	s0,sp,32
20004fca:	8936                	mv	s2,a3
20004fcc:	89b2                	mv	s3,a2
20004fce:	84aa                	mv	s1,a0
20004fd0:	00110537          	lui	a0,0x110
20004fd4:	00a58963          	beq	a1,a0,20004fe6 <_ZN4core3fmt9Formatter12pad_integral12write_prefix17h3bdabb2faa9a4b36E+0x2a>
20004fd8:	4c88                	lw	a0,24(s1)
20004fda:	4cd0                	lw	a2,28(s1)
20004fdc:	4a10                	lw	a2,16(a2)
20004fde:	9602                	jalr	a2
20004fe0:	85aa                	mv	a1,a0
20004fe2:	4505                	li	a0,1
20004fe4:	e999                	bnez	a1,20004ffa <_ZN4core3fmt9Formatter12pad_integral12write_prefix17h3bdabb2faa9a4b36E+0x3e>
20004fe6:	00098963          	beqz	s3,20004ff8 <_ZN4core3fmt9Formatter12pad_integral12write_prefix17h3bdabb2faa9a4b36E+0x3c>
20004fea:	4c88                	lw	a0,24(s1)
20004fec:	4ccc                	lw	a1,28(s1)
20004fee:	45d4                	lw	a3,12(a1)
20004ff0:	85ce                	mv	a1,s3
20004ff2:	864a                	mv	a2,s2
20004ff4:	9682                	jalr	a3
20004ff6:	a011                	j	20004ffa <_ZN4core3fmt9Formatter12pad_integral12write_prefix17h3bdabb2faa9a4b36E+0x3e>
20004ff8:	4501                	li	a0,0
20004ffa:	49b2                	lw	s3,12(sp)
20004ffc:	4942                	lw	s2,16(sp)
20004ffe:	44d2                	lw	s1,20(sp)
20005000:	4462                	lw	s0,24(sp)
20005002:	40f2                	lw	ra,28(sp)
20005004:	6105                	addi	sp,sp,32
20005006:	8082                	ret

20005008 <_ZN4core5slice20slice_index_len_fail17hf0dbc09a97ba34feE>:
20005008:	7139                	addi	sp,sp,-64
2000500a:	de06                	sw	ra,60(sp)
2000500c:	dc22                	sw	s0,56(sp)
2000500e:	0080                	addi	s0,sp,64
20005010:	fcb42623          	sw	a1,-52(s0)
20005014:	fca42423          	sw	a0,-56(s0)
20005018:	fe840513          	addi	a0,s0,-24
2000501c:	fea42023          	sw	a0,-32(s0)
20005020:	fc042c23          	sw	zero,-40(s0)
20005024:	4509                	li	a0,2
20005026:	fea42223          	sw	a0,-28(s0)
2000502a:	fca42a23          	sw	a0,-44(s0)
2000502e:	10001537          	lui	a0,0x10001
20005032:	42050513          	addi	a0,a0,1056 # 10001420 <.Lanon.f9bb9288c9d7617347bc8817bc65a1df.220>
20005036:	fca42823          	sw	a0,-48(s0)
2000503a:	fcc40513          	addi	a0,s0,-52
2000503e:	fea42823          	sw	a0,-16(s0)
20005042:	20005537          	lui	a0,0x20005
20005046:	b9250513          	addi	a0,a0,-1134 # 20004b92 <_ZN4core3fmt3num3imp52_$LT$impl$u20$core..fmt..Display$u20$for$u20$u32$GT$3fmt17hd33618c459eb254aE>
2000504a:	fea42a23          	sw	a0,-12(s0)
2000504e:	fea42623          	sw	a0,-20(s0)
20005052:	fc840513          	addi	a0,s0,-56
20005056:	fea42423          	sw	a0,-24(s0)
2000505a:	10001537          	lui	a0,0x10001
2000505e:	43050593          	addi	a1,a0,1072 # 10001430 <.Lanon.f9bb9288c9d7617347bc8817bc65a1df.221>
20005062:	fd040513          	addi	a0,s0,-48
20005066:	00000097          	auipc	ra,0x0
2000506a:	b44080e7          	jalr	-1212(ra) # 20004baa <_ZN4core9panicking9panic_fmt17he3c5aeb68fe54ef4E>
2000506e:	0000a097          	auipc	ra,0xa
20005072:	b6e080e7          	jalr	-1170(ra) # 2000ebdc <abort>

20005076 <_ZN4core5slice22slice_index_order_fail17hc5e99223d4aacee0E>:
20005076:	7139                	addi	sp,sp,-64
20005078:	de06                	sw	ra,60(sp)
2000507a:	dc22                	sw	s0,56(sp)
2000507c:	0080                	addi	s0,sp,64
2000507e:	fcb42623          	sw	a1,-52(s0)
20005082:	fca42423          	sw	a0,-56(s0)
20005086:	fe840513          	addi	a0,s0,-24
2000508a:	fea42023          	sw	a0,-32(s0)
2000508e:	fc042c23          	sw	zero,-40(s0)
20005092:	4509                	li	a0,2
20005094:	fea42223          	sw	a0,-28(s0)
20005098:	fca42a23          	sw	a0,-44(s0)
2000509c:	10001537          	lui	a0,0x10001
200050a0:	44050513          	addi	a0,a0,1088 # 10001440 <.Lanon.f9bb9288c9d7617347bc8817bc65a1df.224>
200050a4:	fca42823          	sw	a0,-48(s0)
200050a8:	fcc40513          	addi	a0,s0,-52
200050ac:	fea42823          	sw	a0,-16(s0)
200050b0:	20005537          	lui	a0,0x20005
200050b4:	b9250513          	addi	a0,a0,-1134 # 20004b92 <_ZN4core3fmt3num3imp52_$LT$impl$u20$core..fmt..Display$u20$for$u20$u32$GT$3fmt17hd33618c459eb254aE>
200050b8:	fea42a23          	sw	a0,-12(s0)
200050bc:	fea42623          	sw	a0,-20(s0)
200050c0:	fc840513          	addi	a0,s0,-56
200050c4:	fea42423          	sw	a0,-24(s0)
200050c8:	10001537          	lui	a0,0x10001
200050cc:	45050593          	addi	a1,a0,1104 # 10001450 <.Lanon.f9bb9288c9d7617347bc8817bc65a1df.225>
200050d0:	fd040513          	addi	a0,s0,-48
200050d4:	00000097          	auipc	ra,0x0
200050d8:	ad6080e7          	jalr	-1322(ra) # 20004baa <_ZN4core9panicking9panic_fmt17he3c5aeb68fe54ef4E>
200050dc:	0000a097          	auipc	ra,0xa
200050e0:	b00080e7          	jalr	-1280(ra) # 2000ebdc <abort>

200050e4 <_ZN4core3fmt9Formatter3pad17h0d1c009fbb18f52cE>:
200050e4:	1101                	addi	sp,sp,-32
200050e6:	ce06                	sw	ra,28(sp)
200050e8:	cc22                	sw	s0,24(sp)
200050ea:	ca26                	sw	s1,20(sp)
200050ec:	c84a                	sw	s2,16(sp)
200050ee:	c64e                	sw	s3,12(sp)
200050f0:	c452                	sw	s4,8(sp)
200050f2:	c256                	sw	s5,4(sp)
200050f4:	c05a                	sw	s6,0(sp)
200050f6:	1000                	addi	s0,sp,32
200050f8:	89b2                	mv	s3,a2
200050fa:	892e                	mv	s2,a1
200050fc:	8aaa                	mv	s5,a0
200050fe:	4908                	lw	a0,16(a0)
20005100:	008aa383          	lw	t2,8(s5)
20005104:	4585                	li	a1,1
20005106:	00b39563          	bne	t2,a1,20005110 <_ZN4core3fmt9Formatter3pad17h0d1c009fbb18f52cE+0x2c>
2000510a:	00b50563          	beq	a0,a1,20005114 <_ZN4core3fmt9Formatter3pad17h0d1c009fbb18f52cE+0x30>
2000510e:	a0dd                	j	200051f4 <_ZN4core3fmt9Formatter3pad17h0d1c009fbb18f52cE+0x110>
20005110:	16b51563          	bne	a0,a1,2000527a <_ZN4core3fmt9Formatter3pad17h0d1c009fbb18f52cE+0x196>
20005114:	0c098c63          	beqz	s3,200051ec <_ZN4core3fmt9Formatter3pad17h0d1c009fbb18f52cE+0x108>
20005118:	01390fb3          	add	t6,s2,s3
2000511c:	014aa503          	lw	a0,20(s5)
20005120:	00150693          	addi	a3,a0,1
20005124:	5e7d                	li	t3,-1
20005126:	0df00313          	li	t1,223
2000512a:	0f000813          	li	a6,240
2000512e:	001c08b7          	lui	a7,0x1c0
20005132:	001102b7          	lui	t0,0x110
20005136:	4581                	li	a1,0
20005138:	87ca                	mv	a5,s2
2000513a:	84ca                	mv	s1,s2
2000513c:	00178713          	addi	a4,a5,1
20005140:	00078603          	lb	a2,0(a5)
20005144:	0ff67513          	andi	a0,a2,255
20005148:	04ce4263          	blt	t3,a2,2000518c <_ZN4core3fmt9Formatter3pad17h0d1c009fbb18f52cE+0xa8>
2000514c:	03f70763          	beq	a4,t6,2000517a <_ZN4core3fmt9Formatter3pad17h0d1c009fbb18f52cE+0x96>
20005150:	00278713          	addi	a4,a5,2
20005154:	0017c603          	lbu	a2,1(a5)
20005158:	03f67793          	andi	a5,a2,63
2000515c:	863a                	mv	a2,a4
2000515e:	01f57e93          	andi	t4,a0,31
20005162:	02a37263          	bgeu	t1,a0,20005186 <_ZN4core3fmt9Formatter3pad17h0d1c009fbb18f52cE+0xa2>
20005166:	03f60e63          	beq	a2,t6,200051a2 <_ZN4core3fmt9Formatter3pad17h0d1c009fbb18f52cE+0xbe>
2000516a:	00160713          	addi	a4,a2,1
2000516e:	00064603          	lbu	a2,0(a2)
20005172:	03f67613          	andi	a2,a2,63
20005176:	8a3a                	mv	s4,a4
20005178:	a03d                	j	200051a6 <_ZN4core3fmt9Formatter3pad17h0d1c009fbb18f52cE+0xc2>
2000517a:	867e                	mv	a2,t6
2000517c:	4781                	li	a5,0
2000517e:	01f57e93          	andi	t4,a0,31
20005182:	fea362e3          	bltu	t1,a0,20005166 <_ZN4core3fmt9Formatter3pad17h0d1c009fbb18f52cE+0x82>
20005186:	006e9513          	slli	a0,t4,0x6
2000518a:	8d5d                	or	a0,a0,a5
2000518c:	87ba                	mv	a5,a4
2000518e:	16fd                	addi	a3,a3,-1
20005190:	cecd                	beqz	a3,2000524a <_ZN4core3fmt9Formatter3pad17h0d1c009fbb18f52cE+0x166>
20005192:	40958533          	sub	a0,a1,s1
20005196:	00f505b3          	add	a1,a0,a5
2000519a:	84be                	mv	s1,a5
2000519c:	faff90e3          	bne	t6,a5,2000513c <_ZN4core3fmt9Formatter3pad17h0d1c009fbb18f52cE+0x58>
200051a0:	a8d1                	j	20005274 <_ZN4core3fmt9Formatter3pad17h0d1c009fbb18f52cE+0x190>
200051a2:	8a7e                	mv	s4,t6
200051a4:	4601                	li	a2,0
200051a6:	079a                	slli	a5,a5,0x6
200051a8:	00f66f33          	or	t5,a2,a5
200051ac:	01056b63          	bltu	a0,a6,200051c2 <_ZN4core3fmt9Formatter3pad17h0d1c009fbb18f52cE+0xde>
200051b0:	03fa0163          	beq	s4,t6,200051d2 <_ZN4core3fmt9Formatter3pad17h0d1c009fbb18f52cE+0xee>
200051b4:	001a0793          	addi	a5,s4,1
200051b8:	000a4503          	lbu	a0,0(s4)
200051bc:	03f57513          	andi	a0,a0,63
200051c0:	a819                	j	200051d6 <_ZN4core3fmt9Formatter3pad17h0d1c009fbb18f52cE+0xf2>
200051c2:	00ce9513          	slli	a0,t4,0xc
200051c6:	00af6533          	or	a0,t5,a0
200051ca:	87ba                	mv	a5,a4
200051cc:	16fd                	addi	a3,a3,-1
200051ce:	f2f1                	bnez	a3,20005192 <_ZN4core3fmt9Formatter3pad17h0d1c009fbb18f52cE+0xae>
200051d0:	a8ad                	j	2000524a <_ZN4core3fmt9Formatter3pad17h0d1c009fbb18f52cE+0x166>
200051d2:	87ba                	mv	a5,a4
200051d4:	4501                	li	a0,0
200051d6:	012e9613          	slli	a2,t4,0x12
200051da:	01167633          	and	a2,a2,a7
200051de:	006f1713          	slli	a4,t5,0x6
200051e2:	8e59                	or	a2,a2,a4
200051e4:	8d51                	or	a0,a0,a2
200051e6:	fa5514e3          	bne	a0,t0,2000518e <_ZN4core3fmt9Formatter3pad17h0d1c009fbb18f52cE+0xaa>
200051ea:	a069                	j	20005274 <_ZN4core3fmt9Formatter3pad17h0d1c009fbb18f52cE+0x190>
200051ec:	4981                	li	s3,0
200051ee:	4505                	li	a0,1
200051f0:	08a39563          	bne	t2,a0,2000527a <_ZN4core3fmt9Formatter3pad17h0d1c009fbb18f52cE+0x196>
200051f4:	02098263          	beqz	s3,20005218 <_ZN4core3fmt9Formatter3pad17h0d1c009fbb18f52cE+0x134>
200051f8:	85ce                	mv	a1,s3
200051fa:	4501                	li	a0,0
200051fc:	864a                	mv	a2,s2
200051fe:	00064683          	lbu	a3,0(a2)
20005202:	0c06f693          	andi	a3,a3,192
20005206:	0806c693          	xori	a3,a3,128
2000520a:	0016b693          	seqz	a3,a3
2000520e:	9536                	add	a0,a0,a3
20005210:	0605                	addi	a2,a2,1
20005212:	15fd                	addi	a1,a1,-1
20005214:	f5ed                	bnez	a1,200051fe <_ZN4core3fmt9Formatter3pad17h0d1c009fbb18f52cE+0x11a>
20005216:	a011                	j	2000521a <_ZN4core3fmt9Formatter3pad17h0d1c009fbb18f52cE+0x136>
20005218:	4501                	li	a0,0
2000521a:	40a985b3          	sub	a1,s3,a0
2000521e:	00caa503          	lw	a0,12(s5)
20005222:	04a5fc63          	bgeu	a1,a0,2000527a <_ZN4core3fmt9Formatter3pad17h0d1c009fbb18f52cE+0x196>
20005226:	06098e63          	beqz	s3,200052a2 <_ZN4core3fmt9Formatter3pad17h0d1c009fbb18f52cE+0x1be>
2000522a:	864e                	mv	a2,s3
2000522c:	4581                	li	a1,0
2000522e:	86ca                	mv	a3,s2
20005230:	0006c703          	lbu	a4,0(a3)
20005234:	0c077713          	andi	a4,a4,192
20005238:	08074713          	xori	a4,a4,128
2000523c:	00173713          	seqz	a4,a4
20005240:	95ba                	add	a1,a1,a4
20005242:	0685                	addi	a3,a3,1
20005244:	167d                	addi	a2,a2,-1
20005246:	f66d                	bnez	a2,20005230 <_ZN4core3fmt9Formatter3pad17h0d1c009fbb18f52cE+0x14c>
20005248:	a8b1                	j	200052a4 <_ZN4core3fmt9Formatter3pad17h0d1c009fbb18f52cE+0x1c0>
2000524a:	00110637          	lui	a2,0x110
2000524e:	02c50363          	beq	a0,a2,20005274 <_ZN4core3fmt9Formatter3pad17h0d1c009fbb18f52cE+0x190>
20005252:	cd89                	beqz	a1,2000526c <_ZN4core3fmt9Formatter3pad17h0d1c009fbb18f52cE+0x188>
20005254:	01358c63          	beq	a1,s3,2000526c <_ZN4core3fmt9Formatter3pad17h0d1c009fbb18f52cE+0x188>
20005258:	0d35fe63          	bgeu	a1,s3,20005334 <_ZN4core3fmt9Formatter3pad17h0d1c009fbb18f52cE+0x250>
2000525c:	00b90533          	add	a0,s2,a1
20005260:	00050503          	lb	a0,0(a0)
20005264:	fc000613          	li	a2,-64
20005268:	0cc54663          	blt	a0,a2,20005334 <_ZN4core3fmt9Formatter3pad17h0d1c009fbb18f52cE+0x250>
2000526c:	854a                	mv	a0,s2
2000526e:	c119                	beqz	a0,20005274 <_ZN4core3fmt9Formatter3pad17h0d1c009fbb18f52cE+0x190>
20005270:	89ae                	mv	s3,a1
20005272:	892a                	mv	s2,a0
20005274:	4505                	li	a0,1
20005276:	f6a38fe3          	beq	t2,a0,200051f4 <_ZN4core3fmt9Formatter3pad17h0d1c009fbb18f52cE+0x110>
2000527a:	018aa503          	lw	a0,24(s5)
2000527e:	01caa583          	lw	a1,28(s5)
20005282:	45d4                	lw	a3,12(a1)
20005284:	85ca                	mv	a1,s2
20005286:	864e                	mv	a2,s3
20005288:	9682                	jalr	a3
2000528a:	892a                	mv	s2,a0
2000528c:	854a                	mv	a0,s2
2000528e:	4b02                	lw	s6,0(sp)
20005290:	4a92                	lw	s5,4(sp)
20005292:	4a22                	lw	s4,8(sp)
20005294:	49b2                	lw	s3,12(sp)
20005296:	4942                	lw	s2,16(sp)
20005298:	44d2                	lw	s1,20(sp)
2000529a:	4462                	lw	s0,24(sp)
2000529c:	40f2                	lw	ra,28(sp)
2000529e:	6105                	addi	sp,sp,32
200052a0:	8082                	ret
200052a2:	4581                	li	a1,0
200052a4:	020ac683          	lbu	a3,32(s5)
200052a8:	470d                	li	a4,3
200052aa:	4601                	li	a2,0
200052ac:	00e68363          	beq	a3,a4,200052b2 <_ZN4core3fmt9Formatter3pad17h0d1c009fbb18f52cE+0x1ce>
200052b0:	8636                	mv	a2,a3
200052b2:	413585b3          	sub	a1,a1,s3
200052b6:	952e                	add	a0,a0,a1
200052b8:	4585                	li	a1,1
200052ba:	00c5c663          	blt	a1,a2,200052c6 <_ZN4core3fmt9Formatter3pad17h0d1c009fbb18f52cE+0x1e2>
200052be:	e619                	bnez	a2,200052cc <_ZN4core3fmt9Formatter3pad17h0d1c009fbb18f52cE+0x1e8>
200052c0:	8b2a                	mv	s6,a0
200052c2:	4501                	li	a0,0
200052c4:	a821                	j	200052dc <_ZN4core3fmt9Formatter3pad17h0d1c009fbb18f52cE+0x1f8>
200052c6:	458d                	li	a1,3
200052c8:	00b61463          	bne	a2,a1,200052d0 <_ZN4core3fmt9Formatter3pad17h0d1c009fbb18f52cE+0x1ec>
200052cc:	4b01                	li	s6,0
200052ce:	a039                	j	200052dc <_ZN4core3fmt9Formatter3pad17h0d1c009fbb18f52cE+0x1f8>
200052d0:	00155593          	srli	a1,a0,0x1
200052d4:	0505                	addi	a0,a0,1
200052d6:	00155b13          	srli	s6,a0,0x1
200052da:	852e                	mv	a0,a1
200052dc:	00150493          	addi	s1,a0,1
200052e0:	14fd                	addi	s1,s1,-1
200052e2:	cc81                	beqz	s1,200052fa <_ZN4core3fmt9Formatter3pad17h0d1c009fbb18f52cE+0x216>
200052e4:	004aa583          	lw	a1,4(s5)
200052e8:	018aa503          	lw	a0,24(s5)
200052ec:	01caa603          	lw	a2,28(s5)
200052f0:	4a10                	lw	a2,16(a2)
200052f2:	9602                	jalr	a2
200052f4:	d575                	beqz	a0,200052e0 <_ZN4core3fmt9Formatter3pad17h0d1c009fbb18f52cE+0x1fc>
200052f6:	4905                	li	s2,1
200052f8:	bf51                	j	2000528c <_ZN4core3fmt9Formatter3pad17h0d1c009fbb18f52cE+0x1a8>
200052fa:	004aaa03          	lw	s4,4(s5)
200052fe:	018aa503          	lw	a0,24(s5)
20005302:	01caa583          	lw	a1,28(s5)
20005306:	45d4                	lw	a3,12(a1)
20005308:	85ca                	mv	a1,s2
2000530a:	864e                	mv	a2,s3
2000530c:	9682                	jalr	a3
2000530e:	4905                	li	s2,1
20005310:	fd35                	bnez	a0,2000528c <_ZN4core3fmt9Formatter3pad17h0d1c009fbb18f52cE+0x1a8>
20005312:	001b0493          	addi	s1,s6,1 # 110001 <.Lline_table_start0+0xfdf92>
20005316:	01caab03          	lw	s6,28(s5)
2000531a:	018aa983          	lw	s3,24(s5)
2000531e:	14fd                	addi	s1,s1,-1
20005320:	c881                	beqz	s1,20005330 <_ZN4core3fmt9Formatter3pad17h0d1c009fbb18f52cE+0x24c>
20005322:	010b2603          	lw	a2,16(s6)
20005326:	854e                	mv	a0,s3
20005328:	85d2                	mv	a1,s4
2000532a:	9602                	jalr	a2
2000532c:	d96d                	beqz	a0,2000531e <_ZN4core3fmt9Formatter3pad17h0d1c009fbb18f52cE+0x23a>
2000532e:	bfb9                	j	2000528c <_ZN4core3fmt9Formatter3pad17h0d1c009fbb18f52cE+0x1a8>
20005330:	4901                	li	s2,0
20005332:	bfa9                	j	2000528c <_ZN4core3fmt9Formatter3pad17h0d1c009fbb18f52cE+0x1a8>
20005334:	4501                	li	a0,0
20005336:	fd0d                	bnez	a0,20005270 <_ZN4core3fmt9Formatter3pad17h0d1c009fbb18f52cE+0x18c>
20005338:	bf35                	j	20005274 <_ZN4core3fmt9Formatter3pad17h0d1c009fbb18f52cE+0x190>

2000533a <_ZN4core3str16slice_error_fail17h7f8d3dbc156841e4E>:
2000533a:	7159                	addi	sp,sp,-112
2000533c:	d686                	sw	ra,108(sp)
2000533e:	d4a2                	sw	s0,104(sp)
20005340:	1880                	addi	s0,sp,112
20005342:	f8d42a23          	sw	a3,-108(s0)
20005346:	f8c42823          	sw	a2,-112(s0)
2000534a:	4705                	li	a4,1
2000534c:	10100793          	li	a5,257
20005350:	832e                	mv	t1,a1
20005352:	02f5eb63          	bltu	a1,a5,20005388 <_ZN4core3str16slice_error_fail17h7f8d3dbc156841e4E+0x4e>
20005356:	40b00833          	neg	a6,a1
2000535a:	10000793          	li	a5,256
2000535e:	fbf00893          	li	a7,-65
20005362:	4285                	li	t0,1
20005364:	00b7f863          	bgeu	a5,a1,20005374 <_ZN4core3str16slice_error_fail17h7f8d3dbc156841e4E+0x3a>
20005368:	00f50733          	add	a4,a0,a5
2000536c:	00070703          	lb	a4,0(a4)
20005370:	02e8c363          	blt	a7,a4,20005396 <_ZN4core3str16slice_error_fail17h7f8d3dbc156841e4E+0x5c>
20005374:	fff78313          	addi	t1,a5,-1
20005378:	0e578963          	beq	a5,t0,2000546a <_ZN4core3str16slice_error_fail17h7f8d3dbc156841e4E+0x130>
2000537c:	00f803b3          	add	t2,a6,a5
20005380:	879a                	mv	a5,t1
20005382:	4701                	li	a4,0
20005384:	fe5390e3          	bne	t2,t0,20005364 <_ZN4core3str16slice_error_fail17h7f8d3dbc156841e4E+0x2a>
20005388:	eb11                	bnez	a4,2000539c <_ZN4core3str16slice_error_fail17h7f8d3dbc156841e4E+0x62>
2000538a:	2000d737          	lui	a4,0x2000d
2000538e:	dbf70713          	addi	a4,a4,-577 # 2000cdbf <.Lanon.f9bb9288c9d7617347bc8817bc65a1df.269>
20005392:	4795                	li	a5,5
20005394:	a809                	j	200053a6 <_ZN4core3str16slice_error_fail17h7f8d3dbc156841e4E+0x6c>
20005396:	833e                	mv	t1,a5
20005398:	4701                	li	a4,0
2000539a:	db65                	beqz	a4,2000538a <_ZN4core3str16slice_error_fail17h7f8d3dbc156841e4E+0x50>
2000539c:	2000e737          	lui	a4,0x2000e
200053a0:	00c70713          	addi	a4,a4,12 # 2000e00c <.Lanon.d9778860540cf11319bb138777b2a7cb.67>
200053a4:	4781                	li	a5,0
200053a6:	f8642e23          	sw	t1,-100(s0)
200053aa:	f8a42c23          	sw	a0,-104(s0)
200053ae:	faf42223          	sw	a5,-92(s0)
200053b2:	fae42023          	sw	a4,-96(s0)
200053b6:	1ec5ec63          	bltu	a1,a2,200055ae <_ZN4core3str16slice_error_fail17h7f8d3dbc156841e4E+0x274>
200053ba:	1ed5ea63          	bltu	a1,a3,200055ae <_ZN4core3str16slice_error_fail17h7f8d3dbc156841e4E+0x274>
200053be:	24c6ed63          	bltu	a3,a2,20005618 <_ZN4core3str16slice_error_fail17h7f8d3dbc156841e4E+0x2de>
200053c2:	ce09                	beqz	a2,200053dc <_ZN4core3str16slice_error_fail17h7f8d3dbc156841e4E+0xa2>
200053c4:	00c58c63          	beq	a1,a2,200053dc <_ZN4core3str16slice_error_fail17h7f8d3dbc156841e4E+0xa2>
200053c8:	00b67b63          	bgeu	a2,a1,200053de <_ZN4core3str16slice_error_fail17h7f8d3dbc156841e4E+0xa4>
200053cc:	00c50733          	add	a4,a0,a2
200053d0:	00070703          	lb	a4,0(a4)
200053d4:	fc000793          	li	a5,-64
200053d8:	00f74363          	blt	a4,a5,200053de <_ZN4core3str16slice_error_fail17h7f8d3dbc156841e4E+0xa4>
200053dc:	8636                	mv	a2,a3
200053de:	fac42423          	sw	a2,-88(s0)
200053e2:	ca0d                	beqz	a2,20005414 <_ZN4core3str16slice_error_fail17h7f8d3dbc156841e4E+0xda>
200053e4:	02b60863          	beq	a2,a1,20005414 <_ZN4core3str16slice_error_fail17h7f8d3dbc156841e4E+0xda>
200053e8:	00158693          	addi	a3,a1,1
200053ec:	fc000813          	li	a6,-64
200053f0:	4785                	li	a5,1
200053f2:	8732                	mv	a4,a2
200053f4:	00b67863          	bgeu	a2,a1,20005404 <_ZN4core3str16slice_error_fail17h7f8d3dbc156841e4E+0xca>
200053f8:	00e50633          	add	a2,a0,a4
200053fc:	00060603          	lb	a2,0(a2) # 110000 <.Lline_table_start0+0xfdf91>
20005400:	01065963          	bge	a2,a6,20005412 <_ZN4core3str16slice_error_fail17h7f8d3dbc156841e4E+0xd8>
20005404:	fff70613          	addi	a2,a4,-1
20005408:	00f70663          	beq	a4,a5,20005414 <_ZN4core3str16slice_error_fail17h7f8d3dbc156841e4E+0xda>
2000540c:	fee693e3          	bne	a3,a4,200053f2 <_ZN4core3str16slice_error_fail17h7f8d3dbc156841e4E+0xb8>
20005410:	a011                	j	20005414 <_ZN4core3str16slice_error_fail17h7f8d3dbc156841e4E+0xda>
20005412:	863a                	mv	a2,a4
20005414:	02b61463          	bne	a2,a1,2000543c <_ZN4core3str16slice_error_fail17h7f8d3dbc156841e4E+0x102>
20005418:	2000d537          	lui	a0,0x2000d
2000541c:	dc450513          	addi	a0,a0,-572 # 2000cdc4 <.Lanon.f9bb9288c9d7617347bc8817bc65a1df.159>
20005420:	100015b7          	lui	a1,0x10001
20005424:	4b858613          	addi	a2,a1,1208 # 100014b8 <.Lanon.f9bb9288c9d7617347bc8817bc65a1df.279>
20005428:	02b00593          	li	a1,43
2000542c:	fffff097          	auipc	ra,0xfffff
20005430:	6b4080e7          	jalr	1716(ra) # 20004ae0 <_ZN4core9panicking5panic17haaa649c2263e8176E>
20005434:	00009097          	auipc	ra,0x9
20005438:	7a8080e7          	jalr	1960(ra) # 2000ebdc <abort>
2000543c:	00c50733          	add	a4,a0,a2
20005440:	00070783          	lb	a5,0(a4)
20005444:	0ff7f893          	andi	a7,a5,255
20005448:	56fd                	li	a3,-1
2000544a:	00f6d863          	bge	a3,a5,2000545a <_ZN4core3str16slice_error_fail17h7f8d3dbc156841e4E+0x120>
2000544e:	fb142623          	sw	a7,-84(s0)
20005452:	4585                	li	a1,1
20005454:	fb040513          	addi	a0,s0,-80
20005458:	a85d                	j	2000550e <_ZN4core3str16slice_error_fail17h7f8d3dbc156841e4E+0x1d4>
2000545a:	952e                	add	a0,a0,a1
2000545c:	00170593          	addi	a1,a4,1
20005460:	00a59863          	bne	a1,a0,20005470 <_ZN4core3str16slice_error_fail17h7f8d3dbc156841e4E+0x136>
20005464:	87aa                	mv	a5,a0
20005466:	4701                	li	a4,0
20005468:	a811                	j	2000547c <_ZN4core3str16slice_error_fail17h7f8d3dbc156841e4E+0x142>
2000546a:	4701                	li	a4,0
2000546c:	df19                	beqz	a4,2000538a <_ZN4core3str16slice_error_fail17h7f8d3dbc156841e4E+0x50>
2000546e:	b73d                	j	2000539c <_ZN4core3str16slice_error_fail17h7f8d3dbc156841e4E+0x62>
20005470:	00270793          	addi	a5,a4,2
20005474:	00174583          	lbu	a1,1(a4)
20005478:	03f5f713          	andi	a4,a1,63
2000547c:	01f8f593          	andi	a1,a7,31
20005480:	0df00693          	li	a3,223
20005484:	0116f763          	bgeu	a3,a7,20005492 <_ZN4core3str16slice_error_fail17h7f8d3dbc156841e4E+0x158>
20005488:	00a79a63          	bne	a5,a0,2000549c <_ZN4core3str16slice_error_fail17h7f8d3dbc156841e4E+0x162>
2000548c:	882a                	mv	a6,a0
2000548e:	4781                	li	a5,0
20005490:	a821                	j	200054a8 <_ZN4core3str16slice_error_fail17h7f8d3dbc156841e4E+0x16e>
20005492:	00659513          	slli	a0,a1,0x6
20005496:	00a766b3          	or	a3,a4,a0
2000549a:	a889                	j	200054ec <_ZN4core3str16slice_error_fail17h7f8d3dbc156841e4E+0x1b2>
2000549c:	00178813          	addi	a6,a5,1
200054a0:	0007c683          	lbu	a3,0(a5)
200054a4:	03f6f793          	andi	a5,a3,63
200054a8:	00671693          	slli	a3,a4,0x6
200054ac:	00d7e733          	or	a4,a5,a3
200054b0:	0f000693          	li	a3,240
200054b4:	00d8e663          	bltu	a7,a3,200054c0 <_ZN4core3str16slice_error_fail17h7f8d3dbc156841e4E+0x186>
200054b8:	00a81963          	bne	a6,a0,200054ca <_ZN4core3str16slice_error_fail17h7f8d3dbc156841e4E+0x190>
200054bc:	4501                	li	a0,0
200054be:	a811                	j	200054d2 <_ZN4core3str16slice_error_fail17h7f8d3dbc156841e4E+0x198>
200054c0:	00c59513          	slli	a0,a1,0xc
200054c4:	00a766b3          	or	a3,a4,a0
200054c8:	a015                	j	200054ec <_ZN4core3str16slice_error_fail17h7f8d3dbc156841e4E+0x1b2>
200054ca:	00084503          	lbu	a0,0(a6)
200054ce:	03f57513          	andi	a0,a0,63
200054d2:	05ca                	slli	a1,a1,0x12
200054d4:	001c06b7          	lui	a3,0x1c0
200054d8:	8df5                	and	a1,a1,a3
200054da:	00671693          	slli	a3,a4,0x6
200054de:	8dd5                	or	a1,a1,a3
200054e0:	00a5e6b3          	or	a3,a1,a0
200054e4:	00110537          	lui	a0,0x110
200054e8:	f2a688e3          	beq	a3,a0,20005418 <_ZN4core3str16slice_error_fail17h7f8d3dbc156841e4E+0xde>
200054ec:	4585                	li	a1,1
200054ee:	fb040513          	addi	a0,s0,-80
200054f2:	fad42623          	sw	a3,-84(s0)
200054f6:	08000713          	li	a4,128
200054fa:	00e6ea63          	bltu	a3,a4,2000550e <_ZN4core3str16slice_error_fail17h7f8d3dbc156841e4E+0x1d4>
200054fe:	4589                	li	a1,2
20005500:	00b6d713          	srli	a4,a3,0xb
20005504:	c709                	beqz	a4,2000550e <_ZN4core3str16slice_error_fail17h7f8d3dbc156841e4E+0x1d4>
20005506:	82c1                	srli	a3,a3,0x10
20005508:	458d                	li	a1,3
2000550a:	c291                	beqz	a3,2000550e <_ZN4core3str16slice_error_fail17h7f8d3dbc156841e4E+0x1d4>
2000550c:	4591                	li	a1,4
2000550e:	fac42823          	sw	a2,-80(s0)
20005512:	95b2                	add	a1,a1,a2
20005514:	fab42a23          	sw	a1,-76(s0)
20005518:	fd040593          	addi	a1,s0,-48
2000551c:	fcb42423          	sw	a1,-56(s0)
20005520:	fc042023          	sw	zero,-64(s0)
20005524:	4595                	li	a1,5
20005526:	fcb42623          	sw	a1,-52(s0)
2000552a:	fab42e23          	sw	a1,-68(s0)
2000552e:	100015b7          	lui	a1,0x10001
20005532:	4c858593          	addi	a1,a1,1224 # 100014c8 <.Lanon.f9bb9288c9d7617347bc8817bc65a1df.283>
20005536:	fab42c23          	sw	a1,-72(s0)
2000553a:	fa040593          	addi	a1,s0,-96
2000553e:	feb42823          	sw	a1,-16(s0)
20005542:	200055b7          	lui	a1,0x20005
20005546:	68458593          	addi	a1,a1,1668 # 20005684 <_ZN44_$LT$$RF$T$u20$as$u20$core..fmt..Display$GT$3fmt17hf8da186eb6d06736E>
2000554a:	feb42a23          	sw	a1,-12(s0)
2000554e:	feb42623          	sw	a1,-20(s0)
20005552:	f9840593          	addi	a1,s0,-104
20005556:	feb42423          	sw	a1,-24(s0)
2000555a:	200065b7          	lui	a1,0x20006
2000555e:	b8658593          	addi	a1,a1,-1146 # 20005b86 <_ZN71_$LT$core..ops..range..Range$LT$Idx$GT$$u20$as$u20$core..fmt..Debug$GT$3fmt17h17e435cc4a8167ccE>
20005562:	feb42223          	sw	a1,-28(s0)
20005566:	fea42023          	sw	a0,-32(s0)
2000556a:	20005537          	lui	a0,0x20005
2000556e:	6a250513          	addi	a0,a0,1698 # 200056a2 <_ZN41_$LT$char$u20$as$u20$core..fmt..Debug$GT$3fmt17hf8dc059306f7e32eE>
20005572:	fca42e23          	sw	a0,-36(s0)
20005576:	fac40513          	addi	a0,s0,-84
2000557a:	fca42c23          	sw	a0,-40(s0)
2000557e:	20005537          	lui	a0,0x20005
20005582:	b9250513          	addi	a0,a0,-1134 # 20004b92 <_ZN4core3fmt3num3imp52_$LT$impl$u20$core..fmt..Display$u20$for$u20$u32$GT$3fmt17hd33618c459eb254aE>
20005586:	fca42a23          	sw	a0,-44(s0)
2000558a:	fa840513          	addi	a0,s0,-88
2000558e:	fca42823          	sw	a0,-48(s0)
20005592:	10001537          	lui	a0,0x10001
20005596:	4f050593          	addi	a1,a0,1264 # 100014f0 <.Lanon.f9bb9288c9d7617347bc8817bc65a1df.284>
2000559a:	fb840513          	addi	a0,s0,-72
2000559e:	fffff097          	auipc	ra,0xfffff
200055a2:	60c080e7          	jalr	1548(ra) # 20004baa <_ZN4core9panicking9panic_fmt17he3c5aeb68fe54ef4E>
200055a6:	00009097          	auipc	ra,0x9
200055aa:	636080e7          	jalr	1590(ra) # 2000ebdc <abort>
200055ae:	00c5e363          	bltu	a1,a2,200055b4 <_ZN4core3str16slice_error_fail17h7f8d3dbc156841e4E+0x27a>
200055b2:	8636                	mv	a2,a3
200055b4:	fac42823          	sw	a2,-80(s0)
200055b8:	fd040513          	addi	a0,s0,-48
200055bc:	fca42423          	sw	a0,-56(s0)
200055c0:	fc042023          	sw	zero,-64(s0)
200055c4:	450d                	li	a0,3
200055c6:	fca42623          	sw	a0,-52(s0)
200055ca:	faa42e23          	sw	a0,-68(s0)
200055ce:	10001537          	lui	a0,0x10001
200055d2:	46050513          	addi	a0,a0,1120 # 10001460 <.Lanon.f9bb9288c9d7617347bc8817bc65a1df.272>
200055d6:	faa42c23          	sw	a0,-72(s0)
200055da:	fa040513          	addi	a0,s0,-96
200055de:	fea42023          	sw	a0,-32(s0)
200055e2:	20005537          	lui	a0,0x20005
200055e6:	68450513          	addi	a0,a0,1668 # 20005684 <_ZN44_$LT$$RF$T$u20$as$u20$core..fmt..Display$GT$3fmt17hf8da186eb6d06736E>
200055ea:	fea42223          	sw	a0,-28(s0)
200055ee:	fca42e23          	sw	a0,-36(s0)
200055f2:	f9840513          	addi	a0,s0,-104
200055f6:	fca42c23          	sw	a0,-40(s0)
200055fa:	20005537          	lui	a0,0x20005
200055fe:	b9250513          	addi	a0,a0,-1134 # 20004b92 <_ZN4core3fmt3num3imp52_$LT$impl$u20$core..fmt..Display$u20$for$u20$u32$GT$3fmt17hd33618c459eb254aE>
20005602:	fca42a23          	sw	a0,-44(s0)
20005606:	fb040513          	addi	a0,s0,-80
2000560a:	fca42823          	sw	a0,-48(s0)
2000560e:	10001537          	lui	a0,0x10001
20005612:	47850593          	addi	a1,a0,1144 # 10001478 <.Lanon.f9bb9288c9d7617347bc8817bc65a1df.273>
20005616:	b751                	j	2000559a <_ZN4core3str16slice_error_fail17h7f8d3dbc156841e4E+0x260>
20005618:	fd040513          	addi	a0,s0,-48
2000561c:	fca42423          	sw	a0,-56(s0)
20005620:	fc042023          	sw	zero,-64(s0)
20005624:	4511                	li	a0,4
20005626:	fca42623          	sw	a0,-52(s0)
2000562a:	faa42e23          	sw	a0,-68(s0)
2000562e:	fa040513          	addi	a0,s0,-96
20005632:	fea42423          	sw	a0,-24(s0)
20005636:	20005537          	lui	a0,0x20005
2000563a:	68450513          	addi	a0,a0,1668 # 20005684 <_ZN44_$LT$$RF$T$u20$as$u20$core..fmt..Display$GT$3fmt17hf8da186eb6d06736E>
2000563e:	fea42623          	sw	a0,-20(s0)
20005642:	fea42223          	sw	a0,-28(s0)
20005646:	f9840513          	addi	a0,s0,-104
2000564a:	fea42023          	sw	a0,-32(s0)
2000564e:	f9440513          	addi	a0,s0,-108
20005652:	fca42c23          	sw	a0,-40(s0)
20005656:	20005537          	lui	a0,0x20005
2000565a:	b9250513          	addi	a0,a0,-1134 # 20004b92 <_ZN4core3fmt3num3imp52_$LT$impl$u20$core..fmt..Display$u20$for$u20$u32$GT$3fmt17hd33618c459eb254aE>
2000565e:	fca42e23          	sw	a0,-36(s0)
20005662:	fca42a23          	sw	a0,-44(s0)
20005666:	f9040513          	addi	a0,s0,-112
2000566a:	fca42823          	sw	a0,-48(s0)
2000566e:	10001537          	lui	a0,0x10001
20005672:	48850513          	addi	a0,a0,1160 # 10001488 <.Lanon.f9bb9288c9d7617347bc8817bc65a1df.277>
20005676:	faa42c23          	sw	a0,-72(s0)
2000567a:	10001537          	lui	a0,0x10001
2000567e:	4a850593          	addi	a1,a0,1192 # 100014a8 <.Lanon.f9bb9288c9d7617347bc8817bc65a1df.278>
20005682:	bf21                	j	2000559a <_ZN4core3str16slice_error_fail17h7f8d3dbc156841e4E+0x260>

20005684 <_ZN44_$LT$$RF$T$u20$as$u20$core..fmt..Display$GT$3fmt17hf8da186eb6d06736E>:
20005684:	1141                	addi	sp,sp,-16
20005686:	c606                	sw	ra,12(sp)
20005688:	c422                	sw	s0,8(sp)
2000568a:	0800                	addi	s0,sp,16
2000568c:	86ae                	mv	a3,a1
2000568e:	4150                	lw	a2,4(a0)
20005690:	410c                	lw	a1,0(a0)
20005692:	8536                	mv	a0,a3
20005694:	4422                	lw	s0,8(sp)
20005696:	40b2                	lw	ra,12(sp)
20005698:	0141                	addi	sp,sp,16
2000569a:	00000317          	auipc	t1,0x0
2000569e:	a4a30067          	jr	-1462(t1) # 200050e4 <_ZN4core3fmt9Formatter3pad17h0d1c009fbb18f52cE>

200056a2 <_ZN41_$LT$char$u20$as$u20$core..fmt..Debug$GT$3fmt17hf8dc059306f7e32eE>:
200056a2:	7179                	addi	sp,sp,-48
200056a4:	d606                	sw	ra,44(sp)
200056a6:	d422                	sw	s0,40(sp)
200056a8:	d226                	sw	s1,36(sp)
200056aa:	d04a                	sw	s2,32(sp)
200056ac:	ce4e                	sw	s3,28(sp)
200056ae:	cc52                	sw	s4,24(sp)
200056b0:	ca56                	sw	s5,20(sp)
200056b2:	c85a                	sw	s6,16(sp)
200056b4:	c65e                	sw	s7,12(sp)
200056b6:	c462                	sw	s8,8(sp)
200056b8:	c266                	sw	s9,4(sp)
200056ba:	c06a                	sw	s10,0(sp)
200056bc:	1800                	addi	s0,sp,48
200056be:	892e                	mv	s2,a1
200056c0:	84aa                	mv	s1,a0
200056c2:	4d88                	lw	a0,24(a1)
200056c4:	4dcc                	lw	a1,28(a1)
200056c6:	4990                	lw	a2,16(a1)
200056c8:	02700593          	li	a1,39
200056cc:	9602                	jalr	a2
200056ce:	85aa                	mv	a1,a0
200056d0:	4505                	li	a0,1
200056d2:	10059b63          	bnez	a1,200057e8 <_ZN41_$LT$char$u20$as$u20$core..fmt..Debug$GT$3fmt17hf8dc059306f7e32eE+0x146>
200056d6:	4989                	li	s3,2
200056d8:	0004aa83          	lw	s5,0(s1)
200056dc:	02100513          	li	a0,33
200056e0:	01554e63          	blt	a0,s5,200056fc <_ZN41_$LT$char$u20$as$u20$core..fmt..Debug$GT$3fmt17hf8dc059306f7e32eE+0x5a>
200056e4:	4525                	li	a0,9
200056e6:	04aa8863          	beq	s5,a0,20005736 <_ZN41_$LT$char$u20$as$u20$core..fmt..Debug$GT$3fmt17hf8dc059306f7e32eE+0x94>
200056ea:	4529                	li	a0,10
200056ec:	04aa8863          	beq	s5,a0,2000573c <_ZN41_$LT$char$u20$as$u20$core..fmt..Debug$GT$3fmt17hf8dc059306f7e32eE+0x9a>
200056f0:	4535                	li	a0,13
200056f2:	02aa9163          	bne	s5,a0,20005714 <_ZN41_$LT$char$u20$as$u20$core..fmt..Debug$GT$3fmt17hf8dc059306f7e32eE+0x72>
200056f6:	07200a93          	li	s5,114
200056fa:	a099                	j	20005740 <_ZN41_$LT$char$u20$as$u20$core..fmt..Debug$GT$3fmt17hf8dc059306f7e32eE+0x9e>
200056fc:	02200513          	li	a0,34
20005700:	04aa8063          	beq	s5,a0,20005740 <_ZN41_$LT$char$u20$as$u20$core..fmt..Debug$GT$3fmt17hf8dc059306f7e32eE+0x9e>
20005704:	02700513          	li	a0,39
20005708:	02aa8c63          	beq	s5,a0,20005740 <_ZN41_$LT$char$u20$as$u20$core..fmt..Debug$GT$3fmt17hf8dc059306f7e32eE+0x9e>
2000570c:	05c00513          	li	a0,92
20005710:	02aa8863          	beq	s5,a0,20005740 <_ZN41_$LT$char$u20$as$u20$core..fmt..Debug$GT$3fmt17hf8dc059306f7e32eE+0x9e>
20005714:	00aad513          	srli	a0,s5,0xa
20005718:	07a00593          	li	a1,122
2000571c:	0ea5f463          	bgeu	a1,a0,20005804 <_ZN41_$LT$char$u20$as$u20$core..fmt..Debug$GT$3fmt17hf8dc059306f7e32eE+0x162>
20005720:	45f9                	li	a1,30
20005722:	38000613          	li	a2,896
20005726:	0ec50963          	beq	a0,a2,20005818 <_ZN41_$LT$char$u20$as$u20$core..fmt..Debug$GT$3fmt17hf8dc059306f7e32eE+0x176>
2000572a:	6541                	lui	a0,0x10
2000572c:	f0050513          	addi	a0,a0,-256 # ff00 <.Lline_table_start77+0x1c8>
20005730:	00aaf533          	and	a0,s5,a0
20005734:	a2e1                	j	200058fc <_ZN41_$LT$char$u20$as$u20$core..fmt..Debug$GT$3fmt17hf8dc059306f7e32eE+0x25a>
20005736:	07400a93          	li	s5,116
2000573a:	a019                	j	20005740 <_ZN41_$LT$char$u20$as$u20$core..fmt..Debug$GT$3fmt17hf8dc059306f7e32eE+0x9e>
2000573c:	06e00a93          	li	s5,110
20005740:	4481                	li	s1,0
20005742:	4b09                	li	s6,2
20005744:	4b85                	li	s7,1
20005746:	4c29                	li	s8,10
20005748:	4c8d                	li	s9,3
2000574a:	4d11                	li	s10,4
2000574c:	013bdd63          	bge	s7,s3,20005766 <_ZN41_$LT$char$u20$as$u20$core..fmt..Debug$GT$3fmt17hf8dc059306f7e32eE+0xc4>
20005750:	a005                	j	20005770 <_ZN41_$LT$char$u20$as$u20$core..fmt..Debug$GT$3fmt17hf8dc059306f7e32eE+0xce>
20005752:	4985                	li	s3,1
20005754:	01892503          	lw	a0,24(s2)
20005758:	01c92603          	lw	a2,28(s2)
2000575c:	4a10                	lw	a2,16(a2)
2000575e:	9602                	jalr	a2
20005760:	e975                	bnez	a0,20005854 <_ZN41_$LT$char$u20$as$u20$core..fmt..Debug$GT$3fmt17hf8dc059306f7e32eE+0x1b2>
20005762:	013bc763          	blt	s7,s3,20005770 <_ZN41_$LT$char$u20$as$u20$core..fmt..Debug$GT$3fmt17hf8dc059306f7e32eE+0xce>
20005766:	06098963          	beqz	s3,200057d8 <_ZN41_$LT$char$u20$as$u20$core..fmt..Debug$GT$3fmt17hf8dc059306f7e32eE+0x136>
2000576a:	85d6                	mv	a1,s5
2000576c:	4981                	li	s3,0
2000576e:	b7dd                	j	20005754 <_ZN41_$LT$char$u20$as$u20$core..fmt..Debug$GT$3fmt17hf8dc059306f7e32eE+0xb2>
20005770:	05c00593          	li	a1,92
20005774:	fd698fe3          	beq	s3,s6,20005752 <_ZN41_$LT$char$u20$as$u20$core..fmt..Debug$GT$3fmt17hf8dc059306f7e32eE+0xb0>
20005778:	498d                	li	s3,3
2000577a:	0ff4f513          	andi	a0,s1,255
2000577e:	00ab4963          	blt	s6,a0,20005790 <_ZN41_$LT$char$u20$as$u20$core..fmt..Debug$GT$3fmt17hf8dc059306f7e32eE+0xee>
20005782:	c939                	beqz	a0,200057d8 <_ZN41_$LT$char$u20$as$u20$core..fmt..Debug$GT$3fmt17hf8dc059306f7e32eE+0x136>
20005784:	03751463          	bne	a0,s7,200057ac <_ZN41_$LT$char$u20$as$u20$core..fmt..Debug$GT$3fmt17hf8dc059306f7e32eE+0x10a>
20005788:	07d00593          	li	a1,125
2000578c:	4481                	li	s1,0
2000578e:	b7d9                	j	20005754 <_ZN41_$LT$char$u20$as$u20$core..fmt..Debug$GT$3fmt17hf8dc059306f7e32eE+0xb2>
20005790:	01950a63          	beq	a0,s9,200057a4 <_ZN41_$LT$char$u20$as$u20$core..fmt..Debug$GT$3fmt17hf8dc059306f7e32eE+0x102>
20005794:	4491                	li	s1,4
20005796:	fba51fe3          	bne	a0,s10,20005754 <_ZN41_$LT$char$u20$as$u20$core..fmt..Debug$GT$3fmt17hf8dc059306f7e32eE+0xb2>
2000579a:	498d                	li	s3,3
2000579c:	07500593          	li	a1,117
200057a0:	448d                	li	s1,3
200057a2:	bf4d                	j	20005754 <_ZN41_$LT$char$u20$as$u20$core..fmt..Debug$GT$3fmt17hf8dc059306f7e32eE+0xb2>
200057a4:	4489                	li	s1,2
200057a6:	07b00593          	li	a1,123
200057aa:	b76d                	j	20005754 <_ZN41_$LT$char$u20$as$u20$core..fmt..Debug$GT$3fmt17hf8dc059306f7e32eE+0xb2>
200057ac:	002a1513          	slli	a0,s4,0x2
200057b0:	8971                	andi	a0,a0,28
200057b2:	00aad533          	srl	a0,s5,a0
200057b6:	893d                	andi	a0,a0,15
200057b8:	01856563          	bltu	a0,s8,200057c2 <_ZN41_$LT$char$u20$as$u20$core..fmt..Debug$GT$3fmt17hf8dc059306f7e32eE+0x120>
200057bc:	05750593          	addi	a1,a0,87
200057c0:	a019                	j	200057c6 <_ZN41_$LT$char$u20$as$u20$core..fmt..Debug$GT$3fmt17hf8dc059306f7e32eE+0x124>
200057c2:	03056593          	ori	a1,a0,48
200057c6:	4485                	li	s1,1
200057c8:	4501                	li	a0,0
200057ca:	000a0563          	beqz	s4,200057d4 <_ZN41_$LT$char$u20$as$u20$core..fmt..Debug$GT$3fmt17hf8dc059306f7e32eE+0x132>
200057ce:	4489                	li	s1,2
200057d0:	fffa0513          	addi	a0,s4,-1
200057d4:	8a2a                	mv	s4,a0
200057d6:	bfbd                	j	20005754 <_ZN41_$LT$char$u20$as$u20$core..fmt..Debug$GT$3fmt17hf8dc059306f7e32eE+0xb2>
200057d8:	01892503          	lw	a0,24(s2)
200057dc:	01c92583          	lw	a1,28(s2)
200057e0:	4990                	lw	a2,16(a1)
200057e2:	02700593          	li	a1,39
200057e6:	9602                	jalr	a2
200057e8:	4d02                	lw	s10,0(sp)
200057ea:	4c92                	lw	s9,4(sp)
200057ec:	4c22                	lw	s8,8(sp)
200057ee:	4bb2                	lw	s7,12(sp)
200057f0:	4b42                	lw	s6,16(sp)
200057f2:	4ad2                	lw	s5,20(sp)
200057f4:	4a62                	lw	s4,24(sp)
200057f6:	49f2                	lw	s3,28(sp)
200057f8:	5902                	lw	s2,32(sp)
200057fa:	5492                	lw	s1,36(sp)
200057fc:	5422                	lw	s0,40(sp)
200057fe:	50b2                	lw	ra,44(sp)
20005800:	6145                	addi	sp,sp,48
20005802:	8082                	ret
20005804:	2000d5b7          	lui	a1,0x2000d
20005808:	e5758593          	addi	a1,a1,-425 # 2000ce57 <_ZN4core7unicode12unicode_data15grapheme_extend17BITSET_CHUNKS_MAP17h22355b3dbe42063aE>
2000580c:	952e                	add	a0,a0,a1
2000580e:	00054583          	lbu	a1,0(a0)
20005812:	4579                	li	a0,30
20005814:	30b56463          	bltu	a0,a1,20005b1c <_ZN41_$LT$char$u20$as$u20$core..fmt..Debug$GT$3fmt17hf8dc059306f7e32eE+0x47a>
20005818:	006ad513          	srli	a0,s5,0x6
2000581c:	893d                	andi	a0,a0,15
2000581e:	0592                	slli	a1,a1,0x4
20005820:	8d4d                	or	a0,a0,a1
20005822:	2000d5b7          	lui	a1,0x2000d
20005826:	ed258593          	addi	a1,a1,-302 # 2000ced2 <_ZN4core7unicode12unicode_data15grapheme_extend19BITSET_INDEX_CHUNKS17h42db309ce693e410E>
2000582a:	952e                	add	a0,a0,a1
2000582c:	00054583          	lbu	a1,0(a0)
20005830:	08b00513          	li	a0,139
20005834:	2aa5fe63          	bgeu	a1,a0,20005af0 <_ZN41_$LT$char$u20$as$u20$core..fmt..Debug$GT$3fmt17hf8dc059306f7e32eE+0x44e>
20005838:	2000d537          	lui	a0,0x2000d
2000583c:	0c850513          	addi	a0,a0,200 # 2000d0c8 <_ZN4core7unicode12unicode_data15grapheme_extend6BITSET17hb86cd42baf0b5b47E>
20005840:	058e                	slli	a1,a1,0x3
20005842:	952e                	add	a0,a0,a1
20005844:	4585                	li	a1,1
20005846:	03faf613          	andi	a2,s5,63
2000584a:	1601                	addi	a2,a2,-32
2000584c:	00064663          	bltz	a2,20005858 <_ZN41_$LT$char$u20$as$u20$core..fmt..Debug$GT$3fmt17hf8dc059306f7e32eE+0x1b6>
20005850:	4681                	li	a3,0
20005852:	a029                	j	2000585c <_ZN41_$LT$char$u20$as$u20$core..fmt..Debug$GT$3fmt17hf8dc059306f7e32eE+0x1ba>
20005854:	4505                	li	a0,1
20005856:	bf49                	j	200057e8 <_ZN41_$LT$char$u20$as$u20$core..fmt..Debug$GT$3fmt17hf8dc059306f7e32eE+0x146>
20005858:	015596b3          	sll	a3,a1,s5
2000585c:	4118                	lw	a4,0(a0)
2000585e:	8ef9                	and	a3,a3,a4
20005860:	4701                	li	a4,0
20005862:	00064463          	bltz	a2,2000586a <_ZN41_$LT$char$u20$as$u20$core..fmt..Debug$GT$3fmt17hf8dc059306f7e32eE+0x1c8>
20005866:	00c59733          	sll	a4,a1,a2
2000586a:	4148                	lw	a0,4(a0)
2000586c:	8d79                	and	a0,a0,a4
2000586e:	8d55                	or	a0,a0,a3
20005870:	20051863          	bnez	a0,20005a80 <_ZN41_$LT$char$u20$as$u20$core..fmt..Debug$GT$3fmt17hf8dc059306f7e32eE+0x3de>
20005874:	6541                	lui	a0,0x10
20005876:	f0050513          	addi	a0,a0,-256 # ff00 <.Lline_table_start77+0x1c8>
2000587a:	00aaf533          	and	a0,s5,a0
2000587e:	010ad593          	srli	a1,s5,0x10
20005882:	edad                	bnez	a1,200058fc <_ZN41_$LT$char$u20$as$u20$core..fmt..Debug$GT$3fmt17hf8dc059306f7e32eE+0x25a>
20005884:	2000d5b7          	lui	a1,0x2000d
20005888:	53a58693          	addi	a3,a1,1338 # 2000d53a <.Lanon.f9bb9288c9d7617347bc8817bc65a1df.307>
2000588c:	00855313          	srli	t1,a0,0x8
20005890:	12500813          	li	a6,293
20005894:	2000d537          	lui	a0,0x2000d
20005898:	58c50893          	addi	a7,a0,1420 # 2000d58c <.Lanon.f9bb9288c9d7617347bc8817bc65a1df.308>
2000589c:	05268293          	addi	t0,a3,82 # 1c0052 <.Lline_table_start0+0x1adfe3>
200058a0:	0ffaf493          	andi	s1,s5,255
200058a4:	4501                	li	a0,0
200058a6:	0016c703          	lbu	a4,1(a3)
200058aa:	00e505b3          	add	a1,a0,a4
200058ae:	00268793          	addi	a5,a3,2
200058b2:	0006c683          	lbu	a3,0(a3)
200058b6:	02669163          	bne	a3,t1,200058d8 <_ZN41_$LT$char$u20$as$u20$core..fmt..Debug$GT$3fmt17hf8dc059306f7e32eE+0x236>
200058ba:	24a5e963          	bltu	a1,a0,20005b0c <_ZN41_$LT$char$u20$as$u20$core..fmt..Debug$GT$3fmt17hf8dc059306f7e32eE+0x46a>
200058be:	28b86763          	bltu	a6,a1,20005b4c <_ZN41_$LT$char$u20$as$u20$core..fmt..Debug$GT$3fmt17hf8dc059306f7e32eE+0x4aa>
200058c2:	9546                	add	a0,a0,a7
200058c4:	cf01                	beqz	a4,200058dc <_ZN41_$LT$char$u20$as$u20$core..fmt..Debug$GT$3fmt17hf8dc059306f7e32eE+0x23a>
200058c6:	177d                	addi	a4,a4,-1
200058c8:	00150693          	addi	a3,a0,1
200058cc:	00054603          	lbu	a2,0(a0)
200058d0:	8536                	mv	a0,a3
200058d2:	fe9619e3          	bne	a2,s1,200058c4 <_ZN41_$LT$char$u20$as$u20$core..fmt..Debug$GT$3fmt17hf8dc059306f7e32eE+0x222>
200058d6:	a26d                	j	20005a80 <_ZN41_$LT$char$u20$as$u20$core..fmt..Debug$GT$3fmt17hf8dc059306f7e32eE+0x3de>
200058d8:	00d36663          	bltu	t1,a3,200058e4 <_ZN41_$LT$char$u20$as$u20$core..fmt..Debug$GT$3fmt17hf8dc059306f7e32eE+0x242>
200058dc:	852e                	mv	a0,a1
200058de:	86be                	mv	a3,a5
200058e0:	fc5793e3          	bne	a5,t0,200058a6 <_ZN41_$LT$char$u20$as$u20$core..fmt..Debug$GT$3fmt17hf8dc059306f7e32eE+0x204>
200058e4:	6541                	lui	a0,0x10
200058e6:	157d                	addi	a0,a0,-1
200058e8:	00aaf5b3          	and	a1,s5,a0
200058ec:	4505                	li	a0,1
200058ee:	2000d637          	lui	a2,0x2000d
200058f2:	6b160693          	addi	a3,a2,1713 # 2000d6b1 <.Lanon.f9bb9288c9d7617347bc8817bc65a1df.309>
200058f6:	13a68613          	addi	a2,a3,314
200058fa:	aaa1                	j	20005a52 <_ZN41_$LT$char$u20$as$u20$core..fmt..Debug$GT$3fmt17hf8dc059306f7e32eE+0x3b0>
200058fc:	00855313          	srli	t1,a0,0x8
20005900:	011ad513          	srli	a0,s5,0x11
20005904:	e93d                	bnez	a0,2000597a <_ZN41_$LT$char$u20$as$u20$core..fmt..Debug$GT$3fmt17hf8dc059306f7e32eE+0x2d8>
20005906:	2000d537          	lui	a0,0x2000d
2000590a:	7eb50693          	addi	a3,a0,2027 # 2000d7eb <.Lanon.f9bb9288c9d7617347bc8817bc65a1df.310>
2000590e:	0a600813          	li	a6,166
20005912:	2000e537          	lui	a0,0x2000e
20005916:	83150893          	addi	a7,a0,-1999 # 2000d831 <.Lanon.f9bb9288c9d7617347bc8817bc65a1df.311>
2000591a:	04668293          	addi	t0,a3,70
2000591e:	0ffaf493          	andi	s1,s5,255
20005922:	4501                	li	a0,0
20005924:	0016c703          	lbu	a4,1(a3)
20005928:	00e505b3          	add	a1,a0,a4
2000592c:	00268793          	addi	a5,a3,2
20005930:	0006c683          	lbu	a3,0(a3)
20005934:	02669163          	bne	a3,t1,20005956 <_ZN41_$LT$char$u20$as$u20$core..fmt..Debug$GT$3fmt17hf8dc059306f7e32eE+0x2b4>
20005938:	1ca5ea63          	bltu	a1,a0,20005b0c <_ZN41_$LT$char$u20$as$u20$core..fmt..Debug$GT$3fmt17hf8dc059306f7e32eE+0x46a>
2000593c:	1eb86d63          	bltu	a6,a1,20005b36 <_ZN41_$LT$char$u20$as$u20$core..fmt..Debug$GT$3fmt17hf8dc059306f7e32eE+0x494>
20005940:	9546                	add	a0,a0,a7
20005942:	cf01                	beqz	a4,2000595a <_ZN41_$LT$char$u20$as$u20$core..fmt..Debug$GT$3fmt17hf8dc059306f7e32eE+0x2b8>
20005944:	177d                	addi	a4,a4,-1
20005946:	00150693          	addi	a3,a0,1
2000594a:	00054603          	lbu	a2,0(a0)
2000594e:	8536                	mv	a0,a3
20005950:	fe9619e3          	bne	a2,s1,20005942 <_ZN41_$LT$char$u20$as$u20$core..fmt..Debug$GT$3fmt17hf8dc059306f7e32eE+0x2a0>
20005954:	a235                	j	20005a80 <_ZN41_$LT$char$u20$as$u20$core..fmt..Debug$GT$3fmt17hf8dc059306f7e32eE+0x3de>
20005956:	00d36663          	bltu	t1,a3,20005962 <_ZN41_$LT$char$u20$as$u20$core..fmt..Debug$GT$3fmt17hf8dc059306f7e32eE+0x2c0>
2000595a:	852e                	mv	a0,a1
2000595c:	86be                	mv	a3,a5
2000595e:	fc5793e3          	bne	a5,t0,20005924 <_ZN41_$LT$char$u20$as$u20$core..fmt..Debug$GT$3fmt17hf8dc059306f7e32eE+0x282>
20005962:	6541                	lui	a0,0x10
20005964:	157d                	addi	a0,a0,-1
20005966:	00aaf5b3          	and	a1,s5,a0
2000596a:	4505                	li	a0,1
2000596c:	2000e637          	lui	a2,0x2000e
20005970:	8d760693          	addi	a3,a2,-1833 # 2000d8d7 <.Lanon.f9bb9288c9d7617347bc8817bc65a1df.312>
20005974:	19868613          	addi	a2,a3,408
20005978:	a879                	j	20005a16 <_ZN41_$LT$char$u20$as$u20$core..fmt..Debug$GT$3fmt17hf8dc059306f7e32eE+0x374>
2000597a:	fff20537          	lui	a0,0xfff20
2000597e:	e1050513          	addi	a0,a0,-496 # fff1fe10 <_sapps+0xdfeefe10>
20005982:	9556                	add	a0,a0,s5
20005984:	000305b7          	lui	a1,0x30
20005988:	e1058593          	addi	a1,a1,-496 # 2fe10 <.Lline_table_start0+0x1dda1>
2000598c:	0eb56a63          	bltu	a0,a1,20005a80 <_ZN41_$LT$char$u20$as$u20$core..fmt..Debug$GT$3fmt17hf8dc059306f7e32eE+0x3de>
20005990:	fffd0537          	lui	a0,0xfffd0
20005994:	5e250513          	addi	a0,a0,1506 # fffd05e2 <_sapps+0xdffa05e2>
20005998:	9556                	add	a0,a0,s5
2000599a:	000b05b7          	lui	a1,0xb0
2000599e:	6e258593          	addi	a1,a1,1762 # b06e2 <.Lline_table_start0+0x9e673>
200059a2:	0cb56f63          	bltu	a0,a1,20005a80 <_ZN41_$LT$char$u20$as$u20$core..fmt..Debug$GT$3fmt17hf8dc059306f7e32eE+0x3de>
200059a6:	fffd1537          	lui	a0,0xfffd1
200059aa:	41f50513          	addi	a0,a0,1055 # fffd141f <_sapps+0xdffa141f>
200059ae:	9556                	add	a0,a0,s5
200059b0:	6585                	lui	a1,0x1
200059b2:	c1f58593          	addi	a1,a1,-993 # c1f <MPU_MIN_ALIGN+0x81f>
200059b6:	0cb56563          	bltu	a0,a1,20005a80 <_ZN41_$LT$char$u20$as$u20$core..fmt..Debug$GT$3fmt17hf8dc059306f7e32eE+0x3de>
200059ba:	fffd3537          	lui	a0,0xfffd3
200059be:	15e50513          	addi	a0,a0,350 # fffd315e <_sapps+0xdffa315e>
200059c2:	9556                	add	a0,a0,s5
200059c4:	45b9                	li	a1,14
200059c6:	0ab56d63          	bltu	a0,a1,20005a80 <_ZN41_$LT$char$u20$as$u20$core..fmt..Debug$GT$3fmt17hf8dc059306f7e32eE+0x3de>
200059ca:	00200537          	lui	a0,0x200
200059ce:	1579                	addi	a0,a0,-2
200059d0:	00aaf533          	and	a0,s5,a0
200059d4:	0002c5b7          	lui	a1,0x2c
200059d8:	81e58593          	addi	a1,a1,-2018 # 2b81e <.Lline_table_start0+0x197af>
200059dc:	0ab50263          	beq	a0,a1,20005a80 <_ZN41_$LT$char$u20$as$u20$core..fmt..Debug$GT$3fmt17hf8dc059306f7e32eE+0x3de>
200059e0:	fffd6537          	lui	a0,0xfffd6
200059e4:	92950513          	addi	a0,a0,-1751 # fffd5929 <_sapps+0xdffa5929>
200059e8:	9556                	add	a0,a0,s5
200059ea:	02900593          	li	a1,41
200059ee:	08b56963          	bltu	a0,a1,20005a80 <_ZN41_$LT$char$u20$as$u20$core..fmt..Debug$GT$3fmt17hf8dc059306f7e32eE+0x3de>
200059f2:	fffd5537          	lui	a0,0xfffd5
200059f6:	8cb50513          	addi	a0,a0,-1845 # fffd48cb <_sapps+0xdffa48cb>
200059fa:	9556                	add	a0,a0,s5
200059fc:	45a9                	li	a1,10
200059fe:	08a5f163          	bgeu	a1,a0,20005a80 <_ZN41_$LT$char$u20$as$u20$core..fmt..Debug$GT$3fmt17hf8dc059306f7e32eE+0x3de>
20005a02:	4985                	li	s3,1
20005a04:	bb35                	j	20005740 <_ZN41_$LT$char$u20$as$u20$core..fmt..Debug$GT$3fmt17hf8dc059306f7e32eE+0x9e>
20005a06:	86be                	mv	a3,a5
20005a08:	8d99                	sub	a1,a1,a4
20005a0a:	0605c963          	bltz	a1,20005a7c <_ZN41_$LT$char$u20$as$u20$core..fmt..Debug$GT$3fmt17hf8dc059306f7e32eE+0x3da>
20005a0e:	00154513          	xori	a0,a0,1
20005a12:	06c68563          	beq	a3,a2,20005a7c <_ZN41_$LT$char$u20$as$u20$core..fmt..Debug$GT$3fmt17hf8dc059306f7e32eE+0x3da>
20005a16:	00168793          	addi	a5,a3,1
20005a1a:	0006c703          	lbu	a4,0(a3)
20005a1e:	01871493          	slli	s1,a4,0x18
20005a22:	84e1                	srai	s1,s1,0x18
20005a24:	fe04d1e3          	bgez	s1,20005a06 <_ZN41_$LT$char$u20$as$u20$core..fmt..Debug$GT$3fmt17hf8dc059306f7e32eE+0x364>
20005a28:	12c78d63          	beq	a5,a2,20005b62 <_ZN41_$LT$char$u20$as$u20$core..fmt..Debug$GT$3fmt17hf8dc059306f7e32eE+0x4c0>
20005a2c:	07f4f713          	andi	a4,s1,127
20005a30:	0722                	slli	a4,a4,0x8
20005a32:	0016c783          	lbu	a5,1(a3)
20005a36:	8f5d                	or	a4,a4,a5
20005a38:	0689                	addi	a3,a3,2
20005a3a:	8d99                	sub	a1,a1,a4
20005a3c:	fc05d9e3          	bgez	a1,20005a0e <_ZN41_$LT$char$u20$as$u20$core..fmt..Debug$GT$3fmt17hf8dc059306f7e32eE+0x36c>
20005a40:	a835                	j	20005a7c <_ZN41_$LT$char$u20$as$u20$core..fmt..Debug$GT$3fmt17hf8dc059306f7e32eE+0x3da>
20005a42:	86be                	mv	a3,a5
20005a44:	8d99                	sub	a1,a1,a4
20005a46:	0205cb63          	bltz	a1,20005a7c <_ZN41_$LT$char$u20$as$u20$core..fmt..Debug$GT$3fmt17hf8dc059306f7e32eE+0x3da>
20005a4a:	00154513          	xori	a0,a0,1
20005a4e:	02c68763          	beq	a3,a2,20005a7c <_ZN41_$LT$char$u20$as$u20$core..fmt..Debug$GT$3fmt17hf8dc059306f7e32eE+0x3da>
20005a52:	00168793          	addi	a5,a3,1
20005a56:	0006c703          	lbu	a4,0(a3)
20005a5a:	01871493          	slli	s1,a4,0x18
20005a5e:	84e1                	srai	s1,s1,0x18
20005a60:	fe04d1e3          	bgez	s1,20005a42 <_ZN41_$LT$char$u20$as$u20$core..fmt..Debug$GT$3fmt17hf8dc059306f7e32eE+0x3a0>
20005a64:	0ec78f63          	beq	a5,a2,20005b62 <_ZN41_$LT$char$u20$as$u20$core..fmt..Debug$GT$3fmt17hf8dc059306f7e32eE+0x4c0>
20005a68:	07f4f713          	andi	a4,s1,127
20005a6c:	0722                	slli	a4,a4,0x8
20005a6e:	0016c783          	lbu	a5,1(a3)
20005a72:	8f5d                	or	a4,a4,a5
20005a74:	0689                	addi	a3,a3,2
20005a76:	8d99                	sub	a1,a1,a4
20005a78:	fc05d9e3          	bgez	a1,20005a4a <_ZN41_$LT$char$u20$as$u20$core..fmt..Debug$GT$3fmt17hf8dc059306f7e32eE+0x3a8>
20005a7c:	8905                	andi	a0,a0,1
20005a7e:	f151                	bnez	a0,20005a02 <_ZN41_$LT$char$u20$as$u20$core..fmt..Debug$GT$3fmt17hf8dc059306f7e32eE+0x360>
20005a80:	001ae513          	ori	a0,s5,1
20005a84:	00155593          	srli	a1,a0,0x1
20005a88:	8d4d                	or	a0,a0,a1
20005a8a:	00255593          	srli	a1,a0,0x2
20005a8e:	8d4d                	or	a0,a0,a1
20005a90:	00455593          	srli	a1,a0,0x4
20005a94:	8d4d                	or	a0,a0,a1
20005a96:	00855593          	srli	a1,a0,0x8
20005a9a:	8d4d                	or	a0,a0,a1
20005a9c:	01055593          	srli	a1,a0,0x10
20005aa0:	8d4d                	or	a0,a0,a1
20005aa2:	555555b7          	lui	a1,0x55555
20005aa6:	55558593          	addi	a1,a1,1365 # 55555555 <_sapps+0x35525555>
20005aaa:	fff54513          	not	a0,a0
20005aae:	00155613          	srli	a2,a0,0x1
20005ab2:	8df1                	and	a1,a1,a2
20005ab4:	8d0d                	sub	a0,a0,a1
20005ab6:	333335b7          	lui	a1,0x33333
20005aba:	33358593          	addi	a1,a1,819 # 33333333 <_sapps+0x13303333>
20005abe:	00b57633          	and	a2,a0,a1
20005ac2:	8109                	srli	a0,a0,0x2
20005ac4:	8d6d                	and	a0,a0,a1
20005ac6:	9532                	add	a0,a0,a2
20005ac8:	00455593          	srli	a1,a0,0x4
20005acc:	952e                	add	a0,a0,a1
20005ace:	0f0f15b7          	lui	a1,0xf0f1
20005ad2:	f0f58593          	addi	a1,a1,-241 # f0f0f0f <.Lline_table_start0+0xf0deea0>
20005ad6:	8d6d                	and	a0,a0,a1
20005ad8:	010105b7          	lui	a1,0x1010
20005adc:	10158593          	addi	a1,a1,257 # 1010101 <.Lline_table_start0+0xffe092>
20005ae0:	02b50533          	mul	a0,a0,a1
20005ae4:	498d                	li	s3,3
20005ae6:	4495                	li	s1,5
20005ae8:	8169                	srli	a0,a0,0x1a
20005aea:	00754a13          	xori	s4,a0,7
20005aee:	b991                	j	20005742 <_ZN41_$LT$char$u20$as$u20$core..fmt..Debug$GT$3fmt17hf8dc059306f7e32eE+0xa0>
20005af0:	10001537          	lui	a0,0x10001
20005af4:	53850513          	addi	a0,a0,1336 # 10001538 <.Lanon.f9bb9288c9d7617347bc8817bc65a1df.315>
20005af8:	08b00613          	li	a2,139
20005afc:	fffff097          	auipc	ra,0xfffff
20005b00:	02c080e7          	jalr	44(ra) # 20004b28 <_ZN4core9panicking18panic_bounds_check17h95c8cd8536e82dafE>
20005b04:	00009097          	auipc	ra,0x9
20005b08:	0d8080e7          	jalr	216(ra) # 2000ebdc <abort>
20005b0c:	fffff097          	auipc	ra,0xfffff
20005b10:	56a080e7          	jalr	1386(ra) # 20005076 <_ZN4core5slice22slice_index_order_fail17hc5e99223d4aacee0E>
20005b14:	00009097          	auipc	ra,0x9
20005b18:	0c8080e7          	jalr	200(ra) # 2000ebdc <abort>
20005b1c:	10001537          	lui	a0,0x10001
20005b20:	52850513          	addi	a0,a0,1320 # 10001528 <.Lanon.f9bb9288c9d7617347bc8817bc65a1df.314>
20005b24:	467d                	li	a2,31
20005b26:	fffff097          	auipc	ra,0xfffff
20005b2a:	002080e7          	jalr	2(ra) # 20004b28 <_ZN4core9panicking18panic_bounds_check17h95c8cd8536e82dafE>
20005b2e:	00009097          	auipc	ra,0x9
20005b32:	0ae080e7          	jalr	174(ra) # 2000ebdc <abort>
20005b36:	852e                	mv	a0,a1
20005b38:	0a600593          	li	a1,166
20005b3c:	fffff097          	auipc	ra,0xfffff
20005b40:	4cc080e7          	jalr	1228(ra) # 20005008 <_ZN4core5slice20slice_index_len_fail17hf0dbc09a97ba34feE>
20005b44:	00009097          	auipc	ra,0x9
20005b48:	098080e7          	jalr	152(ra) # 2000ebdc <abort>
20005b4c:	852e                	mv	a0,a1
20005b4e:	12500593          	li	a1,293
20005b52:	fffff097          	auipc	ra,0xfffff
20005b56:	4b6080e7          	jalr	1206(ra) # 20005008 <_ZN4core5slice20slice_index_len_fail17hf0dbc09a97ba34feE>
20005b5a:	00009097          	auipc	ra,0x9
20005b5e:	082080e7          	jalr	130(ra) # 2000ebdc <abort>
20005b62:	2000d537          	lui	a0,0x2000d
20005b66:	dc450513          	addi	a0,a0,-572 # 2000cdc4 <.Lanon.f9bb9288c9d7617347bc8817bc65a1df.159>
20005b6a:	100015b7          	lui	a1,0x10001
20005b6e:	54858613          	addi	a2,a1,1352 # 10001548 <.Lanon.f9bb9288c9d7617347bc8817bc65a1df.306>
20005b72:	02b00593          	li	a1,43
20005b76:	fffff097          	auipc	ra,0xfffff
20005b7a:	f6a080e7          	jalr	-150(ra) # 20004ae0 <_ZN4core9panicking5panic17haaa649c2263e8176E>
20005b7e:	00009097          	auipc	ra,0x9
20005b82:	05e080e7          	jalr	94(ra) # 2000ebdc <abort>

20005b86 <_ZN71_$LT$core..ops..range..Range$LT$Idx$GT$$u20$as$u20$core..fmt..Debug$GT$3fmt17h17e435cc4a8167ccE>:
20005b86:	7179                	addi	sp,sp,-48
20005b88:	d606                	sw	ra,44(sp)
20005b8a:	d422                	sw	s0,40(sp)
20005b8c:	d226                	sw	s1,36(sp)
20005b8e:	d04a                	sw	s2,32(sp)
20005b90:	1800                	addi	s0,sp,48
20005b92:	84ae                	mv	s1,a1
20005b94:	892a                	mv	s2,a0
20005b96:	4108                	lw	a0,0(a0)
20005b98:	00000097          	auipc	ra,0x0
20005b9c:	068080e7          	jalr	104(ra) # 20005c00 <_ZN4core3fmt3num52_$LT$impl$u20$core..fmt..Debug$u20$for$u20$usize$GT$3fmt17h4897d1a82261d490E.495>
20005ba0:	ed0d                	bnez	a0,20005bda <_ZN71_$LT$core..ops..range..Range$LT$Idx$GT$$u20$as$u20$core..fmt..Debug$GT$3fmt17h17e435cc4a8167ccE+0x54>
20005ba2:	4ccc                	lw	a1,28(s1)
20005ba4:	4c88                	lw	a0,24(s1)
20005ba6:	2000e637          	lui	a2,0x2000e
20005baa:	00c60613          	addi	a2,a2,12 # 2000e00c <.Lanon.d9778860540cf11319bb138777b2a7cb.67>
20005bae:	fec42423          	sw	a2,-24(s0)
20005bb2:	4605                	li	a2,1
20005bb4:	fcc42e23          	sw	a2,-36(s0)
20005bb8:	10001637          	lui	a2,0x10001
20005bbc:	50060613          	addi	a2,a2,1280 # 10001500 <.Lanon.f9bb9288c9d7617347bc8817bc65a1df.126>
20005bc0:	fcc42c23          	sw	a2,-40(s0)
20005bc4:	fe042623          	sw	zero,-20(s0)
20005bc8:	fe042023          	sw	zero,-32(s0)
20005bcc:	fd840613          	addi	a2,s0,-40
20005bd0:	00000097          	auipc	ra,0x0
20005bd4:	0fa080e7          	jalr	250(ra) # 20005cca <_ZN4core3fmt5write17hb7761afb3ce3b207E>
20005bd8:	c901                	beqz	a0,20005be8 <_ZN71_$LT$core..ops..range..Range$LT$Idx$GT$$u20$as$u20$core..fmt..Debug$GT$3fmt17h17e435cc4a8167ccE+0x62>
20005bda:	4505                	li	a0,1
20005bdc:	5902                	lw	s2,32(sp)
20005bde:	5492                	lw	s1,36(sp)
20005be0:	5422                	lw	s0,40(sp)
20005be2:	50b2                	lw	ra,44(sp)
20005be4:	6145                	addi	sp,sp,48
20005be6:	8082                	ret
20005be8:	00492503          	lw	a0,4(s2)
20005bec:	85a6                	mv	a1,s1
20005bee:	5902                	lw	s2,32(sp)
20005bf0:	5492                	lw	s1,36(sp)
20005bf2:	5422                	lw	s0,40(sp)
20005bf4:	50b2                	lw	ra,44(sp)
20005bf6:	6145                	addi	sp,sp,48
20005bf8:	00000317          	auipc	t1,0x0
20005bfc:	00830067          	jr	8(t1) # 20005c00 <_ZN4core3fmt3num52_$LT$impl$u20$core..fmt..Debug$u20$for$u20$usize$GT$3fmt17h4897d1a82261d490E.495>

20005c00 <_ZN4core3fmt3num52_$LT$impl$u20$core..fmt..Debug$u20$for$u20$usize$GT$3fmt17h4897d1a82261d490E.495>:
20005c00:	7175                	addi	sp,sp,-144
20005c02:	c706                	sw	ra,140(sp)
20005c04:	c522                	sw	s0,136(sp)
20005c06:	0900                	addi	s0,sp,144
20005c08:	4190                	lw	a2,0(a1)
20005c0a:	01067693          	andi	a3,a2,16
20005c0e:	ea89                	bnez	a3,20005c20 <_ZN4core3fmt3num52_$LT$impl$u20$core..fmt..Debug$u20$for$u20$usize$GT$3fmt17h4897d1a82261d490E.495+0x20>
20005c10:	02067613          	andi	a2,a2,32
20005c14:	ee15                	bnez	a2,20005c50 <_ZN4core3fmt3num52_$LT$impl$u20$core..fmt..Debug$u20$for$u20$usize$GT$3fmt17h4897d1a82261d490E.495+0x50>
20005c16:	fffff097          	auipc	ra,0xfffff
20005c1a:	000080e7          	jalr	ra # 20004c16 <_ZN4core3fmt3num3imp7fmt_u3217hdb269d4aad7dde49E>
20005c1e:	a841                	j	20005cae <_ZN4core3fmt3num52_$LT$impl$u20$core..fmt..Debug$u20$for$u20$usize$GT$3fmt17h4897d1a82261d490E.495+0xae>
20005c20:	4729                	li	a4,10
20005c22:	f7840813          	addi	a6,s0,-136
20005c26:	4681                	li	a3,0
20005c28:	00f57793          	andi	a5,a0,15
20005c2c:	00e7ef63          	bltu	a5,a4,20005c4a <_ZN4core3fmt3num52_$LT$impl$u20$core..fmt..Debug$u20$for$u20$usize$GT$3fmt17h4897d1a82261d490E.495+0x4a>
20005c30:	05778793          	addi	a5,a5,87
20005c34:	00d80633          	add	a2,a6,a3
20005c38:	06f60fa3          	sb	a5,127(a2)
20005c3c:	16fd                	addi	a3,a3,-1
20005c3e:	8111                	srli	a0,a0,0x4
20005c40:	c121                	beqz	a0,20005c80 <_ZN4core3fmt3num52_$LT$impl$u20$core..fmt..Debug$u20$for$u20$usize$GT$3fmt17h4897d1a82261d490E.495+0x80>
20005c42:	00f57793          	andi	a5,a0,15
20005c46:	fee7f5e3          	bgeu	a5,a4,20005c30 <_ZN4core3fmt3num52_$LT$impl$u20$core..fmt..Debug$u20$for$u20$usize$GT$3fmt17h4897d1a82261d490E.495+0x30>
20005c4a:	0307e793          	ori	a5,a5,48
20005c4e:	b7dd                	j	20005c34 <_ZN4core3fmt3num52_$LT$impl$u20$core..fmt..Debug$u20$for$u20$usize$GT$3fmt17h4897d1a82261d490E.495+0x34>
20005c50:	4729                	li	a4,10
20005c52:	f7840813          	addi	a6,s0,-136
20005c56:	4681                	li	a3,0
20005c58:	00f57793          	andi	a5,a0,15
20005c5c:	00e7ef63          	bltu	a5,a4,20005c7a <_ZN4core3fmt3num52_$LT$impl$u20$core..fmt..Debug$u20$for$u20$usize$GT$3fmt17h4897d1a82261d490E.495+0x7a>
20005c60:	03778793          	addi	a5,a5,55
20005c64:	00d80633          	add	a2,a6,a3
20005c68:	06f60fa3          	sb	a5,127(a2)
20005c6c:	16fd                	addi	a3,a3,-1
20005c6e:	8111                	srli	a0,a0,0x4
20005c70:	c901                	beqz	a0,20005c80 <_ZN4core3fmt3num52_$LT$impl$u20$core..fmt..Debug$u20$for$u20$usize$GT$3fmt17h4897d1a82261d490E.495+0x80>
20005c72:	00f57793          	andi	a5,a0,15
20005c76:	fee7f5e3          	bgeu	a5,a4,20005c60 <_ZN4core3fmt3num52_$LT$impl$u20$core..fmt..Debug$u20$for$u20$usize$GT$3fmt17h4897d1a82261d490E.495+0x60>
20005c7a:	0307e793          	ori	a5,a5,48
20005c7e:	b7dd                	j	20005c64 <_ZN4core3fmt3num52_$LT$impl$u20$core..fmt..Debug$u20$for$u20$usize$GT$3fmt17h4897d1a82261d490E.495+0x64>
20005c80:	08068513          	addi	a0,a3,128
20005c84:	08100613          	li	a2,129
20005c88:	02c57763          	bgeu	a0,a2,20005cb6 <_ZN4core3fmt3num52_$LT$impl$u20$core..fmt..Debug$u20$for$u20$usize$GT$3fmt17h4897d1a82261d490E.495+0xb6>
20005c8c:	40d00733          	neg	a4,a3
20005c90:	00d80533          	add	a0,a6,a3
20005c94:	08050693          	addi	a3,a0,128
20005c98:	2000d537          	lui	a0,0x2000d
20005c9c:	e5550613          	addi	a2,a0,-427 # 2000ce55 <.Lanon.f9bb9288c9d7617347bc8817bc65a1df.202>
20005ca0:	852e                	mv	a0,a1
20005ca2:	85b2                	mv	a1,a2
20005ca4:	4609                	li	a2,2
20005ca6:	fffff097          	auipc	ra,0xfffff
20005caa:	0e4080e7          	jalr	228(ra) # 20004d8a <_ZN4core3fmt9Formatter12pad_integral17hf11ba08f895f8514E>
20005cae:	442a                	lw	s0,136(sp)
20005cb0:	40ba                	lw	ra,140(sp)
20005cb2:	6149                	addi	sp,sp,144
20005cb4:	8082                	ret
20005cb6:	08000593          	li	a1,128
20005cba:	fffff097          	auipc	ra,0xfffff
20005cbe:	3bc080e7          	jalr	956(ra) # 20005076 <_ZN4core5slice22slice_index_order_fail17hc5e99223d4aacee0E>
20005cc2:	00009097          	auipc	ra,0x9
20005cc6:	f1a080e7          	jalr	-230(ra) # 2000ebdc <abort>

20005cca <_ZN4core3fmt5write17hb7761afb3ce3b207E>:
20005cca:	711d                	addi	sp,sp,-96
20005ccc:	ce86                	sw	ra,92(sp)
20005cce:	cca2                	sw	s0,88(sp)
20005cd0:	caa6                	sw	s1,84(sp)
20005cd2:	c8ca                	sw	s2,80(sp)
20005cd4:	c6ce                	sw	s3,76(sp)
20005cd6:	c4d2                	sw	s4,72(sp)
20005cd8:	c2d6                	sw	s5,68(sp)
20005cda:	c0da                	sw	s6,64(sp)
20005cdc:	de5e                	sw	s7,60(sp)
20005cde:	dc62                	sw	s8,56(sp)
20005ce0:	da66                	sw	s9,52(sp)
20005ce2:	d86a                	sw	s10,48(sp)
20005ce4:	d66e                	sw	s11,44(sp)
20005ce6:	1080                	addi	s0,sp,96
20005ce8:	468d                	li	a3,3
20005cea:	fcd40423          	sb	a3,-56(s0)
20005cee:	02000693          	li	a3,32
20005cf2:	fad42623          	sw	a3,-84(s0)
20005cf6:	fcb42223          	sw	a1,-60(s0)
20005cfa:	fca42023          	sw	a0,-64(s0)
20005cfe:	fa042423          	sw	zero,-88(s0)
20005d02:	fa042c23          	sw	zero,-72(s0)
20005d06:	fa042823          	sw	zero,-80(s0)
20005d0a:	4604                	lw	s1,8(a2)
20005d0c:	10048463          	beqz	s1,20005e14 <_ZN4core3fmt5write17hb7761afb3ce3b207E+0x14a>
20005d10:	4654                	lw	a3,12(a2)
20005d12:	00462a03          	lw	s4,4(a2)
20005d16:	8bd2                	mv	s7,s4
20005d18:	00da6363          	bltu	s4,a3,20005d1e <_ZN4core3fmt5write17hb7761afb3ce3b207E+0x54>
20005d1c:	8bb6                	mv	s7,a3
20005d1e:	00062a83          	lw	s5,0(a2)
20005d22:	140b8b63          	beqz	s7,20005e78 <_ZN4core3fmt5write17hb7761afb3ce3b207E+0x1ae>
20005d26:	01462983          	lw	s3,20(a2)
20005d2a:	01062c03          	lw	s8,16(a2)
20005d2e:	45d4                	lw	a3,12(a1)
20005d30:	004aa603          	lw	a2,4(s5)
20005d34:	000aa583          	lw	a1,0(s5)
20005d38:	9682                	jalr	a3
20005d3a:	4b05                	li	s6,1
20005d3c:	14051f63          	bnez	a0,20005e9a <_ZN4core3fmt5write17hb7761afb3ce3b207E+0x1d0>
20005d40:	4c85                	li	s9,1
20005d42:	04c1                	addi	s1,s1,16
20005d44:	00ca8d13          	addi	s10,s5,12
20005d48:	4d89                	li	s11,2
20005d4a:	20005537          	lui	a0,0x20005
20005d4e:	ad050913          	addi	s2,a0,-1328 # 20004ad0 <_ZN4core3ops8function6FnOnce9call_once17hf4a3437c2e17fa1eE>
20005d52:	ff44a503          	lw	a0,-12(s1)
20005d56:	faa42623          	sw	a0,-84(s0)
20005d5a:	00c48503          	lb	a0,12(s1)
20005d5e:	fca40423          	sb	a0,-56(s0)
20005d62:	ff84a503          	lw	a0,-8(s1)
20005d66:	faa42423          	sw	a0,-88(s0)
20005d6a:	448c                	lw	a1,8(s1)
20005d6c:	40d0                	lw	a2,4(s1)
20005d6e:	c20d                	beqz	a2,20005d90 <_ZN4core3fmt5write17hb7761afb3ce3b207E+0xc6>
20005d70:	4501                	li	a0,0
20005d72:	03b60263          	beq	a2,s11,20005d96 <_ZN4core3fmt5write17hb7761afb3ce3b207E+0xcc>
20005d76:	1535f763          	bgeu	a1,s3,20005ec4 <_ZN4core3fmt5write17hb7761afb3ce3b207E+0x1fa>
20005d7a:	00359513          	slli	a0,a1,0x3
20005d7e:	00ac05b3          	add	a1,s8,a0
20005d82:	41c8                	lw	a0,4(a1)
20005d84:	01251863          	bne	a0,s2,20005d94 <_ZN4core3fmt5write17hb7761afb3ce3b207E+0xca>
20005d88:	4505                	li	a0,1
20005d8a:	418c                	lw	a1,0(a1)
20005d8c:	418c                	lw	a1,0(a1)
20005d8e:	a021                	j	20005d96 <_ZN4core3fmt5write17hb7761afb3ce3b207E+0xcc>
20005d90:	4505                	li	a0,1
20005d92:	a011                	j	20005d96 <_ZN4core3fmt5write17hb7761afb3ce3b207E+0xcc>
20005d94:	4501                	li	a0,0
20005d96:	fab42a23          	sw	a1,-76(s0)
20005d9a:	faa42823          	sw	a0,-80(s0)
20005d9e:	408c                	lw	a1,0(s1)
20005da0:	ffc4a603          	lw	a2,-4(s1)
20005da4:	c20d                	beqz	a2,20005dc6 <_ZN4core3fmt5write17hb7761afb3ce3b207E+0xfc>
20005da6:	4501                	li	a0,0
20005da8:	03b60263          	beq	a2,s11,20005dcc <_ZN4core3fmt5write17hb7761afb3ce3b207E+0x102>
20005dac:	1135fc63          	bgeu	a1,s3,20005ec4 <_ZN4core3fmt5write17hb7761afb3ce3b207E+0x1fa>
20005db0:	00359513          	slli	a0,a1,0x3
20005db4:	00ac05b3          	add	a1,s8,a0
20005db8:	41c8                	lw	a0,4(a1)
20005dba:	01251863          	bne	a0,s2,20005dca <_ZN4core3fmt5write17hb7761afb3ce3b207E+0x100>
20005dbe:	4505                	li	a0,1
20005dc0:	418c                	lw	a1,0(a1)
20005dc2:	418c                	lw	a1,0(a1)
20005dc4:	a021                	j	20005dcc <_ZN4core3fmt5write17hb7761afb3ce3b207E+0x102>
20005dc6:	4505                	li	a0,1
20005dc8:	a011                	j	20005dcc <_ZN4core3fmt5write17hb7761afb3ce3b207E+0x102>
20005dca:	4501                	li	a0,0
20005dcc:	fab42e23          	sw	a1,-68(s0)
20005dd0:	faa42c23          	sw	a0,-72(s0)
20005dd4:	ff04a583          	lw	a1,-16(s1)
20005dd8:	0f35f163          	bgeu	a1,s3,20005eba <_ZN4core3fmt5write17hb7761afb3ce3b207E+0x1f0>
20005ddc:	00359513          	slli	a0,a1,0x3
20005de0:	9562                	add	a0,a0,s8
20005de2:	4150                	lw	a2,4(a0)
20005de4:	4108                	lw	a0,0(a0)
20005de6:	fa840593          	addi	a1,s0,-88
20005dea:	9602                	jalr	a2
20005dec:	4b05                	li	s6,1
20005dee:	e555                	bnez	a0,20005e9a <_ZN4core3fmt5write17hb7761afb3ce3b207E+0x1d0>
20005df0:	097cf563          	bgeu	s9,s7,20005e7a <_ZN4core3fmt5write17hb7761afb3ce3b207E+0x1b0>
20005df4:	fc442503          	lw	a0,-60(s0)
20005df8:	4554                	lw	a3,12(a0)
20005dfa:	000d2603          	lw	a2,0(s10)
20005dfe:	ffcd2583          	lw	a1,-4(s10)
20005e02:	fc042503          	lw	a0,-64(s0)
20005e06:	9682                	jalr	a3
20005e08:	02048493          	addi	s1,s1,32
20005e0c:	0d21                	addi	s10,s10,8
20005e0e:	0c85                	addi	s9,s9,1
20005e10:	d129                	beqz	a0,20005d52 <_ZN4core3fmt5write17hb7761afb3ce3b207E+0x88>
20005e12:	a061                	j	20005e9a <_ZN4core3fmt5write17hb7761afb3ce3b207E+0x1d0>
20005e14:	4a54                	lw	a3,20(a2)
20005e16:	00462a03          	lw	s4,4(a2)
20005e1a:	89d2                	mv	s3,s4
20005e1c:	00da6363          	bltu	s4,a3,20005e22 <_ZN4core3fmt5write17hb7761afb3ce3b207E+0x158>
20005e20:	89b6                	mv	s3,a3
20005e22:	00062a83          	lw	s5,0(a2)
20005e26:	04098963          	beqz	s3,20005e78 <_ZN4core3fmt5write17hb7761afb3ce3b207E+0x1ae>
20005e2a:	4a04                	lw	s1,16(a2)
20005e2c:	45d4                	lw	a3,12(a1)
20005e2e:	004aa603          	lw	a2,4(s5)
20005e32:	000aa583          	lw	a1,0(s5)
20005e36:	9682                	jalr	a3
20005e38:	4b05                	li	s6,1
20005e3a:	e125                	bnez	a0,20005e9a <_ZN4core3fmt5write17hb7761afb3ce3b207E+0x1d0>
20005e3c:	4b05                	li	s6,1
20005e3e:	0491                	addi	s1,s1,4
20005e40:	00ca8b93          	addi	s7,s5,12
20005e44:	fa840913          	addi	s2,s0,-88
20005e48:	4c85                	li	s9,1
20005e4a:	ffc4a503          	lw	a0,-4(s1)
20005e4e:	4090                	lw	a2,0(s1)
20005e50:	85ca                	mv	a1,s2
20005e52:	9602                	jalr	a2
20005e54:	e139                	bnez	a0,20005e9a <_ZN4core3fmt5write17hb7761afb3ce3b207E+0x1d0>
20005e56:	033cf263          	bgeu	s9,s3,20005e7a <_ZN4core3fmt5write17hb7761afb3ce3b207E+0x1b0>
20005e5a:	fc442503          	lw	a0,-60(s0)
20005e5e:	4554                	lw	a3,12(a0)
20005e60:	000ba603          	lw	a2,0(s7)
20005e64:	ffcba583          	lw	a1,-4(s7)
20005e68:	fc042503          	lw	a0,-64(s0)
20005e6c:	9682                	jalr	a3
20005e6e:	04a1                	addi	s1,s1,8
20005e70:	0ba1                	addi	s7,s7,8
20005e72:	0c85                	addi	s9,s9,1
20005e74:	d979                	beqz	a0,20005e4a <_ZN4core3fmt5write17hb7761afb3ce3b207E+0x180>
20005e76:	a015                	j	20005e9a <_ZN4core3fmt5write17hb7761afb3ce3b207E+0x1d0>
20005e78:	4c81                	li	s9,0
20005e7a:	014cff63          	bgeu	s9,s4,20005e98 <_ZN4core3fmt5write17hb7761afb3ce3b207E+0x1ce>
20005e7e:	003c9513          	slli	a0,s9,0x3
20005e82:	9556                	add	a0,a0,s5
20005e84:	4150                	lw	a2,4(a0)
20005e86:	410c                	lw	a1,0(a0)
20005e88:	fc442503          	lw	a0,-60(s0)
20005e8c:	4554                	lw	a3,12(a0)
20005e8e:	fc042503          	lw	a0,-64(s0)
20005e92:	9682                	jalr	a3
20005e94:	4b05                	li	s6,1
20005e96:	e111                	bnez	a0,20005e9a <_ZN4core3fmt5write17hb7761afb3ce3b207E+0x1d0>
20005e98:	4b01                	li	s6,0
20005e9a:	855a                	mv	a0,s6
20005e9c:	5db2                	lw	s11,44(sp)
20005e9e:	5d42                	lw	s10,48(sp)
20005ea0:	5cd2                	lw	s9,52(sp)
20005ea2:	5c62                	lw	s8,56(sp)
20005ea4:	5bf2                	lw	s7,60(sp)
20005ea6:	4b06                	lw	s6,64(sp)
20005ea8:	4a96                	lw	s5,68(sp)
20005eaa:	4a26                	lw	s4,72(sp)
20005eac:	49b6                	lw	s3,76(sp)
20005eae:	4946                	lw	s2,80(sp)
20005eb0:	44d6                	lw	s1,84(sp)
20005eb2:	4466                	lw	s0,88(sp)
20005eb4:	40f6                	lw	ra,92(sp)
20005eb6:	6125                	addi	sp,sp,96
20005eb8:	8082                	ret
20005eba:	10001537          	lui	a0,0x10001
20005ebe:	51850513          	addi	a0,a0,1304 # 10001518 <.Lanon.f9bb9288c9d7617347bc8817bc65a1df.208>
20005ec2:	a029                	j	20005ecc <_ZN4core3fmt5write17hb7761afb3ce3b207E+0x202>
20005ec4:	10001537          	lui	a0,0x10001
20005ec8:	50850513          	addi	a0,a0,1288 # 10001508 <.Lanon.f9bb9288c9d7617347bc8817bc65a1df.209>
20005ecc:	864e                	mv	a2,s3
20005ece:	fffff097          	auipc	ra,0xfffff
20005ed2:	c5a080e7          	jalr	-934(ra) # 20004b28 <_ZN4core9panicking18panic_bounds_check17h95c8cd8536e82dafE>
20005ed6:	00009097          	auipc	ra,0x9
20005eda:	d06080e7          	jalr	-762(ra) # 2000ebdc <abort>

20005ede <_ZN4core6option13expect_failed17h88e0a9ad8faed78dE>:
20005ede:	7179                	addi	sp,sp,-48
20005ee0:	d606                	sw	ra,44(sp)
20005ee2:	d422                	sw	s0,40(sp)
20005ee4:	1800                	addi	s0,sp,48
20005ee6:	fcb42a23          	sw	a1,-44(s0)
20005eea:	fca42823          	sw	a0,-48(s0)
20005eee:	ff040513          	addi	a0,s0,-16
20005ef2:	fea42423          	sw	a0,-24(s0)
20005ef6:	fe042023          	sw	zero,-32(s0)
20005efa:	4505                	li	a0,1
20005efc:	fea42623          	sw	a0,-20(s0)
20005f00:	fca42e23          	sw	a0,-36(s0)
20005f04:	10002537          	lui	a0,0x10002
20005f08:	94c50513          	addi	a0,a0,-1716 # 1000194c <.L__unnamed_36>
20005f0c:	fca42c23          	sw	a0,-40(s0)
20005f10:	20005537          	lui	a0,0x20005
20005f14:	68450513          	addi	a0,a0,1668 # 20005684 <_ZN44_$LT$$RF$T$u20$as$u20$core..fmt..Display$GT$3fmt17hf8da186eb6d06736E>
20005f18:	fea42a23          	sw	a0,-12(s0)
20005f1c:	fd040513          	addi	a0,s0,-48
20005f20:	fea42823          	sw	a0,-16(s0)
20005f24:	fd840513          	addi	a0,s0,-40
20005f28:	85b2                	mv	a1,a2
20005f2a:	fffff097          	auipc	ra,0xfffff
20005f2e:	c80080e7          	jalr	-896(ra) # 20004baa <_ZN4core9panicking9panic_fmt17he3c5aeb68fe54ef4E>
20005f32:	00009097          	auipc	ra,0x9
20005f36:	caa080e7          	jalr	-854(ra) # 2000ebdc <abort>

20005f3a <_ZN68_$LT$core..fmt..builders..PadAdapter$u20$as$u20$core..fmt..Write$GT$9write_str17hffa12f87962bf2ebE>:
20005f3a:	711d                	addi	sp,sp,-96
20005f3c:	ce86                	sw	ra,92(sp)
20005f3e:	cca2                	sw	s0,88(sp)
20005f40:	caa6                	sw	s1,84(sp)
20005f42:	c8ca                	sw	s2,80(sp)
20005f44:	c6ce                	sw	s3,76(sp)
20005f46:	c4d2                	sw	s4,72(sp)
20005f48:	c2d6                	sw	s5,68(sp)
20005f4a:	c0da                	sw	s6,64(sp)
20005f4c:	de5e                	sw	s7,60(sp)
20005f4e:	dc62                	sw	s8,56(sp)
20005f50:	da66                	sw	s9,52(sp)
20005f52:	d86a                	sw	s10,48(sp)
20005f54:	d66e                	sw	s11,44(sp)
20005f56:	1080                	addi	s0,sp,96
20005f58:	16060363          	beqz	a2,200060be <_ZN68_$LT$core..fmt..builders..PadAdapter$u20$as$u20$core..fmt..Write$GT$9write_str17hffa12f87962bf2ebE+0x184>
20005f5c:	8b32                	mv	s6,a2
20005f5e:	892e                	mv	s2,a1
20005f60:	89aa                	mv	s3,a0
20005f62:	fc840a13          	addi	s4,s0,-56
20005f66:	4ba9                	li	s7,10
20005f68:	4c05                	li	s8,1
20005f6a:	fb040c93          	addi	s9,s0,-80
20005f6e:	2000c537          	lui	a0,0x2000c
20005f72:	e4050513          	addi	a0,a0,-448 # 2000be40 <.L__unnamed_74+0x5>
20005f76:	faa42623          	sw	a0,-84(s0)
20005f7a:	a031                	j	20005f86 <_ZN68_$LT$core..fmt..builders..PadAdapter$u20$as$u20$core..fmt..Write$GT$9write_str17hffa12f87962bf2ebE+0x4c>
20005f7c:	409b0b33          	sub	s6,s6,s1
20005f80:	8956                	mv	s2,s5
20005f82:	120b0e63          	beqz	s6,200060be <_ZN68_$LT$core..fmt..builders..PadAdapter$u20$as$u20$core..fmt..Write$GT$9write_str17hffa12f87962bf2ebE+0x184>
20005f86:	0089a503          	lw	a0,8(s3)
20005f8a:	00054503          	lbu	a0,0(a0)
20005f8e:	cd01                	beqz	a0,20005fa6 <_ZN68_$LT$core..fmt..builders..PadAdapter$u20$as$u20$core..fmt..Write$GT$9write_str17hffa12f87962bf2ebE+0x6c>
20005f90:	0009a503          	lw	a0,0(s3)
20005f94:	0049a583          	lw	a1,4(s3)
20005f98:	45d4                	lw	a3,12(a1)
20005f9a:	fac42583          	lw	a1,-84(s0)
20005f9e:	4611                	li	a2,4
20005fa0:	9682                	jalr	a3
20005fa2:	12051063          	bnez	a0,200060c2 <_ZN68_$LT$core..fmt..builders..PadAdapter$u20$as$u20$core..fmt..Write$GT$9write_str17hffa12f87962bf2ebE+0x188>
20005fa6:	fa042c23          	sw	zero,-72(s0)
20005faa:	fd742423          	sw	s7,-56(s0)
20005fae:	fd842223          	sw	s8,-60(s0)
20005fb2:	fd742023          	sw	s7,-64(s0)
20005fb6:	fb642e23          	sw	s6,-68(s0)
20005fba:	fb642a23          	sw	s6,-76(s0)
20005fbe:	fb242823          	sw	s2,-80(s0)
20005fc2:	4529                	li	a0,10
20005fc4:	85ca                	mv	a1,s2
20005fc6:	865a                	mv	a2,s6
20005fc8:	00000097          	auipc	ra,0x0
20005fcc:	15e080e7          	jalr	350(ra) # 20006126 <_ZN4core5slice6memchr6memchr17hcca6ebe204ee3bfaE>
20005fd0:	07851f63          	bne	a0,s8,2000604e <_ZN68_$LT$core..fmt..builders..PadAdapter$u20$as$u20$core..fmt..Write$GT$9write_str17hffa12f87962bf2ebE+0x114>
20005fd4:	fb842503          	lw	a0,-72(s0)
20005fd8:	952e                	add	a0,a0,a1
20005fda:	00150d93          	addi	s11,a0,1
20005fde:	fbb42c23          	sw	s11,-72(s0)
20005fe2:	fc442483          	lw	s1,-60(s0)
20005fe6:	029dfa63          	bgeu	s11,s1,2000601a <_ZN68_$LT$core..fmt..builders..PadAdapter$u20$as$u20$core..fmt..Write$GT$9write_str17hffa12f87962bf2ebE+0xe0>
20005fea:	fb442a83          	lw	s5,-76(s0)
20005fee:	fbc42503          	lw	a0,-68(s0)
20005ff2:	07b56263          	bltu	a0,s11,20006056 <_ZN68_$LT$core..fmt..builders..PadAdapter$u20$as$u20$core..fmt..Write$GT$9write_str17hffa12f87962bf2ebE+0x11c>
20005ff6:	06aae063          	bltu	s5,a0,20006056 <_ZN68_$LT$core..fmt..builders..PadAdapter$u20$as$u20$core..fmt..Write$GT$9write_str17hffa12f87962bf2ebE+0x11c>
20005ffa:	fb042583          	lw	a1,-80(s0)
20005ffe:	95ee                	add	a1,a1,s11
20006000:	41b50633          	sub	a2,a0,s11
20006004:	01948533          	add	a0,s1,s9
20006008:	01750503          	lb	a0,23(a0)
2000600c:	00000097          	auipc	ra,0x0
20006010:	11a080e7          	jalr	282(ra) # 20006126 <_ZN4core5slice6memchr6memchr17hcca6ebe204ee3bfaE>
20006014:	fd8500e3          	beq	a0,s8,20005fd4 <_ZN68_$LT$core..fmt..builders..PadAdapter$u20$as$u20$core..fmt..Write$GT$9write_str17hffa12f87962bf2ebE+0x9a>
20006018:	a81d                	j	2000604e <_ZN68_$LT$core..fmt..builders..PadAdapter$u20$as$u20$core..fmt..Write$GT$9write_str17hffa12f87962bf2ebE+0x114>
2000601a:	fb442a83          	lw	s5,-76(s0)
2000601e:	03bae363          	bltu	s5,s11,20006044 <_ZN68_$LT$core..fmt..builders..PadAdapter$u20$as$u20$core..fmt..Write$GT$9write_str17hffa12f87962bf2ebE+0x10a>
20006022:	4515                	li	a0,5
20006024:	0aa4ff63          	bgeu	s1,a0,200060e2 <_ZN68_$LT$core..fmt..builders..PadAdapter$u20$as$u20$core..fmt..Write$GT$9write_str17hffa12f87962bf2ebE+0x1a8>
20006028:	409d8d33          	sub	s10,s11,s1
2000602c:	fb042503          	lw	a0,-80(s0)
20006030:	956a                	add	a0,a0,s10
20006032:	07450f63          	beq	a0,s4,200060b0 <_ZN68_$LT$core..fmt..builders..PadAdapter$u20$as$u20$core..fmt..Write$GT$9write_str17hffa12f87962bf2ebE+0x176>
20006036:	85d2                	mv	a1,s4
20006038:	8626                	mv	a2,s1
2000603a:	00005097          	auipc	ra,0x5
2000603e:	4e6080e7          	jalr	1254(ra) # 2000b520 <bcmp>
20006042:	c53d                	beqz	a0,200060b0 <_ZN68_$LT$core..fmt..builders..PadAdapter$u20$as$u20$core..fmt..Write$GT$9write_str17hffa12f87962bf2ebE+0x176>
20006044:	fbc42503          	lw	a0,-68(s0)
20006048:	fbb577e3          	bgeu	a0,s11,20005ff6 <_ZN68_$LT$core..fmt..builders..PadAdapter$u20$as$u20$core..fmt..Write$GT$9write_str17hffa12f87962bf2ebE+0xbc>
2000604c:	a029                	j	20006056 <_ZN68_$LT$core..fmt..builders..PadAdapter$u20$as$u20$core..fmt..Write$GT$9write_str17hffa12f87962bf2ebE+0x11c>
2000604e:	fbc42503          	lw	a0,-68(s0)
20006052:	faa42c23          	sw	a0,-72(s0)
20006056:	0089a503          	lw	a0,8(s3)
2000605a:	00050023          	sb	zero,0(a0)
2000605e:	84da                	mv	s1,s6
20006060:	009b4533          	xor	a0,s6,s1
20006064:	00153513          	seqz	a0,a0
20006068:	0014b593          	seqz	a1,s1
2000606c:	00a5edb3          	or	s11,a1,a0
20006070:	0049a583          	lw	a1,4(s3)
20006074:	0009a503          	lw	a0,0(s3)
20006078:	00990ab3          	add	s5,s2,s1
2000607c:	000d9a63          	bnez	s11,20006090 <_ZN68_$LT$core..fmt..builders..PadAdapter$u20$as$u20$core..fmt..Write$GT$9write_str17hffa12f87962bf2ebE+0x156>
20006080:	0764fb63          	bgeu	s1,s6,200060f6 <_ZN68_$LT$core..fmt..builders..PadAdapter$u20$as$u20$core..fmt..Write$GT$9write_str17hffa12f87962bf2ebE+0x1bc>
20006084:	000a8603          	lb	a2,0(s5)
20006088:	fbf00693          	li	a3,-65
2000608c:	06c6d563          	bge	a3,a2,200060f6 <_ZN68_$LT$core..fmt..builders..PadAdapter$u20$as$u20$core..fmt..Write$GT$9write_str17hffa12f87962bf2ebE+0x1bc>
20006090:	45d4                	lw	a3,12(a1)
20006092:	85ca                	mv	a1,s2
20006094:	8626                	mv	a2,s1
20006096:	9682                	jalr	a3
20006098:	e50d                	bnez	a0,200060c2 <_ZN68_$LT$core..fmt..builders..PadAdapter$u20$as$u20$core..fmt..Write$GT$9write_str17hffa12f87962bf2ebE+0x188>
2000609a:	ee0d91e3          	bnez	s11,20005f7c <_ZN68_$LT$core..fmt..builders..PadAdapter$u20$as$u20$core..fmt..Write$GT$9write_str17hffa12f87962bf2ebE+0x42>
2000609e:	0764f863          	bgeu	s1,s6,2000610e <_ZN68_$LT$core..fmt..builders..PadAdapter$u20$as$u20$core..fmt..Write$GT$9write_str17hffa12f87962bf2ebE+0x1d4>
200060a2:	000a8503          	lb	a0,0(s5)
200060a6:	fbf00593          	li	a1,-65
200060aa:	eca5c9e3          	blt	a1,a0,20005f7c <_ZN68_$LT$core..fmt..builders..PadAdapter$u20$as$u20$core..fmt..Write$GT$9write_str17hffa12f87962bf2ebE+0x42>
200060ae:	a085                	j	2000610e <_ZN68_$LT$core..fmt..builders..PadAdapter$u20$as$u20$core..fmt..Write$GT$9write_str17hffa12f87962bf2ebE+0x1d4>
200060b0:	0089a503          	lw	a0,8(s3)
200060b4:	01850023          	sb	s8,0(a0)
200060b8:	001d0493          	addi	s1,s10,1
200060bc:	b755                	j	20006060 <_ZN68_$LT$core..fmt..builders..PadAdapter$u20$as$u20$core..fmt..Write$GT$9write_str17hffa12f87962bf2ebE+0x126>
200060be:	4501                	li	a0,0
200060c0:	a011                	j	200060c4 <_ZN68_$LT$core..fmt..builders..PadAdapter$u20$as$u20$core..fmt..Write$GT$9write_str17hffa12f87962bf2ebE+0x18a>
200060c2:	4505                	li	a0,1
200060c4:	5db2                	lw	s11,44(sp)
200060c6:	5d42                	lw	s10,48(sp)
200060c8:	5cd2                	lw	s9,52(sp)
200060ca:	5c62                	lw	s8,56(sp)
200060cc:	5bf2                	lw	s7,60(sp)
200060ce:	4b06                	lw	s6,64(sp)
200060d0:	4a96                	lw	s5,68(sp)
200060d2:	4a26                	lw	s4,72(sp)
200060d4:	49b6                	lw	s3,76(sp)
200060d6:	4946                	lw	s2,80(sp)
200060d8:	44d6                	lw	s1,84(sp)
200060da:	4466                	lw	s0,88(sp)
200060dc:	40f6                	lw	ra,92(sp)
200060de:	6125                	addi	sp,sp,96
200060e0:	8082                	ret
200060e2:	8526                	mv	a0,s1
200060e4:	4591                	li	a1,4
200060e6:	fffff097          	auipc	ra,0xfffff
200060ea:	f22080e7          	jalr	-222(ra) # 20005008 <_ZN4core5slice20slice_index_len_fail17hf0dbc09a97ba34feE>
200060ee:	00009097          	auipc	ra,0x9
200060f2:	aee080e7          	jalr	-1298(ra) # 2000ebdc <abort>
200060f6:	854a                	mv	a0,s2
200060f8:	85da                	mv	a1,s6
200060fa:	4601                	li	a2,0
200060fc:	86a6                	mv	a3,s1
200060fe:	fffff097          	auipc	ra,0xfffff
20006102:	23c080e7          	jalr	572(ra) # 2000533a <_ZN4core3str16slice_error_fail17h7f8d3dbc156841e4E>
20006106:	00009097          	auipc	ra,0x9
2000610a:	ad6080e7          	jalr	-1322(ra) # 2000ebdc <abort>
2000610e:	854a                	mv	a0,s2
20006110:	85da                	mv	a1,s6
20006112:	8626                	mv	a2,s1
20006114:	86da                	mv	a3,s6
20006116:	fffff097          	auipc	ra,0xfffff
2000611a:	224080e7          	jalr	548(ra) # 2000533a <_ZN4core3str16slice_error_fail17h7f8d3dbc156841e4E>
2000611e:	00009097          	auipc	ra,0x9
20006122:	abe080e7          	jalr	-1346(ra) # 2000ebdc <abort>

20006126 <_ZN4core5slice6memchr6memchr17hcca6ebe204ee3bfaE>:
20006126:	1141                	addi	sp,sp,-16
20006128:	c606                	sw	ra,12(sp)
2000612a:	c422                	sw	s0,8(sp)
2000612c:	0800                	addi	s0,sp,16
2000612e:	86aa                	mv	a3,a0
20006130:	0035f713          	andi	a4,a1,3
20006134:	4501                	li	a0,0
20006136:	0ff6f393          	andi	t2,a3,255
2000613a:	cf15                	beqz	a4,20006176 <_ZN4core5slice6memchr6memchr17hcca6ebe204ee3bfaE+0x50>
2000613c:	4791                	li	a5,4
2000613e:	40e78733          	sub	a4,a5,a4
20006142:	cb15                	beqz	a4,20006176 <_ZN4core5slice6memchr6memchr17hcca6ebe204ee3bfaE+0x50>
20006144:	8532                	mv	a0,a2
20006146:	00e66363          	bltu	a2,a4,2000614c <_ZN4core5slice6memchr6memchr17hcca6ebe204ee3bfaE+0x26>
2000614a:	853a                	mv	a0,a4
2000614c:	4701                	li	a4,0
2000614e:	02e50463          	beq	a0,a4,20006176 <_ZN4core5slice6memchr6memchr17hcca6ebe204ee3bfaE+0x50>
20006152:	00e587b3          	add	a5,a1,a4
20006156:	0705                	addi	a4,a4,1
20006158:	0007c783          	lbu	a5,0(a5)
2000615c:	fe7799e3          	bne	a5,t2,2000614e <_ZN4core5slice6memchr6memchr17hcca6ebe204ee3bfaE+0x28>
20006160:	0077c533          	xor	a0,a5,t2
20006164:	00153513          	seqz	a0,a0
20006168:	0505                	addi	a0,a0,1
2000616a:	8905                	andi	a0,a0,1
2000616c:	953a                	add	a0,a0,a4
2000616e:	4605                	li	a2,1
20006170:	fff50593          	addi	a1,a0,-1
20006174:	a861                	j	2000620c <_ZN4core5slice6memchr6memchr17hcca6ebe204ee3bfaE+0xe6>
20006176:	4721                	li	a4,8
20006178:	06e66163          	bltu	a2,a4,200061da <_ZN4core5slice6memchr6memchr17hcca6ebe204ee3bfaE+0xb4>
2000617c:	ff860813          	addi	a6,a2,-8
20006180:	04a86d63          	bltu	a6,a0,200061da <_ZN4core5slice6memchr6memchr17hcca6ebe204ee3bfaE+0xb4>
20006184:	01010737          	lui	a4,0x1010
20006188:	10170713          	addi	a4,a4,257 # 1010101 <.Lline_table_start0+0xffe092>
2000618c:	02e388b3          	mul	a7,t2,a4
20006190:	80808737          	lui	a4,0x80808
20006194:	08070293          	addi	t0,a4,128 # 80808080 <_sapps+0x607d8080>
20006198:	feff07b7          	lui	a5,0xfeff0
2000619c:	eff78313          	addi	t1,a5,-257 # fefefeff <_sapps+0xdefbfeff>
200061a0:	00a58733          	add	a4,a1,a0
200061a4:	431c                	lw	a5,0(a4)
200061a6:	0117c7b3          	xor	a5,a5,a7
200061aa:	006786b3          	add	a3,a5,t1
200061ae:	fff7c793          	not	a5,a5
200061b2:	0057f7b3          	and	a5,a5,t0
200061b6:	8efd                	and	a3,a3,a5
200061b8:	4358                	lw	a4,4(a4)
200061ba:	01174733          	xor	a4,a4,a7
200061be:	006707b3          	add	a5,a4,t1
200061c2:	fff74713          	not	a4,a4
200061c6:	00577733          	and	a4,a4,t0
200061ca:	8f7d                	and	a4,a4,a5
200061cc:	8ed9                	or	a3,a3,a4
200061ce:	e681                	bnez	a3,200061d6 <_ZN4core5slice6memchr6memchr17hcca6ebe204ee3bfaE+0xb0>
200061d0:	0521                	addi	a0,a0,8
200061d2:	fca877e3          	bgeu	a6,a0,200061a0 <_ZN4core5slice6memchr6memchr17hcca6ebe204ee3bfaE+0x7a>
200061d6:	04a66063          	bltu	a2,a0,20006216 <_ZN4core5slice6memchr6memchr17hcca6ebe204ee3bfaE+0xf0>
200061da:	8e09                	sub	a2,a2,a0
200061dc:	00a58733          	add	a4,a1,a0
200061e0:	4581                	li	a1,0
200061e2:	02b60363          	beq	a2,a1,20006208 <_ZN4core5slice6memchr6memchr17hcca6ebe204ee3bfaE+0xe2>
200061e6:	00b706b3          	add	a3,a4,a1
200061ea:	0585                	addi	a1,a1,1
200061ec:	0006c783          	lbu	a5,0(a3)
200061f0:	fe7799e3          	bne	a5,t2,200061e2 <_ZN4core5slice6memchr6memchr17hcca6ebe204ee3bfaE+0xbc>
200061f4:	0077c633          	xor	a2,a5,t2
200061f8:	00163613          	seqz	a2,a2
200061fc:	0605                	addi	a2,a2,1
200061fe:	8a05                	andi	a2,a2,1
20006200:	95b2                	add	a1,a1,a2
20006202:	4605                	li	a2,1
20006204:	15fd                	addi	a1,a1,-1
20006206:	a011                	j	2000620a <_ZN4core5slice6memchr6memchr17hcca6ebe204ee3bfaE+0xe4>
20006208:	4601                	li	a2,0
2000620a:	95aa                	add	a1,a1,a0
2000620c:	8532                	mv	a0,a2
2000620e:	4422                	lw	s0,8(sp)
20006210:	40b2                	lw	ra,12(sp)
20006212:	0141                	addi	sp,sp,16
20006214:	8082                	ret
20006216:	85b2                	mv	a1,a2
20006218:	fffff097          	auipc	ra,0xfffff
2000621c:	e5e080e7          	jalr	-418(ra) # 20005076 <_ZN4core5slice22slice_index_order_fail17hc5e99223d4aacee0E>
20006220:	00009097          	auipc	ra,0x9
20006224:	9bc080e7          	jalr	-1604(ra) # 2000ebdc <abort>

20006228 <_ZN4core3fmt8builders11DebugStruct5field17h6d71590a69350865E>:
20006228:	711d                	addi	sp,sp,-96
2000622a:	ce86                	sw	ra,92(sp)
2000622c:	cca2                	sw	s0,88(sp)
2000622e:	caa6                	sw	s1,84(sp)
20006230:	c8ca                	sw	s2,80(sp)
20006232:	c6ce                	sw	s3,76(sp)
20006234:	c4d2                	sw	s4,72(sp)
20006236:	c2d6                	sw	s5,68(sp)
20006238:	c0da                	sw	s6,64(sp)
2000623a:	de5e                	sw	s7,60(sp)
2000623c:	1080                	addi	s0,sp,96
2000623e:	84aa                	mv	s1,a0
20006240:	4b85                	li	s7,1
20006242:	00454503          	lbu	a0,4(a0)
20006246:	4b05                	li	s6,1
20006248:	c10d                	beqz	a0,2000626a <_ZN4core3fmt8builders11DebugStruct5field17h6d71590a69350865E+0x42>
2000624a:	017482a3          	sb	s7,5(s1)
2000624e:	01648223          	sb	s6,4(s1)
20006252:	8526                	mv	a0,s1
20006254:	5bf2                	lw	s7,60(sp)
20006256:	4b06                	lw	s6,64(sp)
20006258:	4a96                	lw	s5,68(sp)
2000625a:	4a26                	lw	s4,72(sp)
2000625c:	49b6                	lw	s3,76(sp)
2000625e:	4946                	lw	s2,80(sp)
20006260:	44d6                	lw	s1,84(sp)
20006262:	4466                	lw	s0,88(sp)
20006264:	40f6                	lw	ra,92(sp)
20006266:	6125                	addi	sp,sp,96
20006268:	8082                	ret
2000626a:	89ba                	mv	s3,a4
2000626c:	8936                	mv	s2,a3
2000626e:	8a32                	mv	s4,a2
20006270:	8aae                	mv	s5,a1
20006272:	0054c503          	lbu	a0,5(s1)
20006276:	4094                	lw	a3,0(s1)
20006278:	0006c583          	lbu	a1,0(a3)
2000627c:	8991                	andi	a1,a1,4
2000627e:	e981                	bnez	a1,2000628e <_ZN4core3fmt8builders11DebugStruct5field17h6d71590a69350865E+0x66>
20006280:	c961                	beqz	a0,20006350 <_ZN4core3fmt8builders11DebugStruct5field17h6d71590a69350865E+0x128>
20006282:	4609                	li	a2,2
20006284:	2000e537          	lui	a0,0x2000e
20006288:	a9850593          	addi	a1,a0,-1384 # 2000da98 <.Lanon.f9bb9288c9d7617347bc8817bc65a1df.178>
2000628c:	a0f9                	j	2000635a <_ZN4core3fmt8builders11DebugStruct5field17h6d71590a69350865E+0x132>
2000628e:	ed09                	bnez	a0,200062a8 <_ZN4core3fmt8builders11DebugStruct5field17h6d71590a69350865E+0x80>
20006290:	4e88                	lw	a0,24(a3)
20006292:	4ecc                	lw	a1,28(a3)
20006294:	45d4                	lw	a3,12(a1)
20006296:	2000e5b7          	lui	a1,0x2000e
2000629a:	a9a58593          	addi	a1,a1,-1382 # 2000da9a <.Lanon.f9bb9288c9d7617347bc8817bc65a1df.176>
2000629e:	460d                	li	a2,3
200062a0:	9682                	jalr	a3
200062a2:	4b05                	li	s6,1
200062a4:	f15d                	bnez	a0,2000624a <_ZN4core3fmt8builders11DebugStruct5field17h6d71590a69350865E+0x22>
200062a6:	4094                	lw	a3,0(s1)
200062a8:	4b05                	li	s6,1
200062aa:	fb640ba3          	sb	s6,-73(s0)
200062ae:	4e88                	lw	a0,24(a3)
200062b0:	4ecc                	lw	a1,28(a3)
200062b2:	fb740613          	addi	a2,s0,-73
200062b6:	fac42823          	sw	a2,-80(s0)
200062ba:	fab42623          	sw	a1,-84(s0)
200062be:	faa42423          	sw	a0,-88(s0)
200062c2:	0086a803          	lw	a6,8(a3)
200062c6:	46cc                	lw	a1,12(a3)
200062c8:	4a90                	lw	a2,16(a3)
200062ca:	4ad8                	lw	a4,20(a3)
200062cc:	429c                	lw	a5,0(a3)
200062ce:	42c8                	lw	a0,4(a3)
200062d0:	02068683          	lb	a3,32(a3)
200062d4:	fcd40c23          	sb	a3,-40(s0)
200062d8:	faa42e23          	sw	a0,-68(s0)
200062dc:	faf42c23          	sw	a5,-72(s0)
200062e0:	10001537          	lui	a0,0x10001
200062e4:	55850513          	addi	a0,a0,1368 # 10001558 <.Lanon.f9bb9288c9d7617347bc8817bc65a1df.174>
200062e8:	fca42a23          	sw	a0,-44(s0)
200062ec:	fce42623          	sw	a4,-52(s0)
200062f0:	fcc42423          	sw	a2,-56(s0)
200062f4:	fcb42223          	sw	a1,-60(s0)
200062f8:	fd042023          	sw	a6,-64(s0)
200062fc:	fa840513          	addi	a0,s0,-88
20006300:	fca42823          	sw	a0,-48(s0)
20006304:	85d6                	mv	a1,s5
20006306:	8652                	mv	a2,s4
20006308:	00000097          	auipc	ra,0x0
2000630c:	c32080e7          	jalr	-974(ra) # 20005f3a <_ZN68_$LT$core..fmt..builders..PadAdapter$u20$as$u20$core..fmt..Write$GT$9write_str17hffa12f87962bf2ebE>
20006310:	fd0d                	bnez	a0,2000624a <_ZN4core3fmt8builders11DebugStruct5field17h6d71590a69350865E+0x22>
20006312:	2000e537          	lui	a0,0x2000e
20006316:	a9350593          	addi	a1,a0,-1389 # 2000da93 <.Lanon.f9bb9288c9d7617347bc8817bc65a1df.161>
2000631a:	fa840513          	addi	a0,s0,-88
2000631e:	4609                	li	a2,2
20006320:	00000097          	auipc	ra,0x0
20006324:	c1a080e7          	jalr	-998(ra) # 20005f3a <_ZN68_$LT$core..fmt..builders..PadAdapter$u20$as$u20$core..fmt..Write$GT$9write_str17hffa12f87962bf2ebE>
20006328:	f10d                	bnez	a0,2000624a <_ZN4core3fmt8builders11DebugStruct5field17h6d71590a69350865E+0x22>
2000632a:	00c9a603          	lw	a2,12(s3)
2000632e:	fb840593          	addi	a1,s0,-72
20006332:	854a                	mv	a0,s2
20006334:	9602                	jalr	a2
20006336:	f911                	bnez	a0,2000624a <_ZN4core3fmt8builders11DebugStruct5field17h6d71590a69350865E+0x22>
20006338:	fd442503          	lw	a0,-44(s0)
2000633c:	4554                	lw	a3,12(a0)
2000633e:	fd042503          	lw	a0,-48(s0)
20006342:	2000e5b7          	lui	a1,0x2000e
20006346:	a9d58593          	addi	a1,a1,-1379 # 2000da9d <.Lanon.f9bb9288c9d7617347bc8817bc65a1df.177>
2000634a:	4609                	li	a2,2
2000634c:	9682                	jalr	a3
2000634e:	a889                	j	200063a0 <_ZN4core3fmt8builders11DebugStruct5field17h6d71590a69350865E+0x178>
20006350:	460d                	li	a2,3
20006352:	2000e537          	lui	a0,0x2000e
20006356:	a9550593          	addi	a1,a0,-1387 # 2000da95 <.Lanon.f9bb9288c9d7617347bc8817bc65a1df.179>
2000635a:	4e88                	lw	a0,24(a3)
2000635c:	4ed4                	lw	a3,28(a3)
2000635e:	46d4                	lw	a3,12(a3)
20006360:	9682                	jalr	a3
20006362:	4b05                	li	s6,1
20006364:	ee0513e3          	bnez	a0,2000624a <_ZN4core3fmt8builders11DebugStruct5field17h6d71590a69350865E+0x22>
20006368:	408c                	lw	a1,0(s1)
2000636a:	4d88                	lw	a0,24(a1)
2000636c:	4dcc                	lw	a1,28(a1)
2000636e:	45d4                	lw	a3,12(a1)
20006370:	85d6                	mv	a1,s5
20006372:	8652                	mv	a2,s4
20006374:	9682                	jalr	a3
20006376:	4b05                	li	s6,1
20006378:	ec0519e3          	bnez	a0,2000624a <_ZN4core3fmt8builders11DebugStruct5field17h6d71590a69350865E+0x22>
2000637c:	408c                	lw	a1,0(s1)
2000637e:	4d88                	lw	a0,24(a1)
20006380:	4dcc                	lw	a1,28(a1)
20006382:	45d4                	lw	a3,12(a1)
20006384:	2000e5b7          	lui	a1,0x2000e
20006388:	a9358593          	addi	a1,a1,-1389 # 2000da93 <.Lanon.f9bb9288c9d7617347bc8817bc65a1df.161>
2000638c:	4609                	li	a2,2
2000638e:	9682                	jalr	a3
20006390:	4b05                	li	s6,1
20006392:	ea051ce3          	bnez	a0,2000624a <_ZN4core3fmt8builders11DebugStruct5field17h6d71590a69350865E+0x22>
20006396:	00c9a603          	lw	a2,12(s3)
2000639a:	408c                	lw	a1,0(s1)
2000639c:	854a                	mv	a0,s2
2000639e:	9602                	jalr	a2
200063a0:	8b2a                	mv	s6,a0
200063a2:	b565                	j	2000624a <_ZN4core3fmt8builders11DebugStruct5field17h6d71590a69350865E+0x22>

200063a4 <_ZN4core3fmt5Write10write_char17h0cd8c516bbfcddd9E>:
200063a4:	1141                	addi	sp,sp,-16
200063a6:	c606                	sw	ra,12(sp)
200063a8:	c422                	sw	s0,8(sp)
200063aa:	0800                	addi	s0,sp,16
200063ac:	862e                	mv	a2,a1
200063ae:	fe042a23          	sw	zero,-12(s0)
200063b2:	08000593          	li	a1,128
200063b6:	00b67863          	bgeu	a2,a1,200063c6 <_ZN4core3fmt5Write10write_char17h0cd8c516bbfcddd9E+0x22>
200063ba:	fec40a23          	sb	a2,-12(s0)
200063be:	ff440593          	addi	a1,s0,-12
200063c2:	4605                	li	a2,1
200063c4:	a861                	j	2000645c <_ZN4core3fmt5Write10write_char17h0cd8c516bbfcddd9E+0xb8>
200063c6:	00b65593          	srli	a1,a2,0xb
200063ca:	e195                	bnez	a1,200063ee <_ZN4core3fmt5Write10write_char17h0cd8c516bbfcddd9E+0x4a>
200063cc:	03f67593          	andi	a1,a2,63
200063d0:	0805e593          	ori	a1,a1,128
200063d4:	feb40aa3          	sb	a1,-11(s0)
200063d8:	00665593          	srli	a1,a2,0x6
200063dc:	89fd                	andi	a1,a1,31
200063de:	0c05e593          	ori	a1,a1,192
200063e2:	feb40a23          	sb	a1,-12(s0)
200063e6:	ff440593          	addi	a1,s0,-12
200063ea:	4609                	li	a2,2
200063ec:	a885                	j	2000645c <_ZN4core3fmt5Write10write_char17h0cd8c516bbfcddd9E+0xb8>
200063ee:	ff440593          	addi	a1,s0,-12
200063f2:	01065693          	srli	a3,a2,0x10
200063f6:	e69d                	bnez	a3,20006424 <_ZN4core3fmt5Write10write_char17h0cd8c516bbfcddd9E+0x80>
200063f8:	03f67693          	andi	a3,a2,63
200063fc:	0806e693          	ori	a3,a3,128
20006400:	fed40b23          	sb	a3,-10(s0)
20006404:	00665693          	srli	a3,a2,0x6
20006408:	03f6f693          	andi	a3,a3,63
2000640c:	0806e693          	ori	a3,a3,128
20006410:	fed40aa3          	sb	a3,-11(s0)
20006414:	8231                	srli	a2,a2,0xc
20006416:	8a3d                	andi	a2,a2,15
20006418:	0e066613          	ori	a2,a2,224
2000641c:	fec40a23          	sb	a2,-12(s0)
20006420:	460d                	li	a2,3
20006422:	a82d                	j	2000645c <_ZN4core3fmt5Write10write_char17h0cd8c516bbfcddd9E+0xb8>
20006424:	03f67693          	andi	a3,a2,63
20006428:	0806e693          	ori	a3,a3,128
2000642c:	fed40ba3          	sb	a3,-9(s0)
20006430:	01265693          	srli	a3,a2,0x12
20006434:	0f06e693          	ori	a3,a3,240
20006438:	fed40a23          	sb	a3,-12(s0)
2000643c:	00665693          	srli	a3,a2,0x6
20006440:	03f6f693          	andi	a3,a3,63
20006444:	0806e693          	ori	a3,a3,128
20006448:	fed40b23          	sb	a3,-10(s0)
2000644c:	8231                	srli	a2,a2,0xc
2000644e:	03f67613          	andi	a2,a2,63
20006452:	08066613          	ori	a2,a2,128
20006456:	fec40aa3          	sb	a2,-11(s0)
2000645a:	4611                	li	a2,4
2000645c:	00000097          	auipc	ra,0x0
20006460:	ade080e7          	jalr	-1314(ra) # 20005f3a <_ZN68_$LT$core..fmt..builders..PadAdapter$u20$as$u20$core..fmt..Write$GT$9write_str17hffa12f87962bf2ebE>
20006464:	4422                	lw	s0,8(sp)
20006466:	40b2                	lw	ra,12(sp)
20006468:	0141                	addi	sp,sp,16
2000646a:	8082                	ret

2000646c <_ZN4core3fmt5Write9write_fmt17h334ff53c47ee821aE>:
2000646c:	7179                	addi	sp,sp,-48
2000646e:	d606                	sw	ra,44(sp)
20006470:	d422                	sw	s0,40(sp)
20006472:	1800                	addi	s0,sp,48
20006474:	fca42e23          	sw	a0,-36(s0)
20006478:	49c8                	lw	a0,20(a1)
2000647a:	fea42a23          	sw	a0,-12(s0)
2000647e:	4988                	lw	a0,16(a1)
20006480:	fea42823          	sw	a0,-16(s0)
20006484:	45c8                	lw	a0,12(a1)
20006486:	fea42623          	sw	a0,-20(s0)
2000648a:	4588                	lw	a0,8(a1)
2000648c:	fea42423          	sw	a0,-24(s0)
20006490:	41c8                	lw	a0,4(a1)
20006492:	fea42223          	sw	a0,-28(s0)
20006496:	4188                	lw	a0,0(a1)
20006498:	fea42023          	sw	a0,-32(s0)
2000649c:	10001537          	lui	a0,0x10001
200064a0:	57050593          	addi	a1,a0,1392 # 10001570 <.Lanon.f9bb9288c9d7617347bc8817bc65a1df.206>
200064a4:	fdc40513          	addi	a0,s0,-36
200064a8:	fe040613          	addi	a2,s0,-32
200064ac:	00000097          	auipc	ra,0x0
200064b0:	81e080e7          	jalr	-2018(ra) # 20005cca <_ZN4core3fmt5write17hb7761afb3ce3b207E>
200064b4:	5422                	lw	s0,40(sp)
200064b6:	50b2                	lw	ra,44(sp)
200064b8:	6145                	addi	sp,sp,48
200064ba:	8082                	ret

200064bc <_ZN50_$LT$$RF$mut$u20$W$u20$as$u20$core..fmt..Write$GT$9write_str17h779e7bad1df80316E>:
200064bc:	1141                	addi	sp,sp,-16
200064be:	c606                	sw	ra,12(sp)
200064c0:	c422                	sw	s0,8(sp)
200064c2:	0800                	addi	s0,sp,16
200064c4:	4108                	lw	a0,0(a0)
200064c6:	4422                	lw	s0,8(sp)
200064c8:	40b2                	lw	ra,12(sp)
200064ca:	0141                	addi	sp,sp,16
200064cc:	00000317          	auipc	t1,0x0
200064d0:	a6e30067          	jr	-1426(t1) # 20005f3a <_ZN68_$LT$core..fmt..builders..PadAdapter$u20$as$u20$core..fmt..Write$GT$9write_str17hffa12f87962bf2ebE>

200064d4 <_ZN50_$LT$$RF$mut$u20$W$u20$as$u20$core..fmt..Write$GT$10write_char17h49f23cb2d2beadd0E>:
200064d4:	1141                	addi	sp,sp,-16
200064d6:	c606                	sw	ra,12(sp)
200064d8:	c422                	sw	s0,8(sp)
200064da:	0800                	addi	s0,sp,16
200064dc:	4108                	lw	a0,0(a0)
200064de:	4422                	lw	s0,8(sp)
200064e0:	40b2                	lw	ra,12(sp)
200064e2:	0141                	addi	sp,sp,16
200064e4:	00000317          	auipc	t1,0x0
200064e8:	ec030067          	jr	-320(t1) # 200063a4 <_ZN4core3fmt5Write10write_char17h0cd8c516bbfcddd9E>

200064ec <_ZN50_$LT$$RF$mut$u20$W$u20$as$u20$core..fmt..Write$GT$9write_fmt17h7f295ba63e42354eE>:
200064ec:	7179                	addi	sp,sp,-48
200064ee:	d606                	sw	ra,44(sp)
200064f0:	d422                	sw	s0,40(sp)
200064f2:	1800                	addi	s0,sp,48
200064f4:	4108                	lw	a0,0(a0)
200064f6:	fca42e23          	sw	a0,-36(s0)
200064fa:	49c8                	lw	a0,20(a1)
200064fc:	fea42a23          	sw	a0,-12(s0)
20006500:	4988                	lw	a0,16(a1)
20006502:	fea42823          	sw	a0,-16(s0)
20006506:	45c8                	lw	a0,12(a1)
20006508:	fea42623          	sw	a0,-20(s0)
2000650c:	4588                	lw	a0,8(a1)
2000650e:	fea42423          	sw	a0,-24(s0)
20006512:	41c8                	lw	a0,4(a1)
20006514:	fea42223          	sw	a0,-28(s0)
20006518:	4188                	lw	a0,0(a1)
2000651a:	fea42023          	sw	a0,-32(s0)
2000651e:	10001537          	lui	a0,0x10001
20006522:	57050593          	addi	a1,a0,1392 # 10001570 <.Lanon.f9bb9288c9d7617347bc8817bc65a1df.206>
20006526:	fdc40513          	addi	a0,s0,-36
2000652a:	fe040613          	addi	a2,s0,-32
2000652e:	fffff097          	auipc	ra,0xfffff
20006532:	79c080e7          	jalr	1948(ra) # 20005cca <_ZN4core3fmt5write17hb7761afb3ce3b207E>
20006536:	5422                	lw	s0,40(sp)
20006538:	50b2                	lw	ra,44(sp)
2000653a:	6145                	addi	sp,sp,48
2000653c:	8082                	ret

2000653e <_ZN4core3fmt8builders11DebugStruct6finish17hc3792ac5abc1b8e4E>:
2000653e:	1141                	addi	sp,sp,-16
20006540:	c606                	sw	ra,12(sp)
20006542:	c422                	sw	s0,8(sp)
20006544:	c226                	sw	s1,4(sp)
20006546:	0800                	addi	s0,sp,16
20006548:	84aa                	mv	s1,a0
2000654a:	00454583          	lbu	a1,4(a0)
2000654e:	00554503          	lbu	a0,5(a0)
20006552:	c10d                	beqz	a0,20006574 <_ZN4core3fmt8builders11DebugStruct6finish17hc3792ac5abc1b8e4E+0x36>
20006554:	4505                	li	a0,1
20006556:	e59d                	bnez	a1,20006584 <_ZN4core3fmt8builders11DebugStruct6finish17hc3792ac5abc1b8e4E+0x46>
20006558:	408c                	lw	a1,0(s1)
2000655a:	4d88                	lw	a0,24(a1)
2000655c:	4dd0                	lw	a2,28(a1)
2000655e:	4654                	lw	a3,12(a2)
20006560:	0005c583          	lbu	a1,0(a1)
20006564:	8991                	andi	a1,a1,4
20006566:	e989                	bnez	a1,20006578 <_ZN4core3fmt8builders11DebugStruct6finish17hc3792ac5abc1b8e4E+0x3a>
20006568:	2000e5b7          	lui	a1,0x2000e
2000656c:	a9f58593          	addi	a1,a1,-1377 # 2000da9f <.Lanon.f9bb9288c9d7617347bc8817bc65a1df.184>
20006570:	4609                	li	a2,2
20006572:	a801                	j	20006582 <_ZN4core3fmt8builders11DebugStruct6finish17hc3792ac5abc1b8e4E+0x44>
20006574:	852e                	mv	a0,a1
20006576:	a809                	j	20006588 <_ZN4core3fmt8builders11DebugStruct6finish17hc3792ac5abc1b8e4E+0x4a>
20006578:	2000e5b7          	lui	a1,0x2000e
2000657c:	aa158593          	addi	a1,a1,-1375 # 2000daa1 <.Lanon.f9bb9288c9d7617347bc8817bc65a1df.183>
20006580:	4605                	li	a2,1
20006582:	9682                	jalr	a3
20006584:	00a48223          	sb	a0,4(s1)
20006588:	00a03533          	snez	a0,a0
2000658c:	4492                	lw	s1,4(sp)
2000658e:	4422                	lw	s0,8(sp)
20006590:	40b2                	lw	ra,12(sp)
20006592:	0141                	addi	sp,sp,16
20006594:	8082                	ret

20006596 <_ZN4core3fmt8builders10DebugTuple6finish17hbb92ef557aadfbf8E>:
20006596:	1141                	addi	sp,sp,-16
20006598:	c606                	sw	ra,12(sp)
2000659a:	c422                	sw	s0,8(sp)
2000659c:	c226                	sw	s1,4(sp)
2000659e:	c04a                	sw	s2,0(sp)
200065a0:	0800                	addi	s0,sp,16
200065a2:	892a                	mv	s2,a0
200065a4:	00854583          	lbu	a1,8(a0)
200065a8:	4148                	lw	a0,4(a0)
200065aa:	c929                	beqz	a0,200065fc <_ZN4core3fmt8builders10DebugTuple6finish17hbb92ef557aadfbf8E+0x66>
200065ac:	4485                	li	s1,1
200065ae:	e5a1                	bnez	a1,200065f6 <_ZN4core3fmt8builders10DebugTuple6finish17hbb92ef557aadfbf8E+0x60>
200065b0:	4585                	li	a1,1
200065b2:	02b51663          	bne	a0,a1,200065de <_ZN4core3fmt8builders10DebugTuple6finish17hbb92ef557aadfbf8E+0x48>
200065b6:	00994503          	lbu	a0,9(s2)
200065ba:	c115                	beqz	a0,200065de <_ZN4core3fmt8builders10DebugTuple6finish17hbb92ef557aadfbf8E+0x48>
200065bc:	00092583          	lw	a1,0(s2)
200065c0:	0005c503          	lbu	a0,0(a1)
200065c4:	8911                	andi	a0,a0,4
200065c6:	ed01                	bnez	a0,200065de <_ZN4core3fmt8builders10DebugTuple6finish17hbb92ef557aadfbf8E+0x48>
200065c8:	4d88                	lw	a0,24(a1)
200065ca:	4dcc                	lw	a1,28(a1)
200065cc:	45d4                	lw	a3,12(a1)
200065ce:	2000e5b7          	lui	a1,0x2000e
200065d2:	aa558593          	addi	a1,a1,-1371 # 2000daa5 <.Lanon.f9bb9288c9d7617347bc8817bc65a1df.187>
200065d6:	4485                	li	s1,1
200065d8:	4605                	li	a2,1
200065da:	9682                	jalr	a3
200065dc:	ed09                	bnez	a0,200065f6 <_ZN4core3fmt8builders10DebugTuple6finish17hbb92ef557aadfbf8E+0x60>
200065de:	00092583          	lw	a1,0(s2)
200065e2:	4d88                	lw	a0,24(a1)
200065e4:	4dcc                	lw	a1,28(a1)
200065e6:	45d4                	lw	a3,12(a1)
200065e8:	2000e5b7          	lui	a1,0x2000e
200065ec:	4cb58593          	addi	a1,a1,1227 # 2000e4cb <.Lanon.d9778860540cf11319bb138777b2a7cb.58>
200065f0:	4605                	li	a2,1
200065f2:	9682                	jalr	a3
200065f4:	84aa                	mv	s1,a0
200065f6:	00990423          	sb	s1,8(s2)
200065fa:	a011                	j	200065fe <_ZN4core3fmt8builders10DebugTuple6finish17hbb92ef557aadfbf8E+0x68>
200065fc:	84ae                	mv	s1,a1
200065fe:	00903533          	snez	a0,s1
20006602:	4902                	lw	s2,0(sp)
20006604:	4492                	lw	s1,4(sp)
20006606:	4422                	lw	s0,8(sp)
20006608:	40b2                	lw	ra,12(sp)
2000660a:	0141                	addi	sp,sp,16
2000660c:	8082                	ret

2000660e <_ZN59_$LT$core..fmt..Arguments$u20$as$u20$core..fmt..Display$GT$3fmt17h283731f7baa9247cE>:
2000660e:	1101                	addi	sp,sp,-32
20006610:	ce06                	sw	ra,28(sp)
20006612:	cc22                	sw	s0,24(sp)
20006614:	1000                	addi	s0,sp,32
20006616:	4dd4                	lw	a3,28(a1)
20006618:	4d8c                	lw	a1,24(a1)
2000661a:	4950                	lw	a2,20(a0)
2000661c:	fec42a23          	sw	a2,-12(s0)
20006620:	4910                	lw	a2,16(a0)
20006622:	fec42823          	sw	a2,-16(s0)
20006626:	4550                	lw	a2,12(a0)
20006628:	fec42623          	sw	a2,-20(s0)
2000662c:	4510                	lw	a2,8(a0)
2000662e:	fec42423          	sw	a2,-24(s0)
20006632:	4150                	lw	a2,4(a0)
20006634:	fec42223          	sw	a2,-28(s0)
20006638:	4108                	lw	a0,0(a0)
2000663a:	fea42023          	sw	a0,-32(s0)
2000663e:	fe040613          	addi	a2,s0,-32
20006642:	852e                	mv	a0,a1
20006644:	85b6                	mv	a1,a3
20006646:	fffff097          	auipc	ra,0xfffff
2000664a:	684080e7          	jalr	1668(ra) # 20005cca <_ZN4core3fmt5write17hb7761afb3ce3b207E>
2000664e:	4462                	lw	s0,24(sp)
20006650:	40f2                	lw	ra,28(sp)
20006652:	6105                	addi	sp,sp,32
20006654:	8082                	ret

20006656 <_ZN43_$LT$bool$u20$as$u20$core..fmt..Display$GT$3fmt17h5f198d03fb47839aE>:
20006656:	1141                	addi	sp,sp,-16
20006658:	c606                	sw	ra,12(sp)
2000665a:	c422                	sw	s0,8(sp)
2000665c:	0800                	addi	s0,sp,16
2000665e:	862e                	mv	a2,a1
20006660:	00054503          	lbu	a0,0(a0)
20006664:	c901                	beqz	a0,20006674 <_ZN43_$LT$bool$u20$as$u20$core..fmt..Display$GT$3fmt17h5f198d03fb47839aE+0x1e>
20006666:	2000c537          	lui	a0,0x2000c
2000666a:	e5050593          	addi	a1,a0,-432 # 2000be50 <anon.94f59e978f0f32a54617dd47149c5ef2.0.llvm.1410106067623364693+0x8>
2000666e:	8532                	mv	a0,a2
20006670:	4611                	li	a2,4
20006672:	a039                	j	20006680 <_ZN43_$LT$bool$u20$as$u20$core..fmt..Display$GT$3fmt17h5f198d03fb47839aE+0x2a>
20006674:	2000e537          	lui	a0,0x2000e
20006678:	aa650593          	addi	a1,a0,-1370 # 2000daa6 <.Lanon.f9bb9288c9d7617347bc8817bc65a1df.213>
2000667c:	8532                	mv	a0,a2
2000667e:	4615                	li	a2,5
20006680:	fffff097          	auipc	ra,0xfffff
20006684:	a64080e7          	jalr	-1436(ra) # 200050e4 <_ZN4core3fmt9Formatter3pad17h0d1c009fbb18f52cE>
20006688:	4422                	lw	s0,8(sp)
2000668a:	40b2                	lw	ra,12(sp)
2000668c:	0141                	addi	sp,sp,16
2000668e:	8082                	ret

20006690 <_ZN4core3fmt3num53_$LT$impl$u20$core..fmt..LowerHex$u20$for$u20$i32$GT$3fmt17h6cea225f5f2f55d7E>:
20006690:	7175                	addi	sp,sp,-144
20006692:	c706                	sw	ra,140(sp)
20006694:	c522                	sw	s0,136(sp)
20006696:	0900                	addi	s0,sp,144
20006698:	882e                	mv	a6,a1
2000669a:	4108                	lw	a0,0(a0)
2000669c:	4729                	li	a4,10
2000669e:	f7840593          	addi	a1,s0,-136
200066a2:	4681                	li	a3,0
200066a4:	00f57793          	andi	a5,a0,15
200066a8:	00e7ef63          	bltu	a5,a4,200066c6 <_ZN4core3fmt3num53_$LT$impl$u20$core..fmt..LowerHex$u20$for$u20$i32$GT$3fmt17h6cea225f5f2f55d7E+0x36>
200066ac:	05778793          	addi	a5,a5,87
200066b0:	00d58633          	add	a2,a1,a3
200066b4:	06f60fa3          	sb	a5,127(a2)
200066b8:	16fd                	addi	a3,a3,-1
200066ba:	8111                	srli	a0,a0,0x4
200066bc:	c901                	beqz	a0,200066cc <_ZN4core3fmt3num53_$LT$impl$u20$core..fmt..LowerHex$u20$for$u20$i32$GT$3fmt17h6cea225f5f2f55d7E+0x3c>
200066be:	00f57793          	andi	a5,a0,15
200066c2:	fee7f5e3          	bgeu	a5,a4,200066ac <_ZN4core3fmt3num53_$LT$impl$u20$core..fmt..LowerHex$u20$for$u20$i32$GT$3fmt17h6cea225f5f2f55d7E+0x1c>
200066c6:	0307e793          	ori	a5,a5,48
200066ca:	b7dd                	j	200066b0 <_ZN4core3fmt3num53_$LT$impl$u20$core..fmt..LowerHex$u20$for$u20$i32$GT$3fmt17h6cea225f5f2f55d7E+0x20>
200066cc:	08068513          	addi	a0,a3,128
200066d0:	08100613          	li	a2,129
200066d4:	02c57663          	bgeu	a0,a2,20006700 <_ZN4core3fmt3num53_$LT$impl$u20$core..fmt..LowerHex$u20$for$u20$i32$GT$3fmt17h6cea225f5f2f55d7E+0x70>
200066d8:	40d00733          	neg	a4,a3
200066dc:	00d58533          	add	a0,a1,a3
200066e0:	08050693          	addi	a3,a0,128
200066e4:	2000d537          	lui	a0,0x2000d
200066e8:	e5550593          	addi	a1,a0,-427 # 2000ce55 <.Lanon.f9bb9288c9d7617347bc8817bc65a1df.202>
200066ec:	8542                	mv	a0,a6
200066ee:	4609                	li	a2,2
200066f0:	ffffe097          	auipc	ra,0xffffe
200066f4:	69a080e7          	jalr	1690(ra) # 20004d8a <_ZN4core3fmt9Formatter12pad_integral17hf11ba08f895f8514E>
200066f8:	442a                	lw	s0,136(sp)
200066fa:	40ba                	lw	ra,140(sp)
200066fc:	6149                	addi	sp,sp,144
200066fe:	8082                	ret
20006700:	08000593          	li	a1,128
20006704:	fffff097          	auipc	ra,0xfffff
20006708:	972080e7          	jalr	-1678(ra) # 20005076 <_ZN4core5slice22slice_index_order_fail17hc5e99223d4aacee0E>
2000670c:	00008097          	auipc	ra,0x8
20006710:	4d0080e7          	jalr	1232(ra) # 2000ebdc <abort>

20006714 <_ZN4core3fmt3num53_$LT$impl$u20$core..fmt..UpperHex$u20$for$u20$i32$GT$3fmt17had038f5c59c3e8e9E>:
20006714:	7175                	addi	sp,sp,-144
20006716:	c706                	sw	ra,140(sp)
20006718:	c522                	sw	s0,136(sp)
2000671a:	0900                	addi	s0,sp,144
2000671c:	882e                	mv	a6,a1
2000671e:	4108                	lw	a0,0(a0)
20006720:	4729                	li	a4,10
20006722:	f7840593          	addi	a1,s0,-136
20006726:	4681                	li	a3,0
20006728:	00f57793          	andi	a5,a0,15
2000672c:	00e7ef63          	bltu	a5,a4,2000674a <_ZN4core3fmt3num53_$LT$impl$u20$core..fmt..UpperHex$u20$for$u20$i32$GT$3fmt17had038f5c59c3e8e9E+0x36>
20006730:	03778793          	addi	a5,a5,55
20006734:	00d58633          	add	a2,a1,a3
20006738:	06f60fa3          	sb	a5,127(a2)
2000673c:	16fd                	addi	a3,a3,-1
2000673e:	8111                	srli	a0,a0,0x4
20006740:	c901                	beqz	a0,20006750 <_ZN4core3fmt3num53_$LT$impl$u20$core..fmt..UpperHex$u20$for$u20$i32$GT$3fmt17had038f5c59c3e8e9E+0x3c>
20006742:	00f57793          	andi	a5,a0,15
20006746:	fee7f5e3          	bgeu	a5,a4,20006730 <_ZN4core3fmt3num53_$LT$impl$u20$core..fmt..UpperHex$u20$for$u20$i32$GT$3fmt17had038f5c59c3e8e9E+0x1c>
2000674a:	0307e793          	ori	a5,a5,48
2000674e:	b7dd                	j	20006734 <_ZN4core3fmt3num53_$LT$impl$u20$core..fmt..UpperHex$u20$for$u20$i32$GT$3fmt17had038f5c59c3e8e9E+0x20>
20006750:	08068513          	addi	a0,a3,128
20006754:	08100613          	li	a2,129
20006758:	02c57663          	bgeu	a0,a2,20006784 <_ZN4core3fmt3num53_$LT$impl$u20$core..fmt..UpperHex$u20$for$u20$i32$GT$3fmt17had038f5c59c3e8e9E+0x70>
2000675c:	40d00733          	neg	a4,a3
20006760:	00d58533          	add	a0,a1,a3
20006764:	08050693          	addi	a3,a0,128
20006768:	2000d537          	lui	a0,0x2000d
2000676c:	e5550593          	addi	a1,a0,-427 # 2000ce55 <.Lanon.f9bb9288c9d7617347bc8817bc65a1df.202>
20006770:	8542                	mv	a0,a6
20006772:	4609                	li	a2,2
20006774:	ffffe097          	auipc	ra,0xffffe
20006778:	616080e7          	jalr	1558(ra) # 20004d8a <_ZN4core3fmt9Formatter12pad_integral17hf11ba08f895f8514E>
2000677c:	442a                	lw	s0,136(sp)
2000677e:	40ba                	lw	ra,140(sp)
20006780:	6149                	addi	sp,sp,144
20006782:	8082                	ret
20006784:	08000593          	li	a1,128
20006788:	fffff097          	auipc	ra,0xfffff
2000678c:	8ee080e7          	jalr	-1810(ra) # 20005076 <_ZN4core5slice22slice_index_order_fail17hc5e99223d4aacee0E>
20006790:	00008097          	auipc	ra,0x8
20006794:	44c080e7          	jalr	1100(ra) # 2000ebdc <abort>

20006798 <_ZN4ibex4chip4Ibex22enable_plic_interrupts17h30a1ef3f1c684d47E>:
20006798:	1141                	addi	sp,sp,-16
2000679a:	c606                	sw	ra,12(sp)
2000679c:	c422                	sw	s0,8(sp)
2000679e:	0800                	addi	s0,sp,16
200067a0:	2000c537          	lui	a0,0x2000c
200067a4:	e4852503          	lw	a0,-440(a0) # 2000be48 <anon.94f59e978f0f32a54617dd47149c5ef2.0.llvm.1410106067623364693>
200067a8:	20050593          	addi	a1,a0,512
200067ac:	4631                	li	a2,12
200067ae:	4681                	li	a3,0
200067b0:	00c68963          	beq	a3,a2,200067c2 <_ZN4ibex4chip4Ibex22enable_plic_interrupts17h30a1ef3f1c684d47E+0x2a>
200067b4:	00d58733          	add	a4,a1,a3
200067b8:	00072023          	sw	zero,0(a4)
200067bc:	0691                	addi	a3,a3,4
200067be:	fec69be3          	bne	a3,a2,200067b4 <_ZN4ibex4chip4Ibex22enable_plic_interrupts17h30a1ef3f1c684d47E+0x1c>
200067c2:	4631                	li	a2,12
200067c4:	56fd                	li	a3,-1
200067c6:	4701                	li	a4,0
200067c8:	00c70863          	beq	a4,a2,200067d8 <_ZN4ibex4chip4Ibex22enable_plic_interrupts17h30a1ef3f1c684d47E+0x40>
200067cc:	00e587b3          	add	a5,a1,a4
200067d0:	c394                	sw	a3,0(a5)
200067d2:	0711                	addi	a4,a4,4
200067d4:	fec71ce3          	bne	a4,a2,200067cc <_ZN4ibex4chip4Ibex22enable_plic_interrupts17h30a1ef3f1c684d47E+0x34>
200067d8:	45e1                	li	a1,24
200067da:	15400613          	li	a2,340
200067de:	468d                	li	a3,3
200067e0:	00c58863          	beq	a1,a2,200067f0 <_ZN4ibex4chip4Ibex22enable_plic_interrupts17h30a1ef3f1c684d47E+0x58>
200067e4:	00b50733          	add	a4,a0,a1
200067e8:	c314                	sw	a3,0(a4)
200067ea:	0591                	addi	a1,a1,4
200067ec:	fec59ce3          	bne	a1,a2,200067e4 <_ZN4ibex4chip4Ibex22enable_plic_interrupts17h30a1ef3f1c684d47E+0x4c>
200067f0:	4585                	li	a1,1
200067f2:	20b52623          	sw	a1,524(a0)
200067f6:	4422                	lw	s0,8(sp)
200067f8:	40b2                	lw	ra,12(sp)
200067fa:	0141                	addi	sp,sp,16
200067fc:	8082                	ret

200067fe <_start_trap_rust>:
200067fe:	1141                	addi	sp,sp,-16
20006800:	c606                	sw	ra,12(sp)
20006802:	c422                	sw	s0,8(sp)
20006804:	0800                	addi	s0,sp,16
20006806:	34202573          	csrr	a0,mcause
2000680a:	00005097          	auipc	ra,0x5
2000680e:	bd8080e7          	jalr	-1064(ra) # 2000b3e2 <_ZN166_$LT$rv32i..csr..mcause..Trap$u20$as$u20$core..convert..From$LT$tock_registers..registers..LocalRegisterCopy$LT$u32$C$rv32i..csr..mcause..mcause..Register$GT$$GT$$GT$4from17he55e2e304bb2ea34E>
20006812:	8905                	andi	a0,a0,1
20006814:	e519                	bnez	a0,20006822 <_start_trap_rust+0x24>
20006816:	852e                	mv	a0,a1
20006818:	00000097          	auipc	ra,0x0
2000681c:	03e080e7          	jalr	62(ra) # 20006856 <_ZN4ibex4chip16handle_interrupt17hec44cfe5b71d7908E>
20006820:	a031                	j	2000682c <_start_trap_rust+0x2e>
20006822:	0fe5f513          	andi	a0,a1,254
20006826:	45a1                	li	a1,8
20006828:	00b51663          	bne	a0,a1,20006834 <_start_trap_rust+0x36>
2000682c:	4422                	lw	s0,8(sp)
2000682e:	40b2                	lw	ra,12(sp)
20006830:	0141                	addi	sp,sp,16
20006832:	8082                	ret
20006834:	2000e537          	lui	a0,0x2000e
20006838:	ab050513          	addi	a0,a0,-1360 # 2000dab0 <.Lanon.eb07db2179ae97cf87156a9bbd6f5ec6.3>
2000683c:	100015b7          	lui	a1,0x10001
20006840:	59058613          	addi	a2,a1,1424 # 10001590 <.Lanon.eb07db2179ae97cf87156a9bbd6f5ec6.5>
20006844:	45bd                	li	a1,15
20006846:	ffffe097          	auipc	ra,0xffffe
2000684a:	29a080e7          	jalr	666(ra) # 20004ae0 <_ZN4core9panicking5panic17haaa649c2263e8176E>
2000684e:	00008097          	auipc	ra,0x8
20006852:	38e080e7          	jalr	910(ra) # 2000ebdc <abort>

20006856 <_ZN4ibex4chip16handle_interrupt17hec44cfe5b71d7908E>:
20006856:	1101                	addi	sp,sp,-32
20006858:	ce06                	sw	ra,28(sp)
2000685a:	cc22                	sw	s0,24(sp)
2000685c:	1000                	addi	s0,sp,32
2000685e:	0ff57513          	andi	a0,a0,255
20006862:	c939                	beqz	a0,200068b8 <_ZN4ibex4chip16handle_interrupt17hec44cfe5b71d7908E+0x62>
20006864:	4585                	li	a1,1
20006866:	06b50b63          	beq	a0,a1,200068dc <_ZN4ibex4chip16handle_interrupt17hec44cfe5b71d7908E+0x86>
2000686a:	4609                	li	a2,2
2000686c:	0ac50463          	beq	a0,a2,20006914 <_ZN4ibex4chip16handle_interrupt17hec44cfe5b71d7908E+0xbe>
20006870:	460d                	li	a2,3
20006872:	04c50363          	beq	a0,a2,200068b8 <_ZN4ibex4chip16handle_interrupt17hec44cfe5b71d7908E+0x62>
20006876:	4611                	li	a2,4
20006878:	06c50263          	beq	a0,a2,200068dc <_ZN4ibex4chip16handle_interrupt17hec44cfe5b71d7908E+0x86>
2000687c:	4615                	li	a2,5
2000687e:	0ac50163          	beq	a0,a2,20006920 <_ZN4ibex4chip16handle_interrupt17hec44cfe5b71d7908E+0xca>
20006882:	4619                	li	a2,6
20006884:	02c50a63          	beq	a0,a2,200068b8 <_ZN4ibex4chip16handle_interrupt17hec44cfe5b71d7908E+0x62>
20006888:	461d                	li	a2,7
2000688a:	04c50963          	beq	a0,a2,200068dc <_ZN4ibex4chip16handle_interrupt17hec44cfe5b71d7908E+0x86>
2000688e:	45a1                	li	a1,8
20006890:	08b50f63          	beq	a0,a1,2000692e <_ZN4ibex4chip16handle_interrupt17hec44cfe5b71d7908E+0xd8>
20006894:	fe042a23          	sw	zero,-12(s0)
20006898:	fe042423          	sw	zero,-24(s0)
2000689c:	4505                	li	a0,1
2000689e:	fea42223          	sw	a0,-28(s0)
200068a2:	2000e537          	lui	a0,0x2000e
200068a6:	00c50513          	addi	a0,a0,12 # 2000e00c <.Lanon.d9778860540cf11319bb138777b2a7cb.67>
200068aa:	fea42823          	sw	a0,-16(s0)
200068ae:	10001537          	lui	a0,0x10001
200068b2:	5a050513          	addi	a0,a0,1440 # 100015a0 <.Lanon.eb07db2179ae97cf87156a9bbd6f5ec6.7>
200068b6:	a099                	j	200068fc <_ZN4ibex4chip16handle_interrupt17hec44cfe5b71d7908E+0xa6>
200068b8:	fe042a23          	sw	zero,-12(s0)
200068bc:	fe042423          	sw	zero,-24(s0)
200068c0:	4505                	li	a0,1
200068c2:	fea42223          	sw	a0,-28(s0)
200068c6:	2000e537          	lui	a0,0x2000e
200068ca:	00c50513          	addi	a0,a0,12 # 2000e00c <.Lanon.d9778860540cf11319bb138777b2a7cb.67>
200068ce:	fea42823          	sw	a0,-16(s0)
200068d2:	10001537          	lui	a0,0x10001
200068d6:	5a850513          	addi	a0,a0,1448 # 100015a8 <.Lanon.eb07db2179ae97cf87156a9bbd6f5ec6.11>
200068da:	a00d                	j	200068fc <_ZN4ibex4chip16handle_interrupt17hec44cfe5b71d7908E+0xa6>
200068dc:	fe042a23          	sw	zero,-12(s0)
200068e0:	fe042423          	sw	zero,-24(s0)
200068e4:	feb42223          	sw	a1,-28(s0)
200068e8:	2000e537          	lui	a0,0x2000e
200068ec:	00c50513          	addi	a0,a0,12 # 2000e00c <.Lanon.d9778860540cf11319bb138777b2a7cb.67>
200068f0:	fea42823          	sw	a0,-16(s0)
200068f4:	10001537          	lui	a0,0x10001
200068f8:	5b050513          	addi	a0,a0,1456 # 100015b0 <.Lanon.eb07db2179ae97cf87156a9bbd6f5ec6.9>
200068fc:	fea42023          	sw	a0,-32(s0)
20006900:	fe040513          	addi	a0,s0,-32
20006904:	00001097          	auipc	ra,0x1
20006908:	9c6080e7          	jalr	-1594(ra) # 200072ca <_ZN6kernel5debug15begin_debug_fmt17h3453ed27838581f3E>
2000690c:	4462                	lw	s0,24(sp)
2000690e:	40f2                	lw	ra,28(sp)
20006910:	6105                	addi	sp,sp,32
20006912:	8082                	ret
20006914:	30402573          	csrr	a0,mie
20006918:	995d                	andi	a0,a0,-9
2000691a:	30451073          	csrw	mie,a0
2000691e:	b7fd                	j	2000690c <_ZN4ibex4chip16handle_interrupt17hec44cfe5b71d7908E+0xb6>
20006920:	30402573          	csrr	a0,mie
20006924:	f7f57513          	andi	a0,a0,-129
20006928:	30451073          	csrw	mie,a0
2000692c:	b7c5                	j	2000690c <_ZN4ibex4chip16handle_interrupt17hec44cfe5b71d7908E+0xb6>
2000692e:	757d                	lui	a0,0xfffff
20006930:	7ff50513          	addi	a0,a0,2047 # fffff7ff <_sapps+0xdffcf7ff>
20006934:	304025f3          	csrr	a1,mie
20006938:	8d6d                	and	a0,a0,a1
2000693a:	30451073          	csrw	mie,a0
2000693e:	b7f9                	j	2000690c <_ZN4ibex4chip16handle_interrupt17hec44cfe5b71d7908E+0xb6>

20006940 <_disable_interrupt_trap_handler>:
20006940:	1141                	addi	sp,sp,-16
20006942:	c606                	sw	ra,12(sp)
20006944:	c422                	sw	s0,8(sp)
20006946:	0800                	addi	s0,sp,16
20006948:	00005097          	auipc	ra,0x5
2000694c:	b7c080e7          	jalr	-1156(ra) # 2000b4c4 <_ZN75_$LT$rv32i..csr..mcause..Trap$u20$as$u20$core..convert..From$LT$u32$GT$$GT$4from17h20c7d60a4846e24fE>
20006950:	862a                	mv	a2,a0
20006952:	852e                	mv	a0,a1
20006954:	00167593          	andi	a1,a2,1
20006958:	e981                	bnez	a1,20006968 <_disable_interrupt_trap_handler+0x28>
2000695a:	4422                	lw	s0,8(sp)
2000695c:	40b2                	lw	ra,12(sp)
2000695e:	0141                	addi	sp,sp,16
20006960:	00000317          	auipc	t1,0x0
20006964:	ef630067          	jr	-266(t1) # 20006856 <_ZN4ibex4chip16handle_interrupt17hec44cfe5b71d7908E>
20006968:	2000e537          	lui	a0,0x2000e
2000696c:	b3650513          	addi	a0,a0,-1226 # 2000db36 <.Lanon.eb07db2179ae97cf87156a9bbd6f5ec6.12>
20006970:	100015b7          	lui	a1,0x10001
20006974:	5b858613          	addi	a2,a1,1464 # 100015b8 <.Lanon.eb07db2179ae97cf87156a9bbd6f5ec6.13>
20006978:	45e5                	li	a1,25
2000697a:	ffffe097          	auipc	ra,0xffffe
2000697e:	166080e7          	jalr	358(ra) # 20004ae0 <_ZN4core9panicking5panic17haaa649c2263e8176E>
20006982:	00008097          	auipc	ra,0x8
20006986:	25a080e7          	jalr	602(ra) # 2000ebdc <abort>

2000698a <_ZN73_$LT$ibex..gpio..Port$u20$as$u20$core..ops..index..Index$LT$usize$GT$$GT$5index17hece92cd3d6ac71b2E>:
2000698a:	1141                	addi	sp,sp,-16
2000698c:	c606                	sw	ra,12(sp)
2000698e:	c422                	sw	s0,8(sp)
20006990:	0800                	addi	s0,sp,16
20006992:	85aa                	mv	a1,a0
20006994:	457d                	li	a0,31
20006996:	00b56e63          	bltu	a0,a1,200069b2 <_ZN73_$LT$ibex..gpio..Port$u20$as$u20$core..ops..index..Index$LT$usize$GT$$GT$5index17hece92cd3d6ac71b2E+0x28>
2000699a:	4551                	li	a0,20
2000699c:	02a58533          	mul	a0,a1,a0
200069a0:	100015b7          	lui	a1,0x10001
200069a4:	60c58593          	addi	a1,a1,1548 # 1000160c <_ZN4ibex4gpio4PORT17h42b1a5fcc7cae9dcE>
200069a8:	952e                	add	a0,a0,a1
200069aa:	4422                	lw	s0,8(sp)
200069ac:	40b2                	lw	ra,12(sp)
200069ae:	0141                	addi	sp,sp,16
200069b0:	8082                	ret
200069b2:	10001537          	lui	a0,0x10001
200069b6:	5fc50513          	addi	a0,a0,1532 # 100015fc <anon.efd8bea743350a274c79f0e50c0d2211.1.llvm.13785146596716918866>
200069ba:	02000613          	li	a2,32
200069be:	ffffe097          	auipc	ra,0xffffe
200069c2:	16a080e7          	jalr	362(ra) # 20004b28 <_ZN4core9panicking18panic_bounds_check17h95c8cd8536e82dafE>
200069c6:	00008097          	auipc	ra,0x8
200069ca:	216080e7          	jalr	534(ra) # 2000ebdc <abort>

200069ce <_ZN6kernel9tbfheader9TbfHeader18get_protected_size17heece472e2d897d0aE>:
200069ce:	1141                	addi	sp,sp,-16
200069d0:	c606                	sw	ra,12(sp)
200069d2:	c422                	sw	s0,8(sp)
200069d4:	0800                	addi	s0,sp,16
200069d6:	4110                	lw	a2,0(a0)
200069d8:	4581                	li	a1,0
200069da:	ea11                	bnez	a2,200069ee <_ZN6kernel9tbfheader9TbfHeader18get_protected_size17heece472e2d897d0aE+0x20>
200069dc:	414c                	lw	a1,4(a0)
200069de:	4508                	lw	a0,8(a0)
200069e0:	c119                	beqz	a0,200069e6 <_ZN6kernel9tbfheader9TbfHeader18get_protected_size17heece472e2d897d0aE+0x18>
200069e2:	4148                	lw	a0,4(a0)
200069e4:	a011                	j	200069e8 <_ZN6kernel9tbfheader9TbfHeader18get_protected_size17heece472e2d897d0aE+0x1a>
200069e6:	4501                	li	a0,0
200069e8:	0025d583          	lhu	a1,2(a1)
200069ec:	95aa                	add	a1,a1,a0
200069ee:	852e                	mv	a0,a1
200069f0:	4422                	lw	s0,8(sp)
200069f2:	40b2                	lw	ra,12(sp)
200069f4:	0141                	addi	sp,sp,16
200069f6:	8082                	ret

200069f8 <_ZN6kernel9tbfheader9TbfHeader24get_init_function_offset17he2c02b8b32c47297E>:
200069f8:	1141                	addi	sp,sp,-16
200069fa:	c606                	sw	ra,12(sp)
200069fc:	c422                	sw	s0,8(sp)
200069fe:	0800                	addi	s0,sp,16
20006a00:	4110                	lw	a2,0(a0)
20006a02:	4581                	li	a1,0
20006a04:	ea11                	bnez	a2,20006a18 <_ZN6kernel9tbfheader9TbfHeader24get_init_function_offset17he2c02b8b32c47297E+0x20>
20006a06:	414c                	lw	a1,4(a0)
20006a08:	4508                	lw	a0,8(a0)
20006a0a:	c119                	beqz	a0,20006a10 <_ZN6kernel9tbfheader9TbfHeader24get_init_function_offset17he2c02b8b32c47297E+0x18>
20006a0c:	4108                	lw	a0,0(a0)
20006a0e:	a011                	j	20006a12 <_ZN6kernel9tbfheader9TbfHeader24get_init_function_offset17he2c02b8b32c47297E+0x1a>
20006a10:	4501                	li	a0,0
20006a12:	0025d583          	lhu	a1,2(a1)
20006a16:	95aa                	add	a1,a1,a0
20006a18:	852e                	mv	a0,a1
20006a1a:	4422                	lw	s0,8(sp)
20006a1c:	40b2                	lw	ra,12(sp)
20006a1e:	0141                	addi	sp,sp,16
20006a20:	8082                	ret

20006a22 <_ZN59_$LT$kernel..process..State$u20$as$u20$core..fmt..Debug$GT$3fmt17h71e90a0c72e19d61E>:
20006a22:	1101                	addi	sp,sp,-32
20006a24:	ce06                	sw	ra,28(sp)
20006a26:	cc22                	sw	s0,24(sp)
20006a28:	ca26                	sw	s1,20(sp)
20006a2a:	1000                	addi	s0,sp,32
20006a2c:	84ae                	mv	s1,a1
20006a2e:	00054503          	lbu	a0,0(a0)
20006a32:	c90d                	beqz	a0,20006a64 <_ZN59_$LT$kernel..process..State$u20$as$u20$core..fmt..Debug$GT$3fmt17h71e90a0c72e19d61E+0x42>
20006a34:	4585                	li	a1,1
20006a36:	02b50f63          	beq	a0,a1,20006a74 <_ZN59_$LT$kernel..process..State$u20$as$u20$core..fmt..Debug$GT$3fmt17h71e90a0c72e19d61E+0x52>
20006a3a:	4589                	li	a1,2
20006a3c:	04b50563          	beq	a0,a1,20006a86 <_ZN59_$LT$kernel..process..State$u20$as$u20$core..fmt..Debug$GT$3fmt17h71e90a0c72e19d61E+0x64>
20006a40:	458d                	li	a1,3
20006a42:	04b50a63          	beq	a0,a1,20006a96 <_ZN59_$LT$kernel..process..State$u20$as$u20$core..fmt..Debug$GT$3fmt17h71e90a0c72e19d61E+0x74>
20006a46:	4591                	li	a1,4
20006a48:	04b50f63          	beq	a0,a1,20006aa6 <_ZN59_$LT$kernel..process..State$u20$as$u20$core..fmt..Debug$GT$3fmt17h71e90a0c72e19d61E+0x84>
20006a4c:	4595                	li	a1,5
20006a4e:	06b50563          	beq	a0,a1,20006ab8 <_ZN59_$LT$kernel..process..State$u20$as$u20$core..fmt..Debug$GT$3fmt17h71e90a0c72e19d61E+0x96>
20006a52:	4cc8                	lw	a0,28(s1)
20006a54:	4554                	lw	a3,12(a0)
20006a56:	4c88                	lw	a0,24(s1)
20006a58:	2000e5b7          	lui	a1,0x2000e
20006a5c:	b7e58593          	addi	a1,a1,-1154 # 2000db7e <.Lanon.5734e79b67304b96ecc62fc75092324d.10>
20006a60:	4625                	li	a2,9
20006a62:	a09d                	j	20006ac8 <_ZN59_$LT$kernel..process..State$u20$as$u20$core..fmt..Debug$GT$3fmt17h71e90a0c72e19d61E+0xa6>
20006a64:	4cc8                	lw	a0,28(s1)
20006a66:	4554                	lw	a3,12(a0)
20006a68:	4c88                	lw	a0,24(s1)
20006a6a:	2000e5b7          	lui	a1,0x2000e
20006a6e:	b8758593          	addi	a1,a1,-1145 # 2000db87 <.Lanon.5734e79b67304b96ecc62fc75092324d.16>
20006a72:	a801                	j	20006a82 <_ZN59_$LT$kernel..process..State$u20$as$u20$core..fmt..Debug$GT$3fmt17h71e90a0c72e19d61E+0x60>
20006a74:	4cc8                	lw	a0,28(s1)
20006a76:	4554                	lw	a3,12(a0)
20006a78:	4c88                	lw	a0,24(s1)
20006a7a:	2000e5b7          	lui	a1,0x2000e
20006a7e:	b8e58593          	addi	a1,a1,-1138 # 2000db8e <.Lanon.5734e79b67304b96ecc62fc75092324d.15>
20006a82:	461d                	li	a2,7
20006a84:	a091                	j	20006ac8 <_ZN59_$LT$kernel..process..State$u20$as$u20$core..fmt..Debug$GT$3fmt17h71e90a0c72e19d61E+0xa6>
20006a86:	4cc8                	lw	a0,28(s1)
20006a88:	4554                	lw	a3,12(a0)
20006a8a:	4c88                	lw	a0,24(s1)
20006a8c:	2000e5b7          	lui	a1,0x2000e
20006a90:	b9558593          	addi	a1,a1,-1131 # 2000db95 <.Lanon.5734e79b67304b96ecc62fc75092324d.14>
20006a94:	a005                	j	20006ab4 <_ZN59_$LT$kernel..process..State$u20$as$u20$core..fmt..Debug$GT$3fmt17h71e90a0c72e19d61E+0x92>
20006a96:	4cc8                	lw	a0,28(s1)
20006a98:	4554                	lw	a3,12(a0)
20006a9a:	4c88                	lw	a0,24(s1)
20006a9c:	2000e5b7          	lui	a1,0x2000e
20006aa0:	ba358593          	addi	a1,a1,-1117 # 2000dba3 <.Lanon.5734e79b67304b96ecc62fc75092324d.13>
20006aa4:	a801                	j	20006ab4 <_ZN59_$LT$kernel..process..State$u20$as$u20$core..fmt..Debug$GT$3fmt17h71e90a0c72e19d61E+0x92>
20006aa6:	4cc8                	lw	a0,28(s1)
20006aa8:	4554                	lw	a3,12(a0)
20006aaa:	4c88                	lw	a0,24(s1)
20006aac:	2000e5b7          	lui	a1,0x2000e
20006ab0:	bb158593          	addi	a1,a1,-1103 # 2000dbb1 <.Lanon.5734e79b67304b96ecc62fc75092324d.12>
20006ab4:	4639                	li	a2,14
20006ab6:	a809                	j	20006ac8 <_ZN59_$LT$kernel..process..State$u20$as$u20$core..fmt..Debug$GT$3fmt17h71e90a0c72e19d61E+0xa6>
20006ab8:	4cc8                	lw	a0,28(s1)
20006aba:	4554                	lw	a3,12(a0)
20006abc:	4c88                	lw	a0,24(s1)
20006abe:	2000e5b7          	lui	a1,0x2000e
20006ac2:	bbf58593          	addi	a1,a1,-1089 # 2000dbbf <.Lanon.5734e79b67304b96ecc62fc75092324d.11>
20006ac6:	4615                	li	a2,5
20006ac8:	9682                	jalr	a3
20006aca:	fea40823          	sb	a0,-16(s0)
20006ace:	fe942423          	sw	s1,-24(s0)
20006ad2:	fe0408a3          	sb	zero,-15(s0)
20006ad6:	fe042623          	sw	zero,-20(s0)
20006ada:	fe840513          	addi	a0,s0,-24
20006ade:	00000097          	auipc	ra,0x0
20006ae2:	ab8080e7          	jalr	-1352(ra) # 20006596 <_ZN4core3fmt8builders10DebugTuple6finish17hbb92ef557aadfbf8E>
20006ae6:	44d2                	lw	s1,20(sp)
20006ae8:	4462                	lw	s0,24(sp)
20006aea:	40f2                	lw	ra,28(sp)
20006aec:	6105                	addi	sp,sp,32
20006aee:	8082                	ret

20006af0 <_ZN6kernel8callback8Callback8schedule17h74c330256afd1722E>:
20006af0:	715d                	addi	sp,sp,-80
20006af2:	c686                	sw	ra,76(sp)
20006af4:	c4a2                	sw	s0,72(sp)
20006af6:	c2a6                	sw	s1,68(sp)
20006af8:	c0ca                	sw	s2,64(sp)
20006afa:	de4e                	sw	s3,60(sp)
20006afc:	dc52                	sw	s4,56(sp)
20006afe:	da56                	sw	s5,52(sp)
20006b00:	d85a                	sw	s6,48(sp)
20006b02:	0880                	addi	s0,sp,80
20006b04:	89b2                	mv	s3,a2
20006b06:	892e                	mv	s2,a1
20006b08:	84aa                	mv	s1,a0
20006b0a:	410c                	lw	a1,0(a0)
20006b0c:	4148                	lw	a0,4(a0)
20006b0e:	4590                	lw	a2,8(a1)
20006b10:	06c57463          	bgeu	a0,a2,20006b78 <_ZN6kernel8callback8Callback8schedule17h74c330256afd1722E+0x88>
20006b14:	41cc                	lw	a1,4(a1)
20006b16:	050e                	slli	a0,a0,0x3
20006b18:	952e                	add	a0,a0,a1
20006b1a:	00052a03          	lw	s4,0(a0)
20006b1e:	040a0d63          	beqz	s4,20006b78 <_ZN6kernel8callback8Callback8schedule17h74c330256afd1722E+0x88>
20006b22:	0084ab03          	lw	s6,8(s1)
20006b26:	00452a83          	lw	s5,4(a0)
20006b2a:	00caa603          	lw	a2,12(s5)
20006b2e:	fb840513          	addi	a0,s0,-72
20006b32:	85d2                	mv	a1,s4
20006b34:	9602                	jalr	a2
20006b36:	fc042503          	lw	a0,-64(s0)
20006b3a:	03651f63          	bne	a0,s6,20006b78 <_ZN6kernel8callback8Callback8schedule17h74c330256afd1722E+0x88>
20006b3e:	44c8                	lw	a0,12(s1)
20006b40:	488c                	lw	a1,16(s1)
20006b42:	48d0                	lw	a2,20(s1)
20006b44:	4c94                	lw	a3,24(s1)
20006b46:	fcd42c23          	sw	a3,-40(s0)
20006b4a:	fcc42a23          	sw	a2,-44(s0)
20006b4e:	fd342623          	sw	s3,-52(s0)
20006b52:	fd242423          	sw	s2,-56(s0)
20006b56:	fcb42223          	sw	a1,-60(s0)
20006b5a:	fca42023          	sw	a0,-64(s0)
20006b5e:	4505                	li	a0,1
20006b60:	faa42e23          	sw	a0,-68(s0)
20006b64:	fc042823          	sw	zero,-48(s0)
20006b68:	fa042c23          	sw	zero,-72(s0)
20006b6c:	010aa603          	lw	a2,16(s5)
20006b70:	fb840593          	addi	a1,s0,-72
20006b74:	8552                	mv	a0,s4
20006b76:	9602                	jalr	a2
20006b78:	5b42                	lw	s6,48(sp)
20006b7a:	5ad2                	lw	s5,52(sp)
20006b7c:	5a62                	lw	s4,56(sp)
20006b7e:	59f2                	lw	s3,60(sp)
20006b80:	4906                	lw	s2,64(sp)
20006b82:	4496                	lw	s1,68(sp)
20006b84:	4426                	lw	s0,72(sp)
20006b86:	40b6                	lw	ra,76(sp)
20006b88:	6161                	addi	sp,sp,80
20006b8a:	8082                	ret

20006b8c <_ZN74_$LT$kernel..mem..AppPtr$LT$L$C$T$GT$$u20$as$u20$core..ops..drop..Drop$GT$4drop17h5721b51cc2d71355E>:
20006b8c:	7179                	addi	sp,sp,-48
20006b8e:	d606                	sw	ra,44(sp)
20006b90:	d422                	sw	s0,40(sp)
20006b92:	d226                	sw	s1,36(sp)
20006b94:	d04a                	sw	s2,32(sp)
20006b96:	ce4e                	sw	s3,28(sp)
20006b98:	cc52                	sw	s4,24(sp)
20006b9a:	1800                	addi	s0,sp,48
20006b9c:	84aa                	mv	s1,a0
20006b9e:	414c                	lw	a1,4(a0)
20006ba0:	4508                	lw	a0,8(a0)
20006ba2:	4590                	lw	a2,8(a1)
20006ba4:	02c57c63          	bgeu	a0,a2,20006bdc <_ZN74_$LT$kernel..mem..AppPtr$LT$L$C$T$GT$$u20$as$u20$core..ops..drop..Drop$GT$4drop17h5721b51cc2d71355E+0x50>
20006ba8:	41cc                	lw	a1,4(a1)
20006baa:	050e                	slli	a0,a0,0x3
20006bac:	952e                	add	a0,a0,a1
20006bae:	00052903          	lw	s2,0(a0)
20006bb2:	02090563          	beqz	s2,20006bdc <_ZN74_$LT$kernel..mem..AppPtr$LT$L$C$T$GT$$u20$as$u20$core..ops..drop..Drop$GT$4drop17h5721b51cc2d71355E+0x50>
20006bb6:	00c4aa03          	lw	s4,12(s1)
20006bba:	00452983          	lw	s3,4(a0)
20006bbe:	00c9a603          	lw	a2,12(s3)
20006bc2:	fd840513          	addi	a0,s0,-40
20006bc6:	85ca                	mv	a1,s2
20006bc8:	9602                	jalr	a2
20006bca:	fe042503          	lw	a0,-32(s0)
20006bce:	01451763          	bne	a0,s4,20006bdc <_ZN74_$LT$kernel..mem..AppPtr$LT$L$C$T$GT$$u20$as$u20$core..ops..drop..Drop$GT$4drop17h5721b51cc2d71355E+0x50>
20006bd2:	0789a603          	lw	a2,120(s3)
20006bd6:	408c                	lw	a1,0(s1)
20006bd8:	854a                	mv	a0,s2
20006bda:	9602                	jalr	a2
20006bdc:	4a62                	lw	s4,24(sp)
20006bde:	49f2                	lw	s3,28(sp)
20006be0:	5902                	lw	s2,32(sp)
20006be2:	5492                	lw	s1,36(sp)
20006be4:	5422                	lw	s0,40(sp)
20006be6:	50b2                	lw	ra,44(sp)
20006be8:	6145                	addi	sp,sp,48
20006bea:	8082                	ret

20006bec <_ZN6kernel3hil4gpio21InterruptValueWrapper8finalize17h951d955a388479aeE>:
20006bec:	1141                	addi	sp,sp,-16
20006bee:	c606                	sw	ra,12(sp)
20006bf0:	c422                	sw	s0,8(sp)
20006bf2:	c226                	sw	s1,4(sp)
20006bf4:	0800                	addi	s0,sp,16
20006bf6:	84aa                	mv	s1,a0
20006bf8:	4908                	lw	a0,16(a0)
20006bfa:	4554                	lw	a3,12(a0)
20006bfc:	44c8                	lw	a0,12(s1)
20006bfe:	100025b7          	lui	a1,0x10002
20006c02:	88c58613          	addi	a2,a1,-1908 # 1000188c <.Lanon.2bf90df766827a5eb911e8eace967d49.1>
20006c06:	85a6                	mv	a1,s1
20006c08:	9682                	jalr	a3
20006c0a:	8526                	mv	a0,s1
20006c0c:	4492                	lw	s1,4(sp)
20006c0e:	4422                	lw	s0,8(sp)
20006c10:	40b2                	lw	ra,12(sp)
20006c12:	0141                	addi	sp,sp,16
20006c14:	8082                	ret

20006c16 <_ZN4core3ptr13drop_in_place17h3d819e4116d14c2dE>:
20006c16:	1141                	addi	sp,sp,-16
20006c18:	c606                	sw	ra,12(sp)
20006c1a:	c422                	sw	s0,8(sp)
20006c1c:	0800                	addi	s0,sp,16
20006c1e:	4422                	lw	s0,8(sp)
20006c20:	40b2                	lw	ra,12(sp)
20006c22:	0141                	addi	sp,sp,16
20006c24:	8082                	ret

20006c26 <_ZN86_$LT$kernel..hil..gpio..InterruptValueWrapper$u20$as$u20$kernel..hil..gpio..Client$GT$5fired17h20053fd634b4b389E>:
20006c26:	1141                	addi	sp,sp,-16
20006c28:	c606                	sw	ra,12(sp)
20006c2a:	c422                	sw	s0,8(sp)
20006c2c:	0800                	addi	s0,sp,16
20006c2e:	85aa                	mv	a1,a0
20006c30:	4148                	lw	a0,4(a0)
20006c32:	c509                	beqz	a0,20006c3c <_ZN86_$LT$kernel..hil..gpio..InterruptValueWrapper$u20$as$u20$kernel..hil..gpio..Client$GT$5fired17h20053fd634b4b389E+0x16>
20006c34:	4590                	lw	a2,8(a1)
20006c36:	4650                	lw	a2,12(a2)
20006c38:	418c                	lw	a1,0(a1)
20006c3a:	9602                	jalr	a2
20006c3c:	4422                	lw	s0,8(sp)
20006c3e:	40b2                	lw	ra,12(sp)
20006c40:	0141                	addi	sp,sp,16
20006c42:	8082                	ret

20006c44 <_ZN98_$LT$kernel..hil..gpio..InterruptValueWrapper$u20$as$u20$kernel..hil..gpio..InterruptWithValue$GT$9set_value17h591b6bacf88cf673E>:
20006c44:	1141                	addi	sp,sp,-16
20006c46:	c606                	sw	ra,12(sp)
20006c48:	c422                	sw	s0,8(sp)
20006c4a:	0800                	addi	s0,sp,16
20006c4c:	c10c                	sw	a1,0(a0)
20006c4e:	4422                	lw	s0,8(sp)
20006c50:	40b2                	lw	ra,12(sp)
20006c52:	0141                	addi	sp,sp,16
20006c54:	8082                	ret

20006c56 <_ZN98_$LT$kernel..hil..gpio..InterruptValueWrapper$u20$as$u20$kernel..hil..gpio..InterruptWithValue$GT$5value17h999a84e4f527fe3dE>:
20006c56:	1141                	addi	sp,sp,-16
20006c58:	c606                	sw	ra,12(sp)
20006c5a:	c422                	sw	s0,8(sp)
20006c5c:	0800                	addi	s0,sp,16
20006c5e:	4108                	lw	a0,0(a0)
20006c60:	4422                	lw	s0,8(sp)
20006c62:	40b2                	lw	ra,12(sp)
20006c64:	0141                	addi	sp,sp,16
20006c66:	8082                	ret

20006c68 <_ZN98_$LT$kernel..hil..gpio..InterruptValueWrapper$u20$as$u20$kernel..hil..gpio..InterruptWithValue$GT$10set_client17hf72c6628886c11deE>:
20006c68:	1141                	addi	sp,sp,-16
20006c6a:	c606                	sw	ra,12(sp)
20006c6c:	c422                	sw	s0,8(sp)
20006c6e:	0800                	addi	s0,sp,16
20006c70:	c510                	sw	a2,8(a0)
20006c72:	c14c                	sw	a1,4(a0)
20006c74:	4422                	lw	s0,8(sp)
20006c76:	40b2                	lw	ra,12(sp)
20006c78:	0141                	addi	sp,sp,16
20006c7a:	8082                	ret

20006c7c <_ZN98_$LT$kernel..hil..gpio..InterruptValueWrapper$u20$as$u20$kernel..hil..gpio..InterruptWithValue$GT$10is_pending17h6854554171578d6dE>:
20006c7c:	1141                	addi	sp,sp,-16
20006c7e:	c606                	sw	ra,12(sp)
20006c80:	c422                	sw	s0,8(sp)
20006c82:	0800                	addi	s0,sp,16
20006c84:	454c                	lw	a1,12(a0)
20006c86:	4908                	lw	a0,16(a0)
20006c88:	4d1c                	lw	a5,24(a0)
20006c8a:	852e                	mv	a0,a1
20006c8c:	4422                	lw	s0,8(sp)
20006c8e:	40b2                	lw	ra,12(sp)
20006c90:	0141                	addi	sp,sp,16
20006c92:	8782                	jr	a5

20006c94 <_ZN98_$LT$kernel..hil..gpio..InterruptValueWrapper$u20$as$u20$kernel..hil..gpio..InterruptWithValue$GT$17enable_interrupts17h2654aef6f6752dfeE>:
20006c94:	1141                	addi	sp,sp,-16
20006c96:	c606                	sw	ra,12(sp)
20006c98:	c422                	sw	s0,8(sp)
20006c9a:	0800                	addi	s0,sp,16
20006c9c:	4550                	lw	a2,12(a0)
20006c9e:	4908                	lw	a0,16(a0)
20006ca0:	4914                	lw	a3,16(a0)
20006ca2:	8532                	mv	a0,a2
20006ca4:	9682                	jalr	a3
20006ca6:	4505                	li	a0,1
20006ca8:	4422                	lw	s0,8(sp)
20006caa:	40b2                	lw	ra,12(sp)
20006cac:	0141                	addi	sp,sp,16
20006cae:	8082                	ret

20006cb0 <_ZN98_$LT$kernel..hil..gpio..InterruptValueWrapper$u20$as$u20$kernel..hil..gpio..InterruptWithValue$GT$18disable_interrupts17hfe43f0b562a57cc8E>:
20006cb0:	1141                	addi	sp,sp,-16
20006cb2:	c606                	sw	ra,12(sp)
20006cb4:	c422                	sw	s0,8(sp)
20006cb6:	0800                	addi	s0,sp,16
20006cb8:	454c                	lw	a1,12(a0)
20006cba:	4908                	lw	a0,16(a0)
20006cbc:	495c                	lw	a5,20(a0)
20006cbe:	852e                	mv	a0,a1
20006cc0:	4422                	lw	s0,8(sp)
20006cc2:	40b2                	lw	ra,12(sp)
20006cc4:	0141                	addi	sp,sp,16
20006cc6:	8782                	jr	a5

20006cc8 <_ZN85_$LT$kernel..hil..gpio..InterruptValueWrapper$u20$as$u20$kernel..hil..gpio..Input$GT$4read17h95c95417af4a8dc2E>:
20006cc8:	1141                	addi	sp,sp,-16
20006cca:	c606                	sw	ra,12(sp)
20006ccc:	c422                	sw	s0,8(sp)
20006cce:	0800                	addi	s0,sp,16
20006cd0:	454c                	lw	a1,12(a0)
20006cd2:	4908                	lw	a0,16(a0)
20006cd4:	4d5c                	lw	a5,28(a0)
20006cd6:	852e                	mv	a0,a1
20006cd8:	4422                	lw	s0,8(sp)
20006cda:	40b2                	lw	ra,12(sp)
20006cdc:	0141                	addi	sp,sp,16
20006cde:	8782                	jr	a5

20006ce0 <_ZN89_$LT$kernel..hil..gpio..InterruptValueWrapper$u20$as$u20$kernel..hil..gpio..Configure$GT$13configuration17h4f629b068c8c8a01E>:
20006ce0:	1141                	addi	sp,sp,-16
20006ce2:	c606                	sw	ra,12(sp)
20006ce4:	c422                	sw	s0,8(sp)
20006ce6:	0800                	addi	s0,sp,16
20006ce8:	454c                	lw	a1,12(a0)
20006cea:	4908                	lw	a0,16(a0)
20006cec:	595c                	lw	a5,52(a0)
20006cee:	852e                	mv	a0,a1
20006cf0:	4422                	lw	s0,8(sp)
20006cf2:	40b2                	lw	ra,12(sp)
20006cf4:	0141                	addi	sp,sp,16
20006cf6:	8782                	jr	a5

20006cf8 <_ZN89_$LT$kernel..hil..gpio..InterruptValueWrapper$u20$as$u20$kernel..hil..gpio..Configure$GT$11make_output17he2ab13f02b5ea796E>:
20006cf8:	1141                	addi	sp,sp,-16
20006cfa:	c606                	sw	ra,12(sp)
20006cfc:	c422                	sw	s0,8(sp)
20006cfe:	0800                	addi	s0,sp,16
20006d00:	454c                	lw	a1,12(a0)
20006d02:	4908                	lw	a0,16(a0)
20006d04:	5d1c                	lw	a5,56(a0)
20006d06:	852e                	mv	a0,a1
20006d08:	4422                	lw	s0,8(sp)
20006d0a:	40b2                	lw	ra,12(sp)
20006d0c:	0141                	addi	sp,sp,16
20006d0e:	8782                	jr	a5

20006d10 <_ZN89_$LT$kernel..hil..gpio..InterruptValueWrapper$u20$as$u20$kernel..hil..gpio..Configure$GT$14disable_output17hbf0ff78faa7f6405E>:
20006d10:	1141                	addi	sp,sp,-16
20006d12:	c606                	sw	ra,12(sp)
20006d14:	c422                	sw	s0,8(sp)
20006d16:	0800                	addi	s0,sp,16
20006d18:	454c                	lw	a1,12(a0)
20006d1a:	4908                	lw	a0,16(a0)
20006d1c:	5d5c                	lw	a5,60(a0)
20006d1e:	852e                	mv	a0,a1
20006d20:	4422                	lw	s0,8(sp)
20006d22:	40b2                	lw	ra,12(sp)
20006d24:	0141                	addi	sp,sp,16
20006d26:	8782                	jr	a5

20006d28 <_ZN89_$LT$kernel..hil..gpio..InterruptValueWrapper$u20$as$u20$kernel..hil..gpio..Configure$GT$10make_input17h96054120fa561cd7E>:
20006d28:	1141                	addi	sp,sp,-16
20006d2a:	c606                	sw	ra,12(sp)
20006d2c:	c422                	sw	s0,8(sp)
20006d2e:	0800                	addi	s0,sp,16
20006d30:	454c                	lw	a1,12(a0)
20006d32:	4908                	lw	a0,16(a0)
20006d34:	413c                	lw	a5,64(a0)
20006d36:	852e                	mv	a0,a1
20006d38:	4422                	lw	s0,8(sp)
20006d3a:	40b2                	lw	ra,12(sp)
20006d3c:	0141                	addi	sp,sp,16
20006d3e:	8782                	jr	a5

20006d40 <_ZN89_$LT$kernel..hil..gpio..InterruptValueWrapper$u20$as$u20$kernel..hil..gpio..Configure$GT$13disable_input17ha8bbed7d9a411413E>:
20006d40:	1141                	addi	sp,sp,-16
20006d42:	c606                	sw	ra,12(sp)
20006d44:	c422                	sw	s0,8(sp)
20006d46:	0800                	addi	s0,sp,16
20006d48:	454c                	lw	a1,12(a0)
20006d4a:	4908                	lw	a0,16(a0)
20006d4c:	417c                	lw	a5,68(a0)
20006d4e:	852e                	mv	a0,a1
20006d50:	4422                	lw	s0,8(sp)
20006d52:	40b2                	lw	ra,12(sp)
20006d54:	0141                	addi	sp,sp,16
20006d56:	8782                	jr	a5

20006d58 <_ZN89_$LT$kernel..hil..gpio..InterruptValueWrapper$u20$as$u20$kernel..hil..gpio..Configure$GT$23deactivate_to_low_power17h21083020360da840E>:
20006d58:	1141                	addi	sp,sp,-16
20006d5a:	c606                	sw	ra,12(sp)
20006d5c:	c422                	sw	s0,8(sp)
20006d5e:	0800                	addi	s0,sp,16
20006d60:	454c                	lw	a1,12(a0)
20006d62:	4908                	lw	a0,16(a0)
20006d64:	453c                	lw	a5,72(a0)
20006d66:	852e                	mv	a0,a1
20006d68:	4422                	lw	s0,8(sp)
20006d6a:	40b2                	lw	ra,12(sp)
20006d6c:	0141                	addi	sp,sp,16
20006d6e:	8782                	jr	a5

20006d70 <_ZN89_$LT$kernel..hil..gpio..InterruptValueWrapper$u20$as$u20$kernel..hil..gpio..Configure$GT$18set_floating_state17h34157d71a8584966E>:
20006d70:	1141                	addi	sp,sp,-16
20006d72:	c606                	sw	ra,12(sp)
20006d74:	c422                	sw	s0,8(sp)
20006d76:	0800                	addi	s0,sp,16
20006d78:	4550                	lw	a2,12(a0)
20006d7a:	4908                	lw	a0,16(a0)
20006d7c:	457c                	lw	a5,76(a0)
20006d7e:	8532                	mv	a0,a2
20006d80:	4422                	lw	s0,8(sp)
20006d82:	40b2                	lw	ra,12(sp)
20006d84:	0141                	addi	sp,sp,16
20006d86:	8782                	jr	a5

20006d88 <_ZN89_$LT$kernel..hil..gpio..InterruptValueWrapper$u20$as$u20$kernel..hil..gpio..Configure$GT$14floating_state17h33debf4b66503aabE>:
20006d88:	1141                	addi	sp,sp,-16
20006d8a:	c606                	sw	ra,12(sp)
20006d8c:	c422                	sw	s0,8(sp)
20006d8e:	0800                	addi	s0,sp,16
20006d90:	454c                	lw	a1,12(a0)
20006d92:	4908                	lw	a0,16(a0)
20006d94:	493c                	lw	a5,80(a0)
20006d96:	852e                	mv	a0,a1
20006d98:	4422                	lw	s0,8(sp)
20006d9a:	40b2                	lw	ra,12(sp)
20006d9c:	0141                	addi	sp,sp,16
20006d9e:	8782                	jr	a5

20006da0 <_ZN89_$LT$kernel..hil..gpio..InterruptValueWrapper$u20$as$u20$kernel..hil..gpio..Configure$GT$8is_input17h38474263c50ae928E>:
20006da0:	1141                	addi	sp,sp,-16
20006da2:	c606                	sw	ra,12(sp)
20006da4:	c422                	sw	s0,8(sp)
20006da6:	0800                	addi	s0,sp,16
20006da8:	454c                	lw	a1,12(a0)
20006daa:	4908                	lw	a0,16(a0)
20006dac:	497c                	lw	a5,84(a0)
20006dae:	852e                	mv	a0,a1
20006db0:	4422                	lw	s0,8(sp)
20006db2:	40b2                	lw	ra,12(sp)
20006db4:	0141                	addi	sp,sp,16
20006db6:	8782                	jr	a5

20006db8 <_ZN89_$LT$kernel..hil..gpio..InterruptValueWrapper$u20$as$u20$kernel..hil..gpio..Configure$GT$9is_output17h1f2074a9e6e7de03E>:
20006db8:	1141                	addi	sp,sp,-16
20006dba:	c606                	sw	ra,12(sp)
20006dbc:	c422                	sw	s0,8(sp)
20006dbe:	0800                	addi	s0,sp,16
20006dc0:	454c                	lw	a1,12(a0)
20006dc2:	4908                	lw	a0,16(a0)
20006dc4:	497c                	lw	a5,84(a0)
20006dc6:	852e                	mv	a0,a1
20006dc8:	4422                	lw	s0,8(sp)
20006dca:	40b2                	lw	ra,12(sp)
20006dcc:	0141                	addi	sp,sp,16
20006dce:	8782                	jr	a5

20006dd0 <_ZN86_$LT$kernel..hil..gpio..InterruptValueWrapper$u20$as$u20$kernel..hil..gpio..Output$GT$3set17h0dc517c3d854f994E>:
20006dd0:	1141                	addi	sp,sp,-16
20006dd2:	c606                	sw	ra,12(sp)
20006dd4:	c422                	sw	s0,8(sp)
20006dd6:	0800                	addi	s0,sp,16
20006dd8:	454c                	lw	a1,12(a0)
20006dda:	4908                	lw	a0,16(a0)
20006ddc:	515c                	lw	a5,36(a0)
20006dde:	852e                	mv	a0,a1
20006de0:	4422                	lw	s0,8(sp)
20006de2:	40b2                	lw	ra,12(sp)
20006de4:	0141                	addi	sp,sp,16
20006de6:	8782                	jr	a5

20006de8 <_ZN86_$LT$kernel..hil..gpio..InterruptValueWrapper$u20$as$u20$kernel..hil..gpio..Output$GT$5clear17hec341b6cd6f4f652E>:
20006de8:	1141                	addi	sp,sp,-16
20006dea:	c606                	sw	ra,12(sp)
20006dec:	c422                	sw	s0,8(sp)
20006dee:	0800                	addi	s0,sp,16
20006df0:	454c                	lw	a1,12(a0)
20006df2:	4908                	lw	a0,16(a0)
20006df4:	551c                	lw	a5,40(a0)
20006df6:	852e                	mv	a0,a1
20006df8:	4422                	lw	s0,8(sp)
20006dfa:	40b2                	lw	ra,12(sp)
20006dfc:	0141                	addi	sp,sp,16
20006dfe:	8782                	jr	a5

20006e00 <_ZN86_$LT$kernel..hil..gpio..InterruptValueWrapper$u20$as$u20$kernel..hil..gpio..Output$GT$6toggle17h47e3320a655d5f0eE>:
20006e00:	1141                	addi	sp,sp,-16
20006e02:	c606                	sw	ra,12(sp)
20006e04:	c422                	sw	s0,8(sp)
20006e06:	0800                	addi	s0,sp,16
20006e08:	454c                	lw	a1,12(a0)
20006e0a:	4908                	lw	a0,16(a0)
20006e0c:	555c                	lw	a5,44(a0)
20006e0e:	852e                	mv	a0,a1
20006e10:	4422                	lw	s0,8(sp)
20006e12:	40b2                	lw	ra,12(sp)
20006e14:	0141                	addi	sp,sp,16
20006e16:	8782                	jr	a5

20006e18 <_ZN4core5slice74_$LT$impl$u20$core..ops..index..Index$LT$I$GT$$u20$for$u20$$u5b$T$u5d$$GT$5index17hcfc3692881aa25a7E.llvm.4797975692018640014>:
20006e18:	1141                	addi	sp,sp,-16
20006e1a:	c606                	sw	ra,12(sp)
20006e1c:	c422                	sw	s0,8(sp)
20006e1e:	0800                	addi	s0,sp,16
20006e20:	86ae                	mv	a3,a1
20006e22:	872a                	mv	a4,a0
20006e24:	4501                	li	a0,0
20006e26:	85b2                	mv	a1,a2
20006e28:	863a                	mv	a2,a4
20006e2a:	4422                	lw	s0,8(sp)
20006e2c:	40b2                	lw	ra,12(sp)
20006e2e:	0141                	addi	sp,sp,16
20006e30:	00000317          	auipc	t1,0x0
20006e34:	00830067          	jr	8(t1) # 20006e38 <_ZN99_$LT$core..ops..range..Range$LT$usize$GT$$u20$as$u20$core..slice..SliceIndex$LT$$u5b$T$u5d$$GT$$GT$5index17h37ffd480a74619a9E.llvm.4797975692018640014>

20006e38 <_ZN99_$LT$core..ops..range..Range$LT$usize$GT$$u20$as$u20$core..slice..SliceIndex$LT$$u5b$T$u5d$$GT$$GT$5index17h37ffd480a74619a9E.llvm.4797975692018640014>:
20006e38:	1141                	addi	sp,sp,-16
20006e3a:	c606                	sw	ra,12(sp)
20006e3c:	c422                	sw	s0,8(sp)
20006e3e:	0800                	addi	s0,sp,16
20006e40:	00a5eb63          	bltu	a1,a0,20006e56 <_ZN99_$LT$core..ops..range..Range$LT$usize$GT$$u20$as$u20$core..slice..SliceIndex$LT$$u5b$T$u5d$$GT$$GT$5index17h37ffd480a74619a9E.llvm.4797975692018640014+0x1e>
20006e44:	02b6e163          	bltu	a3,a1,20006e66 <_ZN99_$LT$core..ops..range..Range$LT$usize$GT$$u20$as$u20$core..slice..SliceIndex$LT$$u5b$T$u5d$$GT$$GT$5index17h37ffd480a74619a9E.llvm.4797975692018640014+0x2e>
20006e48:	962a                	add	a2,a2,a0
20006e4a:	8d89                	sub	a1,a1,a0
20006e4c:	8532                	mv	a0,a2
20006e4e:	4422                	lw	s0,8(sp)
20006e50:	40b2                	lw	ra,12(sp)
20006e52:	0141                	addi	sp,sp,16
20006e54:	8082                	ret
20006e56:	ffffe097          	auipc	ra,0xffffe
20006e5a:	220080e7          	jalr	544(ra) # 20005076 <_ZN4core5slice22slice_index_order_fail17hc5e99223d4aacee0E>
20006e5e:	00008097          	auipc	ra,0x8
20006e62:	d7e080e7          	jalr	-642(ra) # 2000ebdc <abort>
20006e66:	852e                	mv	a0,a1
20006e68:	85b6                	mv	a1,a3
20006e6a:	ffffe097          	auipc	ra,0xffffe
20006e6e:	19e080e7          	jalr	414(ra) # 20005008 <_ZN4core5slice20slice_index_len_fail17hf0dbc09a97ba34feE>
20006e72:	00008097          	auipc	ra,0x8
20006e76:	d6a080e7          	jalr	-662(ra) # 2000ebdc <abort>

20006e7a <_ZN106_$LT$kernel..common..ring_buffer..RingBuffer$LT$T$GT$$u20$as$u20$kernel..common..queue..Queue$LT$T$GT$$GT$7enqueue17h8dba3e14e4edae25E>:
20006e7a:	1141                	addi	sp,sp,-16
20006e7c:	c606                	sw	ra,12(sp)
20006e7e:	c422                	sw	s0,8(sp)
20006e80:	0800                	addi	s0,sp,16
20006e82:	4150                	lw	a2,4(a0)
20006e84:	ca15                	beqz	a2,20006eb8 <_ZN106_$LT$kernel..common..ring_buffer..RingBuffer$LT$T$GT$$u20$as$u20$kernel..common..queue..Queue$LT$T$GT$$GT$7enqueue17h8dba3e14e4edae25E+0x3e>
20006e86:	4554                	lw	a3,12(a0)
20006e88:	00168713          	addi	a4,a3,1
20006e8c:	02c77733          	remu	a4,a4,a2
20006e90:	451c                	lw	a5,8(a0)
20006e92:	00e78f63          	beq	a5,a4,20006eb0 <_ZN106_$LT$kernel..common..ring_buffer..RingBuffer$LT$T$GT$$u20$as$u20$kernel..common..queue..Queue$LT$T$GT$$GT$7enqueue17h8dba3e14e4edae25E+0x36>
20006e96:	02c6fa63          	bgeu	a3,a2,20006eca <_ZN106_$LT$kernel..common..ring_buffer..RingBuffer$LT$T$GT$$u20$as$u20$kernel..common..queue..Queue$LT$T$GT$$GT$7enqueue17h8dba3e14e4edae25E+0x50>
20006e9a:	4110                	lw	a2,0(a0)
20006e9c:	9636                	add	a2,a2,a3
20006e9e:	00b60023          	sb	a1,0(a2)
20006ea2:	414c                	lw	a1,4(a0)
20006ea4:	c1a1                	beqz	a1,20006ee4 <_ZN106_$LT$kernel..common..ring_buffer..RingBuffer$LT$T$GT$$u20$as$u20$kernel..common..queue..Queue$LT$T$GT$$GT$7enqueue17h8dba3e14e4edae25E+0x6a>
20006ea6:	4550                	lw	a2,12(a0)
20006ea8:	0605                	addi	a2,a2,1
20006eaa:	02b675b3          	remu	a1,a2,a1
20006eae:	c54c                	sw	a1,12(a0)
20006eb0:	4422                	lw	s0,8(sp)
20006eb2:	40b2                	lw	ra,12(sp)
20006eb4:	0141                	addi	sp,sp,16
20006eb6:	8082                	ret
20006eb8:	2000e537          	lui	a0,0x2000e
20006ebc:	bd050513          	addi	a0,a0,-1072 # 2000dbd0 <str.0.llvm.4797975692018640014>
20006ec0:	100025b7          	lui	a1,0x10002
20006ec4:	bd858613          	addi	a2,a1,-1064 # 10001bd8 <.L__unnamed_45>
20006ec8:	a035                	j	20006ef4 <_ZN106_$LT$kernel..common..ring_buffer..RingBuffer$LT$T$GT$$u20$as$u20$kernel..common..queue..Queue$LT$T$GT$$GT$7enqueue17h8dba3e14e4edae25E+0x7a>
20006eca:	10002537          	lui	a0,0x10002
20006ece:	be850513          	addi	a0,a0,-1048 # 10001be8 <.L__unnamed_46>
20006ed2:	85b6                	mv	a1,a3
20006ed4:	ffffe097          	auipc	ra,0xffffe
20006ed8:	c54080e7          	jalr	-940(ra) # 20004b28 <_ZN4core9panicking18panic_bounds_check17h95c8cd8536e82dafE>
20006edc:	00008097          	auipc	ra,0x8
20006ee0:	d00080e7          	jalr	-768(ra) # 2000ebdc <abort>
20006ee4:	2000e537          	lui	a0,0x2000e
20006ee8:	bd050513          	addi	a0,a0,-1072 # 2000dbd0 <str.0.llvm.4797975692018640014>
20006eec:	100025b7          	lui	a1,0x10002
20006ef0:	bf858613          	addi	a2,a1,-1032 # 10001bf8 <.L__unnamed_47>
20006ef4:	03900593          	li	a1,57
20006ef8:	ffffe097          	auipc	ra,0xffffe
20006efc:	be8080e7          	jalr	-1048(ra) # 20004ae0 <_ZN4core9panicking5panic17haaa649c2263e8176E>
20006f00:	00008097          	auipc	ra,0x8
20006f04:	cdc080e7          	jalr	-804(ra) # 2000ebdc <abort>

20006f08 <_ZN4core3fmt5Write10write_char17hdd891e26018941bbE>:
20006f08:	1141                	addi	sp,sp,-16
20006f0a:	c606                	sw	ra,12(sp)
20006f0c:	c422                	sw	s0,8(sp)
20006f0e:	0800                	addi	s0,sp,16
20006f10:	fe042a23          	sw	zero,-12(s0)
20006f14:	08000613          	li	a2,128
20006f18:	00c5f663          	bgeu	a1,a2,20006f24 <_ZN4core3fmt5Write10write_char17hdd891e26018941bbE+0x1c>
20006f1c:	feb40a23          	sb	a1,-12(s0)
20006f20:	4605                	li	a2,1
20006f22:	a079                	j	20006fb0 <_ZN4core3fmt5Write10write_char17hdd891e26018941bbE+0xa8>
20006f24:	00b5d613          	srli	a2,a1,0xb
20006f28:	ee19                	bnez	a2,20006f46 <_ZN4core3fmt5Write10write_char17hdd891e26018941bbE+0x3e>
20006f2a:	03f5f613          	andi	a2,a1,63
20006f2e:	08066613          	ori	a2,a2,128
20006f32:	fec40aa3          	sb	a2,-11(s0)
20006f36:	8199                	srli	a1,a1,0x6
20006f38:	89fd                	andi	a1,a1,31
20006f3a:	0c05e593          	ori	a1,a1,192
20006f3e:	feb40a23          	sb	a1,-12(s0)
20006f42:	4609                	li	a2,2
20006f44:	a0b5                	j	20006fb0 <_ZN4core3fmt5Write10write_char17hdd891e26018941bbE+0xa8>
20006f46:	0105d613          	srli	a2,a1,0x10
20006f4a:	e61d                	bnez	a2,20006f78 <_ZN4core3fmt5Write10write_char17hdd891e26018941bbE+0x70>
20006f4c:	03f5f613          	andi	a2,a1,63
20006f50:	08066613          	ori	a2,a2,128
20006f54:	fec40b23          	sb	a2,-10(s0)
20006f58:	0065d613          	srli	a2,a1,0x6
20006f5c:	03f67613          	andi	a2,a2,63
20006f60:	08066613          	ori	a2,a2,128
20006f64:	fec40aa3          	sb	a2,-11(s0)
20006f68:	81b1                	srli	a1,a1,0xc
20006f6a:	89bd                	andi	a1,a1,15
20006f6c:	0e05e593          	ori	a1,a1,224
20006f70:	feb40a23          	sb	a1,-12(s0)
20006f74:	460d                	li	a2,3
20006f76:	a82d                	j	20006fb0 <_ZN4core3fmt5Write10write_char17hdd891e26018941bbE+0xa8>
20006f78:	03f5f613          	andi	a2,a1,63
20006f7c:	08066613          	ori	a2,a2,128
20006f80:	fec40ba3          	sb	a2,-9(s0)
20006f84:	0125d613          	srli	a2,a1,0x12
20006f88:	0f066613          	ori	a2,a2,240
20006f8c:	fec40a23          	sb	a2,-12(s0)
20006f90:	0065d613          	srli	a2,a1,0x6
20006f94:	03f67613          	andi	a2,a2,63
20006f98:	08066613          	ori	a2,a2,128
20006f9c:	fec40b23          	sb	a2,-10(s0)
20006fa0:	81b1                	srli	a1,a1,0xc
20006fa2:	03f5f593          	andi	a1,a1,63
20006fa6:	0805e593          	ori	a1,a1,128
20006faa:	feb40aa3          	sb	a1,-11(s0)
20006fae:	4611                	li	a2,4
20006fb0:	ff440593          	addi	a1,s0,-12
20006fb4:	00000097          	auipc	ra,0x0
20006fb8:	012080e7          	jalr	18(ra) # 20006fc6 <_ZN76_$LT$kernel..debug..DebugWriterWrapper$u20$as$u20$kernel..debug..IoWrite$GT$5write17ha4450a6095884705E>
20006fbc:	4501                	li	a0,0
20006fbe:	4422                	lw	s0,8(sp)
20006fc0:	40b2                	lw	ra,12(sp)
20006fc2:	0141                	addi	sp,sp,16
20006fc4:	8082                	ret

20006fc6 <_ZN76_$LT$kernel..debug..DebugWriterWrapper$u20$as$u20$kernel..debug..IoWrite$GT$5write17ha4450a6095884705E>:
20006fc6:	1101                	addi	sp,sp,-32
20006fc8:	ce06                	sw	ra,28(sp)
20006fca:	cc22                	sw	s0,24(sp)
20006fcc:	ca26                	sw	s1,20(sp)
20006fce:	c84a                	sw	s2,16(sp)
20006fd0:	c64e                	sw	s3,12(sp)
20006fd2:	c452                	sw	s4,8(sp)
20006fd4:	c256                	sw	s5,4(sp)
20006fd6:	c05a                	sw	s6,0(sp)
20006fd8:	1000                	addi	s0,sp,32
20006fda:	892a                	mv	s2,a0
20006fdc:	00454503          	lbu	a0,4(a0)
20006fe0:	c169                	beqz	a0,200070a2 <_ZN76_$LT$kernel..debug..DebugWriterWrapper$u20$as$u20$kernel..debug..IoWrite$GT$5write17ha4450a6095884705E+0xdc>
20006fe2:	00090223          	sb	zero,4(s2)
20006fe6:	00092a83          	lw	s5,0(s2)
20006fea:	010aa983          	lw	s3,16(s5)
20006fee:	000aa823          	sw	zero,16(s5)
20006ff2:	0a098563          	beqz	s3,2000709c <_ZN76_$LT$kernel..debug..DebugWriterWrapper$u20$as$u20$kernel..debug..IoWrite$GT$5write17ha4450a6095884705E+0xd6>
20006ff6:	8a32                	mv	s4,a2
20006ff8:	8b2e                	mv	s6,a1
20006ffa:	0049a503          	lw	a0,4(s3)
20006ffe:	0089a583          	lw	a1,8(s3)
20007002:	00c9a603          	lw	a2,12(s3)
20007006:	00c5f563          	bgeu	a1,a2,20007010 <_ZN76_$LT$kernel..debug..DebugWriterWrapper$u20$as$u20$kernel..debug..IoWrite$GT$5write17ha4450a6095884705E+0x4a>
2000700a:	40b605b3          	sub	a1,a2,a1
2000700e:	a801                	j	2000701e <_ZN76_$LT$kernel..debug..DebugWriterWrapper$u20$as$u20$kernel..debug..IoWrite$GT$5write17ha4450a6095884705E+0x58>
20007010:	00b67663          	bgeu	a2,a1,2000701c <_ZN76_$LT$kernel..debug..DebugWriterWrapper$u20$as$u20$kernel..debug..IoWrite$GT$5write17ha4450a6095884705E+0x56>
20007014:	40b605b3          	sub	a1,a2,a1
20007018:	95aa                	add	a1,a1,a0
2000701a:	a011                	j	2000701e <_ZN76_$LT$kernel..debug..DebugWriterWrapper$u20$as$u20$kernel..debug..IoWrite$GT$5write17ha4450a6095884705E+0x58>
2000701c:	4581                	li	a1,0
2000701e:	fff5c593          	not	a1,a1
20007022:	95aa                	add	a1,a1,a0
20007024:	00b53633          	sltu	a2,a0,a1
20007028:	4501                	li	a0,0
2000702a:	e211                	bnez	a2,2000702e <_ZN76_$LT$kernel..debug..DebugWriterWrapper$u20$as$u20$kernel..debug..IoWrite$GT$5write17ha4450a6095884705E+0x68>
2000702c:	852e                	mv	a0,a1
2000702e:	fe550593          	addi	a1,a0,-27
20007032:	00b53533          	sltu	a0,a0,a1
20007036:	4481                	li	s1,0
20007038:	e111                	bnez	a0,2000703c <_ZN76_$LT$kernel..debug..DebugWriterWrapper$u20$as$u20$kernel..debug..IoWrite$GT$5write17ha4450a6095884705E+0x76>
2000703a:	84ae                	mv	s1,a1
2000703c:	0544f263          	bgeu	s1,s4,20007080 <_ZN76_$LT$kernel..debug..DebugWriterWrapper$u20$as$u20$kernel..debug..IoWrite$GT$5write17ha4450a6095884705E+0xba>
20007040:	c899                	beqz	s1,20007056 <_ZN76_$LT$kernel..debug..DebugWriterWrapper$u20$as$u20$kernel..debug..IoWrite$GT$5write17ha4450a6095884705E+0x90>
20007042:	000b0583          	lb	a1,0(s6)
20007046:	854e                	mv	a0,s3
20007048:	00000097          	auipc	ra,0x0
2000704c:	e32080e7          	jalr	-462(ra) # 20006e7a <_ZN106_$LT$kernel..common..ring_buffer..RingBuffer$LT$T$GT$$u20$as$u20$kernel..common..queue..Queue$LT$T$GT$$GT$7enqueue17h8dba3e14e4edae25E>
20007050:	14fd                	addi	s1,s1,-1
20007052:	0b05                	addi	s6,s6,1
20007054:	f4fd                	bnez	s1,20007042 <_ZN76_$LT$kernel..debug..DebugWriterWrapper$u20$as$u20$kernel..debug..IoWrite$GT$5write17ha4450a6095884705E+0x7c>
20007056:	2000e537          	lui	a0,0x2000e
2000705a:	c7550b13          	addi	s6,a0,-907 # 2000dc75 <anon.ac8d6c5934574765b7948f49cce9802a.0.llvm.9675610886577411859>
2000705e:	4a6d                	li	s4,27
20007060:	4481                	li	s1,0
20007062:	03448b63          	beq	s1,s4,20007098 <_ZN76_$LT$kernel..debug..DebugWriterWrapper$u20$as$u20$kernel..debug..IoWrite$GT$5write17ha4450a6095884705E+0xd2>
20007066:	01648533          	add	a0,s1,s6
2000706a:	00050583          	lb	a1,0(a0)
2000706e:	854e                	mv	a0,s3
20007070:	00000097          	auipc	ra,0x0
20007074:	e0a080e7          	jalr	-502(ra) # 20006e7a <_ZN106_$LT$kernel..common..ring_buffer..RingBuffer$LT$T$GT$$u20$as$u20$kernel..common..queue..Queue$LT$T$GT$$GT$7enqueue17h8dba3e14e4edae25E>
20007078:	0485                	addi	s1,s1,1
2000707a:	ff4496e3          	bne	s1,s4,20007066 <_ZN76_$LT$kernel..debug..DebugWriterWrapper$u20$as$u20$kernel..debug..IoWrite$GT$5write17ha4450a6095884705E+0xa0>
2000707e:	a829                	j	20007098 <_ZN76_$LT$kernel..debug..DebugWriterWrapper$u20$as$u20$kernel..debug..IoWrite$GT$5write17ha4450a6095884705E+0xd2>
20007080:	000a0c63          	beqz	s4,20007098 <_ZN76_$LT$kernel..debug..DebugWriterWrapper$u20$as$u20$kernel..debug..IoWrite$GT$5write17ha4450a6095884705E+0xd2>
20007084:	000b0583          	lb	a1,0(s6)
20007088:	854e                	mv	a0,s3
2000708a:	00000097          	auipc	ra,0x0
2000708e:	df0080e7          	jalr	-528(ra) # 20006e7a <_ZN106_$LT$kernel..common..ring_buffer..RingBuffer$LT$T$GT$$u20$as$u20$kernel..common..queue..Queue$LT$T$GT$$GT$7enqueue17h8dba3e14e4edae25E>
20007092:	1a7d                	addi	s4,s4,-1
20007094:	0b05                	addi	s6,s6,1
20007096:	b7ed                	j	20007080 <_ZN76_$LT$kernel..debug..DebugWriterWrapper$u20$as$u20$kernel..debug..IoWrite$GT$5write17ha4450a6095884705E+0xba>
20007098:	013aa823          	sw	s3,16(s5)
2000709c:	4505                	li	a0,1
2000709e:	00a90223          	sb	a0,4(s2)
200070a2:	4b02                	lw	s6,0(sp)
200070a4:	4a92                	lw	s5,4(sp)
200070a6:	4a22                	lw	s4,8(sp)
200070a8:	49b2                	lw	s3,12(sp)
200070aa:	4942                	lw	s2,16(sp)
200070ac:	44d2                	lw	s1,20(sp)
200070ae:	4462                	lw	s0,24(sp)
200070b0:	40f2                	lw	ra,28(sp)
200070b2:	6105                	addi	sp,sp,32
200070b4:	8082                	ret

200070b6 <_ZN4core3fmt5Write9write_fmt17hc993735cd417d488E>:
200070b6:	7179                	addi	sp,sp,-48
200070b8:	d606                	sw	ra,44(sp)
200070ba:	d422                	sw	s0,40(sp)
200070bc:	d226                	sw	s1,36(sp)
200070be:	1800                	addi	s0,sp,48
200070c0:	fca42a23          	sw	a0,-44(s0)
200070c4:	fd840493          	addi	s1,s0,-40
200070c8:	8526                	mv	a0,s1
200070ca:	4661                	li	a2,24
200070cc:	00004097          	auipc	ra,0x4
200070d0:	412080e7          	jalr	1042(ra) # 2000b4de <memcpy>
200070d4:	10002537          	lui	a0,0x10002
200070d8:	8ac50593          	addi	a1,a0,-1876 # 100018ac <.Lanon.520f5862a4975a8db2d79231aa35a5bc.0>
200070dc:	fd440513          	addi	a0,s0,-44
200070e0:	8626                	mv	a2,s1
200070e2:	fffff097          	auipc	ra,0xfffff
200070e6:	be8080e7          	jalr	-1048(ra) # 20005cca <_ZN4core3fmt5write17hb7761afb3ce3b207E>
200070ea:	5492                	lw	s1,36(sp)
200070ec:	5422                	lw	s0,40(sp)
200070ee:	50b2                	lw	ra,44(sp)
200070f0:	6145                	addi	sp,sp,48
200070f2:	8082                	ret

200070f4 <_ZN4core3ptr13drop_in_place17h43aa4d3e21b06bdfE>:
200070f4:	1141                	addi	sp,sp,-16
200070f6:	c606                	sw	ra,12(sp)
200070f8:	c422                	sw	s0,8(sp)
200070fa:	0800                	addi	s0,sp,16
200070fc:	4422                	lw	s0,8(sp)
200070fe:	40b2                	lw	ra,12(sp)
20007100:	0141                	addi	sp,sp,16
20007102:	8082                	ret

20007104 <_ZN50_$LT$$RF$mut$u20$W$u20$as$u20$core..fmt..Write$GT$9write_str17h211327c3ff7e5505E>:
20007104:	1141                	addi	sp,sp,-16
20007106:	c606                	sw	ra,12(sp)
20007108:	c422                	sw	s0,8(sp)
2000710a:	0800                	addi	s0,sp,16
2000710c:	4108                	lw	a0,0(a0)
2000710e:	00000097          	auipc	ra,0x0
20007112:	eb8080e7          	jalr	-328(ra) # 20006fc6 <_ZN76_$LT$kernel..debug..DebugWriterWrapper$u20$as$u20$kernel..debug..IoWrite$GT$5write17ha4450a6095884705E>
20007116:	4501                	li	a0,0
20007118:	4422                	lw	s0,8(sp)
2000711a:	40b2                	lw	ra,12(sp)
2000711c:	0141                	addi	sp,sp,16
2000711e:	8082                	ret

20007120 <_ZN50_$LT$$RF$mut$u20$W$u20$as$u20$core..fmt..Write$GT$10write_char17h38c40b9f45db1b1dE>:
20007120:	1141                	addi	sp,sp,-16
20007122:	c606                	sw	ra,12(sp)
20007124:	c422                	sw	s0,8(sp)
20007126:	0800                	addi	s0,sp,16
20007128:	4108                	lw	a0,0(a0)
2000712a:	00000097          	auipc	ra,0x0
2000712e:	dde080e7          	jalr	-546(ra) # 20006f08 <_ZN4core3fmt5Write10write_char17hdd891e26018941bbE>
20007132:	4501                	li	a0,0
20007134:	4422                	lw	s0,8(sp)
20007136:	40b2                	lw	ra,12(sp)
20007138:	0141                	addi	sp,sp,16
2000713a:	8082                	ret

2000713c <_ZN50_$LT$$RF$mut$u20$W$u20$as$u20$core..fmt..Write$GT$9write_fmt17hfffb34f0464df50fE>:
2000713c:	7179                	addi	sp,sp,-48
2000713e:	d606                	sw	ra,44(sp)
20007140:	d422                	sw	s0,40(sp)
20007142:	d226                	sw	s1,36(sp)
20007144:	d04a                	sw	s2,32(sp)
20007146:	1800                	addi	s0,sp,48
20007148:	4104                	lw	s1,0(a0)
2000714a:	fd840913          	addi	s2,s0,-40
2000714e:	854a                	mv	a0,s2
20007150:	4661                	li	a2,24
20007152:	00004097          	auipc	ra,0x4
20007156:	38c080e7          	jalr	908(ra) # 2000b4de <memcpy>
2000715a:	8526                	mv	a0,s1
2000715c:	85ca                	mv	a1,s2
2000715e:	00000097          	auipc	ra,0x0
20007162:	f58080e7          	jalr	-168(ra) # 200070b6 <_ZN4core3fmt5Write9write_fmt17hc993735cd417d488E>
20007166:	5902                	lw	s2,32(sp)
20007168:	5492                	lw	s1,36(sp)
2000716a:	5422                	lw	s0,40(sp)
2000716c:	50b2                	lw	ra,44(sp)
2000716e:	6145                	addi	sp,sp,48
20007170:	8082                	ret

20007172 <_ZN6kernel5debug11panic_begin17he4af364ab94e8a6dE>:
20007172:	1141                	addi	sp,sp,-16
20007174:	c606                	sw	ra,12(sp)
20007176:	c422                	sw	s0,8(sp)
20007178:	0800                	addi	s0,sp,16
2000717a:	00031537          	lui	a0,0x31
2000717e:	d4050513          	addi	a0,a0,-704 # 30d40 <.Lline_table_start0+0x1ecd1>
20007182:	c501                	beqz	a0,2000718a <_ZN6kernel5debug11panic_begin17he4af364ab94e8a6dE+0x18>
20007184:	157d                	addi	a0,a0,-1
20007186:	0001                	nop
20007188:	fd75                	bnez	a0,20007184 <_ZN6kernel5debug11panic_begin17he4af364ab94e8a6dE+0x12>
2000718a:	4422                	lw	s0,8(sp)
2000718c:	40b2                	lw	ra,12(sp)
2000718e:	0141                	addi	sp,sp,16
20007190:	8082                	ret

20007192 <_ZN6kernel5debug16get_debug_writer17h0818da5526d49829E>:
20007192:	1141                	addi	sp,sp,-16
20007194:	c606                	sw	ra,12(sp)
20007196:	c422                	sw	s0,8(sp)
20007198:	0800                	addi	s0,sp,16
2000719a:	10002537          	lui	a0,0x10002
2000719e:	62052503          	lw	a0,1568(a0) # 10002620 <_ZN6kernel5debug12DEBUG_WRITER17h52b54f2ed5d2398cE>
200071a2:	c509                	beqz	a0,200071ac <_ZN6kernel5debug16get_debug_writer17h0818da5526d49829E+0x1a>
200071a4:	4422                	lw	s0,8(sp)
200071a6:	40b2                	lw	ra,12(sp)
200071a8:	0141                	addi	sp,sp,16
200071aa:	8082                	ret
200071ac:	2000e537          	lui	a0,0x2000e
200071b0:	c3850513          	addi	a0,a0,-968 # 2000dc38 <.Lanon.520f5862a4975a8db2d79231aa35a5bc.4>
200071b4:	100025b7          	lui	a1,0x10002
200071b8:	8c458613          	addi	a2,a1,-1852 # 100018c4 <.Lanon.520f5862a4975a8db2d79231aa35a5bc.6>
200071bc:	03d00593          	li	a1,61
200071c0:	fffff097          	auipc	ra,0xfffff
200071c4:	d1e080e7          	jalr	-738(ra) # 20005ede <_ZN4core6option13expect_failed17h88e0a9ad8faed78dE>
200071c8:	00008097          	auipc	ra,0x8
200071cc:	a14080e7          	jalr	-1516(ra) # 2000ebdc <abort>

200071d0 <_ZN6kernel5debug11DebugWriter13publish_bytes17h8d4b914d368b8482E>:
200071d0:	1101                	addi	sp,sp,-32
200071d2:	ce06                	sw	ra,28(sp)
200071d4:	cc22                	sw	s0,24(sp)
200071d6:	ca26                	sw	s1,20(sp)
200071d8:	c84a                	sw	s2,16(sp)
200071da:	1000                	addi	s0,sp,32
200071dc:	4904                	lw	s1,16(a0)
200071de:	00052823          	sw	zero,16(a0)
200071e2:	c4ad                	beqz	s1,2000724c <_ZN6kernel5debug11DebugWriter13publish_bytes17h8d4b914d368b8482E+0x7c>
200071e4:	892a                	mv	s2,a0
200071e6:	4510                	lw	a2,8(a0)
200071e8:	00052423          	sw	zero,8(a0)
200071ec:	ce31                	beqz	a2,20007248 <_ZN6kernel5debug11DebugWriter13publish_bytes17h8d4b914d368b8482E+0x78>
200071ee:	00c92683          	lw	a3,12(s2)
200071f2:	4701                	li	a4,0
200071f4:	02e68963          	beq	a3,a4,20007226 <_ZN6kernel5debug11DebugWriter13publish_bytes17h8d4b914d368b8482E+0x56>
200071f8:	448c                	lw	a1,8(s1)
200071fa:	44c8                	lw	a0,12(s1)
200071fc:	02a58563          	beq	a1,a0,20007226 <_ZN6kernel5debug11DebugWriter13publish_bytes17h8d4b914d368b8482E+0x56>
20007200:	40dc                	lw	a5,4(s1)
20007202:	04f5fb63          	bgeu	a1,a5,20007258 <_ZN6kernel5debug11DebugWriter13publish_bytes17h8d4b914d368b8482E+0x88>
20007206:	00e60833          	add	a6,a2,a4
2000720a:	00158513          	addi	a0,a1,1
2000720e:	02f57533          	remu	a0,a0,a5
20007212:	409c                	lw	a5,0(s1)
20007214:	95be                	add	a1,a1,a5
20007216:	00058583          	lb	a1,0(a1)
2000721a:	c488                	sw	a0,8(s1)
2000721c:	00b80023          	sb	a1,0(a6)
20007220:	0705                	addi	a4,a4,1
20007222:	fce69be3          	bne	a3,a4,200071f8 <_ZN6kernel5debug11DebugWriter13publish_bytes17h8d4b914d368b8482E+0x28>
20007226:	c30d                	beqz	a4,20007248 <_ZN6kernel5debug11DebugWriter13publish_bytes17h8d4b914d368b8482E+0x78>
20007228:	00492503          	lw	a0,4(s2)
2000722c:	491c                	lw	a5,16(a0)
2000722e:	00092583          	lw	a1,0(s2)
20007232:	fe040513          	addi	a0,s0,-32
20007236:	9782                	jalr	a5
20007238:	fe842503          	lw	a0,-24(s0)
2000723c:	fec42583          	lw	a1,-20(s0)
20007240:	00b92623          	sw	a1,12(s2)
20007244:	00a92423          	sw	a0,8(s2)
20007248:	00992823          	sw	s1,16(s2)
2000724c:	4942                	lw	s2,16(sp)
2000724e:	44d2                	lw	s1,20(sp)
20007250:	4462                	lw	s0,24(sp)
20007252:	40f2                	lw	ra,28(sp)
20007254:	6105                	addi	sp,sp,32
20007256:	8082                	ret
20007258:	10002537          	lui	a0,0x10002
2000725c:	bc850513          	addi	a0,a0,-1080 # 10001bc8 <.L__unnamed_17>
20007260:	863e                	mv	a2,a5
20007262:	ffffe097          	auipc	ra,0xffffe
20007266:	8c6080e7          	jalr	-1850(ra) # 20004b28 <_ZN4core9panicking18panic_bounds_check17h95c8cd8536e82dafE>
2000726a:	00008097          	auipc	ra,0x8
2000726e:	972080e7          	jalr	-1678(ra) # 2000ebdc <abort>

20007272 <_ZN80_$LT$kernel..debug..DebugWriter$u20$as$u20$kernel..hil..uart..TransmitClient$GT$18transmitted_buffer17h93ef7df3c6524c91E>:
20007272:	1141                	addi	sp,sp,-16
20007274:	c606                	sw	ra,12(sp)
20007276:	c422                	sw	s0,8(sp)
20007278:	0800                	addi	s0,sp,16
2000727a:	c550                	sw	a2,12(a0)
2000727c:	c50c                	sw	a1,8(a0)
2000727e:	490c                	lw	a1,16(a0)
20007280:	00052823          	sw	zero,16(a0)
20007284:	c991                	beqz	a1,20007298 <_ZN80_$LT$kernel..debug..DebugWriter$u20$as$u20$kernel..hil..uart..TransmitClient$GT$18transmitted_buffer17h93ef7df3c6524c91E+0x26>
20007286:	45d0                	lw	a2,12(a1)
20007288:	4594                	lw	a3,8(a1)
2000728a:	c90c                	sw	a1,16(a0)
2000728c:	00c68663          	beq	a3,a2,20007298 <_ZN80_$LT$kernel..debug..DebugWriter$u20$as$u20$kernel..hil..uart..TransmitClient$GT$18transmitted_buffer17h93ef7df3c6524c91E+0x26>
20007290:	00000097          	auipc	ra,0x0
20007294:	f40080e7          	jalr	-192(ra) # 200071d0 <_ZN6kernel5debug11DebugWriter13publish_bytes17h8d4b914d368b8482E>
20007298:	4422                	lw	s0,8(sp)
2000729a:	40b2                	lw	ra,12(sp)
2000729c:	0141                	addi	sp,sp,16
2000729e:	8082                	ret

200072a0 <_ZN80_$LT$kernel..debug..DebugWriter$u20$as$u20$kernel..hil..uart..TransmitClient$GT$16transmitted_word17h6a0284a591e93921E>:
200072a0:	1141                	addi	sp,sp,-16
200072a2:	c606                	sw	ra,12(sp)
200072a4:	c422                	sw	s0,8(sp)
200072a6:	0800                	addi	s0,sp,16
200072a8:	4422                	lw	s0,8(sp)
200072aa:	40b2                	lw	ra,12(sp)
200072ac:	0141                	addi	sp,sp,16
200072ae:	8082                	ret

200072b0 <_ZN70_$LT$kernel..debug..DebugWriterWrapper$u20$as$u20$core..fmt..Write$GT$9write_str17hfbe0bd4b1f8475deE>:
200072b0:	1141                	addi	sp,sp,-16
200072b2:	c606                	sw	ra,12(sp)
200072b4:	c422                	sw	s0,8(sp)
200072b6:	0800                	addi	s0,sp,16
200072b8:	00000097          	auipc	ra,0x0
200072bc:	d0e080e7          	jalr	-754(ra) # 20006fc6 <_ZN76_$LT$kernel..debug..DebugWriterWrapper$u20$as$u20$kernel..debug..IoWrite$GT$5write17ha4450a6095884705E>
200072c0:	4501                	li	a0,0
200072c2:	4422                	lw	s0,8(sp)
200072c4:	40b2                	lw	ra,12(sp)
200072c6:	0141                	addi	sp,sp,16
200072c8:	8082                	ret

200072ca <_ZN6kernel5debug15begin_debug_fmt17h3453ed27838581f3E>:
200072ca:	7179                	addi	sp,sp,-48
200072cc:	d606                	sw	ra,44(sp)
200072ce:	d422                	sw	s0,40(sp)
200072d0:	d226                	sw	s1,36(sp)
200072d2:	d04a                	sw	s2,32(sp)
200072d4:	ce4e                	sw	s3,28(sp)
200072d6:	1800                	addi	s0,sp,48
200072d8:	892a                	mv	s2,a0
200072da:	00000097          	auipc	ra,0x0
200072de:	eb8080e7          	jalr	-328(ra) # 20007192 <_ZN6kernel5debug16get_debug_writer17h0818da5526d49829E>
200072e2:	84aa                	mv	s1,a0
200072e4:	fd040993          	addi	s3,s0,-48
200072e8:	854e                	mv	a0,s3
200072ea:	85ca                	mv	a1,s2
200072ec:	4661                	li	a2,24
200072ee:	00004097          	auipc	ra,0x4
200072f2:	1f0080e7          	jalr	496(ra) # 2000b4de <memcpy>
200072f6:	10002537          	lui	a0,0x10002
200072fa:	8d450593          	addi	a1,a0,-1836 # 100018d4 <.Lanon.520f5862a4975a8db2d79231aa35a5bc.7>
200072fe:	8526                	mv	a0,s1
20007300:	864e                	mv	a2,s3
20007302:	fffff097          	auipc	ra,0xfffff
20007306:	9c8080e7          	jalr	-1592(ra) # 20005cca <_ZN4core3fmt5write17hb7761afb3ce3b207E>
2000730a:	2000f537          	lui	a0,0x2000f
2000730e:	bd850593          	addi	a1,a0,-1064 # 2000ebd8 <.Lanon.8ca5636dd11a6a5d568a68f45e99022f.34>
20007312:	8526                	mv	a0,s1
20007314:	4609                	li	a2,2
20007316:	00000097          	auipc	ra,0x0
2000731a:	cb0080e7          	jalr	-848(ra) # 20006fc6 <_ZN76_$LT$kernel..debug..DebugWriterWrapper$u20$as$u20$kernel..debug..IoWrite$GT$5write17ha4450a6095884705E>
2000731e:	0044c503          	lbu	a0,4(s1)
20007322:	c919                	beqz	a0,20007338 <_ZN6kernel5debug15begin_debug_fmt17h3453ed27838581f3E+0x6e>
20007324:	00048223          	sb	zero,4(s1)
20007328:	4088                	lw	a0,0(s1)
2000732a:	00000097          	auipc	ra,0x0
2000732e:	ea6080e7          	jalr	-346(ra) # 200071d0 <_ZN6kernel5debug11DebugWriter13publish_bytes17h8d4b914d368b8482E>
20007332:	4505                	li	a0,1
20007334:	00a48223          	sb	a0,4(s1)
20007338:	49f2                	lw	s3,28(sp)
2000733a:	5902                	lw	s2,32(sp)
2000733c:	5492                	lw	s1,36(sp)
2000733e:	5422                	lw	s0,40(sp)
20007340:	50b2                	lw	ra,44(sp)
20007342:	6145                	addi	sp,sp,48
20007344:	8082                	ret

20007346 <_ZN4core3ptr13drop_in_place17h5362906b0d8f7189E>:
20007346:	1141                	addi	sp,sp,-16
20007348:	c606                	sw	ra,12(sp)
2000734a:	c422                	sw	s0,8(sp)
2000734c:	0800                	addi	s0,sp,16
2000734e:	4422                	lw	s0,8(sp)
20007350:	40b2                	lw	ra,12(sp)
20007352:	0141                	addi	sp,sp,16
20007354:	8082                	ret

20007356 <_ZN42_$LT$$RF$T$u20$as$u20$core..fmt..Debug$GT$3fmt17h64e5f72ad2d9f769E>:
20007356:	1101                	addi	sp,sp,-32
20007358:	ce06                	sw	ra,28(sp)
2000735a:	cc22                	sw	s0,24(sp)
2000735c:	ca26                	sw	s1,20(sp)
2000735e:	c84a                	sw	s2,16(sp)
20007360:	c64e                	sw	s3,12(sp)
20007362:	c452                	sw	s4,8(sp)
20007364:	1000                	addi	s0,sp,32
20007366:	84ae                	mv	s1,a1
20007368:	00c5a983          	lw	s3,12(a1)
2000736c:	0085a903          	lw	s2,8(a1)
20007370:	4108                	lw	a0,0(a0)
20007372:	4108                	lw	a0,0(a0)
20007374:	0005aa03          	lw	s4,0(a1)
20007378:	004a7613          	andi	a2,s4,4
2000737c:	85d2                	mv	a1,s4
2000737e:	ca11                	beqz	a2,20007392 <_ZN42_$LT$$RF$T$u20$as$u20$core..fmt..Debug$GT$3fmt17h64e5f72ad2d9f769E+0x3c>
20007380:	008a6593          	ori	a1,s4,8
20007384:	c08c                	sw	a1,0(s1)
20007386:	00091663          	bnez	s2,20007392 <_ZN42_$LT$$RF$T$u20$as$u20$core..fmt..Debug$GT$3fmt17h64e5f72ad2d9f769E+0x3c>
2000738a:	4629                	li	a2,10
2000738c:	c4d0                	sw	a2,12(s1)
2000738e:	4605                	li	a2,1
20007390:	c490                	sw	a2,8(s1)
20007392:	0045e593          	ori	a1,a1,4
20007396:	c08c                	sw	a1,0(s1)
20007398:	fea42223          	sw	a0,-28(s0)
2000739c:	fe440513          	addi	a0,s0,-28
200073a0:	85a6                	mv	a1,s1
200073a2:	fffff097          	auipc	ra,0xfffff
200073a6:	2ee080e7          	jalr	750(ra) # 20006690 <_ZN4core3fmt3num53_$LT$impl$u20$core..fmt..LowerHex$u20$for$u20$i32$GT$3fmt17h6cea225f5f2f55d7E>
200073aa:	0134a623          	sw	s3,12(s1)
200073ae:	0124a423          	sw	s2,8(s1)
200073b2:	0144a023          	sw	s4,0(s1)
200073b6:	4a22                	lw	s4,8(sp)
200073b8:	49b2                	lw	s3,12(sp)
200073ba:	4942                	lw	s2,16(sp)
200073bc:	44d2                	lw	s1,20(sp)
200073be:	4462                	lw	s0,24(sp)
200073c0:	40f2                	lw	ra,28(sp)
200073c2:	6105                	addi	sp,sp,32
200073c4:	8082                	ret

200073c6 <_ZN42_$LT$$RF$T$u20$as$u20$core..fmt..Debug$GT$3fmt17h7fd6ada3b997587aE>:
200073c6:	1141                	addi	sp,sp,-16
200073c8:	c606                	sw	ra,12(sp)
200073ca:	c422                	sw	s0,8(sp)
200073cc:	0800                	addi	s0,sp,16
200073ce:	4108                	lw	a0,0(a0)
200073d0:	4190                	lw	a2,0(a1)
200073d2:	01067693          	andi	a3,a2,16
200073d6:	ea89                	bnez	a3,200073e8 <_ZN42_$LT$$RF$T$u20$as$u20$core..fmt..Debug$GT$3fmt17h7fd6ada3b997587aE+0x22>
200073d8:	02067613          	andi	a2,a2,32
200073dc:	ea19                	bnez	a2,200073f2 <_ZN42_$LT$$RF$T$u20$as$u20$core..fmt..Debug$GT$3fmt17h7fd6ada3b997587aE+0x2c>
200073de:	ffffd097          	auipc	ra,0xffffd
200073e2:	7b4080e7          	jalr	1972(ra) # 20004b92 <_ZN4core3fmt3num3imp52_$LT$impl$u20$core..fmt..Display$u20$for$u20$u32$GT$3fmt17hd33618c459eb254aE>
200073e6:	a811                	j	200073fa <_ZN42_$LT$$RF$T$u20$as$u20$core..fmt..Debug$GT$3fmt17h7fd6ada3b997587aE+0x34>
200073e8:	fffff097          	auipc	ra,0xfffff
200073ec:	2a8080e7          	jalr	680(ra) # 20006690 <_ZN4core3fmt3num53_$LT$impl$u20$core..fmt..LowerHex$u20$for$u20$i32$GT$3fmt17h6cea225f5f2f55d7E>
200073f0:	a029                	j	200073fa <_ZN42_$LT$$RF$T$u20$as$u20$core..fmt..Debug$GT$3fmt17h7fd6ada3b997587aE+0x34>
200073f2:	fffff097          	auipc	ra,0xfffff
200073f6:	322080e7          	jalr	802(ra) # 20006714 <_ZN4core3fmt3num53_$LT$impl$u20$core..fmt..UpperHex$u20$for$u20$i32$GT$3fmt17had038f5c59c3e8e9E>
200073fa:	4422                	lw	s0,8(sp)
200073fc:	40b2                	lw	ra,12(sp)
200073fe:	0141                	addi	sp,sp,16
20007400:	8082                	ret

20007402 <_ZN42_$LT$$RF$T$u20$as$u20$core..fmt..Debug$GT$3fmt17hccf4e89d14db9146E>:
20007402:	1101                	addi	sp,sp,-32
20007404:	ce06                	sw	ra,28(sp)
20007406:	cc22                	sw	s0,24(sp)
20007408:	ca26                	sw	s1,20(sp)
2000740a:	c84a                	sw	s2,16(sp)
2000740c:	c64e                	sw	s3,12(sp)
2000740e:	c452                	sw	s4,8(sp)
20007410:	1000                	addi	s0,sp,32
20007412:	84ae                	mv	s1,a1
20007414:	00c5a983          	lw	s3,12(a1)
20007418:	0085a903          	lw	s2,8(a1)
2000741c:	4108                	lw	a0,0(a0)
2000741e:	4108                	lw	a0,0(a0)
20007420:	0005aa03          	lw	s4,0(a1)
20007424:	004a7613          	andi	a2,s4,4
20007428:	85d2                	mv	a1,s4
2000742a:	ca11                	beqz	a2,2000743e <_ZN42_$LT$$RF$T$u20$as$u20$core..fmt..Debug$GT$3fmt17hccf4e89d14db9146E+0x3c>
2000742c:	008a6593          	ori	a1,s4,8
20007430:	c08c                	sw	a1,0(s1)
20007432:	00091663          	bnez	s2,2000743e <_ZN42_$LT$$RF$T$u20$as$u20$core..fmt..Debug$GT$3fmt17hccf4e89d14db9146E+0x3c>
20007436:	4629                	li	a2,10
20007438:	c4d0                	sw	a2,12(s1)
2000743a:	4605                	li	a2,1
2000743c:	c490                	sw	a2,8(s1)
2000743e:	0045e593          	ori	a1,a1,4
20007442:	c08c                	sw	a1,0(s1)
20007444:	fea42223          	sw	a0,-28(s0)
20007448:	fe440513          	addi	a0,s0,-28
2000744c:	85a6                	mv	a1,s1
2000744e:	fffff097          	auipc	ra,0xfffff
20007452:	242080e7          	jalr	578(ra) # 20006690 <_ZN4core3fmt3num53_$LT$impl$u20$core..fmt..LowerHex$u20$for$u20$i32$GT$3fmt17h6cea225f5f2f55d7E>
20007456:	0134a623          	sw	s3,12(s1)
2000745a:	0124a423          	sw	s2,8(s1)
2000745e:	0144a023          	sw	s4,0(s1)
20007462:	4a22                	lw	s4,8(sp)
20007464:	49b2                	lw	s3,12(sp)
20007466:	4942                	lw	s2,16(sp)
20007468:	44d2                	lw	s1,20(sp)
2000746a:	4462                	lw	s0,24(sp)
2000746c:	40f2                	lw	ra,28(sp)
2000746e:	6105                	addi	sp,sp,32
20007470:	8082                	ret

20007472 <_ZN44_$LT$$RF$T$u20$as$u20$core..fmt..Display$GT$3fmt17h4dc4fd09425098fcE>:
20007472:	1141                	addi	sp,sp,-16
20007474:	c606                	sw	ra,12(sp)
20007476:	c422                	sw	s0,8(sp)
20007478:	0800                	addi	s0,sp,16
2000747a:	86ae                	mv	a3,a1
2000747c:	4150                	lw	a2,4(a0)
2000747e:	410c                	lw	a1,0(a0)
20007480:	8536                	mv	a0,a3
20007482:	4422                	lw	s0,8(sp)
20007484:	40b2                	lw	ra,12(sp)
20007486:	0141                	addi	sp,sp,16
20007488:	ffffe317          	auipc	t1,0xffffe
2000748c:	c5c30067          	jr	-932(t1) # 200050e4 <_ZN4core3fmt9Formatter3pad17h0d1c009fbb18f52cE>

20007490 <_ZN6kernel10returncode93_$LT$impl$u20$core..convert..From$LT$kernel..returncode..ReturnCode$GT$$u20$for$u20$isize$GT$4from17h57f8dfadf44faa39E>:
20007490:	1141                	addi	sp,sp,-16
20007492:	c606                	sw	ra,12(sp)
20007494:	c422                	sw	s0,8(sp)
20007496:	0800                	addi	s0,sp,16
20007498:	c151                	beqz	a0,2000751c <_ZN6kernel10returncode93_$LT$impl$u20$core..convert..From$LT$kernel..returncode..ReturnCode$GT$$u20$for$u20$isize$GT$4from17h57f8dfadf44faa39E+0x8c>
2000749a:	4585                	li	a1,1
2000749c:	04b50963          	beq	a0,a1,200074ee <_ZN6kernel10returncode93_$LT$impl$u20$core..convert..From$LT$kernel..returncode..ReturnCode$GT$$u20$for$u20$isize$GT$4from17h57f8dfadf44faa39E+0x5e>
200074a0:	4589                	li	a1,2
200074a2:	04b50863          	beq	a0,a1,200074f2 <_ZN6kernel10returncode93_$LT$impl$u20$core..convert..From$LT$kernel..returncode..ReturnCode$GT$$u20$for$u20$isize$GT$4from17h57f8dfadf44faa39E+0x62>
200074a6:	458d                	li	a1,3
200074a8:	04b50763          	beq	a0,a1,200074f6 <_ZN6kernel10returncode93_$LT$impl$u20$core..convert..From$LT$kernel..returncode..ReturnCode$GT$$u20$for$u20$isize$GT$4from17h57f8dfadf44faa39E+0x66>
200074ac:	4591                	li	a1,4
200074ae:	04b50663          	beq	a0,a1,200074fa <_ZN6kernel10returncode93_$LT$impl$u20$core..convert..From$LT$kernel..returncode..ReturnCode$GT$$u20$for$u20$isize$GT$4from17h57f8dfadf44faa39E+0x6a>
200074b2:	4595                	li	a1,5
200074b4:	04b50563          	beq	a0,a1,200074fe <_ZN6kernel10returncode93_$LT$impl$u20$core..convert..From$LT$kernel..returncode..ReturnCode$GT$$u20$for$u20$isize$GT$4from17h57f8dfadf44faa39E+0x6e>
200074b8:	4599                	li	a1,6
200074ba:	04b50463          	beq	a0,a1,20007502 <_ZN6kernel10returncode93_$LT$impl$u20$core..convert..From$LT$kernel..returncode..ReturnCode$GT$$u20$for$u20$isize$GT$4from17h57f8dfadf44faa39E+0x72>
200074be:	459d                	li	a1,7
200074c0:	04b50363          	beq	a0,a1,20007506 <_ZN6kernel10returncode93_$LT$impl$u20$core..convert..From$LT$kernel..returncode..ReturnCode$GT$$u20$for$u20$isize$GT$4from17h57f8dfadf44faa39E+0x76>
200074c4:	45a1                	li	a1,8
200074c6:	04b50263          	beq	a0,a1,2000750a <_ZN6kernel10returncode93_$LT$impl$u20$core..convert..From$LT$kernel..returncode..ReturnCode$GT$$u20$for$u20$isize$GT$4from17h57f8dfadf44faa39E+0x7a>
200074ca:	45a5                	li	a1,9
200074cc:	04b50163          	beq	a0,a1,2000750e <_ZN6kernel10returncode93_$LT$impl$u20$core..convert..From$LT$kernel..returncode..ReturnCode$GT$$u20$for$u20$isize$GT$4from17h57f8dfadf44faa39E+0x7e>
200074d0:	45a9                	li	a1,10
200074d2:	04b50063          	beq	a0,a1,20007512 <_ZN6kernel10returncode93_$LT$impl$u20$core..convert..From$LT$kernel..returncode..ReturnCode$GT$$u20$for$u20$isize$GT$4from17h57f8dfadf44faa39E+0x82>
200074d6:	45ad                	li	a1,11
200074d8:	02b50f63          	beq	a0,a1,20007516 <_ZN6kernel10returncode93_$LT$impl$u20$core..convert..From$LT$kernel..returncode..ReturnCode$GT$$u20$for$u20$isize$GT$4from17h57f8dfadf44faa39E+0x86>
200074dc:	45b1                	li	a1,12
200074de:	02b50e63          	beq	a0,a1,2000751a <_ZN6kernel10returncode93_$LT$impl$u20$core..convert..From$LT$kernel..returncode..ReturnCode$GT$$u20$for$u20$isize$GT$4from17h57f8dfadf44faa39E+0x8a>
200074e2:	55cd                	li	a1,-13
200074e4:	4635                	li	a2,13
200074e6:	02c51b63          	bne	a0,a2,2000751c <_ZN6kernel10returncode93_$LT$impl$u20$core..convert..From$LT$kernel..returncode..ReturnCode$GT$$u20$for$u20$isize$GT$4from17h57f8dfadf44faa39E+0x8c>
200074ea:	55d1                	li	a1,-12
200074ec:	a805                	j	2000751c <_ZN6kernel10returncode93_$LT$impl$u20$core..convert..From$LT$kernel..returncode..ReturnCode$GT$$u20$for$u20$isize$GT$4from17h57f8dfadf44faa39E+0x8c>
200074ee:	4581                	li	a1,0
200074f0:	a035                	j	2000751c <_ZN6kernel10returncode93_$LT$impl$u20$core..convert..From$LT$kernel..returncode..ReturnCode$GT$$u20$for$u20$isize$GT$4from17h57f8dfadf44faa39E+0x8c>
200074f2:	55fd                	li	a1,-1
200074f4:	a025                	j	2000751c <_ZN6kernel10returncode93_$LT$impl$u20$core..convert..From$LT$kernel..returncode..ReturnCode$GT$$u20$for$u20$isize$GT$4from17h57f8dfadf44faa39E+0x8c>
200074f6:	55f9                	li	a1,-2
200074f8:	a015                	j	2000751c <_ZN6kernel10returncode93_$LT$impl$u20$core..convert..From$LT$kernel..returncode..ReturnCode$GT$$u20$for$u20$isize$GT$4from17h57f8dfadf44faa39E+0x8c>
200074fa:	55f5                	li	a1,-3
200074fc:	a005                	j	2000751c <_ZN6kernel10returncode93_$LT$impl$u20$core..convert..From$LT$kernel..returncode..ReturnCode$GT$$u20$for$u20$isize$GT$4from17h57f8dfadf44faa39E+0x8c>
200074fe:	55f1                	li	a1,-4
20007500:	a831                	j	2000751c <_ZN6kernel10returncode93_$LT$impl$u20$core..convert..From$LT$kernel..returncode..ReturnCode$GT$$u20$for$u20$isize$GT$4from17h57f8dfadf44faa39E+0x8c>
20007502:	55ed                	li	a1,-5
20007504:	a821                	j	2000751c <_ZN6kernel10returncode93_$LT$impl$u20$core..convert..From$LT$kernel..returncode..ReturnCode$GT$$u20$for$u20$isize$GT$4from17h57f8dfadf44faa39E+0x8c>
20007506:	55e9                	li	a1,-6
20007508:	a811                	j	2000751c <_ZN6kernel10returncode93_$LT$impl$u20$core..convert..From$LT$kernel..returncode..ReturnCode$GT$$u20$for$u20$isize$GT$4from17h57f8dfadf44faa39E+0x8c>
2000750a:	55e5                	li	a1,-7
2000750c:	a801                	j	2000751c <_ZN6kernel10returncode93_$LT$impl$u20$core..convert..From$LT$kernel..returncode..ReturnCode$GT$$u20$for$u20$isize$GT$4from17h57f8dfadf44faa39E+0x8c>
2000750e:	55e1                	li	a1,-8
20007510:	a031                	j	2000751c <_ZN6kernel10returncode93_$LT$impl$u20$core..convert..From$LT$kernel..returncode..ReturnCode$GT$$u20$for$u20$isize$GT$4from17h57f8dfadf44faa39E+0x8c>
20007512:	55dd                	li	a1,-9
20007514:	a021                	j	2000751c <_ZN6kernel10returncode93_$LT$impl$u20$core..convert..From$LT$kernel..returncode..ReturnCode$GT$$u20$for$u20$isize$GT$4from17h57f8dfadf44faa39E+0x8c>
20007516:	55d9                	li	a1,-10
20007518:	a011                	j	2000751c <_ZN6kernel10returncode93_$LT$impl$u20$core..convert..From$LT$kernel..returncode..ReturnCode$GT$$u20$for$u20$isize$GT$4from17h57f8dfadf44faa39E+0x8c>
2000751a:	55d5                	li	a1,-11
2000751c:	852e                	mv	a0,a1
2000751e:	4422                	lw	s0,8(sp)
20007520:	40b2                	lw	ra,12(sp)
20007522:	0141                	addi	sp,sp,16
20007524:	8082                	ret

20007526 <_ZN4core3ptr13drop_in_place17h30447950ec581831E>:
20007526:	1141                	addi	sp,sp,-16
20007528:	c606                	sw	ra,12(sp)
2000752a:	c422                	sw	s0,8(sp)
2000752c:	0800                	addi	s0,sp,16
2000752e:	4422                	lw	s0,8(sp)
20007530:	40b2                	lw	ra,12(sp)
20007532:	0141                	addi	sp,sp,16
20007534:	8082                	ret

20007536 <_ZN4core3ptr13drop_in_place17hb0499afb8f24811aE>:
20007536:	1141                	addi	sp,sp,-16
20007538:	c606                	sw	ra,12(sp)
2000753a:	c422                	sw	s0,8(sp)
2000753c:	0800                	addi	s0,sp,16
2000753e:	4422                	lw	s0,8(sp)
20007540:	40b2                	lw	ra,12(sp)
20007542:	0141                	addi	sp,sp,16
20007544:	8082                	ret

20007546 <_ZN4core3ptr13drop_in_place17h8c11cd21ddf8c60fE.751>:
20007546:	1141                	addi	sp,sp,-16
20007548:	c606                	sw	ra,12(sp)
2000754a:	c422                	sw	s0,8(sp)
2000754c:	0800                	addi	s0,sp,16
2000754e:	4422                	lw	s0,8(sp)
20007550:	40b2                	lw	ra,12(sp)
20007552:	0141                	addi	sp,sp,16
20007554:	8082                	ret

20007556 <_ZN7lowrisc4uart4Uart11tx_progress17hb07429f132d57eecE>:
20007556:	1141                	addi	sp,sp,-16
20007558:	c606                	sw	ra,12(sp)
2000755a:	c422                	sw	s0,8(sp)
2000755c:	0800                	addi	s0,sp,16
2000755e:	510c                	lw	a1,32(a0)
20007560:	02452303          	lw	t1,36(a0)
20007564:	06b37b63          	bgeu	t1,a1,200075da <_ZN7lowrisc4uart4Uart11tx_progress17hb07429f132d57eecE+0x84>
20007568:	4114                	lw	a3,0(a0)
2000756a:	01852803          	lw	a6,24(a0)
2000756e:	00052c23          	sw	zero,24(a0)
20007572:	04080163          	beqz	a6,200075b4 <_ZN7lowrisc4uart4Uart11tx_progress17hb07429f132d57eecE+0x5e>
20007576:	4d50                	lw	a2,28(a0)
20007578:	006808b3          	add	a7,a6,t1
2000757c:	406582b3          	sub	t0,a1,t1
20007580:	4781                	li	a5,0
20007582:	0257f663          	bgeu	a5,t0,200075ae <_ZN7lowrisc4uart4Uart11tx_progress17hb07429f132d57eecE+0x58>
20007586:	00178713          	addi	a4,a5,1
2000758a:	02f76263          	bltu	a4,a5,200075ae <_ZN7lowrisc4uart4Uart11tx_progress17hb07429f132d57eecE+0x58>
2000758e:	4a8c                	lw	a1,16(a3)
20007590:	8985                	andi	a1,a1,1
20007592:	ed91                	bnez	a1,200075ae <_ZN7lowrisc4uart4Uart11tx_progress17hb07429f132d57eecE+0x58>
20007594:	00f305b3          	add	a1,t1,a5
20007598:	06c5f563          	bgeu	a1,a2,20007602 <_ZN7lowrisc4uart4Uart11tx_progress17hb07429f132d57eecE+0xac>
2000759c:	97c6                	add	a5,a5,a7
2000759e:	0007c783          	lbu	a5,0(a5)
200075a2:	ce9c                	sw	a5,24(a3)
200075a4:	0585                	addi	a1,a1,1
200075a6:	d14c                	sw	a1,36(a0)
200075a8:	87ba                	mv	a5,a4
200075aa:	fc57eee3          	bltu	a5,t0,20007586 <_ZN7lowrisc4uart4Uart11tx_progress17hb07429f132d57eecE+0x30>
200075ae:	cd50                	sw	a2,28(a0)
200075b0:	01052c23          	sw	a6,24(a0)
200075b4:	4591                	li	a1,4
200075b6:	c28c                	sw	a1,0(a3)
200075b8:	4a8c                	lw	a1,16(a3)
200075ba:	8991                	andi	a1,a1,4
200075bc:	ed99                	bnez	a1,200075da <_ZN7lowrisc4uart4Uart11tx_progress17hb07429f132d57eecE+0x84>
200075be:	410c                	lw	a1,0(a0)
200075c0:	41d0                	lw	a2,4(a1)
200075c2:	00466613          	ori	a2,a2,4
200075c6:	c1d0                	sw	a2,4(a1)
200075c8:	4a8c                	lw	a1,16(a3)
200075ca:	8991                	andi	a1,a1,4
200075cc:	c59d                	beqz	a1,200075fa <_ZN7lowrisc4uart4Uart11tx_progress17hb07429f132d57eecE+0xa4>
200075ce:	410c                	lw	a1,0(a0)
200075d0:	41d0                	lw	a2,4(a1)
200075d2:	9a6d                	andi	a2,a2,-5
200075d4:	c1d0                	sw	a2,4(a1)
200075d6:	4611                	li	a2,4
200075d8:	c190                	sw	a2,0(a1)
200075da:	5154                	lw	a3,36(a0)
200075dc:	510c                	lw	a1,32(a0)
200075de:	00b69e63          	bne	a3,a1,200075fa <_ZN7lowrisc4uart4Uart11tx_progress17hb07429f132d57eecE+0xa4>
200075e2:	4518                	lw	a4,8(a0)
200075e4:	cb19                	beqz	a4,200075fa <_ZN7lowrisc4uart4Uart11tx_progress17hb07429f132d57eecE+0xa4>
200075e6:	455c                	lw	a5,12(a0)
200075e8:	4d0c                	lw	a1,24(a0)
200075ea:	00052c23          	sw	zero,24(a0)
200075ee:	c591                	beqz	a1,200075fa <_ZN7lowrisc4uart4Uart11tx_progress17hb07429f132d57eecE+0xa4>
200075f0:	4d50                	lw	a2,28(a0)
200075f2:	4b9c                	lw	a5,16(a5)
200075f4:	853a                	mv	a0,a4
200075f6:	4705                	li	a4,1
200075f8:	9782                	jalr	a5
200075fa:	4422                	lw	s0,8(sp)
200075fc:	40b2                	lw	ra,12(sp)
200075fe:	0141                	addi	sp,sp,16
20007600:	8082                	ret
20007602:	10002537          	lui	a0,0x10002
20007606:	93c50513          	addi	a0,a0,-1732 # 1000193c <anon.f056c6d91f79d63a3c4609c0c0b74c84.2.llvm.14557056499867431648>
2000760a:	ffffd097          	auipc	ra,0xffffd
2000760e:	51e080e7          	jalr	1310(ra) # 20004b28 <_ZN4core9panicking18panic_bounds_check17h95c8cd8536e82dafE>
20007612:	00007097          	auipc	ra,0x7
20007616:	5ca080e7          	jalr	1482(ra) # 2000ebdc <abort>

2000761a <_ZN68_$LT$lowrisc..uart..Uart$u20$as$u20$kernel..hil..uart..Configure$GT$9configure17h551d2515fc2a01fcE>:
2000761a:	1141                	addi	sp,sp,-16
2000761c:	c606                	sw	ra,12(sp)
2000761e:	c422                	sw	s0,8(sp)
20007620:	c226                	sw	s1,4(sp)
20007622:	0800                	addi	s0,sp,16
20007624:	4150                	lw	a2,4(a0)
20007626:	ce0d                	beqz	a2,20007660 <_ZN68_$LT$lowrisc..uart..Uart$u20$as$u20$kernel..hil..uart..Configure$GT$9configure17h551d2515fc2a01fcE+0x46>
20007628:	84aa                	mv	s1,a0
2000762a:	418c                	lw	a1,0(a1)
2000762c:	01459513          	slli	a0,a1,0x14
20007630:	81b1                	srli	a1,a1,0xc
20007632:	4681                	li	a3,0
20007634:	00004097          	auipc	ra,0x4
20007638:	f20080e7          	jalr	-224(ra) # 2000b554 <__udivdi3>
2000763c:	0542                	slli	a0,a0,0x10
2000763e:	408c                	lw	a1,0(s1)
20007640:	c5c8                	sw	a0,12(a1)
20007642:	45c8                	lw	a0,12(a1)
20007644:	00356513          	ori	a0,a0,3
20007648:	c5c8                	sw	a0,12(a1)
2000764a:	450d                	li	a0,3
2000764c:	cdc8                	sw	a0,28(a1)
2000764e:	cdc8                	sw	a0,28(a1)
20007650:	0005a223          	sw	zero,4(a1)
20007654:	4505                	li	a0,1
20007656:	4492                	lw	s1,4(sp)
20007658:	4422                	lw	s0,8(sp)
2000765a:	40b2                	lw	ra,12(sp)
2000765c:	0141                	addi	sp,sp,16
2000765e:	8082                	ret
20007660:	2000e537          	lui	a0,0x2000e
20007664:	d1050513          	addi	a0,a0,-752 # 2000dd10 <str.0.764>
20007668:	100025b7          	lui	a1,0x10002
2000766c:	91c58613          	addi	a2,a1,-1764 # 1000191c <.Lanon.98b76305f3236389cf8853ea0e09036c.1>
20007670:	45e5                	li	a1,25
20007672:	ffffd097          	auipc	ra,0xffffd
20007676:	46e080e7          	jalr	1134(ra) # 20004ae0 <_ZN4core9panicking5panic17haaa649c2263e8176E>
2000767a:	00007097          	auipc	ra,0x7
2000767e:	562080e7          	jalr	1378(ra) # 2000ebdc <abort>

20007682 <_ZN67_$LT$lowrisc..uart..Uart$u20$as$u20$kernel..hil..uart..Transmit$GT$19set_transmit_client17h03a8fe9b93bf46e1E>:
20007682:	1141                	addi	sp,sp,-16
20007684:	c606                	sw	ra,12(sp)
20007686:	c422                	sw	s0,8(sp)
20007688:	0800                	addi	s0,sp,16
2000768a:	c550                	sw	a2,12(a0)
2000768c:	c50c                	sw	a1,8(a0)
2000768e:	4422                	lw	s0,8(sp)
20007690:	40b2                	lw	ra,12(sp)
20007692:	0141                	addi	sp,sp,16
20007694:	8082                	ret

20007696 <_ZN67_$LT$lowrisc..uart..Uart$u20$as$u20$kernel..hil..uart..Transmit$GT$15transmit_buffer17hfb9afcf826902825E>:
20007696:	1141                	addi	sp,sp,-16
20007698:	c606                	sw	ra,12(sp)
2000769a:	c422                	sw	s0,8(sp)
2000769c:	c226                	sw	s1,4(sp)
2000769e:	0800                	addi	s0,sp,16
200076a0:	84aa                	mv	s1,a0
200076a2:	c719                	beqz	a4,200076b0 <_ZN67_$LT$lowrisc..uart..Uart$u20$as$u20$kernel..hil..uart..Transmit$GT$15transmit_buffer17hfb9afcf826902825E+0x1a>
200076a4:	4d88                	lw	a0,24(a1)
200076a6:	c909                	beqz	a0,200076b8 <_ZN67_$LT$lowrisc..uart..Uart$u20$as$u20$kernel..hil..uart..Transmit$GT$15transmit_buffer17hfb9afcf826902825E+0x22>
200076a8:	c4d4                	sw	a3,12(s1)
200076aa:	c490                	sw	a2,8(s1)
200076ac:	450d                	li	a0,3
200076ae:	a015                	j	200076d2 <_ZN67_$LT$lowrisc..uart..Uart$u20$as$u20$kernel..hil..uart..Transmit$GT$15transmit_buffer17hfb9afcf826902825E+0x3c>
200076b0:	c4d4                	sw	a3,12(s1)
200076b2:	c490                	sw	a2,8(s1)
200076b4:	4521                	li	a0,8
200076b6:	a831                	j	200076d2 <_ZN67_$LT$lowrisc..uart..Uart$u20$as$u20$kernel..hil..uart..Transmit$GT$15transmit_buffer17hfb9afcf826902825E+0x3c>
200076b8:	d198                	sw	a4,32(a1)
200076ba:	cdd4                	sw	a3,28(a1)
200076bc:	cd90                	sw	a2,24(a1)
200076be:	0205a223          	sw	zero,36(a1)
200076c2:	852e                	mv	a0,a1
200076c4:	00000097          	auipc	ra,0x0
200076c8:	e92080e7          	jalr	-366(ra) # 20007556 <_ZN7lowrisc4uart4Uart11tx_progress17hb07429f132d57eecE>
200076cc:	0004a423          	sw	zero,8(s1)
200076d0:	4505                	li	a0,1
200076d2:	c088                	sw	a0,0(s1)
200076d4:	4492                	lw	s1,4(sp)
200076d6:	4422                	lw	s0,8(sp)
200076d8:	40b2                	lw	ra,12(sp)
200076da:	0141                	addi	sp,sp,16
200076dc:	8082                	ret

200076de <_ZN67_$LT$lowrisc..uart..Uart$u20$as$u20$kernel..hil..uart..Transmit$GT$14transmit_abort17h14ca3e0303d98848E>:
200076de:	1141                	addi	sp,sp,-16
200076e0:	c606                	sw	ra,12(sp)
200076e2:	c422                	sw	s0,8(sp)
200076e4:	0800                	addi	s0,sp,16
200076e6:	4509                	li	a0,2
200076e8:	4422                	lw	s0,8(sp)
200076ea:	40b2                	lw	ra,12(sp)
200076ec:	0141                	addi	sp,sp,16
200076ee:	8082                	ret

200076f0 <_ZN67_$LT$lowrisc..uart..Uart$u20$as$u20$kernel..hil..uart..Transmit$GT$13transmit_word17hde5046e66c14e584E>:
200076f0:	1141                	addi	sp,sp,-16
200076f2:	c606                	sw	ra,12(sp)
200076f4:	c422                	sw	s0,8(sp)
200076f6:	0800                	addi	s0,sp,16
200076f8:	4509                	li	a0,2
200076fa:	4422                	lw	s0,8(sp)
200076fc:	40b2                	lw	ra,12(sp)
200076fe:	0141                	addi	sp,sp,16
20007700:	8082                	ret

20007702 <_ZN66_$LT$lowrisc..uart..Uart$u20$as$u20$kernel..hil..uart..Receive$GT$18set_receive_client17hc7757efc45c27378E>:
20007702:	1141                	addi	sp,sp,-16
20007704:	c606                	sw	ra,12(sp)
20007706:	c422                	sw	s0,8(sp)
20007708:	0800                	addi	s0,sp,16
2000770a:	c950                	sw	a2,20(a0)
2000770c:	c90c                	sw	a1,16(a0)
2000770e:	4422                	lw	s0,8(sp)
20007710:	40b2                	lw	ra,12(sp)
20007712:	0141                	addi	sp,sp,16
20007714:	8082                	ret

20007716 <_ZN66_$LT$lowrisc..uart..Uart$u20$as$u20$kernel..hil..uart..Receive$GT$14receive_buffer17h28e6bbb1d0e76b07E>:
20007716:	1141                	addi	sp,sp,-16
20007718:	c606                	sw	ra,12(sp)
2000771a:	c422                	sw	s0,8(sp)
2000771c:	0800                	addi	s0,sp,16
2000771e:	418c                	lw	a1,0(a1)
20007720:	41d0                	lw	a2,4(a1)
20007722:	00266613          	ori	a2,a2,2
20007726:	c1d0                	sw	a2,4(a1)
20007728:	0005ae23          	sw	zero,28(a1)
2000772c:	00052423          	sw	zero,8(a0)
20007730:	4589                	li	a1,2
20007732:	c10c                	sw	a1,0(a0)
20007734:	4422                	lw	s0,8(sp)
20007736:	40b2                	lw	ra,12(sp)
20007738:	0141                	addi	sp,sp,16
2000773a:	8082                	ret

2000773c <_ZN66_$LT$lowrisc..uart..Uart$u20$as$u20$kernel..hil..uart..Receive$GT$13receive_abort17h62537a0d4139a1f8E>:
2000773c:	1141                	addi	sp,sp,-16
2000773e:	c606                	sw	ra,12(sp)
20007740:	c422                	sw	s0,8(sp)
20007742:	0800                	addi	s0,sp,16
20007744:	4509                	li	a0,2
20007746:	4422                	lw	s0,8(sp)
20007748:	40b2                	lw	ra,12(sp)
2000774a:	0141                	addi	sp,sp,16
2000774c:	8082                	ret

2000774e <_ZN66_$LT$lowrisc..uart..Uart$u20$as$u20$kernel..hil..uart..Receive$GT$12receive_word17h72cf488037e2c973E>:
2000774e:	1141                	addi	sp,sp,-16
20007750:	c606                	sw	ra,12(sp)
20007752:	c422                	sw	s0,8(sp)
20007754:	0800                	addi	s0,sp,16
20007756:	4509                	li	a0,2
20007758:	4422                	lw	s0,8(sp)
2000775a:	40b2                	lw	ra,12(sp)
2000775c:	0141                	addi	sp,sp,16
2000775e:	8082                	ret

20007760 <_ZN71_$LT$lowrisc..gpio..GpioPin$u20$as$u20$kernel..hil..gpio..Configure$GT$13configuration17he13d594a72d4815cE>:
20007760:	1141                	addi	sp,sp,-16
20007762:	c606                	sw	ra,12(sp)
20007764:	c422                	sw	s0,8(sp)
20007766:	0800                	addi	s0,sp,16
20007768:	450c                	lw	a1,8(a0)
2000776a:	4150                	lw	a2,4(a0)
2000776c:	00b61633          	sll	a2,a2,a1
20007770:	4108                	lw	a0,0(a0)
20007772:	4d48                	lw	a0,28(a0)
20007774:	8d71                	and	a0,a0,a2
20007776:	00b555b3          	srl	a1,a0,a1
2000777a:	4505                	li	a0,1
2000777c:	c191                	beqz	a1,20007780 <_ZN71_$LT$lowrisc..gpio..GpioPin$u20$as$u20$kernel..hil..gpio..Configure$GT$13configuration17he13d594a72d4815cE+0x20>
2000777e:	450d                	li	a0,3
20007780:	4422                	lw	s0,8(sp)
20007782:	40b2                	lw	ra,12(sp)
20007784:	0141                	addi	sp,sp,16
20007786:	8082                	ret

20007788 <_ZN71_$LT$lowrisc..gpio..GpioPin$u20$as$u20$kernel..hil..gpio..Configure$GT$18set_floating_state17h08686d799a370656E>:
20007788:	1141                	addi	sp,sp,-16
2000778a:	c606                	sw	ra,12(sp)
2000778c:	c422                	sw	s0,8(sp)
2000778e:	0800                	addi	s0,sp,16
20007790:	2000e537          	lui	a0,0x2000e
20007794:	d2950513          	addi	a0,a0,-727 # 2000dd29 <.Lanon.11000e185f21e50805f059b45d35e01e.2>
20007798:	100025b7          	lui	a1,0x10002
2000779c:	92c58613          	addi	a2,a1,-1748 # 1000192c <.Lanon.11000e185f21e50805f059b45d35e01e.4>
200077a0:	03800593          	li	a1,56
200077a4:	ffffd097          	auipc	ra,0xffffd
200077a8:	33c080e7          	jalr	828(ra) # 20004ae0 <_ZN4core9panicking5panic17haaa649c2263e8176E>
200077ac:	00007097          	auipc	ra,0x7
200077b0:	430080e7          	jalr	1072(ra) # 2000ebdc <abort>

200077b4 <_ZN71_$LT$lowrisc..gpio..GpioPin$u20$as$u20$kernel..hil..gpio..Configure$GT$14floating_state17h3897809928682928E>:
200077b4:	1141                	addi	sp,sp,-16
200077b6:	c606                	sw	ra,12(sp)
200077b8:	c422                	sw	s0,8(sp)
200077ba:	0800                	addi	s0,sp,16
200077bc:	4509                	li	a0,2
200077be:	4422                	lw	s0,8(sp)
200077c0:	40b2                	lw	ra,12(sp)
200077c2:	0141                	addi	sp,sp,16
200077c4:	8082                	ret

200077c6 <_ZN71_$LT$lowrisc..gpio..GpioPin$u20$as$u20$kernel..hil..gpio..Configure$GT$23deactivate_to_low_power17h0ed75873eac15577E>:
200077c6:	1141                	addi	sp,sp,-16
200077c8:	c606                	sw	ra,12(sp)
200077ca:	c422                	sw	s0,8(sp)
200077cc:	c226                	sw	s1,4(sp)
200077ce:	0800                	addi	s0,sp,16
200077d0:	84aa                	mv	s1,a0
200077d2:	00000097          	auipc	ra,0x0
200077d6:	f8e080e7          	jalr	-114(ra) # 20007760 <_ZN71_$LT$lowrisc..gpio..GpioPin$u20$as$u20$kernel..hil..gpio..Configure$GT$13configuration17he13d594a72d4815cE>
200077da:	8526                	mv	a0,s1
200077dc:	4492                	lw	s1,4(sp)
200077de:	4422                	lw	s0,8(sp)
200077e0:	40b2                	lw	ra,12(sp)
200077e2:	0141                	addi	sp,sp,16
200077e4:	00000317          	auipc	t1,0x0
200077e8:	00830067          	jr	8(t1) # 200077ec <_ZN71_$LT$lowrisc..gpio..GpioPin$u20$as$u20$kernel..hil..gpio..Configure$GT$14disable_output17hd22f1142637577a5E>

200077ec <_ZN71_$LT$lowrisc..gpio..GpioPin$u20$as$u20$kernel..hil..gpio..Configure$GT$14disable_output17hd22f1142637577a5E>:
200077ec:	1141                	addi	sp,sp,-16
200077ee:	c606                	sw	ra,12(sp)
200077f0:	c422                	sw	s0,8(sp)
200077f2:	0800                	addi	s0,sp,16
200077f4:	450c                	lw	a1,8(a0)
200077f6:	02000613          	li	a2,32
200077fa:	46c1                	li	a3,16
200077fc:	00d5e563          	bltu	a1,a3,20007806 <_ZN71_$LT$lowrisc..gpio..GpioPin$u20$as$u20$kernel..hil..gpio..Configure$GT$14disable_output17hd22f1142637577a5E+0x1a>
20007800:	02400613          	li	a2,36
20007804:	05c1                	addi	a1,a1,16
20007806:	4108                	lw	a0,0(a0)
20007808:	9532                	add	a0,a0,a2
2000780a:	6641                	lui	a2,0x10
2000780c:	00b615b3          	sll	a1,a2,a1
20007810:	c10c                	sw	a1,0(a0)
20007812:	4505                	li	a0,1
20007814:	4422                	lw	s0,8(sp)
20007816:	40b2                	lw	ra,12(sp)
20007818:	0141                	addi	sp,sp,16
2000781a:	8082                	ret

2000781c <_ZN71_$LT$lowrisc..gpio..GpioPin$u20$as$u20$kernel..hil..gpio..Configure$GT$11make_output17h9d4bfaf69053c6fdE>:
2000781c:	1141                	addi	sp,sp,-16
2000781e:	c606                	sw	ra,12(sp)
20007820:	c422                	sw	s0,8(sp)
20007822:	0800                	addi	s0,sp,16
20007824:	450c                	lw	a1,8(a0)
20007826:	02000613          	li	a2,32
2000782a:	46c1                	li	a3,16
2000782c:	00d5e563          	bltu	a1,a3,20007836 <_ZN71_$LT$lowrisc..gpio..GpioPin$u20$as$u20$kernel..hil..gpio..Configure$GT$11make_output17h9d4bfaf69053c6fdE+0x1a>
20007830:	02400613          	li	a2,36
20007834:	05c1                	addi	a1,a1,16
20007836:	4108                	lw	a0,0(a0)
20007838:	9532                	add	a0,a0,a2
2000783a:	4605                	li	a2,1
2000783c:	00b615b3          	sll	a1,a2,a1
20007840:	6641                	lui	a2,0x10
20007842:	167d                	addi	a2,a2,-1
20007844:	8e6d                	and	a2,a2,a1
20007846:	05c2                	slli	a1,a1,0x10
20007848:	8dd1                	or	a1,a1,a2
2000784a:	c10c                	sw	a1,0(a0)
2000784c:	450d                	li	a0,3
2000784e:	4422                	lw	s0,8(sp)
20007850:	40b2                	lw	ra,12(sp)
20007852:	0141                	addi	sp,sp,16
20007854:	8082                	ret

20007856 <_ZN71_$LT$lowrisc..gpio..GpioPin$u20$as$u20$kernel..hil..gpio..Configure$GT$10make_input17hbe4b7714caef5e3fE>:
20007856:	1141                	addi	sp,sp,-16
20007858:	c606                	sw	ra,12(sp)
2000785a:	c422                	sw	s0,8(sp)
2000785c:	0800                	addi	s0,sp,16
2000785e:	4422                	lw	s0,8(sp)
20007860:	40b2                	lw	ra,12(sp)
20007862:	0141                	addi	sp,sp,16
20007864:	00000317          	auipc	t1,0x0
20007868:	efc30067          	jr	-260(t1) # 20007760 <_ZN71_$LT$lowrisc..gpio..GpioPin$u20$as$u20$kernel..hil..gpio..Configure$GT$13configuration17he13d594a72d4815cE>

2000786c <_ZN71_$LT$lowrisc..gpio..GpioPin$u20$as$u20$kernel..hil..gpio..Configure$GT$13disable_input17hed9f103dd3512099E>:
2000786c:	1141                	addi	sp,sp,-16
2000786e:	c606                	sw	ra,12(sp)
20007870:	c422                	sw	s0,8(sp)
20007872:	0800                	addi	s0,sp,16
20007874:	4422                	lw	s0,8(sp)
20007876:	40b2                	lw	ra,12(sp)
20007878:	0141                	addi	sp,sp,16
2000787a:	00000317          	auipc	t1,0x0
2000787e:	ee630067          	jr	-282(t1) # 20007760 <_ZN71_$LT$lowrisc..gpio..GpioPin$u20$as$u20$kernel..hil..gpio..Configure$GT$13configuration17he13d594a72d4815cE>

20007882 <_ZN67_$LT$lowrisc..gpio..GpioPin$u20$as$u20$kernel..hil..gpio..Input$GT$4read17h0ce17df8bc16cfc0E>:
20007882:	1141                	addi	sp,sp,-16
20007884:	c606                	sw	ra,12(sp)
20007886:	c422                	sw	s0,8(sp)
20007888:	0800                	addi	s0,sp,16
2000788a:	450c                	lw	a1,8(a0)
2000788c:	4150                	lw	a2,4(a0)
2000788e:	00b61633          	sll	a2,a2,a1
20007892:	4108                	lw	a0,0(a0)
20007894:	4548                	lw	a0,12(a0)
20007896:	8d71                	and	a0,a0,a2
20007898:	00b55533          	srl	a0,a0,a1
2000789c:	00a03533          	snez	a0,a0
200078a0:	4422                	lw	s0,8(sp)
200078a2:	40b2                	lw	ra,12(sp)
200078a4:	0141                	addi	sp,sp,16
200078a6:	8082                	ret

200078a8 <_ZN68_$LT$lowrisc..gpio..GpioPin$u20$as$u20$kernel..hil..gpio..Output$GT$6toggle17hba32e8a83e009314E>:
200078a8:	1141                	addi	sp,sp,-16
200078aa:	c606                	sw	ra,12(sp)
200078ac:	c422                	sw	s0,8(sp)
200078ae:	0800                	addi	s0,sp,16
200078b0:	4510                	lw	a2,8(a0)
200078b2:	45c1                	li	a1,16
200078b4:	00b66763          	bltu	a2,a1,200078c2 <_ZN68_$LT$lowrisc..gpio..GpioPin$u20$as$u20$kernel..hil..gpio..Output$GT$6toggle17hba32e8a83e009314E+0x1a>
200078b8:	45e1                	li	a1,24
200078ba:	01060693          	addi	a3,a2,16 # 10010 <.Lline_table_start77+0x2d8>
200078be:	8afd                	andi	a3,a3,31
200078c0:	a021                	j	200078c8 <_ZN68_$LT$lowrisc..gpio..GpioPin$u20$as$u20$kernel..hil..gpio..Output$GT$6toggle17hba32e8a83e009314E+0x20>
200078c2:	45d1                	li	a1,20
200078c4:	01f67693          	andi	a3,a2,31
200078c8:	4158                	lw	a4,4(a0)
200078ca:	00c71733          	sll	a4,a4,a2
200078ce:	411c                	lw	a5,0(a0)
200078d0:	4b88                	lw	a0,16(a5)
200078d2:	8d79                	and	a0,a0,a4
200078d4:	00c55533          	srl	a0,a0,a2
200078d8:	00153513          	seqz	a0,a0
200078dc:	6641                	lui	a2,0x10
200078de:	00d61733          	sll	a4,a2,a3
200078e2:	00d516b3          	sll	a3,a0,a3
200078e6:	167d                	addi	a2,a2,-1
200078e8:	8e75                	and	a2,a2,a3
200078ea:	8e59                	or	a2,a2,a4
200078ec:	95be                	add	a1,a1,a5
200078ee:	c190                	sw	a2,0(a1)
200078f0:	4422                	lw	s0,8(sp)
200078f2:	40b2                	lw	ra,12(sp)
200078f4:	0141                	addi	sp,sp,16
200078f6:	8082                	ret

200078f8 <_ZN68_$LT$lowrisc..gpio..GpioPin$u20$as$u20$kernel..hil..gpio..Output$GT$3set17h6b53329ed33975d6E>:
200078f8:	1141                	addi	sp,sp,-16
200078fa:	c606                	sw	ra,12(sp)
200078fc:	c422                	sw	s0,8(sp)
200078fe:	0800                	addi	s0,sp,16
20007900:	450c                	lw	a1,8(a0)
20007902:	4651                	li	a2,20
20007904:	46c1                	li	a3,16
20007906:	00d5e463          	bltu	a1,a3,2000790e <_ZN68_$LT$lowrisc..gpio..GpioPin$u20$as$u20$kernel..hil..gpio..Output$GT$3set17h6b53329ed33975d6E+0x16>
2000790a:	4661                	li	a2,24
2000790c:	05c1                	addi	a1,a1,16
2000790e:	4108                	lw	a0,0(a0)
20007910:	9532                	add	a0,a0,a2
20007912:	4605                	li	a2,1
20007914:	00b615b3          	sll	a1,a2,a1
20007918:	6641                	lui	a2,0x10
2000791a:	167d                	addi	a2,a2,-1
2000791c:	8e6d                	and	a2,a2,a1
2000791e:	05c2                	slli	a1,a1,0x10
20007920:	8dd1                	or	a1,a1,a2
20007922:	c10c                	sw	a1,0(a0)
20007924:	4422                	lw	s0,8(sp)
20007926:	40b2                	lw	ra,12(sp)
20007928:	0141                	addi	sp,sp,16
2000792a:	8082                	ret

2000792c <_ZN68_$LT$lowrisc..gpio..GpioPin$u20$as$u20$kernel..hil..gpio..Output$GT$5clear17hcc6231dc39fe4550E>:
2000792c:	1141                	addi	sp,sp,-16
2000792e:	c606                	sw	ra,12(sp)
20007930:	c422                	sw	s0,8(sp)
20007932:	0800                	addi	s0,sp,16
20007934:	450c                	lw	a1,8(a0)
20007936:	4651                	li	a2,20
20007938:	46c1                	li	a3,16
2000793a:	00d5e463          	bltu	a1,a3,20007942 <_ZN68_$LT$lowrisc..gpio..GpioPin$u20$as$u20$kernel..hil..gpio..Output$GT$5clear17hcc6231dc39fe4550E+0x16>
2000793e:	4661                	li	a2,24
20007940:	05c1                	addi	a1,a1,16
20007942:	4108                	lw	a0,0(a0)
20007944:	9532                	add	a0,a0,a2
20007946:	6641                	lui	a2,0x10
20007948:	00b615b3          	sll	a1,a2,a1
2000794c:	c10c                	sw	a1,0(a0)
2000794e:	4422                	lw	s0,8(sp)
20007950:	40b2                	lw	ra,12(sp)
20007952:	0141                	addi	sp,sp,16
20007954:	8082                	ret

20007956 <_ZN71_$LT$lowrisc..gpio..GpioPin$u20$as$u20$kernel..hil..gpio..Interrupt$GT$10set_client17ha70203d7478b3d27E>:
20007956:	1141                	addi	sp,sp,-16
20007958:	c606                	sw	ra,12(sp)
2000795a:	c422                	sw	s0,8(sp)
2000795c:	0800                	addi	s0,sp,16
2000795e:	c910                	sw	a2,16(a0)
20007960:	c54c                	sw	a1,12(a0)
20007962:	4422                	lw	s0,8(sp)
20007964:	40b2                	lw	ra,12(sp)
20007966:	0141                	addi	sp,sp,16
20007968:	8082                	ret

2000796a <_ZN71_$LT$lowrisc..gpio..GpioPin$u20$as$u20$kernel..hil..gpio..Interrupt$GT$17enable_interrupts17h8faacbb68f8648d3E>:
2000796a:	1141                	addi	sp,sp,-16
2000796c:	c606                	sw	ra,12(sp)
2000796e:	c422                	sw	s0,8(sp)
20007970:	0800                	addi	s0,sp,16
20007972:	4510                	lw	a2,8(a0)
20007974:	4154                	lw	a3,4(a0)
20007976:	4108                	lw	a0,0(a0)
20007978:	0ff5f593          	andi	a1,a1,255
2000797c:	c18d                	beqz	a1,2000799e <_ZN71_$LT$lowrisc..gpio..GpioPin$u20$as$u20$kernel..hil..gpio..Interrupt$GT$17enable_interrupts17h8faacbb68f8648d3E+0x34>
2000797e:	4705                	li	a4,1
20007980:	02e58e63          	beq	a1,a4,200079bc <_ZN71_$LT$lowrisc..gpio..GpioPin$u20$as$u20$kernel..hil..gpio..Interrupt$GT$17enable_interrupts17h8faacbb68f8648d3E+0x52>
20007984:	00c695b3          	sll	a1,a3,a2
20007988:	4685                	li	a3,1
2000798a:	00c69633          	sll	a2,a3,a2
2000798e:	8e6d                	and	a2,a2,a1
20007990:	fff5c593          	not	a1,a1
20007994:	5514                	lw	a3,40(a0)
20007996:	8eed                	and	a3,a3,a1
20007998:	8ed1                	or	a3,a3,a2
2000799a:	d514                	sw	a3,40(a0)
2000799c:	a815                	j	200079d0 <_ZN71_$LT$lowrisc..gpio..GpioPin$u20$as$u20$kernel..hil..gpio..Interrupt$GT$17enable_interrupts17h8faacbb68f8648d3E+0x66>
2000799e:	00c695b3          	sll	a1,a3,a2
200079a2:	4685                	li	a3,1
200079a4:	00c69633          	sll	a2,a3,a2
200079a8:	8e6d                	and	a2,a2,a1
200079aa:	fff5c593          	not	a1,a1
200079ae:	5514                	lw	a3,40(a0)
200079b0:	8eed                	and	a3,a3,a1
200079b2:	8ed1                	or	a3,a3,a2
200079b4:	d514                	sw	a3,40(a0)
200079b6:	5554                	lw	a3,44(a0)
200079b8:	8eed                	and	a3,a3,a1
200079ba:	a831                	j	200079d6 <_ZN71_$LT$lowrisc..gpio..GpioPin$u20$as$u20$kernel..hil..gpio..Interrupt$GT$17enable_interrupts17h8faacbb68f8648d3E+0x6c>
200079bc:	00c696b3          	sll	a3,a3,a2
200079c0:	fff6c593          	not	a1,a3
200079c4:	551c                	lw	a5,40(a0)
200079c6:	8fed                	and	a5,a5,a1
200079c8:	d51c                	sw	a5,40(a0)
200079ca:	00c71633          	sll	a2,a4,a2
200079ce:	8e75                	and	a2,a2,a3
200079d0:	5554                	lw	a3,44(a0)
200079d2:	8eed                	and	a3,a3,a1
200079d4:	8ed1                	or	a3,a3,a2
200079d6:	d554                	sw	a3,44(a0)
200079d8:	4114                	lw	a3,0(a0)
200079da:	8eed                	and	a3,a3,a1
200079dc:	8ed1                	or	a3,a3,a2
200079de:	c114                	sw	a3,0(a0)
200079e0:	4154                	lw	a3,4(a0)
200079e2:	8df5                	and	a1,a1,a3
200079e4:	8dd1                	or	a1,a1,a2
200079e6:	c14c                	sw	a1,4(a0)
200079e8:	4422                	lw	s0,8(sp)
200079ea:	40b2                	lw	ra,12(sp)
200079ec:	0141                	addi	sp,sp,16
200079ee:	8082                	ret

200079f0 <_ZN71_$LT$lowrisc..gpio..GpioPin$u20$as$u20$kernel..hil..gpio..Interrupt$GT$18disable_interrupts17h075c64359f865a26E>:
200079f0:	1141                	addi	sp,sp,-16
200079f2:	c606                	sw	ra,12(sp)
200079f4:	c422                	sw	s0,8(sp)
200079f6:	0800                	addi	s0,sp,16
200079f8:	450c                	lw	a1,8(a0)
200079fa:	4150                	lw	a2,4(a0)
200079fc:	00b61633          	sll	a2,a2,a1
20007a00:	4108                	lw	a0,0(a0)
20007a02:	fff64693          	not	a3,a2
20007a06:	4158                	lw	a4,4(a0)
20007a08:	8f75                	and	a4,a4,a3
20007a0a:	c158                	sw	a4,4(a0)
20007a0c:	4705                	li	a4,1
20007a0e:	00b715b3          	sll	a1,a4,a1
20007a12:	8df1                	and	a1,a1,a2
20007a14:	4110                	lw	a2,0(a0)
20007a16:	8e75                	and	a2,a2,a3
20007a18:	8dd1                	or	a1,a1,a2
20007a1a:	c10c                	sw	a1,0(a0)
20007a1c:	4422                	lw	s0,8(sp)
20007a1e:	40b2                	lw	ra,12(sp)
20007a20:	0141                	addi	sp,sp,16
20007a22:	8082                	ret

20007a24 <_ZN71_$LT$lowrisc..gpio..GpioPin$u20$as$u20$kernel..hil..gpio..Interrupt$GT$10is_pending17hd49bdd8c86c38231E>:
20007a24:	1141                	addi	sp,sp,-16
20007a26:	c606                	sw	ra,12(sp)
20007a28:	c422                	sw	s0,8(sp)
20007a2a:	0800                	addi	s0,sp,16
20007a2c:	450c                	lw	a1,8(a0)
20007a2e:	4150                	lw	a2,4(a0)
20007a30:	00b61633          	sll	a2,a2,a1
20007a34:	4108                	lw	a0,0(a0)
20007a36:	4108                	lw	a0,0(a0)
20007a38:	8d71                	and	a0,a0,a2
20007a3a:	00b55533          	srl	a0,a0,a1
20007a3e:	00a03533          	snez	a0,a0
20007a42:	4422                	lw	s0,8(sp)
20007a44:	40b2                	lw	ra,12(sp)
20007a46:	0141                	addi	sp,sp,16
20007a48:	8082                	ret

20007a4a <_ZN42_$LT$$RF$T$u20$as$u20$core..fmt..Debug$GT$3fmt17hf27fb9e720bdb103E>:
20007a4a:	7179                	addi	sp,sp,-48
20007a4c:	d606                	sw	ra,44(sp)
20007a4e:	d422                	sw	s0,40(sp)
20007a50:	d226                	sw	s1,36(sp)
20007a52:	d04a                	sw	s2,32(sp)
20007a54:	ce4e                	sw	s3,28(sp)
20007a56:	1800                	addi	s0,sp,48
20007a58:	84ae                	mv	s1,a1
20007a5a:	892a                	mv	s2,a0
20007a5c:	4108                	lw	a0,0(a0)
20007a5e:	28050f63          	beqz	a0,20007cfc <_ZN42_$LT$$RF$T$u20$as$u20$core..fmt..Debug$GT$3fmt17hf27fb9e720bdb103E+0x2b2>
20007a62:	4585                	li	a1,1
20007a64:	06b50763          	beq	a0,a1,20007ad2 <_ZN42_$LT$$RF$T$u20$as$u20$core..fmt..Debug$GT$3fmt17hf27fb9e720bdb103E+0x88>
20007a68:	4589                	li	a1,2
20007a6a:	10b50c63          	beq	a0,a1,20007b82 <_ZN42_$LT$$RF$T$u20$as$u20$core..fmt..Debug$GT$3fmt17hf27fb9e720bdb103E+0x138>
20007a6e:	458d                	li	a1,3
20007a70:	1ab50e63          	beq	a0,a1,20007c2c <_ZN42_$LT$$RF$T$u20$as$u20$core..fmt..Debug$GT$3fmt17hf27fb9e720bdb103E+0x1e2>
20007a74:	4cc8                	lw	a0,28(s1)
20007a76:	4554                	lw	a3,12(a0)
20007a78:	4c88                	lw	a0,24(s1)
20007a7a:	2000e5b7          	lui	a1,0x2000e
20007a7e:	ca458593          	addi	a1,a1,-860 # 2000dca4 <.Lanon.79c8bc306567266ec0f713c8274c0d5c.0>
20007a82:	4615                	li	a2,5
20007a84:	9682                	jalr	a3
20007a86:	fc040ea3          	sb	zero,-35(s0)
20007a8a:	fca40e23          	sb	a0,-36(s0)
20007a8e:	fc942c23          	sw	s1,-40(s0)
20007a92:	00490513          	addi	a0,s2,4
20007a96:	fea42423          	sw	a0,-24(s0)
20007a9a:	2000e537          	lui	a0,0x2000e
20007a9e:	ca950593          	addi	a1,a0,-855 # 2000dca9 <.Lanon.79c8bc306567266ec0f713c8274c0d5c.1>
20007aa2:	10002537          	lui	a0,0x10002
20007aa6:	8ec50493          	addi	s1,a0,-1812 # 100018ec <.Lanon.79c8bc306567266ec0f713c8274c0d5c.2>
20007aaa:	fd840993          	addi	s3,s0,-40
20007aae:	fe840693          	addi	a3,s0,-24
20007ab2:	854e                	mv	a0,s3
20007ab4:	461d                	li	a2,7
20007ab6:	8726                	mv	a4,s1
20007ab8:	ffffe097          	auipc	ra,0xffffe
20007abc:	770080e7          	jalr	1904(ra) # 20006228 <_ZN4core3fmt8builders11DebugStruct5field17h6d71590a69350865E>
20007ac0:	00890513          	addi	a0,s2,8
20007ac4:	fea42423          	sw	a0,-24(s0)
20007ac8:	2000c537          	lui	a0,0x2000c
20007acc:	e6050593          	addi	a1,a0,-416 # 2000be60 <anon.94f59e978f0f32a54617dd47149c5ef2.0.llvm.1410106067623364693+0x18>
20007ad0:	aa89                	j	20007c22 <_ZN42_$LT$$RF$T$u20$as$u20$core..fmt..Debug$GT$3fmt17hf27fb9e720bdb103E+0x1d8>
20007ad2:	4cc8                	lw	a0,28(s1)
20007ad4:	4554                	lw	a3,12(a0)
20007ad6:	4c88                	lw	a0,24(s1)
20007ad8:	2000e5b7          	lui	a1,0x2000e
20007adc:	cb558593          	addi	a1,a1,-843 # 2000dcb5 <.Lanon.79c8bc306567266ec0f713c8274c0d5c.12>
20007ae0:	4625                	li	a2,9
20007ae2:	9682                	jalr	a3
20007ae4:	fc040ea3          	sb	zero,-35(s0)
20007ae8:	fca40e23          	sb	a0,-36(s0)
20007aec:	fc942c23          	sw	s1,-40(s0)
20007af0:	00490513          	addi	a0,s2,4
20007af4:	fea42423          	sw	a0,-24(s0)
20007af8:	2000e537          	lui	a0,0x2000e
20007afc:	cbe50593          	addi	a1,a0,-834 # 2000dcbe <.Lanon.79c8bc306567266ec0f713c8274c0d5c.5>
20007b00:	10002537          	lui	a0,0x10002
20007b04:	8ec50493          	addi	s1,a0,-1812 # 100018ec <.Lanon.79c8bc306567266ec0f713c8274c0d5c.2>
20007b08:	fd840993          	addi	s3,s0,-40
20007b0c:	fe840693          	addi	a3,s0,-24
20007b10:	854e                	mv	a0,s3
20007b12:	4635                	li	a2,13
20007b14:	8726                	mv	a4,s1
20007b16:	ffffe097          	auipc	ra,0xffffe
20007b1a:	712080e7          	jalr	1810(ra) # 20006228 <_ZN4core3fmt8builders11DebugStruct5field17h6d71590a69350865E>
20007b1e:	00890513          	addi	a0,s2,8
20007b22:	fea42423          	sw	a0,-24(s0)
20007b26:	2000c537          	lui	a0,0x2000c
20007b2a:	34950593          	addi	a1,a0,841 # 2000c349 <.L__unnamed_30+0xef>
20007b2e:	fe840693          	addi	a3,s0,-24
20007b32:	854e                	mv	a0,s3
20007b34:	4641                	li	a2,16
20007b36:	8726                	mv	a4,s1
20007b38:	ffffe097          	auipc	ra,0xffffe
20007b3c:	6f0080e7          	jalr	1776(ra) # 20006228 <_ZN4core3fmt8builders11DebugStruct5field17h6d71590a69350865E>
20007b40:	00c90513          	addi	a0,s2,12
20007b44:	fea42423          	sw	a0,-24(s0)
20007b48:	2000e537          	lui	a0,0x2000e
20007b4c:	ccb50593          	addi	a1,a0,-821 # 2000dccb <.Lanon.79c8bc306567266ec0f713c8274c0d5c.13>
20007b50:	10002537          	lui	a0,0x10002
20007b54:	8fc50713          	addi	a4,a0,-1796 # 100018fc <.Lanon.79c8bc306567266ec0f713c8274c0d5c.14>
20007b58:	fe840693          	addi	a3,s0,-24
20007b5c:	854e                	mv	a0,s3
20007b5e:	4631                	li	a2,12
20007b60:	ffffe097          	auipc	ra,0xffffe
20007b64:	6c8080e7          	jalr	1736(ra) # 20006228 <_ZN4core3fmt8builders11DebugStruct5field17h6d71590a69350865E>
20007b68:	01090513          	addi	a0,s2,16
20007b6c:	fea42423          	sw	a0,-24(s0)
20007b70:	2000e537          	lui	a0,0x2000e
20007b74:	cd750593          	addi	a1,a0,-809 # 2000dcd7 <.Lanon.79c8bc306567266ec0f713c8274c0d5c.15>
20007b78:	fe840693          	addi	a3,s0,-24
20007b7c:	854e                	mv	a0,s3
20007b7e:	461d                	li	a2,7
20007b80:	aaa9                	j	20007cda <_ZN42_$LT$$RF$T$u20$as$u20$core..fmt..Debug$GT$3fmt17hf27fb9e720bdb103E+0x290>
20007b82:	4cc8                	lw	a0,28(s1)
20007b84:	4554                	lw	a3,12(a0)
20007b86:	4c88                	lw	a0,24(s1)
20007b88:	2000e5b7          	lui	a1,0x2000e
20007b8c:	cde58593          	addi	a1,a1,-802 # 2000dcde <.Lanon.79c8bc306567266ec0f713c8274c0d5c.10>
20007b90:	461d                	li	a2,7
20007b92:	9682                	jalr	a3
20007b94:	fc040ea3          	sb	zero,-35(s0)
20007b98:	fca40e23          	sb	a0,-36(s0)
20007b9c:	fc942c23          	sw	s1,-40(s0)
20007ba0:	00490513          	addi	a0,s2,4
20007ba4:	fea42423          	sw	a0,-24(s0)
20007ba8:	2000e537          	lui	a0,0x2000e
20007bac:	cbe50593          	addi	a1,a0,-834 # 2000dcbe <.Lanon.79c8bc306567266ec0f713c8274c0d5c.5>
20007bb0:	10002537          	lui	a0,0x10002
20007bb4:	8ec50493          	addi	s1,a0,-1812 # 100018ec <.Lanon.79c8bc306567266ec0f713c8274c0d5c.2>
20007bb8:	fd840993          	addi	s3,s0,-40
20007bbc:	fe840693          	addi	a3,s0,-24
20007bc0:	854e                	mv	a0,s3
20007bc2:	4635                	li	a2,13
20007bc4:	8726                	mv	a4,s1
20007bc6:	ffffe097          	auipc	ra,0xffffe
20007bca:	662080e7          	jalr	1634(ra) # 20006228 <_ZN4core3fmt8builders11DebugStruct5field17h6d71590a69350865E>
20007bce:	00890513          	addi	a0,s2,8
20007bd2:	fea42423          	sw	a0,-24(s0)
20007bd6:	2000c537          	lui	a0,0x2000c
20007bda:	34950593          	addi	a1,a0,841 # 2000c349 <.L__unnamed_30+0xef>
20007bde:	fe840693          	addi	a3,s0,-24
20007be2:	854e                	mv	a0,s3
20007be4:	4641                	li	a2,16
20007be6:	8726                	mv	a4,s1
20007be8:	ffffe097          	auipc	ra,0xffffe
20007bec:	640080e7          	jalr	1600(ra) # 20006228 <_ZN4core3fmt8builders11DebugStruct5field17h6d71590a69350865E>
20007bf0:	00c90513          	addi	a0,s2,12
20007bf4:	fea42423          	sw	a0,-24(s0)
20007bf8:	2000c537          	lui	a0,0x2000c
20007bfc:	e6050593          	addi	a1,a0,-416 # 2000be60 <anon.94f59e978f0f32a54617dd47149c5ef2.0.llvm.1410106067623364693+0x18>
20007c00:	fe840693          	addi	a3,s0,-24
20007c04:	854e                	mv	a0,s3
20007c06:	4611                	li	a2,4
20007c08:	8726                	mv	a4,s1
20007c0a:	ffffe097          	auipc	ra,0xffffe
20007c0e:	61e080e7          	jalr	1566(ra) # 20006228 <_ZN4core3fmt8builders11DebugStruct5field17h6d71590a69350865E>
20007c12:	01090513          	addi	a0,s2,16
20007c16:	fea42423          	sw	a0,-24(s0)
20007c1a:	2000c537          	lui	a0,0x2000c
20007c1e:	e5c50593          	addi	a1,a0,-420 # 2000be5c <anon.94f59e978f0f32a54617dd47149c5ef2.0.llvm.1410106067623364693+0x14>
20007c22:	fe840693          	addi	a3,s0,-24
20007c26:	854e                	mv	a0,s3
20007c28:	4611                	li	a2,4
20007c2a:	a845                	j	20007cda <_ZN42_$LT$$RF$T$u20$as$u20$core..fmt..Debug$GT$3fmt17hf27fb9e720bdb103E+0x290>
20007c2c:	4cc8                	lw	a0,28(s1)
20007c2e:	4554                	lw	a3,12(a0)
20007c30:	4c88                	lw	a0,24(s1)
20007c32:	2000e5b7          	lui	a1,0x2000e
20007c36:	ce558593          	addi	a1,a1,-795 # 2000dce5 <.Lanon.79c8bc306567266ec0f713c8274c0d5c.4>
20007c3a:	4615                	li	a2,5
20007c3c:	9682                	jalr	a3
20007c3e:	fc040ea3          	sb	zero,-35(s0)
20007c42:	fca40e23          	sb	a0,-36(s0)
20007c46:	fc942c23          	sw	s1,-40(s0)
20007c4a:	00490513          	addi	a0,s2,4
20007c4e:	fea42423          	sw	a0,-24(s0)
20007c52:	2000e537          	lui	a0,0x2000e
20007c56:	cbe50593          	addi	a1,a0,-834 # 2000dcbe <.Lanon.79c8bc306567266ec0f713c8274c0d5c.5>
20007c5a:	10002537          	lui	a0,0x10002
20007c5e:	8ec50493          	addi	s1,a0,-1812 # 100018ec <.Lanon.79c8bc306567266ec0f713c8274c0d5c.2>
20007c62:	fd840993          	addi	s3,s0,-40
20007c66:	fe840693          	addi	a3,s0,-24
20007c6a:	854e                	mv	a0,s3
20007c6c:	4635                	li	a2,13
20007c6e:	8726                	mv	a4,s1
20007c70:	ffffe097          	auipc	ra,0xffffe
20007c74:	5b8080e7          	jalr	1464(ra) # 20006228 <_ZN4core3fmt8builders11DebugStruct5field17h6d71590a69350865E>
20007c78:	00890513          	addi	a0,s2,8
20007c7c:	fea42423          	sw	a0,-24(s0)
20007c80:	2000c537          	lui	a0,0x2000c
20007c84:	34950593          	addi	a1,a0,841 # 2000c349 <.L__unnamed_30+0xef>
20007c88:	fe840693          	addi	a3,s0,-24
20007c8c:	854e                	mv	a0,s3
20007c8e:	4641                	li	a2,16
20007c90:	8726                	mv	a4,s1
20007c92:	ffffe097          	auipc	ra,0xffffe
20007c96:	596080e7          	jalr	1430(ra) # 20006228 <_ZN4core3fmt8builders11DebugStruct5field17h6d71590a69350865E>
20007c9a:	00c90513          	addi	a0,s2,12
20007c9e:	fea42423          	sw	a0,-24(s0)
20007ca2:	2000e537          	lui	a0,0x2000e
20007ca6:	cea50593          	addi	a1,a0,-790 # 2000dcea <.Lanon.79c8bc306567266ec0f713c8274c0d5c.7>
20007caa:	10002537          	lui	a0,0x10002
20007cae:	90c50713          	addi	a4,a0,-1780 # 1000190c <.Lanon.79c8bc306567266ec0f713c8274c0d5c.8>
20007cb2:	fe840693          	addi	a3,s0,-24
20007cb6:	854e                	mv	a0,s3
20007cb8:	4635                	li	a2,13
20007cba:	ffffe097          	auipc	ra,0xffffe
20007cbe:	56e080e7          	jalr	1390(ra) # 20006228 <_ZN4core3fmt8builders11DebugStruct5field17h6d71590a69350865E>
20007cc2:	01090513          	addi	a0,s2,16
20007cc6:	fea42423          	sw	a0,-24(s0)
20007cca:	2000e537          	lui	a0,0x2000e
20007cce:	cf750593          	addi	a1,a0,-777 # 2000dcf7 <.Lanon.79c8bc306567266ec0f713c8274c0d5c.9>
20007cd2:	fe840693          	addi	a3,s0,-24
20007cd6:	854e                	mv	a0,s3
20007cd8:	4629                	li	a2,10
20007cda:	8726                	mv	a4,s1
20007cdc:	ffffe097          	auipc	ra,0xffffe
20007ce0:	54c080e7          	jalr	1356(ra) # 20006228 <_ZN4core3fmt8builders11DebugStruct5field17h6d71590a69350865E>
20007ce4:	854e                	mv	a0,s3
20007ce6:	fffff097          	auipc	ra,0xfffff
20007cea:	858080e7          	jalr	-1960(ra) # 2000653e <_ZN4core3fmt8builders11DebugStruct6finish17hc3792ac5abc1b8e4E>
20007cee:	49f2                	lw	s3,28(sp)
20007cf0:	5902                	lw	s2,32(sp)
20007cf2:	5492                	lw	s1,36(sp)
20007cf4:	5422                	lw	s0,40(sp)
20007cf6:	50b2                	lw	ra,44(sp)
20007cf8:	6145                	addi	sp,sp,48
20007cfa:	8082                	ret
20007cfc:	4cc8                	lw	a0,28(s1)
20007cfe:	4554                	lw	a3,12(a0)
20007d00:	4c88                	lw	a0,24(s1)
20007d02:	2000e5b7          	lui	a1,0x2000e
20007d06:	cb058593          	addi	a1,a1,-848 # 2000dcb0 <.Lanon.79c8bc306567266ec0f713c8274c0d5c.16>
20007d0a:	4615                	li	a2,5
20007d0c:	9682                	jalr	a3
20007d0e:	fea40023          	sb	a0,-32(s0)
20007d12:	fc942c23          	sw	s1,-40(s0)
20007d16:	fe0400a3          	sb	zero,-31(s0)
20007d1a:	fc042e23          	sw	zero,-36(s0)
20007d1e:	fd840513          	addi	a0,s0,-40
20007d22:	fffff097          	auipc	ra,0xfffff
20007d26:	874080e7          	jalr	-1932(ra) # 20006596 <_ZN4core3fmt8builders10DebugTuple6finish17hbb92ef557aadfbf8E>
20007d2a:	b7d1                	j	20007cee <_ZN42_$LT$$RF$T$u20$as$u20$core..fmt..Debug$GT$3fmt17hf27fb9e720bdb103E+0x2a4>

20007d2c <_ZN52_$LT$$RF$mut$u20$T$u20$as$u20$core..fmt..Display$GT$3fmt17he53e332a23761551E>:
20007d2c:	1141                	addi	sp,sp,-16
20007d2e:	c606                	sw	ra,12(sp)
20007d30:	c422                	sw	s0,8(sp)
20007d32:	0800                	addi	s0,sp,16
20007d34:	4501                	li	a0,0
20007d36:	4422                	lw	s0,8(sp)
20007d38:	40b2                	lw	ra,12(sp)
20007d3a:	0141                	addi	sp,sp,16
20007d3c:	8082                	ret

20007d3e <_ZN6kernel3hil4gpio5Input15read_activation17h2c6f9fdfebc73572E>:
20007d3e:	1141                	addi	sp,sp,-16
20007d40:	c606                	sw	ra,12(sp)
20007d42:	c422                	sw	s0,8(sp)
20007d44:	c226                	sw	s1,4(sp)
20007d46:	0800                	addi	s0,sp,16
20007d48:	84ae                	mv	s1,a1
20007d4a:	454c                	lw	a1,12(a0)
20007d4c:	4908                	lw	a0,16(a0)
20007d4e:	4d50                	lw	a2,28(a0)
20007d50:	852e                	mv	a0,a1
20007d52:	9602                	jalr	a2
20007d54:	85aa                	mv	a1,a0
20007d56:	4505                	li	a0,1
20007d58:	c099                	beqz	s1,20007d5e <_ZN6kernel3hil4gpio5Input15read_activation17h2c6f9fdfebc73572E+0x20>
20007d5a:	e199                	bnez	a1,20007d60 <_ZN6kernel3hil4gpio5Input15read_activation17h2c6f9fdfebc73572E+0x22>
20007d5c:	a019                	j	20007d62 <_ZN6kernel3hil4gpio5Input15read_activation17h2c6f9fdfebc73572E+0x24>
20007d5e:	e191                	bnez	a1,20007d62 <_ZN6kernel3hil4gpio5Input15read_activation17h2c6f9fdfebc73572E+0x24>
20007d60:	4501                	li	a0,0
20007d62:	4492                	lw	s1,4(sp)
20007d64:	4422                	lw	s0,8(sp)
20007d66:	40b2                	lw	ra,12(sp)
20007d68:	0141                	addi	sp,sp,16
20007d6a:	8082                	ret

20007d6c <_ZN6kernel3hil4gpio6Output16write_activation17hf430d1f189549116E>:
20007d6c:	1141                	addi	sp,sp,-16
20007d6e:	c606                	sw	ra,12(sp)
20007d70:	c422                	sw	s0,8(sp)
20007d72:	0800                	addi	s0,sp,16
20007d74:	c591                	beqz	a1,20007d80 <_ZN6kernel3hil4gpio6Output16write_activation17hf430d1f189549116E+0x14>
20007d76:	e611                	bnez	a2,20007d82 <_ZN6kernel3hil4gpio6Output16write_activation17hf430d1f189549116E+0x16>
20007d78:	454c                	lw	a1,12(a0)
20007d7a:	4908                	lw	a0,16(a0)
20007d7c:	5150                	lw	a2,36(a0)
20007d7e:	a029                	j	20007d88 <_ZN6kernel3hil4gpio6Output16write_activation17hf430d1f189549116E+0x1c>
20007d80:	fe65                	bnez	a2,20007d78 <_ZN6kernel3hil4gpio6Output16write_activation17hf430d1f189549116E+0xc>
20007d82:	454c                	lw	a1,12(a0)
20007d84:	4908                	lw	a0,16(a0)
20007d86:	5510                	lw	a2,40(a0)
20007d88:	852e                	mv	a0,a1
20007d8a:	9602                	jalr	a2
20007d8c:	4422                	lw	s0,8(sp)
20007d8e:	40b2                	lw	ra,12(sp)
20007d90:	0141                	addi	sp,sp,16
20007d92:	8082                	ret

20007d94 <_ZN66_$LT$core..option..Option$LT$T$GT$$u20$as$u20$core..fmt..Debug$GT$3fmt17h2b9a9e804d33077aE>:
20007d94:	711d                	addi	sp,sp,-96
20007d96:	ce86                	sw	ra,92(sp)
20007d98:	cca2                	sw	s0,88(sp)
20007d9a:	caa6                	sw	s1,84(sp)
20007d9c:	c8ca                	sw	s2,80(sp)
20007d9e:	c6ce                	sw	s3,76(sp)
20007da0:	c4d2                	sw	s4,72(sp)
20007da2:	1080                	addi	s0,sp,96
20007da4:	84ae                	mv	s1,a1
20007da6:	892a                	mv	s2,a0
20007da8:	4108                	lw	a0,0(a0)
20007daa:	4595                	li	a1,5
20007dac:	02b51663          	bne	a0,a1,20007dd8 <_ZN66_$LT$core..option..Option$LT$T$GT$$u20$as$u20$core..fmt..Debug$GT$3fmt17h2b9a9e804d33077aE+0x44>
20007db0:	4cc8                	lw	a0,28(s1)
20007db2:	4554                	lw	a3,12(a0)
20007db4:	4c88                	lw	a0,24(s1)
20007db6:	2000c5b7          	lui	a1,0x2000c
20007dba:	e6458593          	addi	a1,a1,-412 # 2000be64 <anon.94f59e978f0f32a54617dd47149c5ef2.0.llvm.1410106067623364693+0x1c>
20007dbe:	4611                	li	a2,4
20007dc0:	9682                	jalr	a3
20007dc2:	fca40423          	sb	a0,-56(s0)
20007dc6:	fc942023          	sw	s1,-64(s0)
20007dca:	fc0404a3          	sb	zero,-55(s0)
20007dce:	fc042223          	sw	zero,-60(s0)
20007dd2:	fc040513          	addi	a0,s0,-64
20007dd6:	a8d5                	j	20007eca <_ZN66_$LT$core..option..Option$LT$T$GT$$u20$as$u20$core..fmt..Debug$GT$3fmt17h2b9a9e804d33077aE+0x136>
20007dd8:	4cc8                	lw	a0,28(s1)
20007dda:	4554                	lw	a3,12(a0)
20007ddc:	4c88                	lw	a0,24(s1)
20007dde:	2000c5b7          	lui	a1,0x2000c
20007de2:	e4458593          	addi	a1,a1,-444 # 2000be44 <.L__unnamed_74+0x9>
20007de6:	4611                	li	a2,4
20007de8:	9682                	jalr	a3
20007dea:	fa942023          	sw	s1,-96(s0)
20007dee:	fa0404a3          	sb	zero,-87(s0)
20007df2:	fa042223          	sw	zero,-92(s0)
20007df6:	4a05                	li	s4,1
20007df8:	faa40423          	sb	a0,-88(s0)
20007dfc:	4985                	li	s3,1
20007dfe:	e161                	bnez	a0,20007ebe <_ZN66_$LT$core..option..Option$LT$T$GT$$u20$as$u20$core..fmt..Debug$GT$3fmt17h2b9a9e804d33077aE+0x12a>
20007e00:	4c88                	lw	a0,24(s1)
20007e02:	4ccc                	lw	a1,28(s1)
20007e04:	45d4                	lw	a3,12(a1)
20007e06:	0004c583          	lbu	a1,0(s1)
20007e0a:	8991                	andi	a1,a1,4
20007e0c:	e185                	bnez	a1,20007e2c <_ZN66_$LT$core..option..Option$LT$T$GT$$u20$as$u20$core..fmt..Debug$GT$3fmt17h2b9a9e804d33077aE+0x98>
20007e0e:	2000e5b7          	lui	a1,0x2000e
20007e12:	aa258593          	addi	a1,a1,-1374 # 2000daa2 <.Lanon.f9bb9288c9d7617347bc8817bc65a1df.186>
20007e16:	4985                	li	s3,1
20007e18:	4605                	li	a2,1
20007e1a:	9682                	jalr	a3
20007e1c:	e14d                	bnez	a0,20007ebe <_ZN66_$LT$core..option..Option$LT$T$GT$$u20$as$u20$core..fmt..Debug$GT$3fmt17h2b9a9e804d33077aE+0x12a>
20007e1e:	854a                	mv	a0,s2
20007e20:	85a6                	mv	a1,s1
20007e22:	00000097          	auipc	ra,0x0
20007e26:	c28080e7          	jalr	-984(ra) # 20007a4a <_ZN42_$LT$$RF$T$u20$as$u20$core..fmt..Debug$GT$3fmt17hf27fb9e720bdb103E>
20007e2a:	a849                	j	20007ebc <_ZN66_$LT$core..option..Option$LT$T$GT$$u20$as$u20$core..fmt..Debug$GT$3fmt17h2b9a9e804d33077aE+0x128>
20007e2c:	2000e5b7          	lui	a1,0x2000e
20007e30:	aa358593          	addi	a1,a1,-1373 # 2000daa3 <.Lanon.f9bb9288c9d7617347bc8817bc65a1df.185>
20007e34:	4609                	li	a2,2
20007e36:	9682                	jalr	a3
20007e38:	4985                	li	s3,1
20007e3a:	e151                	bnez	a0,20007ebe <_ZN66_$LT$core..option..Option$LT$T$GT$$u20$as$u20$core..fmt..Debug$GT$3fmt17h2b9a9e804d33077aE+0x12a>
20007e3c:	4088                	lw	a0,0(s1)
20007e3e:	4985                	li	s3,1
20007e40:	fb340fa3          	sb	s3,-65(s0)
20007e44:	4c8c                	lw	a1,24(s1)
20007e46:	4cd0                	lw	a2,28(s1)
20007e48:	fbf40693          	addi	a3,s0,-65
20007e4c:	fad42c23          	sw	a3,-72(s0)
20007e50:	fac42a23          	sw	a2,-76(s0)
20007e54:	fab42823          	sw	a1,-80(s0)
20007e58:	448c                	lw	a1,8(s1)
20007e5a:	44d0                	lw	a2,12(s1)
20007e5c:	4894                	lw	a3,16(s1)
20007e5e:	48d8                	lw	a4,20(s1)
20007e60:	40dc                	lw	a5,4(s1)
20007e62:	02048483          	lb	s1,32(s1)
20007e66:	fe940023          	sb	s1,-32(s0)
20007e6a:	fcf42223          	sw	a5,-60(s0)
20007e6e:	fca42023          	sw	a0,-64(s0)
20007e72:	10001537          	lui	a0,0x10001
20007e76:	55850513          	addi	a0,a0,1368 # 10001558 <.Lanon.f9bb9288c9d7617347bc8817bc65a1df.174>
20007e7a:	fca42e23          	sw	a0,-36(s0)
20007e7e:	fb040513          	addi	a0,s0,-80
20007e82:	fca42c23          	sw	a0,-40(s0)
20007e86:	fce42a23          	sw	a4,-44(s0)
20007e8a:	fcd42823          	sw	a3,-48(s0)
20007e8e:	fcc42623          	sw	a2,-52(s0)
20007e92:	fcb42423          	sw	a1,-56(s0)
20007e96:	fc040593          	addi	a1,s0,-64
20007e9a:	854a                	mv	a0,s2
20007e9c:	00000097          	auipc	ra,0x0
20007ea0:	bae080e7          	jalr	-1106(ra) # 20007a4a <_ZN42_$LT$$RF$T$u20$as$u20$core..fmt..Debug$GT$3fmt17hf27fb9e720bdb103E>
20007ea4:	ed09                	bnez	a0,20007ebe <_ZN66_$LT$core..option..Option$LT$T$GT$$u20$as$u20$core..fmt..Debug$GT$3fmt17h2b9a9e804d33077aE+0x12a>
20007ea6:	fdc42503          	lw	a0,-36(s0)
20007eaa:	4554                	lw	a3,12(a0)
20007eac:	fd842503          	lw	a0,-40(s0)
20007eb0:	2000e5b7          	lui	a1,0x2000e
20007eb4:	a9d58593          	addi	a1,a1,-1379 # 2000da9d <.Lanon.f9bb9288c9d7617347bc8817bc65a1df.177>
20007eb8:	4609                	li	a2,2
20007eba:	9682                	jalr	a3
20007ebc:	89aa                	mv	s3,a0
20007ebe:	fb442223          	sw	s4,-92(s0)
20007ec2:	fb340423          	sb	s3,-88(s0)
20007ec6:	fa040513          	addi	a0,s0,-96
20007eca:	ffffe097          	auipc	ra,0xffffe
20007ece:	6cc080e7          	jalr	1740(ra) # 20006596 <_ZN4core3fmt8builders10DebugTuple6finish17hbb92ef557aadfbf8E>
20007ed2:	4a26                	lw	s4,72(sp)
20007ed4:	49b6                	lw	s3,76(sp)
20007ed6:	4946                	lw	s2,80(sp)
20007ed8:	44d6                	lw	s1,84(sp)
20007eda:	4466                	lw	s0,88(sp)
20007edc:	40f6                	lw	ra,92(sp)
20007ede:	6125                	addi	sp,sp,96
20007ee0:	8082                	ret

20007ee2 <_ZN6kernel6driver6Driver5allow17ha0a8518e1103fbc5E>:
20007ee2:	1141                	addi	sp,sp,-16
20007ee4:	c606                	sw	ra,12(sp)
20007ee6:	c422                	sw	s0,8(sp)
20007ee8:	0800                	addi	s0,sp,16
20007eea:	8536                	mv	a0,a3
20007eec:	00000097          	auipc	ra,0x0
20007ef0:	012080e7          	jalr	18(ra) # 20007efe <_ZN4core3ptr13drop_in_place17ha30fa7ed2cde0f56E>
20007ef4:	452d                	li	a0,11
20007ef6:	4422                	lw	s0,8(sp)
20007ef8:	40b2                	lw	ra,12(sp)
20007efa:	0141                	addi	sp,sp,16
20007efc:	8082                	ret

20007efe <_ZN4core3ptr13drop_in_place17ha30fa7ed2cde0f56E>:
20007efe:	1141                	addi	sp,sp,-16
20007f00:	c606                	sw	ra,12(sp)
20007f02:	c422                	sw	s0,8(sp)
20007f04:	0800                	addi	s0,sp,16
20007f06:	410c                	lw	a1,0(a0)
20007f08:	c589                	beqz	a1,20007f12 <_ZN4core3ptr13drop_in_place17ha30fa7ed2cde0f56E+0x14>
20007f0a:	fffff097          	auipc	ra,0xfffff
20007f0e:	c82080e7          	jalr	-894(ra) # 20006b8c <_ZN74_$LT$kernel..mem..AppPtr$LT$L$C$T$GT$$u20$as$u20$core..ops..drop..Drop$GT$4drop17h5721b51cc2d71355E>
20007f12:	4422                	lw	s0,8(sp)
20007f14:	40b2                	lw	ra,12(sp)
20007f16:	0141                	addi	sp,sp,16
20007f18:	8082                	ret

20007f1a <_ZN6kernel6driver6Driver5allow17hca3475006575d1f4E>:
20007f1a:	1141                	addi	sp,sp,-16
20007f1c:	c606                	sw	ra,12(sp)
20007f1e:	c422                	sw	s0,8(sp)
20007f20:	0800                	addi	s0,sp,16
20007f22:	8536                	mv	a0,a3
20007f24:	00000097          	auipc	ra,0x0
20007f28:	fda080e7          	jalr	-38(ra) # 20007efe <_ZN4core3ptr13drop_in_place17ha30fa7ed2cde0f56E>
20007f2c:	452d                	li	a0,11
20007f2e:	4422                	lw	s0,8(sp)
20007f30:	40b2                	lw	ra,12(sp)
20007f32:	0141                	addi	sp,sp,16
20007f34:	8082                	ret

20007f36 <_ZN6kernel6driver6Driver9subscribe17h9883d1b707d8ca1eE>:
20007f36:	1141                	addi	sp,sp,-16
20007f38:	c606                	sw	ra,12(sp)
20007f3a:	c422                	sw	s0,8(sp)
20007f3c:	0800                	addi	s0,sp,16
20007f3e:	452d                	li	a0,11
20007f40:	4422                	lw	s0,8(sp)
20007f42:	40b2                	lw	ra,12(sp)
20007f44:	0141                	addi	sp,sp,16
20007f46:	8082                	ret

20007f48 <_ZN6kernel3hil4gpio5Input15read_activation17hd1320a1d5eaa1ca3E>:
20007f48:	1141                	addi	sp,sp,-16
20007f4a:	c606                	sw	ra,12(sp)
20007f4c:	c422                	sw	s0,8(sp)
20007f4e:	c226                	sw	s1,4(sp)
20007f50:	0800                	addi	s0,sp,16
20007f52:	84ae                	mv	s1,a1
20007f54:	00000097          	auipc	ra,0x0
20007f58:	92e080e7          	jalr	-1746(ra) # 20007882 <_ZN67_$LT$lowrisc..gpio..GpioPin$u20$as$u20$kernel..hil..gpio..Input$GT$4read17h0ce17df8bc16cfc0E>
20007f5c:	85aa                	mv	a1,a0
20007f5e:	4505                	li	a0,1
20007f60:	c099                	beqz	s1,20007f66 <_ZN6kernel3hil4gpio5Input15read_activation17hd1320a1d5eaa1ca3E+0x1e>
20007f62:	e199                	bnez	a1,20007f68 <_ZN6kernel3hil4gpio5Input15read_activation17hd1320a1d5eaa1ca3E+0x20>
20007f64:	a019                	j	20007f6a <_ZN6kernel3hil4gpio5Input15read_activation17hd1320a1d5eaa1ca3E+0x22>
20007f66:	e191                	bnez	a1,20007f6a <_ZN6kernel3hil4gpio5Input15read_activation17hd1320a1d5eaa1ca3E+0x22>
20007f68:	4501                	li	a0,0
20007f6a:	4492                	lw	s1,4(sp)
20007f6c:	4422                	lw	s0,8(sp)
20007f6e:	40b2                	lw	ra,12(sp)
20007f70:	0141                	addi	sp,sp,16
20007f72:	8082                	ret

20007f74 <_ZN6kernel3hil4gpio6Output16write_activation17h86908ad8bac2e0e1E>:
20007f74:	1141                	addi	sp,sp,-16
20007f76:	c606                	sw	ra,12(sp)
20007f78:	c422                	sw	s0,8(sp)
20007f7a:	0800                	addi	s0,sp,16
20007f7c:	c599                	beqz	a1,20007f8a <_ZN6kernel3hil4gpio6Output16write_activation17h86908ad8bac2e0e1E+0x16>
20007f7e:	e619                	bnez	a2,20007f8c <_ZN6kernel3hil4gpio6Output16write_activation17h86908ad8bac2e0e1E+0x18>
20007f80:	00000097          	auipc	ra,0x0
20007f84:	978080e7          	jalr	-1672(ra) # 200078f8 <_ZN68_$LT$lowrisc..gpio..GpioPin$u20$as$u20$kernel..hil..gpio..Output$GT$3set17h6b53329ed33975d6E>
20007f88:	a031                	j	20007f94 <_ZN6kernel3hil4gpio6Output16write_activation17h86908ad8bac2e0e1E+0x20>
20007f8a:	fa7d                	bnez	a2,20007f80 <_ZN6kernel3hil4gpio6Output16write_activation17h86908ad8bac2e0e1E+0xc>
20007f8c:	00000097          	auipc	ra,0x0
20007f90:	9a0080e7          	jalr	-1632(ra) # 2000792c <_ZN68_$LT$lowrisc..gpio..GpioPin$u20$as$u20$kernel..hil..gpio..Output$GT$5clear17hcc6231dc39fe4550E>
20007f94:	4422                	lw	s0,8(sp)
20007f96:	40b2                	lw	ra,12(sp)
20007f98:	0141                	addi	sp,sp,16
20007f9a:	8082                	ret

20007f9c <_ZN6kernel3hil4gpio9Configure8is_input17h6cd1625cfdbcc940E>:
20007f9c:	1141                	addi	sp,sp,-16
20007f9e:	c606                	sw	ra,12(sp)
20007fa0:	c422                	sw	s0,8(sp)
20007fa2:	0800                	addi	s0,sp,16
20007fa4:	fffff097          	auipc	ra,0xfffff
20007fa8:	7bc080e7          	jalr	1980(ra) # 20007760 <_ZN71_$LT$lowrisc..gpio..GpioPin$u20$as$u20$kernel..hil..gpio..Configure$GT$13configuration17he13d594a72d4815cE>
20007fac:	0fd57513          	andi	a0,a0,253
20007fb0:	00256513          	ori	a0,a0,2
20007fb4:	458d                	li	a1,3
20007fb6:	00b51463          	bne	a0,a1,20007fbe <_ZN6kernel3hil4gpio9Configure8is_input17h6cd1625cfdbcc940E+0x22>
20007fba:	4505                	li	a0,1
20007fbc:	a011                	j	20007fc0 <_ZN6kernel3hil4gpio9Configure8is_input17h6cd1625cfdbcc940E+0x24>
20007fbe:	4501                	li	a0,0
20007fc0:	4422                	lw	s0,8(sp)
20007fc2:	40b2                	lw	ra,12(sp)
20007fc4:	0141                	addi	sp,sp,16
20007fc6:	8082                	ret

20007fc8 <_ZN6kernel3hil4gpio9Configure9is_output17hac4255f6f9d30172E>:
20007fc8:	1141                	addi	sp,sp,-16
20007fca:	c606                	sw	ra,12(sp)
20007fcc:	c422                	sw	s0,8(sp)
20007fce:	0800                	addi	s0,sp,16
20007fd0:	fffff097          	auipc	ra,0xfffff
20007fd4:	790080e7          	jalr	1936(ra) # 20007760 <_ZN71_$LT$lowrisc..gpio..GpioPin$u20$as$u20$kernel..hil..gpio..Configure$GT$13configuration17he13d594a72d4815cE>
20007fd8:	0fe57513          	andi	a0,a0,254
20007fdc:	00254513          	xori	a0,a0,2
20007fe0:	00153513          	seqz	a0,a0
20007fe4:	4422                	lw	s0,8(sp)
20007fe6:	40b2                	lw	ra,12(sp)
20007fe8:	0141                	addi	sp,sp,16
20007fea:	8082                	ret

20007fec <_ZN6kernel6driver6Driver5allow17h8a0780511df7fb1cE>:
20007fec:	1141                	addi	sp,sp,-16
20007fee:	c606                	sw	ra,12(sp)
20007ff0:	c422                	sw	s0,8(sp)
20007ff2:	0800                	addi	s0,sp,16
20007ff4:	4288                	lw	a0,0(a3)
20007ff6:	c511                	beqz	a0,20008002 <_ZN6kernel6driver6Driver5allow17h8a0780511df7fb1cE+0x16>
20007ff8:	8536                	mv	a0,a3
20007ffa:	fffff097          	auipc	ra,0xfffff
20007ffe:	b92080e7          	jalr	-1134(ra) # 20006b8c <_ZN74_$LT$kernel..mem..AppPtr$LT$L$C$T$GT$$u20$as$u20$core..ops..drop..Drop$GT$4drop17h5721b51cc2d71355E>
20008002:	452d                	li	a0,11
20008004:	4422                	lw	s0,8(sp)
20008006:	40b2                	lw	ra,12(sp)
20008008:	0141                	addi	sp,sp,16
2000800a:	8082                	ret

2000800c <_ZN6kernel6driver6Driver9subscribe17he93f5a6ea044e528E>:
2000800c:	1141                	addi	sp,sp,-16
2000800e:	c606                	sw	ra,12(sp)
20008010:	c422                	sw	s0,8(sp)
20008012:	0800                	addi	s0,sp,16
20008014:	452d                	li	a0,11
20008016:	4422                	lw	s0,8(sp)
20008018:	40b2                	lw	ra,12(sp)
2000801a:	0141                	addi	sp,sp,16
2000801c:	8082                	ret

2000801e <_ZN92_$LT$capsules..low_level_debug..LowLevelDebug$LT$U$GT$$u20$as$u20$kernel..driver..Driver$GT$7command17hf65c4837e808741cE>:
2000801e:	7179                	addi	sp,sp,-48
20008020:	d606                	sw	ra,44(sp)
20008022:	d422                	sw	s0,40(sp)
20008024:	d226                	sw	s1,36(sp)
20008026:	1800                	addi	s0,sp,48
20008028:	478d                	li	a5,3
2000802a:	00f58b63          	beq	a1,a5,20008040 <_ZN92_$LT$capsules..low_level_debug..LowLevelDebug$LT$U$GT$$u20$as$u20$kernel..driver..Driver$GT$7command17hf65c4837e808741cE+0x22>
2000802e:	4485                	li	s1,1
20008030:	00958f63          	beq	a1,s1,2000804e <_ZN92_$LT$capsules..low_level_debug..LowLevelDebug$LT$U$GT$$u20$as$u20$kernel..driver..Driver$GT$7command17hf65c4837e808741cE+0x30>
20008034:	4689                	li	a3,2
20008036:	04d58263          	beq	a1,a3,2000807a <_ZN92_$LT$capsules..low_level_debug..LowLevelDebug$LT$U$GT$$u20$as$u20$kernel..driver..Driver$GT$7command17hf65c4837e808741cE+0x5c>
2000803a:	44ad                	li	s1,11
2000803c:	c5a5                	beqz	a1,200080a4 <_ZN92_$LT$capsules..low_level_debug..LowLevelDebug$LT$U$GT$$u20$as$u20$kernel..driver..Driver$GT$7command17hf65c4837e808741cE+0x86>
2000803e:	a0a5                	j	200080a6 <_ZN92_$LT$capsules..low_level_debug..LowLevelDebug$LT$U$GT$$u20$as$u20$kernel..driver..Driver$GT$7command17hf65c4837e808741cE+0x88>
20008040:	fed42023          	sw	a3,-32(s0)
20008044:	fcc42e23          	sw	a2,-36(s0)
20008048:	fcf42c23          	sw	a5,-40(s0)
2000804c:	a81d                	j	20008082 <_ZN92_$LT$capsules..low_level_debug..LowLevelDebug$LT$U$GT$$u20$as$u20$kernel..driver..Driver$GT$7command17hf65c4837e808741cE+0x64>
2000804e:	fcc42e23          	sw	a2,-36(s0)
20008052:	fc942c23          	sw	s1,-40(s0)
20008056:	470c                	lw	a1,8(a4)
20008058:	feb42823          	sw	a1,-16(s0)
2000805c:	434c                	lw	a1,4(a4)
2000805e:	feb42623          	sw	a1,-20(s0)
20008062:	430c                	lw	a1,0(a4)
20008064:	feb42423          	sw	a1,-24(s0)
20008068:	fd840593          	addi	a1,s0,-40
2000806c:	fe840613          	addi	a2,s0,-24
20008070:	00000097          	auipc	ra,0x0
20008074:	042080e7          	jalr	66(ra) # 200080b2 <_ZN8capsules15low_level_debug22LowLevelDebug$LT$U$GT$10push_entry17ha431dea77b4f5a9eE>
20008078:	a03d                	j	200080a6 <_ZN92_$LT$capsules..low_level_debug..LowLevelDebug$LT$U$GT$$u20$as$u20$kernel..driver..Driver$GT$7command17hf65c4837e808741cE+0x88>
2000807a:	fcd42c23          	sw	a3,-40(s0)
2000807e:	fcc42e23          	sw	a2,-36(s0)
20008082:	470c                	lw	a1,8(a4)
20008084:	feb42823          	sw	a1,-16(s0)
20008088:	434c                	lw	a1,4(a4)
2000808a:	feb42623          	sw	a1,-20(s0)
2000808e:	430c                	lw	a1,0(a4)
20008090:	feb42423          	sw	a1,-24(s0)
20008094:	fd840593          	addi	a1,s0,-40
20008098:	fe840613          	addi	a2,s0,-24
2000809c:	00000097          	auipc	ra,0x0
200080a0:	016080e7          	jalr	22(ra) # 200080b2 <_ZN8capsules15low_level_debug22LowLevelDebug$LT$U$GT$10push_entry17ha431dea77b4f5a9eE>
200080a4:	4485                	li	s1,1
200080a6:	8526                	mv	a0,s1
200080a8:	5492                	lw	s1,36(sp)
200080aa:	5422                	lw	s0,40(sp)
200080ac:	50b2                	lw	ra,44(sp)
200080ae:	6145                	addi	sp,sp,48
200080b0:	8082                	ret

200080b2 <_ZN8capsules15low_level_debug22LowLevelDebug$LT$U$GT$10push_entry17ha431dea77b4f5a9eE>:
200080b2:	711d                	addi	sp,sp,-96
200080b4:	ce86                	sw	ra,92(sp)
200080b6:	cca2                	sw	s0,88(sp)
200080b8:	caa6                	sw	s1,84(sp)
200080ba:	c8ca                	sw	s2,80(sp)
200080bc:	c6ce                	sw	s3,76(sp)
200080be:	c4d2                	sw	s4,72(sp)
200080c0:	c2d6                	sw	s5,68(sp)
200080c2:	1080                	addi	s0,sp,96
200080c4:	892e                	mv	s2,a1
200080c6:	84aa                	mv	s1,a0
200080c8:	410c                	lw	a1,0(a0)
200080ca:	00052023          	sw	zero,0(a0)
200080ce:	c985                	beqz	a1,200080fe <_ZN8capsules15low_level_debug22LowLevelDebug$LT$U$GT$10push_entry17ha431dea77b4f5a9eE+0x4c>
200080d0:	40dc                	lw	a5,4(s1)
200080d2:	4614                	lw	a3,8(a2)
200080d4:	00892503          	lw	a0,8(s2)
200080d8:	fca42023          	sw	a0,-64(s0)
200080dc:	00492503          	lw	a0,4(s2)
200080e0:	faa42e23          	sw	a0,-68(s0)
200080e4:	00092503          	lw	a0,0(s2)
200080e8:	faa42c23          	sw	a0,-72(s0)
200080ec:	fb840713          	addi	a4,s0,-72
200080f0:	8526                	mv	a0,s1
200080f2:	863e                	mv	a2,a5
200080f4:	ffffc097          	auipc	ra,0xffffc
200080f8:	7bc080e7          	jalr	1980(ra) # 200048b0 <_ZN8capsules15low_level_debug22LowLevelDebug$LT$U$GT$14transmit_entry17hde3fc441a038aecfE>
200080fc:	a209                	j	200081fe <_ZN8capsules15low_level_debug22LowLevelDebug$LT$U$GT$10push_entry17ha431dea77b4f5a9eE+0x14c>
200080fe:	00862983          	lw	s3,8(a2) # 10008 <.Lline_table_start77+0x2d0>
20008102:	fb342823          	sw	s3,-80(s0)
20008106:	4248                	lw	a0,4(a2)
20008108:	faa42623          	sw	a0,-84(s0)
2000810c:	420c                	lw	a1,0(a2)
2000810e:	fab42423          	sw	a1,-88(s0)
20008112:	4590                	lw	a2,8(a1)
20008114:	0ec57263          	bgeu	a0,a2,200081f8 <_ZN8capsules15low_level_debug22LowLevelDebug$LT$U$GT$10push_entry17ha431dea77b4f5a9eE+0x146>
20008118:	41cc                	lw	a1,4(a1)
2000811a:	050e                	slli	a0,a0,0x3
2000811c:	952e                	add	a0,a0,a1
2000811e:	00052a03          	lw	s4,0(a0)
20008122:	0c0a0b63          	beqz	s4,200081f8 <_ZN8capsules15low_level_debug22LowLevelDebug$LT$U$GT$10push_entry17ha431dea77b4f5a9eE+0x146>
20008126:	00452a83          	lw	s5,4(a0)
2000812a:	00caa603          	lw	a2,12(s5)
2000812e:	fb840513          	addi	a0,s0,-72
20008132:	85d2                	mv	a1,s4
20008134:	9602                	jalr	a2
20008136:	fc042503          	lw	a0,-64(s0)
2000813a:	0b351f63          	bne	a0,s3,200081f8 <_ZN8capsules15low_level_debug22LowLevelDebug$LT$U$GT$10push_entry17ha431dea77b4f5a9eE+0x146>
2000813e:	07caa603          	lw	a2,124(s5)
20008142:	44cc                	lw	a1,12(s1)
20008144:	8552                	mv	a0,s4
20008146:	9602                	jalr	a2
20008148:	89ae                	mv	s3,a1
2000814a:	4585                	li	a1,1
2000814c:	0ab51663          	bne	a0,a1,200081f8 <_ZN8capsules15low_level_debug22LowLevelDebug$LT$U$GT$10push_entry17ha431dea77b4f5a9eE+0x146>
20008150:	0009a503          	lw	a0,0(s3)
20008154:	ed21                	bnez	a0,200081ac <_ZN8capsules15low_level_debug22LowLevelDebug$LT$U$GT$10push_entry17ha431dea77b4f5a9eE+0xfa>
20008156:	074aa683          	lw	a3,116(s5)
2000815a:	4a91                	li	s5,4
2000815c:	8552                	mv	a0,s4
2000815e:	03000593          	li	a1,48
20008162:	4611                	li	a2,4
20008164:	9682                	jalr	a3
20008166:	c949                	beqz	a0,200081f8 <_ZN8capsules15low_level_debug22LowLevelDebug$LT$U$GT$10push_entry17ha431dea77b4f5a9eE+0x146>
20008168:	01552023          	sw	s5,0(a0)
2000816c:	fb842583          	lw	a1,-72(s0)
20008170:	fbc42603          	lw	a2,-68(s0)
20008174:	c510                	sw	a2,8(a0)
20008176:	c14c                	sw	a1,4(a0)
20008178:	01552623          	sw	s5,12(a0)
2000817c:	fd842583          	lw	a1,-40(s0)
20008180:	fdc42603          	lw	a2,-36(s0)
20008184:	c950                	sw	a2,20(a0)
20008186:	c90c                	sw	a1,16(a0)
20008188:	01552c23          	sw	s5,24(a0)
2000818c:	fd042583          	lw	a1,-48(s0)
20008190:	fd442603          	lw	a2,-44(s0)
20008194:	03552223          	sw	s5,36(a0)
20008198:	d110                	sw	a2,32(a0)
2000819a:	cd4c                	sw	a1,28(a0)
2000819c:	fc842583          	lw	a1,-56(s0)
200081a0:	fcc42603          	lw	a2,-52(s0)
200081a4:	d550                	sw	a2,44(a0)
200081a6:	d50c                	sw	a1,40(a0)
200081a8:	00a9a023          	sw	a0,0(s3)
200081ac:	fb042583          	lw	a1,-80(s0)
200081b0:	fcb42023          	sw	a1,-64(s0)
200081b4:	fac42583          	lw	a1,-84(s0)
200081b8:	fab42e23          	sw	a1,-68(s0)
200081bc:	fa842583          	lw	a1,-88(s0)
200081c0:	fab42c23          	sw	a1,-72(s0)
200081c4:	03000593          	li	a1,48
200081c8:	4691                	li	a3,4
200081ca:	4601                	li	a2,0
200081cc:	04b60263          	beq	a2,a1,20008210 <_ZN8capsules15low_level_debug22LowLevelDebug$LT$U$GT$10push_entry17ha431dea77b4f5a9eE+0x15e>
200081d0:	00c50733          	add	a4,a0,a2
200081d4:	0631                	addi	a2,a2,12
200081d6:	4318                	lw	a4,0(a4)
200081d8:	fed71ae3          	bne	a4,a3,200081cc <_ZN8capsules15low_level_debug22LowLevelDebug$LT$U$GT$10push_entry17ha431dea77b4f5a9eE+0x11a>
200081dc:	9532                	add	a0,a0,a2
200081de:	00092583          	lw	a1,0(s2)
200081e2:	00492603          	lw	a2,4(s2)
200081e6:	00892683          	lw	a3,8(s2)
200081ea:	fed52e23          	sw	a3,-4(a0)
200081ee:	fec52c23          	sw	a2,-8(a0)
200081f2:	feb52a23          	sw	a1,-12(a0)
200081f6:	a021                	j	200081fe <_ZN8capsules15low_level_debug22LowLevelDebug$LT$U$GT$10push_entry17ha431dea77b4f5a9eE+0x14c>
200081f8:	4505                	li	a0,1
200081fa:	00a48a23          	sb	a0,20(s1)
200081fe:	4a96                	lw	s5,68(sp)
20008200:	4a26                	lw	s4,72(sp)
20008202:	49b6                	lw	s3,76(sp)
20008204:	4946                	lw	s2,80(sp)
20008206:	44d6                	lw	s1,84(sp)
20008208:	4466                	lw	s0,88(sp)
2000820a:	40f6                	lw	ra,92(sp)
2000820c:	6125                	addi	sp,sp,96
2000820e:	8082                	ret
20008210:	514c                	lw	a1,36(a0)
20008212:	c199                	beqz	a1,20008218 <_ZN8capsules15low_level_debug22LowLevelDebug$LT$U$GT$10push_entry17ha431dea77b4f5a9eE+0x166>
20008214:	4589                	li	a1,2
20008216:	a019                	j	2000821c <_ZN8capsules15low_level_debug22LowLevelDebug$LT$U$GT$10push_entry17ha431dea77b4f5a9eE+0x16a>
20008218:	550c                	lw	a1,40(a0)
2000821a:	0585                	addi	a1,a1,1
2000821c:	02052223          	sw	zero,36(a0)
20008220:	d50c                	sw	a1,40(a0)
20008222:	bff1                	j	200081fe <_ZN8capsules15low_level_debug22LowLevelDebug$LT$U$GT$10push_entry17ha431dea77b4f5a9eE+0x14c>

20008224 <_ZN6kernel5sched6Kernel10do_process28_$u7b$$u7b$closure$u7d$$u7d$17h5d632cde640c9adbE>:
20008224:	711d                	addi	sp,sp,-96
20008226:	ce86                	sw	ra,92(sp)
20008228:	cca2                	sw	s0,88(sp)
2000822a:	caa6                	sw	s1,84(sp)
2000822c:	c8ca                	sw	s2,80(sp)
2000822e:	c6ce                	sw	s3,76(sp)
20008230:	c4d2                	sw	s4,72(sp)
20008232:	c2d6                	sw	s5,68(sp)
20008234:	1080                	addi	s0,sp,96
20008236:	c99d                	beqz	a1,2000826c <_ZN6kernel5sched6Kernel10do_process28_$u7b$$u7b$closure$u7d$$u7d$17h5d632cde640c9adbE+0x48>
20008238:	8932                	mv	s2,a2
2000823a:	89ae                	mv	s3,a1
2000823c:	8aaa                	mv	s5,a0
2000823e:	4508                	lw	a0,8(a0)
20008240:	4114                	lw	a3,0(a0)
20008242:	004aa503          	lw	a0,4(s5)
20008246:	4110                	lw	a2,0(a0)
20008248:	000aa483          	lw	s1,0(s5)
2000824c:	40c8                	lw	a0,4(s1)
2000824e:	5178                	lw	a4,100(a0)
20008250:	408c                	lw	a1,0(s1)
20008252:	fa840513          	addi	a0,s0,-88
20008256:	9702                	jalr	a4
20008258:	4505                	li	a0,1
2000825a:	fa842583          	lw	a1,-88(s0)
2000825e:	00a59963          	bne	a1,a0,20008270 <_ZN6kernel5sched6Kernel10do_process28_$u7b$$u7b$closure$u7d$$u7d$17h5d632cde640c9adbE+0x4c>
20008262:	fb042583          	lw	a1,-80(s0)
20008266:	fac42503          	lw	a0,-84(s0)
2000826a:	a835                	j	200082a6 <_ZN6kernel5sched6Kernel10do_process28_$u7b$$u7b$closure$u7d$$u7d$17h5d632cde640c9adbE+0x82>
2000826c:	4531                	li	a0,12
2000826e:	a825                	j	200082a6 <_ZN6kernel5sched6Kernel10do_process28_$u7b$$u7b$closure$u7d$$u7d$17h5d632cde640c9adbE+0x82>
20008270:	408c                	lw	a1,0(s1)
20008272:	40c8                	lw	a0,4(s1)
20008274:	4550                	lw	a2,12(a0)
20008276:	fc040a13          	addi	s4,s0,-64
2000827a:	8552                	mv	a0,s4
2000827c:	9602                	jalr	a2
2000827e:	00caa503          	lw	a0,12(s5)
20008282:	4104                	lw	s1,0(a0)
20008284:	fd040a93          	addi	s5,s0,-48
20008288:	fac40593          	addi	a1,s0,-84
2000828c:	8556                	mv	a0,s5
2000828e:	4651                	li	a2,20
20008290:	00003097          	auipc	ra,0x3
20008294:	24e080e7          	jalr	590(ra) # 2000b4de <memcpy>
20008298:	01492703          	lw	a4,20(s2)
2000829c:	854e                	mv	a0,s3
2000829e:	85d2                	mv	a1,s4
200082a0:	8626                	mv	a2,s1
200082a2:	86d6                	mv	a3,s5
200082a4:	9702                	jalr	a4
200082a6:	4a96                	lw	s5,68(sp)
200082a8:	4a26                	lw	s4,72(sp)
200082aa:	49b6                	lw	s3,76(sp)
200082ac:	4946                	lw	s2,80(sp)
200082ae:	44d6                	lw	s1,84(sp)
200082b0:	4466                	lw	s0,88(sp)
200082b2:	40f6                	lw	ra,92(sp)
200082b4:	6125                	addi	sp,sp,96
200082b6:	8082                	ret

200082b8 <_ZN4core3ptr13drop_in_place17h392f5fa688ad6b0cE>:
200082b8:	1141                	addi	sp,sp,-16
200082ba:	c606                	sw	ra,12(sp)
200082bc:	c422                	sw	s0,8(sp)
200082be:	0800                	addi	s0,sp,16
200082c0:	4422                	lw	s0,8(sp)
200082c2:	40b2                	lw	ra,12(sp)
200082c4:	0141                	addi	sp,sp,16
200082c6:	8082                	ret

200082c8 <_ZN4core3ptr13drop_in_place17h30eae4911c62f7fcE>:
200082c8:	1141                	addi	sp,sp,-16
200082ca:	c606                	sw	ra,12(sp)
200082cc:	c422                	sw	s0,8(sp)
200082ce:	0800                	addi	s0,sp,16
200082d0:	4422                	lw	s0,8(sp)
200082d2:	40b2                	lw	ra,12(sp)
200082d4:	0141                	addi	sp,sp,16
200082d6:	8082                	ret

200082d8 <_ZN4core3ptr13drop_in_place17hd9a58b016a23d5d5E>:
200082d8:	1141                	addi	sp,sp,-16
200082da:	c606                	sw	ra,12(sp)
200082dc:	c422                	sw	s0,8(sp)
200082de:	0800                	addi	s0,sp,16
200082e0:	4422                	lw	s0,8(sp)
200082e2:	40b2                	lw	ra,12(sp)
200082e4:	0141                	addi	sp,sp,16
200082e6:	8082                	ret

200082e8 <_ZN4core3ptr13drop_in_place17h49c37ec8463aa152E>:
200082e8:	1141                	addi	sp,sp,-16
200082ea:	c606                	sw	ra,12(sp)
200082ec:	c422                	sw	s0,8(sp)
200082ee:	0800                	addi	s0,sp,16
200082f0:	4422                	lw	s0,8(sp)
200082f2:	40b2                	lw	ra,12(sp)
200082f4:	0141                	addi	sp,sp,16
200082f6:	8082                	ret

200082f8 <_ZN4core3ptr13drop_in_place17h9885e9a45ee5a677E>:
200082f8:	1141                	addi	sp,sp,-16
200082fa:	c606                	sw	ra,12(sp)
200082fc:	c422                	sw	s0,8(sp)
200082fe:	0800                	addi	s0,sp,16
20008300:	4422                	lw	s0,8(sp)
20008302:	40b2                	lw	ra,12(sp)
20008304:	0141                	addi	sp,sp,16
20008306:	8082                	ret

20008308 <_ZN6kernel5sched6Kernel10do_process28_$u7b$$u7b$closure$u7d$$u7d$17h16cec400e033d7c1E>:
20008308:	715d                	addi	sp,sp,-80
2000830a:	c686                	sw	ra,76(sp)
2000830c:	c4a2                	sw	s0,72(sp)
2000830e:	c2a6                	sw	s1,68(sp)
20008310:	c0ca                	sw	s2,64(sp)
20008312:	de4e                	sw	s3,60(sp)
20008314:	dc52                	sw	s4,56(sp)
20008316:	da56                	sw	s5,52(sp)
20008318:	0880                	addi	s0,sp,80
2000831a:	c1a1                	beqz	a1,2000835a <_ZN6kernel5sched6Kernel10do_process28_$u7b$$u7b$closure$u7d$$u7d$17h16cec400e033d7c1E+0x52>
2000831c:	8932                	mv	s2,a2
2000831e:	89ae                	mv	s3,a1
20008320:	84aa                	mv	s1,a0
20008322:	4108                	lw	a0,0(a0)
20008324:	00052a03          	lw	s4,0(a0)
20008328:	40cc                	lw	a1,4(s1)
2000832a:	fb840a93          	addi	s5,s0,-72
2000832e:	8556                	mv	a0,s5
20008330:	4671                	li	a2,28
20008332:	00003097          	auipc	ra,0x3
20008336:	1ac080e7          	jalr	428(ra) # 2000b4de <memcpy>
2000833a:	4488                	lw	a0,8(s1)
2000833c:	410c                	lw	a1,0(a0)
2000833e:	4148                	lw	a0,4(a0)
20008340:	4550                	lw	a2,12(a0)
20008342:	fd840493          	addi	s1,s0,-40
20008346:	8526                	mv	a0,s1
20008348:	9602                	jalr	a2
2000834a:	00c92703          	lw	a4,12(s2)
2000834e:	854e                	mv	a0,s3
20008350:	85d2                	mv	a1,s4
20008352:	8656                	mv	a2,s5
20008354:	86a6                	mv	a3,s1
20008356:	9702                	jalr	a4
20008358:	a011                	j	2000835c <_ZN6kernel5sched6Kernel10do_process28_$u7b$$u7b$closure$u7d$$u7d$17h16cec400e033d7c1E+0x54>
2000835a:	4531                	li	a0,12
2000835c:	5ad2                	lw	s5,52(sp)
2000835e:	5a62                	lw	s4,56(sp)
20008360:	59f2                	lw	s3,60(sp)
20008362:	4906                	lw	s2,64(sp)
20008364:	4496                	lw	s1,68(sp)
20008366:	4426                	lw	s0,72(sp)
20008368:	40b6                	lw	ra,76(sp)
2000836a:	6161                	addi	sp,sp,80
2000836c:	8082                	ret

2000836e <_ZN6kernel5sched6Kernel10do_process28_$u7b$$u7b$closure$u7d$$u7d$17he3462991b006f952E>:
2000836e:	7179                	addi	sp,sp,-48
20008370:	d606                	sw	ra,44(sp)
20008372:	d422                	sw	s0,40(sp)
20008374:	d226                	sw	s1,36(sp)
20008376:	d04a                	sw	s2,32(sp)
20008378:	ce4e                	sw	s3,28(sp)
2000837a:	cc52                	sw	s4,24(sp)
2000837c:	ca56                	sw	s5,20(sp)
2000837e:	c85a                	sw	s6,16(sp)
20008380:	1800                	addi	s0,sp,48
20008382:	cd8d                	beqz	a1,200083bc <_ZN6kernel5sched6Kernel10do_process28_$u7b$$u7b$closure$u7d$$u7d$17he3462991b006f952E+0x4e>
20008384:	8932                	mv	s2,a2
20008386:	84ae                	mv	s1,a1
20008388:	450c                	lw	a1,8(a0)
2000838a:	0005a983          	lw	s3,0(a1)
2000838e:	414c                	lw	a1,4(a0)
20008390:	0005aa03          	lw	s4,0(a1)
20008394:	410c                	lw	a1,0(a0)
20008396:	0005aa83          	lw	s5,0(a1)
2000839a:	4548                	lw	a0,12(a0)
2000839c:	410c                	lw	a1,0(a0)
2000839e:	4148                	lw	a0,4(a0)
200083a0:	4550                	lw	a2,12(a0)
200083a2:	fd040b13          	addi	s6,s0,-48
200083a6:	855a                	mv	a0,s6
200083a8:	9602                	jalr	a2
200083aa:	01092783          	lw	a5,16(s2)
200083ae:	8526                	mv	a0,s1
200083b0:	85d6                	mv	a1,s5
200083b2:	8652                	mv	a2,s4
200083b4:	86ce                	mv	a3,s3
200083b6:	875a                	mv	a4,s6
200083b8:	9782                	jalr	a5
200083ba:	a011                	j	200083be <_ZN6kernel5sched6Kernel10do_process28_$u7b$$u7b$closure$u7d$$u7d$17he3462991b006f952E+0x50>
200083bc:	4531                	li	a0,12
200083be:	4b42                	lw	s6,16(sp)
200083c0:	4ad2                	lw	s5,20(sp)
200083c2:	4a62                	lw	s4,24(sp)
200083c4:	49f2                	lw	s3,28(sp)
200083c6:	5902                	lw	s2,32(sp)
200083c8:	5492                	lw	s1,36(sp)
200083ca:	5422                	lw	s0,40(sp)
200083cc:	50b2                	lw	ra,44(sp)
200083ce:	6145                	addi	sp,sp,48
200083d0:	8082                	ret

200083d2 <reset_handler>:
200083d2:	711d                	addi	sp,sp,-96
200083d4:	ce86                	sw	ra,92(sp)
200083d6:	cca2                	sw	s0,88(sp)
200083d8:	caa6                	sw	s1,84(sp)
200083da:	c8ca                	sw	s2,80(sp)
200083dc:	c6ce                	sw	s3,76(sp)
200083de:	c4d2                	sw	s4,72(sp)
200083e0:	c2d6                	sw	s5,68(sp)
200083e2:	c0da                	sw	s6,64(sp)
200083e4:	de5e                	sw	s7,60(sp)
200083e6:	dc62                	sw	s8,56(sp)
200083e8:	da66                	sw	s9,52(sp)
200083ea:	d86a                	sw	s10,48(sp)
200083ec:	d66e                	sw	s11,44(sp)
200083ee:	1080                	addi	s0,sp,96
200083f0:	2000f537          	lui	a0,0x2000f
200083f4:	c0050513          	addi	a0,a0,-1024 # 2000ec00 <_estorage>
200083f8:	100015b7          	lui	a1,0x10001
200083fc:	00058593          	mv	a1,a1
20008400:	10002637          	lui	a2,0x10002
20008404:	fa460613          	addi	a2,a2,-92 # 10001fa4 <_erelocate>
20008408:	00c5f863          	bgeu	a1,a2,20008418 <reset_handler+0x46>
2000840c:	4114                	lw	a3,0(a0)
2000840e:	c194                	sw	a3,0(a1)
20008410:	0511                	addi	a0,a0,4
20008412:	0591                	addi	a1,a1,4
20008414:	fec5ece3          	bltu	a1,a2,2000840c <reset_handler+0x3a>
20008418:	10002537          	lui	a0,0x10002
2000841c:	fa450513          	addi	a0,a0,-92 # 10001fa4 <_erelocate>
20008420:	100035b7          	lui	a1,0x10003
20008424:	89c58593          	addi	a1,a1,-1892 # 1000289c <_ezero>
20008428:	00b57763          	bgeu	a0,a1,20008436 <reset_handler+0x64>
2000842c:	00052023          	sw	zero,0(a0)
20008430:	0511                	addi	a0,a0,4
20008432:	feb56de3          	bltu	a0,a1,2000842c <reset_handler+0x5a>
20008436:	20000537          	lui	a0,0x20000
2000843a:	10050513          	addi	a0,a0,256 # 20000100 <_start_trap_vectored>
2000843e:	9971                	andi	a0,a0,-4
20008440:	00156513          	ori	a0,a0,1
20008444:	30551073          	csrw	mtvec,a0
20008448:	10002537          	lui	a0,0x10002
2000844c:	64850c13          	addi	s8,a0,1608 # 10002648 <_ZN9opentitan13reset_handler3BUF17hde44aa74b73c5f78E>
20008450:	4591                	li	a1,4
20008452:	00bc2423          	sw	a1,8(s8)
20008456:	100025b7          	lui	a1,0x10002
2000845a:	62858593          	addi	a1,a1,1576 # 10002628 <_ZN9opentitan9PROCESSES17hab9b83d12e51c3dfE>
2000845e:	00bc2223          	sw	a1,4(s8)
20008462:	000c0a23          	sb	zero,20(s8)
20008466:	000c2823          	sw	zero,16(s8)
2000846a:	000c2623          	sw	zero,12(s8)
2000846e:	64052423          	sw	zero,1608(a0)
20008472:	10002537          	lui	a0,0x10002
20008476:	66052023          	sw	zero,1632(a0) # 10002660 <_ZN9opentitan13reset_handler3BUF17h28f50996fb120c42E>
2000847a:	66050513          	addi	a0,a0,1632
2000847e:	00050423          	sb	zero,8(a0)
20008482:	100025b7          	lui	a1,0x10002
20008486:	66a5a623          	sw	a0,1644(a1) # 1000266c <_ZN9opentitan13reset_handler3BUF17h68eec8060550b140E>
2000848a:	66c58493          	addi	s1,a1,1644
2000848e:	4c85                	li	s9,1
20008490:	0194a223          	sw	s9,4(s1)
20008494:	00048623          	sb	zero,12(s1)
20008498:	0004a423          	sw	zero,8(s1)
2000849c:	10002537          	lui	a0,0x10002
200084a0:	61c52583          	lw	a1,1564(a0) # 1000261c <_ZN6kernel6common21dynamic_deferred_call21DYNAMIC_DEFERRED_CALL17h9a9b1043f381363dE>
200084a4:	e581                	bnez	a1,200084ac <reset_handler+0xda>
200084a6:	61c50513          	addi	a0,a0,1564
200084aa:	c104                	sw	s1,0(a0)
200084ac:	10002537          	lui	a0,0x10002
200084b0:	66052e23          	sw	zero,1660(a0) # 1000267c <_ZN9opentitan13reset_handler3BUF17h40fd3b26f05492ddE>
200084b4:	67c50513          	addi	a0,a0,1660
200084b8:	4589                	li	a1,2
200084ba:	0ab52023          	sw	a1,160(a0)
200084be:	45fd                	li	a1,31
200084c0:	08b52c23          	sw	a1,152(a0)
200084c4:	08b52223          	sw	a1,132(a0)
200084c8:	d92c                	sw	a1,112(a0)
200084ca:	cd6c                	sw	a1,92(a0)
200084cc:	c52c                	sw	a1,72(a0)
200084ce:	d94c                	sw	a1,52(a0)
200084d0:	d10c                	sw	a1,32(a0)
200084d2:	c54c                	sw	a1,12(a0)
200084d4:	08052e23          	sw	zero,156(a0)
200084d8:	08052623          	sw	zero,140(a0)
200084dc:	08052423          	sw	zero,136(a0)
200084e0:	06052c23          	sw	zero,120(a0)
200084e4:	06052a23          	sw	zero,116(a0)
200084e8:	06052223          	sw	zero,100(a0)
200084ec:	06052023          	sw	zero,96(a0)
200084f0:	04052823          	sw	zero,80(a0)
200084f4:	04052623          	sw	zero,76(a0)
200084f8:	02052e23          	sw	zero,60(a0)
200084fc:	02052c23          	sw	zero,56(a0)
20008500:	02052423          	sw	zero,40(a0)
20008504:	02052223          	sw	zero,36(a0)
20008508:	00052a23          	sw	zero,20(a0)
2000850c:	00052823          	sw	zero,16(a0)
20008510:	100025b7          	lui	a1,0x10002
20008514:	62a5a223          	sw	a0,1572(a1) # 10002624 <_ZN9opentitan4CHIP17h2aac1febd54e4f4fE>
20008518:	ffffe097          	auipc	ra,0xffffe
2000851c:	280080e7          	jalr	640(ra) # 20006798 <_ZN4ibex4chip4Ibex22enable_plic_interrupts17h30a1ef3f1c684d47E>
20008520:	6505                	lui	a0,0x1
20008522:	88850513          	addi	a0,a0,-1912 # 888 <MPU_MIN_ALIGN+0x488>
20008526:	304025f3          	csrr	a1,mie
2000852a:	8d4d                	or	a0,a0,a1
2000852c:	30451073          	csrw	mie,a0
20008530:	30002573          	csrr	a0,mstatus
20008534:	00856513          	ori	a0,a0,8
20008538:	30051073          	csrw	mstatus,a0
2000853c:	fa942a23          	sw	s1,-76(s0)
20008540:	6509                	lui	a0,0x2
20008542:	58050513          	addi	a0,a0,1408 # 2580 <.Lline_table_start6+0x2c>
20008546:	faa42823          	sw	a0,-80(s0)
2000854a:	10002537          	lui	a0,0x10002
2000854e:	a1850513          	addi	a0,a0,-1512 # 10001a18 <.L__unnamed_8>
20008552:	faa42623          	sw	a0,-84(s0)
20008556:	10001537          	lui	a0,0x10001
2000855a:	5c850513          	addi	a0,a0,1480 # 100015c8 <_ZN4ibex4uart5UART017h0613b20b11c2866fE>
2000855e:	faa42423          	sw	a0,-88(s0)
20008562:	fa840513          	addi	a0,s0,-88
20008566:	ffffc097          	auipc	ra,0xffffc
2000856a:	de0080e7          	jalr	-544(ra) # 20004346 <_ZN86_$LT$components..console..UartMuxComponent$u20$as$u20$kernel..component..Component$GT$8finalize17h6a6aafe28baa65f7E>
2000856e:	10001537          	lui	a0,0x10001
20008572:	60c50493          	addi	s1,a0,1548 # 1000160c <_ZN4ibex4gpio4PORT17h42b1a5fcc7cae9dcE>
20008576:	08c48513          	addi	a0,s1,140
2000857a:	100025b7          	lui	a1,0x10002
2000857e:	72a5a023          	sw	a0,1824(a1) # 10002720 <_ZN9opentitan13reset_handler3BUF17h5e3b81dfa7bc1726E>
20008582:	72058513          	addi	a0,a1,1824
20008586:	11848593          	addi	a1,s1,280
2000858a:	c96c                	sw	a1,84(a0)
2000858c:	10448593          	addi	a1,s1,260
20008590:	c52c                	sw	a1,72(a0)
20008592:	0f048593          	addi	a1,s1,240
20008596:	dd4c                	sw	a1,60(a0)
20008598:	0dc48593          	addi	a1,s1,220
2000859c:	d90c                	sw	a1,48(a0)
2000859e:	0c848593          	addi	a1,s1,200
200085a2:	d14c                	sw	a1,36(a0)
200085a4:	0b448593          	addi	a1,s1,180
200085a8:	cd0c                	sw	a1,24(a0)
200085aa:	0a048593          	addi	a1,s1,160
200085ae:	c54c                	sw	a1,12(a0)
200085b0:	100025b7          	lui	a1,0x10002
200085b4:	9cc58593          	addi	a1,a1,-1588 # 100019cc <.L__unnamed_7>
200085b8:	cd2c                	sw	a1,88(a0)
200085ba:	c56c                	sw	a1,76(a0)
200085bc:	c12c                	sw	a1,64(a0)
200085be:	d94c                	sw	a1,52(a0)
200085c0:	d50c                	sw	a1,40(a0)
200085c2:	cd4c                	sw	a1,28(a0)
200085c4:	c90c                	sw	a1,16(a0)
200085c6:	c14c                	sw	a1,4(a0)
200085c8:	04050e23          	sb	zero,92(a0)
200085cc:	04050823          	sb	zero,80(a0)
200085d0:	04050223          	sb	zero,68(a0)
200085d4:	02050c23          	sb	zero,56(a0)
200085d8:	03950623          	sb	s9,44(a0)
200085dc:	03950023          	sb	s9,32(a0)
200085e0:	01950a23          	sb	s9,20(a0)
200085e4:	01950423          	sb	s9,8(a0)
200085e8:	ffffc097          	auipc	ra,0xffffc
200085ec:	478080e7          	jalr	1144(ra) # 20004a60 <_ZN79_$LT$components..led..LedsComponent$u20$as$u20$kernel..component..Component$GT$8finalize17h9436afbb63e4c433E>
200085f0:	10002537          	lui	a0,0x10002
200085f4:	78052023          	sw	zero,1920(a0) # 10002780 <_ZN9opentitan13reset_handler3BUF17ha7ec773d52bf34eaE>
200085f8:	78050513          	addi	a0,a0,1920
200085fc:	100025b7          	lui	a1,0x10002
20008600:	a4858d93          	addi	s11,a1,-1464 # 10001a48 <.L__unnamed_9>
20008604:	01b52823          	sw	s11,16(a0)
20008608:	c544                	sw	s1,12(a0)
2000860a:	00052223          	sw	zero,4(a0)
2000860e:	ffffe097          	auipc	ra,0xffffe
20008612:	5de080e7          	jalr	1502(ra) # 20006bec <_ZN6kernel3hil4gpio21InterruptValueWrapper8finalize17h951d955a388479aeE>
20008616:	892a                	mv	s2,a0
20008618:	100025b7          	lui	a1,0x10002
2000861c:	79458513          	addi	a0,a1,1940 # 10002794 <_ZN9opentitan13reset_handler3BUF17hd42c0446c30f74d8E>
20008620:	01448613          	addi	a2,s1,20
20008624:	c550                	sw	a2,12(a0)
20008626:	7805aa23          	sw	zero,1940(a1)
2000862a:	01b52823          	sw	s11,16(a0)
2000862e:	00052223          	sw	zero,4(a0)
20008632:	ffffe097          	auipc	ra,0xffffe
20008636:	5ba080e7          	jalr	1466(ra) # 20006bec <_ZN6kernel3hil4gpio21InterruptValueWrapper8finalize17h951d955a388479aeE>
2000863a:	89aa                	mv	s3,a0
2000863c:	100025b7          	lui	a1,0x10002
20008640:	7a858513          	addi	a0,a1,1960 # 100027a8 <_ZN9opentitan13reset_handler3BUF17h6e8904d51ee04249E>
20008644:	02848613          	addi	a2,s1,40
20008648:	c550                	sw	a2,12(a0)
2000864a:	7a05a423          	sw	zero,1960(a1)
2000864e:	01b52823          	sw	s11,16(a0)
20008652:	00052223          	sw	zero,4(a0)
20008656:	ffffe097          	auipc	ra,0xffffe
2000865a:	596080e7          	jalr	1430(ra) # 20006bec <_ZN6kernel3hil4gpio21InterruptValueWrapper8finalize17h951d955a388479aeE>
2000865e:	8a2a                	mv	s4,a0
20008660:	100025b7          	lui	a1,0x10002
20008664:	7bc58513          	addi	a0,a1,1980 # 100027bc <_ZN9opentitan13reset_handler3BUF17h088b1dcfa2ac28e4E>
20008668:	03c48613          	addi	a2,s1,60
2000866c:	c550                	sw	a2,12(a0)
2000866e:	7a05ae23          	sw	zero,1980(a1)
20008672:	01b52823          	sw	s11,16(a0)
20008676:	00052223          	sw	zero,4(a0)
2000867a:	ffffe097          	auipc	ra,0xffffe
2000867e:	572080e7          	jalr	1394(ra) # 20006bec <_ZN6kernel3hil4gpio21InterruptValueWrapper8finalize17h951d955a388479aeE>
20008682:	8aaa                	mv	s5,a0
20008684:	100025b7          	lui	a1,0x10002
20008688:	7d058513          	addi	a0,a1,2000 # 100027d0 <_ZN9opentitan13reset_handler3BUF17ha10bbefec5af3a78E>
2000868c:	05048613          	addi	a2,s1,80
20008690:	c550                	sw	a2,12(a0)
20008692:	7c05a823          	sw	zero,2000(a1)
20008696:	01b52823          	sw	s11,16(a0)
2000869a:	00052223          	sw	zero,4(a0)
2000869e:	ffffe097          	auipc	ra,0xffffe
200086a2:	54e080e7          	jalr	1358(ra) # 20006bec <_ZN6kernel3hil4gpio21InterruptValueWrapper8finalize17h951d955a388479aeE>
200086a6:	8b2a                	mv	s6,a0
200086a8:	100025b7          	lui	a1,0x10002
200086ac:	7e458513          	addi	a0,a1,2020 # 100027e4 <_ZN9opentitan13reset_handler3BUF17h55d4073c8481c71cE>
200086b0:	06448613          	addi	a2,s1,100
200086b4:	c550                	sw	a2,12(a0)
200086b6:	7e05a223          	sw	zero,2020(a1)
200086ba:	01b52823          	sw	s11,16(a0)
200086be:	00052223          	sw	zero,4(a0)
200086c2:	ffffe097          	auipc	ra,0xffffe
200086c6:	52a080e7          	jalr	1322(ra) # 20006bec <_ZN6kernel3hil4gpio21InterruptValueWrapper8finalize17h951d955a388479aeE>
200086ca:	8baa                	mv	s7,a0
200086cc:	100025b7          	lui	a1,0x10002
200086d0:	7f858513          	addi	a0,a1,2040 # 100027f8 <_ZN9opentitan13reset_handler3BUF17h437293b7742bf96dE>
200086d4:	07848613          	addi	a2,s1,120
200086d8:	c550                	sw	a2,12(a0)
200086da:	7e05ac23          	sw	zero,2040(a1)
200086de:	01b52823          	sw	s11,16(a0)
200086e2:	00052223          	sw	zero,4(a0)
200086e6:	ffffe097          	auipc	ra,0xffffe
200086ea:	506080e7          	jalr	1286(ra) # 20006bec <_ZN6kernel3hil4gpio21InterruptValueWrapper8finalize17h951d955a388479aeE>
200086ee:	8d2a                	mv	s10,a0
200086f0:	100035b7          	lui	a1,0x10003
200086f4:	80c58513          	addi	a0,a1,-2036 # 1000280c <_ZN9opentitan13reset_handler3BUF17h73c45825e0104d38E>
200086f8:	01b52823          	sw	s11,16(a0)
200086fc:	12c48613          	addi	a2,s1,300
20008700:	c550                	sw	a2,12(a0)
20008702:	8005a623          	sw	zero,-2036(a1)
20008706:	00052223          	sw	zero,4(a0)
2000870a:	ffffe097          	auipc	ra,0xffffe
2000870e:	4e2080e7          	jalr	1250(ra) # 20006bec <_ZN6kernel3hil4gpio21InterruptValueWrapper8finalize17h951d955a388479aeE>
20008712:	100035b7          	lui	a1,0x10003
20008716:	82058613          	addi	a2,a1,-2016 # 10002820 <_ZN9opentitan13reset_handler3BUF17hb8ab9135bab695eaE>
2000871a:	de08                	sw	a0,56(a2)
2000871c:	03a62823          	sw	s10,48(a2)
20008720:	03762423          	sw	s7,40(a2)
20008724:	03662023          	sw	s6,32(a2)
20008728:	01562c23          	sw	s5,24(a2)
2000872c:	01462823          	sw	s4,16(a2)
20008730:	01362423          	sw	s3,8(a2)
20008734:	10002537          	lui	a0,0x10002
20008738:	aa450513          	addi	a0,a0,-1372 # 10001aa4 <.L__unnamed_10>
2000873c:	de48                	sw	a0,60(a2)
2000873e:	da48                	sw	a0,52(a2)
20008740:	d648                	sw	a0,44(a2)
20008742:	d248                	sw	a0,36(a2)
20008744:	ce48                	sw	a0,28(a2)
20008746:	ca48                	sw	a0,20(a2)
20008748:	c648                	sw	a0,12(a2)
2000874a:	c248                	sw	a0,4(a2)
2000874c:	8325a023          	sw	s2,-2016(a1)
20008750:	ffffc097          	auipc	ra,0xffffc
20008754:	ad6080e7          	jalr	-1322(ra) # 20004226 <_ZN80_$LT$components..gpio..GpioComponent$u20$as$u20$kernel..component..Component$GT$8finalize17hcab897b1489959baE>
20008758:	6541                	lui	a0,0x10
2000875a:	03150513          	addi	a0,a0,49 # 10031 <.Lline_table_start77+0x2f9>
2000875e:	100015b7          	lui	a1,0x10001
20008762:	5f05a603          	lw	a2,1520(a1) # 100015f0 <_ZN4ibex5timer5TIMER17hfefabaca5cfe6a29E>
20008766:	10a62023          	sw	a0,256(a2)
2000876a:	10062823          	sw	zero,272(a2)
2000876e:	10062a23          	sw	zero,276(a2)
20008772:	01962023          	sw	s9,0(a2)
20008776:	5f058513          	addi	a0,a1,1520
2000877a:	100025b7          	lui	a1,0x10002
2000877e:	b0858593          	addi	a1,a1,-1272 # 10001b08 <.L__unnamed_11>
20008782:	c50c                	sw	a1,8(a0)
20008784:	100035b7          	lui	a1,0x10003
20008788:	8605a023          	sw	zero,-1952(a1) # 10002860 <_ZN9opentitan13reset_handler3BUF17h8519a7b8b71375c7E>
2000878c:	86058593          	addi	a1,a1,-1952
20008790:	c5c8                	sw	a0,12(a1)
20008792:	c14c                	sw	a1,4(a0)
20008794:	0005a423          	sw	zero,8(a1)
20008798:	0005a223          	sw	zero,4(a1)
2000879c:	10003537          	lui	a0,0x10003
200087a0:	86b52823          	sw	a1,-1936(a0) # 10002870 <_ZN9opentitan13reset_handler3BUF17ha23ded1fbd13c762E>
200087a4:	87050493          	addi	s1,a0,-1936
200087a8:	00048a23          	sb	zero,20(s1)
200087ac:	0004a623          	sw	zero,12(s1)
200087b0:	0004a423          	sw	zero,8(s1)
200087b4:	0004a223          	sw	zero,4(s1)
200087b8:	00001097          	auipc	ra,0x1
200087bc:	0d2080e7          	jalr	210(ra) # 2000988a <_ZN6kernel5sched6Kernel12create_grant17hf41ba8184592528dE>
200087c0:	100035b7          	lui	a1,0x10003
200087c4:	8895a423          	sw	s1,-1912(a1) # 10002888 <_ZN9opentitan13reset_handler3BUF17h1160644769b18797E>
200087c8:	88858493          	addi	s1,a1,-1912
200087cc:	c4c8                	sw	a0,12(s1)
200087ce:	0184a423          	sw	s8,8(s1)
200087d2:	0004a823          	sw	zero,16(s1)
200087d6:	0004a223          	sw	zero,4(s1)
200087da:	00001097          	auipc	ra,0x1
200087de:	596080e7          	jalr	1430(ra) # 20009d70 <_ZN94_$LT$capsules..virtual_alarm..VirtualMuxAlarm$LT$A$GT$$u20$as$u20$kernel..hil..time..Alarm$GT$10set_client17hc4785c41a748aefbE>
200087e2:	ffffc097          	auipc	ra,0xffffc
200087e6:	c60080e7          	jalr	-928(ra) # 20004442 <_ZN86_$LT$components..console..ConsoleComponent$u20$as$u20$kernel..component..Component$GT$8finalize17h1138843be2e67c3bE>
200087ea:	ffffc097          	auipc	ra,0xffffc
200087ee:	d72080e7          	jalr	-654(ra) # 2000455c <_ZN95_$LT$components..debug_writer..DebugWriterComponent$u20$as$u20$kernel..component..Component$GT$8finalize17h9bcfcc9ffe2a17ecE>
200087f2:	ffffc097          	auipc	ra,0xffffc
200087f6:	96a080e7          	jalr	-1686(ra) # 2000415c <_ZN89_$LT$components..lldb..LowLevelDebugComponent$u20$as$u20$kernel..component..Component$GT$8finalize17h6152f0712eb04426E>
200087fa:	2000e537          	lui	a0,0x2000e
200087fe:	00c50513          	addi	a0,a0,12 # 2000e00c <.Lanon.d9778860540cf11319bb138777b2a7cb.67>
20008802:	faa42c23          	sw	a0,-72(s0)
20008806:	fb942623          	sw	s9,-84(s0)
2000880a:	10002537          	lui	a0,0x10002
2000880e:	b2850513          	addi	a0,a0,-1240 # 10001b28 <.L__unnamed_50>
20008812:	faa42423          	sw	a0,-88(s0)
20008816:	fa042e23          	sw	zero,-68(s0)
2000881a:	fa042823          	sw	zero,-80(s0)
2000881e:	fa840513          	addi	a0,s0,-88
20008822:	fffff097          	auipc	ra,0xfffff
20008826:	aa8080e7          	jalr	-1368(ra) # 200072ca <_ZN6kernel5debug15begin_debug_fmt17h3453ed27838581f3E>
2000882a:	fc042023          	sw	zero,-64(s0)
2000882e:	fc042223          	sw	zero,-60(s0)
20008832:	fc042423          	sw	zero,-56(s0)
20008836:	10002537          	lui	a0,0x10002
2000883a:	0a050513          	addi	a0,a0,160 # 100020a0 <_ZN89_$LT$components..lldb..LowLevelDebugComponent$u20$as$u20$kernel..component..Component$GT$8finalize3BUF17hede49bfbf5684d28E>
2000883e:	faa42c23          	sw	a0,-72(s0)
20008842:	fa942a23          	sw	s1,-76(s0)
20008846:	10002537          	lui	a0,0x10002
2000884a:	17050513          	addi	a0,a0,368 # 10002170 <_ZN86_$LT$components..console..ConsoleComponent$u20$as$u20$kernel..component..Component$GT$8finalize3BUF17h2ac1d594c373289cE>
2000884e:	faa42823          	sw	a0,-80(s0)
20008852:	10002537          	lui	a0,0x10002
20008856:	0f850513          	addi	a0,a0,248 # 100020f8 <_ZN80_$LT$components..gpio..GpioComponent$u20$as$u20$kernel..component..Component$GT$8finalize3BUF17h69d7f153c7f0310fE>
2000885a:	faa42623          	sw	a0,-84(s0)
2000885e:	10002537          	lui	a0,0x10002
20008862:	61450513          	addi	a0,a0,1556 # 10002614 <_ZN79_$LT$components..led..LedsComponent$u20$as$u20$kernel..component..Component$GT$8finalize3BUF17h250b6545546eaacfE>
20008866:	faa42423          	sw	a0,-88(s0)
2000886a:	fc040513          	addi	a0,s0,-64
2000886e:	ffff8097          	auipc	ra,0xffff8
20008872:	b20080e7          	jalr	-1248(ra) # 2000038e <_ZN6kernel7process14load_processes17h3b38dee20eed6582E>
20008876:	fa840513          	addi	a0,s0,-88
2000887a:	00000097          	auipc	ra,0x0
2000887e:	050080e7          	jalr	80(ra) # 200088ca <_ZN6kernel5sched6Kernel11kernel_loop17hb06500f832e0af8eE>
20008882:	00006097          	auipc	ra,0x6
20008886:	35a080e7          	jalr	858(ra) # 2000ebdc <abort>

2000888a <_ZN4core3ptr13drop_in_place17h13693f5aa40ba535E>:
2000888a:	1141                	addi	sp,sp,-16
2000888c:	c606                	sw	ra,12(sp)
2000888e:	c422                	sw	s0,8(sp)
20008890:	0800                	addi	s0,sp,16
20008892:	4422                	lw	s0,8(sp)
20008894:	40b2                	lw	ra,12(sp)
20008896:	0141                	addi	sp,sp,16
20008898:	8082                	ret

2000889a <_ZN4core3ptr13drop_in_place17h9c76189ef7c637a8E>:
2000889a:	1141                	addi	sp,sp,-16
2000889c:	c606                	sw	ra,12(sp)
2000889e:	c422                	sw	s0,8(sp)
200088a0:	0800                	addi	s0,sp,16
200088a2:	4422                	lw	s0,8(sp)
200088a4:	40b2                	lw	ra,12(sp)
200088a6:	0141                	addi	sp,sp,16
200088a8:	8082                	ret

200088aa <_ZN4core3ptr13drop_in_place17h25375294a4788135E>:
200088aa:	1141                	addi	sp,sp,-16
200088ac:	c606                	sw	ra,12(sp)
200088ae:	c422                	sw	s0,8(sp)
200088b0:	0800                	addi	s0,sp,16
200088b2:	4422                	lw	s0,8(sp)
200088b4:	40b2                	lw	ra,12(sp)
200088b6:	0141                	addi	sp,sp,16
200088b8:	8082                	ret

200088ba <_ZN4core3ptr13drop_in_place17h9f4603849a3e3a9eE>:
200088ba:	1141                	addi	sp,sp,-16
200088bc:	c606                	sw	ra,12(sp)
200088be:	c422                	sw	s0,8(sp)
200088c0:	0800                	addi	s0,sp,16
200088c2:	4422                	lw	s0,8(sp)
200088c4:	40b2                	lw	ra,12(sp)
200088c6:	0141                	addi	sp,sp,16
200088c8:	8082                	ret

200088ca <_ZN6kernel5sched6Kernel11kernel_loop17hb06500f832e0af8eE>:
200088ca:	7169                	addi	sp,sp,-304
200088cc:	12112623          	sw	ra,300(sp)
200088d0:	12812423          	sw	s0,296(sp)
200088d4:	12912223          	sw	s1,292(sp)
200088d8:	13212023          	sw	s2,288(sp)
200088dc:	11312e23          	sw	s3,284(sp)
200088e0:	11412c23          	sw	s4,280(sp)
200088e4:	11512a23          	sw	s5,276(sp)
200088e8:	11612823          	sw	s6,272(sp)
200088ec:	11712623          	sw	s7,268(sp)
200088f0:	11812423          	sw	s8,264(sp)
200088f4:	11912223          	sw	s9,260(sp)
200088f8:	11a12023          	sw	s10,256(sp)
200088fc:	dfee                	sw	s11,252(sp)
200088fe:	1a00                	addi	s0,sp,304
20008900:	eea42c23          	sw	a0,-264(s0)
20008904:	2000c537          	lui	a0,0x2000c
20008908:	e4852b03          	lw	s6,-440(a0) # 2000be48 <anon.94f59e978f0f32a54617dd47149c5ef2.0.llvm.1410106067623364693>
2000890c:	6505                	lui	a0,0x1
2000890e:	88050593          	addi	a1,a0,-1920 # 880 <MPU_MIN_ALIGN+0x480>
20008912:	80000537          	lui	a0,0x80000
20008916:	157d                	addi	a0,a0,-1
20008918:	f2a42e23          	sw	a0,-196(s0)
2000891c:	e8000537          	lui	a0,0xe8000
20008920:	157d                	addi	a0,a0,-1
20008922:	f2a42c23          	sw	a0,-200(s0)
20008926:	fc000537          	lui	a0,0xfc000
2000892a:	157d                	addi	a0,a0,-1
2000892c:	f2a42a23          	sw	a0,-204(s0)
20008930:	fe000537          	lui	a0,0xfe000
20008934:	157d                	addi	a0,a0,-1
20008936:	f2a42823          	sw	a0,-208(s0)
2000893a:	ff000537          	lui	a0,0xff000
2000893e:	157d                	addi	a0,a0,-1
20008940:	f2a42623          	sw	a0,-212(s0)
20008944:	ff800537          	lui	a0,0xff800
20008948:	157d                	addi	a0,a0,-1
2000894a:	f2a42423          	sw	a0,-216(s0)
2000894e:	ffe80537          	lui	a0,0xffe80
20008952:	157d                	addi	a0,a0,-1
20008954:	f2a42223          	sw	a0,-220(s0)
20008958:	fffc0537          	lui	a0,0xfffc0
2000895c:	157d                	addi	a0,a0,-1
2000895e:	f2a42023          	sw	a0,-224(s0)
20008962:	7501                	lui	a0,0xfffe0
20008964:	157d                	addi	a0,a0,-1
20008966:	f0a42e23          	sw	a0,-228(s0)
2000896a:	7541                	lui	a0,0xffff0
2000896c:	157d                	addi	a0,a0,-1
2000896e:	f0a42c23          	sw	a0,-232(s0)
20008972:	7561                	lui	a0,0xffff8
20008974:	157d                	addi	a0,a0,-1
20008976:	f0a42a23          	sw	a0,-236(s0)
2000897a:	7579                	lui	a0,0xffffe
2000897c:	7ff50513          	addi	a0,a0,2047 # ffffe7ff <_sapps+0xdffce7ff>
20008980:	f0a42823          	sw	a0,-240(s0)
20008984:	f4b42623          	sw	a1,-180(s0)
20008988:	f8058513          	addi	a0,a1,-128
2000898c:	f4a42423          	sw	a0,-184(s0)
20008990:	10002537          	lui	a0,0x10002
20008994:	64850513          	addi	a0,a0,1608 # 10002648 <_ZN9opentitan13reset_handler3BUF17hde44aa74b73c5f78E>
20008998:	eea42a23          	sw	a0,-268(s0)
2000899c:	4921                	li	s2,8
2000899e:	4d85                	li	s11,1
200089a0:	10002537          	lui	a0,0x10002
200089a4:	99c50513          	addi	a0,a0,-1636 # 1000199c <.L__unnamed_3>
200089a8:	eea42223          	sw	a0,-284(s0)
200089ac:	10002537          	lui	a0,0x10002
200089b0:	98450513          	addi	a0,a0,-1660 # 10001984 <.L__unnamed_4>
200089b4:	eea42023          	sw	a0,-288(s0)
200089b8:	10002537          	lui	a0,0x10002
200089bc:	9b450513          	addi	a0,a0,-1612 # 100019b4 <.L__unnamed_2>
200089c0:	eca42e23          	sw	a0,-292(s0)
200089c4:	4a11                	li	s4,4
200089c6:	10002537          	lui	a0,0x10002
200089ca:	96c50513          	addi	a0,a0,-1684 # 1000196c <.L__unnamed_5>
200089ce:	eca42c23          	sw	a0,-296(s0)
200089d2:	10002537          	lui	a0,0x10002
200089d6:	95450513          	addi	a0,a0,-1708 # 10001954 <.L__unnamed_6>
200089da:	eca42a23          	sw	a0,-300(s0)
200089de:	40000537          	lui	a0,0x40000
200089e2:	157d                	addi	a0,a0,-1
200089e4:	eea42423          	sw	a0,-280(s0)
200089e8:	10001d37          	lui	s10,0x10001
200089ec:	02000c13          	li	s8,32
200089f0:	20005537          	lui	a0,0x20005
200089f4:	b9250c93          	addi	s9,a0,-1134 # 20004b92 <_ZN4core3fmt3num3imp52_$LT$impl$u20$core..fmt..Display$u20$for$u20$u32$GT$3fmt17hd33618c459eb254aE>
200089f8:	10001537          	lui	a0,0x10001
200089fc:	58850a93          	addi	s5,a0,1416 # 10001588 <.Lanon.eb07db2179ae97cf87156a9bbd6f5ec6.1>
20008a00:	4481                	li	s1,0
20008a02:	4b81                	li	s7,0
20008a04:	344029f3          	csrr	s3,mip
20008a08:	0809f513          	andi	a0,s3,128
20008a0c:	c505                	beqz	a0,20008a34 <_ZN6kernel5sched6Kernel11kernel_loop17hb06500f832e0af8eE+0x16a>
20008a0e:	100015b7          	lui	a1,0x10001
20008a12:	5f05a503          	lw	a0,1520(a1) # 100015f0 <_ZN4ibex5timer5TIMER17hfefabaca5cfe6a29E>
20008a16:	10052a23          	sw	zero,276(a0)
20008a1a:	11b52c23          	sw	s11,280(a0)
20008a1e:	5f058593          	addi	a1,a1,1520
20008a22:	41c8                	lw	a0,4(a1)
20008a24:	c501                	beqz	a0,20008a2c <_ZN6kernel5sched6Kernel11kernel_loop17hb06500f832e0af8eE+0x162>
20008a26:	458c                	lw	a1,8(a1)
20008a28:	45cc                	lw	a1,12(a1)
20008a2a:	9582                	jalr	a1
20008a2c:	0804e493          	ori	s1,s1,128
20008a30:	080beb93          	ori	s7,s7,128
20008a34:	f4842503          	lw	a0,-184(s0)
20008a38:	00a9f533          	and	a0,s3,a0
20008a3c:	e161                	bnez	a0,20008afc <_ZN6kernel5sched6Kernel11kernel_loop17hb06500f832e0af8eE+0x232>
20008a3e:	a0f9                	j	20008b0c <_ZN6kernel5sched6Kernel11kernel_loop17hb06500f832e0af8eE+0x242>
20008a40:	f8a42423          	sw	a0,-120(s0)
20008a44:	fdf50593          	addi	a1,a0,-33
20008a48:	0325f063          	bgeu	a1,s2,20008a68 <_ZN6kernel5sched6Kernel11kernel_loop17hb06500f832e0af8eE+0x19e>
20008a4c:	5c8d2503          	lw	a0,1480(s10) # 100015c8 <_ZN4ibex4uart5UART017h0613b20b11c2866fE>
20008a50:	410c                	lw	a1,0(a0)
20008a52:	0045f613          	andi	a2,a1,4
20008a56:	ea39                	bnez	a2,20008aac <_ZN6kernel5sched6Kernel11kernel_loop17hb06500f832e0af8eE+0x1e2>
20008a58:	8989                	andi	a1,a1,2
20008a5a:	cdc9                	beqz	a1,20008af4 <_ZN6kernel5sched6Kernel11kernel_loop17hb06500f832e0af8eE+0x22a>
20008a5c:	414c                	lw	a1,4(a0)
20008a5e:	99f5                	andi	a1,a1,-3
20008a60:	c14c                	sw	a1,4(a0)
20008a62:	4589                	li	a1,2
20008a64:	c10c                	sw	a1,0(a0)
20008a66:	a079                	j	20008af4 <_ZN6kernel5sched6Kernel11kernel_loop17hb06500f832e0af8eE+0x22a>
20008a68:	157d                	addi	a0,a0,-1
20008a6a:	05857d63          	bgeu	a0,s8,20008ac4 <_ZN6kernel5sched6Kernel11kernel_loop17hb06500f832e0af8eE+0x1fa>
20008a6e:	ffffe097          	auipc	ra,0xffffe
20008a72:	f1c080e7          	jalr	-228(ra) # 2000698a <_ZN73_$LT$ibex..gpio..Port$u20$as$u20$core..ops..index..Index$LT$usize$GT$$GT$5index17hece92cd3d6ac71b2E>
20008a76:	4514                	lw	a3,8(a0)
20008a78:	414c                	lw	a1,4(a0)
20008a7a:	00d59633          	sll	a2,a1,a3
20008a7e:	410c                	lw	a1,0(a0)
20008a80:	4198                	lw	a4,0(a1)
20008a82:	8f71                	and	a4,a4,a2
20008a84:	00d75733          	srl	a4,a4,a3
20008a88:	c735                	beqz	a4,20008af4 <_ZN6kernel5sched6Kernel11kernel_loop17hb06500f832e0af8eE+0x22a>
20008a8a:	8afd                	andi	a3,a3,31
20008a8c:	00dd96b3          	sll	a3,s11,a3
20008a90:	8ef1                	and	a3,a3,a2
20008a92:	fff64613          	not	a2,a2
20008a96:	4198                	lw	a4,0(a1)
20008a98:	8e79                	and	a2,a2,a4
20008a9a:	8e55                	or	a2,a2,a3
20008a9c:	c190                	sw	a2,0(a1)
20008a9e:	454c                	lw	a1,12(a0)
20008aa0:	c9b1                	beqz	a1,20008af4 <_ZN6kernel5sched6Kernel11kernel_loop17hb06500f832e0af8eE+0x22a>
20008aa2:	4908                	lw	a0,16(a0)
20008aa4:	4550                	lw	a2,12(a0)
20008aa6:	852e                	mv	a0,a1
20008aa8:	9602                	jalr	a2
20008aaa:	a0a9                	j	20008af4 <_ZN6kernel5sched6Kernel11kernel_loop17hb06500f832e0af8eE+0x22a>
20008aac:	414c                	lw	a1,4(a0)
20008aae:	99ed                	andi	a1,a1,-5
20008ab0:	c14c                	sw	a1,4(a0)
20008ab2:	01452023          	sw	s4,0(a0)
20008ab6:	5c8d0513          	addi	a0,s10,1480
20008aba:	fffff097          	auipc	ra,0xfffff
20008abe:	a9c080e7          	jalr	-1380(ra) # 20007556 <_ZN7lowrisc4uart4Uart11tx_progress17hb07429f132d57eecE>
20008ac2:	a80d                	j	20008af4 <_ZN6kernel5sched6Kernel11kernel_loop17hb06500f832e0af8eE+0x22a>
20008ac4:	fa840513          	addi	a0,s0,-88
20008ac8:	f6a42823          	sw	a0,-144(s0)
20008acc:	f6042423          	sw	zero,-152(s0)
20008ad0:	f7b42a23          	sw	s11,-140(s0)
20008ad4:	f7b42223          	sw	s11,-156(s0)
20008ad8:	fb942623          	sw	s9,-84(s0)
20008adc:	f8840513          	addi	a0,s0,-120
20008ae0:	faa42423          	sw	a0,-88(s0)
20008ae4:	f7542023          	sw	s5,-160(s0)
20008ae8:	f6040513          	addi	a0,s0,-160
20008aec:	ffffe097          	auipc	ra,0xffffe
20008af0:	7de080e7          	jalr	2014(ra) # 200072ca <_ZN6kernel5debug15begin_debug_fmt17h3453ed27838581f3E>
20008af4:	f8842503          	lw	a0,-120(s0)
20008af8:	20ab2823          	sw	a0,528(s6)
20008afc:	210b2503          	lw	a0,528(s6)
20008b00:	f121                	bnez	a0,20008a40 <_ZN6kernel5sched6Kernel11kernel_loop17hb06500f832e0af8eE+0x176>
20008b02:	f4842503          	lw	a0,-184(s0)
20008b06:	8cc9                	or	s1,s1,a0
20008b08:	00abebb3          	or	s7,s7,a0
20008b0c:	f4c42503          	lw	a0,-180(s0)
20008b10:	00a9f533          	and	a0,s3,a0
20008b14:	ee0518e3          	bnez	a0,20008a04 <_ZN6kernel5sched6Kernel11kernel_loop17hb06500f832e0af8eE+0x13a>
20008b18:	fffbc513          	not	a0,s7
20008b1c:	304025f3          	csrr	a1,mie
20008b20:	8d6d                	and	a0,a0,a1
20008b22:	8d45                	or	a0,a0,s1
20008b24:	30451073          	csrw	mie,a0
20008b28:	100029b7          	lui	s3,0x10002
20008b2c:	61c9a603          	lw	a2,1564(s3) # 1000261c <_ZN6kernel6common21dynamic_deferred_call21DYNAMIC_DEFERRED_CALL17h9a9b1043f381363dE>
20008b30:	ce35                	beqz	a2,20008bac <_ZN6kernel5sched6Kernel11kernel_loop17hb06500f832e0af8eE+0x2e2>
20008b32:	00c64503          	lbu	a0,12(a2)
20008b36:	c93d                	beqz	a0,20008bac <_ZN6kernel5sched6Kernel11kernel_loop17hb06500f832e0af8eE+0x2e2>
20008b38:	4248                	lw	a0,4(a2)
20008b3a:	ee842583          	lw	a1,-280(s0)
20008b3e:	00b57bb3          	and	s7,a0,a1
20008b42:	f4c42223          	sw	a2,-188(s0)
20008b46:	4208                	lw	a0,0(a2)
20008b48:	00850993          	addi	s3,a0,8
20008b4c:	4481                	li	s1,0
20008b4e:	029b8963          	beq	s7,s1,20008b80 <_ZN6kernel5sched6Kernel11kernel_loop17hb06500f832e0af8eE+0x2b6>
20008b52:	34402573          	csrr	a0,mip
20008b56:	f4c42583          	lw	a1,-180(s0)
20008b5a:	8d6d                	and	a0,a0,a1
20008b5c:	e115                	bnez	a0,20008b80 <_ZN6kernel5sched6Kernel11kernel_loop17hb06500f832e0af8eE+0x2b6>
20008b5e:	0009c503          	lbu	a0,0(s3)
20008b62:	c919                	beqz	a0,20008b78 <_ZN6kernel5sched6Kernel11kernel_loop17hb06500f832e0af8eE+0x2ae>
20008b64:	ff89a503          	lw	a0,-8(s3)
20008b68:	c901                	beqz	a0,20008b78 <_ZN6kernel5sched6Kernel11kernel_loop17hb06500f832e0af8eE+0x2ae>
20008b6a:	ffc9a583          	lw	a1,-4(s3)
20008b6e:	00098023          	sb	zero,0(s3)
20008b72:	45d0                	lw	a2,12(a1)
20008b74:	85a6                	mv	a1,s1
20008b76:	9602                	jalr	a2
20008b78:	0485                	addi	s1,s1,1
20008b7a:	09b1                	addi	s3,s3,12
20008b7c:	fc9b9be3          	bne	s7,s1,20008b52 <_ZN6kernel5sched6Kernel11kernel_loop17hb06500f832e0af8eE+0x288>
20008b80:	f4442703          	lw	a4,-188(s0)
20008b84:	4348                	lw	a0,4(a4)
20008b86:	45b1                	li	a1,12
20008b88:	02b50533          	mul	a0,a0,a1
20008b8c:	430c                	lw	a1,0(a4)
20008b8e:	100029b7          	lui	s3,0x10002
20008b92:	c911                	beqz	a0,20008ba6 <_ZN6kernel5sched6Kernel11kernel_loop17hb06500f832e0af8eE+0x2dc>
20008b94:	1551                	addi	a0,a0,-12
20008b96:	00c58613          	addi	a2,a1,12
20008b9a:	0085c683          	lbu	a3,8(a1)
20008b9e:	85b2                	mv	a1,a2
20008ba0:	daed                	beqz	a3,20008b92 <_ZN6kernel5sched6Kernel11kernel_loop17hb06500f832e0af8eE+0x2c8>
20008ba2:	4505                	li	a0,1
20008ba4:	a011                	j	20008ba8 <_ZN6kernel5sched6Kernel11kernel_loop17hb06500f832e0af8eE+0x2de>
20008ba6:	4501                	li	a0,0
20008ba8:	00a70623          	sb	a0,12(a4)
20008bac:	ef442503          	lw	a0,-268(s0)
20008bb0:	4150                	lw	a2,4(a0)
20008bb2:	4508                	lw	a0,8(a0)
20008bb4:	050e                	slli	a0,a0,0x3
20008bb6:	9532                	add	a0,a0,a2
20008bb8:	f4a42023          	sw	a0,-192(s0)
20008bbc:	448d                	li	s1,3
20008bbe:	4bc1                	li	s7,16
20008bc0:	f4042503          	lw	a0,-192(s0)
20008bc4:	40a60be3          	beq	a2,a0,200097da <_ZN6kernel5sched6Kernel11kernel_loop17hb06500f832e0af8eE+0xf10>
20008bc8:	424c                	lw	a1,4(a2)
20008bca:	4208                	lw	a0,0(a2)
20008bcc:	3e0503e3          	beqz	a0,200097b2 <_ZN6kernel5sched6Kernel11kernel_loop17hb06500f832e0af8eE+0xee8>
20008bd0:	f4b42a23          	sw	a1,-172(s0)
20008bd4:	f4a42823          	sw	a0,-176(s0)
20008bd8:	ef842503          	lw	a0,-264(s0)
20008bdc:	410c                	lw	a1,0(a0)
20008bde:	f0b42623          	sw	a1,-244(s0)
20008be2:	414c                	lw	a1,4(a0)
20008be4:	f0b42423          	sw	a1,-248(s0)
20008be8:	450c                	lw	a1,8(a0)
20008bea:	f0b42223          	sw	a1,-252(s0)
20008bee:	454c                	lw	a1,12(a0)
20008bf0:	f0b42023          	sw	a1,-256(s0)
20008bf4:	4908                	lw	a0,16(a0)
20008bf6:	eea42e23          	sw	a0,-260(s0)
20008bfa:	f4c42223          	sw	a2,-188(s0)
20008bfe:	34402573          	csrr	a0,mip
20008c02:	f4c42583          	lw	a1,-180(s0)
20008c06:	8d6d                	and	a0,a0,a1
20008c08:	3a0515e3          	bnez	a0,200097b2 <_ZN6kernel5sched6Kernel11kernel_loop17hb06500f832e0af8eE+0xee8>
20008c0c:	f5442503          	lw	a0,-172(s0)
20008c10:	4d4c                	lw	a1,28(a0)
20008c12:	f5042503          	lw	a0,-176(s0)
20008c16:	9582                	jalr	a1
20008c18:	f4442603          	lw	a2,-188(s0)
20008c1c:	0ff57513          	andi	a0,a0,255
20008c20:	ffe50593          	addi	a1,a0,-2
20008c24:	3895e7e3          	bltu	a1,s1,200097b2 <_ZN6kernel5sched6Kernel11kernel_loop17hb06500f832e0af8eE+0xee8>
20008c28:	c54d                	beqz	a0,20008cd2 <_ZN6kernel5sched6Kernel11kernel_loop17hb06500f832e0af8eE+0x408>
20008c2a:	01b50563          	beq	a0,s11,20008c34 <_ZN6kernel5sched6Kernel11kernel_loop17hb06500f832e0af8eE+0x36a>
20008c2e:	4599                	li	a1,6
20008c30:	3eb51de3          	bne	a0,a1,2000982a <_ZN6kernel5sched6Kernel11kernel_loop17hb06500f832e0af8eE+0xf60>
20008c34:	f5442503          	lw	a0,-172(s0)
20008c38:	4950                	lw	a2,20(a0)
20008c3a:	f5042583          	lw	a1,-176(s0)
20008c3e:	f6040513          	addi	a0,s0,-160
20008c42:	9602                	jalr	a2
20008c44:	f6042483          	lw	s1,-160(s0)
20008c48:	4509                	li	a0,2
20008c4a:	36a481e3          	beq	s1,a0,200097ac <_ZN6kernel5sched6Kernel11kernel_loop17hb06500f832e0af8eE+0xee2>
20008c4e:	f6440513          	addi	a0,s0,-156
20008c52:	85aa                	mv	a1,a0
20008c54:	4108                	lw	a0,0(a0)
20008c56:	f8a42e23          	sw	a0,-100(s0)
20008c5a:	41c8                	lw	a0,4(a1)
20008c5c:	faa42023          	sw	a0,-96(s0)
20008c60:	4588                	lw	a0,8(a1)
20008c62:	faa42223          	sw	a0,-92(s0)
20008c66:	f7044b83          	lbu	s7,-144(s0)
20008c6a:	f8840a13          	addi	s4,s0,-120
20008c6e:	8552                	mv	a0,s4
20008c70:	f7140593          	addi	a1,s0,-143
20008c74:	464d                	li	a2,19
20008c76:	00003097          	auipc	ra,0x3
20008c7a:	868080e7          	jalr	-1944(ra) # 2000b4de <memcpy>
20008c7e:	3c0498e3          	bnez	s1,2000984e <_ZN6kernel5sched6Kernel11kernel_loop17hb06500f832e0af8eE+0xf84>
20008c82:	f5042983          	lw	s3,-176(s0)
20008c86:	f5442483          	lw	s1,-172(s0)
20008c8a:	fa442503          	lw	a0,-92(s0)
20008c8e:	faa42823          	sw	a0,-80(s0)
20008c92:	fa042503          	lw	a0,-96(s0)
20008c96:	faa42623          	sw	a0,-84(s0)
20008c9a:	f9c42503          	lw	a0,-100(s0)
20008c9e:	faa42423          	sw	a0,-88(s0)
20008ca2:	fb740a23          	sb	s7,-76(s0)
20008ca6:	fb540513          	addi	a0,s0,-75
20008caa:	85d2                	mv	a1,s4
20008cac:	464d                	li	a2,19
20008cae:	00003097          	auipc	ra,0x3
20008cb2:	830080e7          	jalr	-2000(ra) # 2000b4de <memcpy>
20008cb6:	0844a603          	lw	a2,132(s1)
20008cba:	854e                	mv	a0,s3
20008cbc:	100029b7          	lui	s3,0x10002
20008cc0:	fa840593          	addi	a1,s0,-88
20008cc4:	9602                	jalr	a2
20008cc6:	448d                	li	s1,3
20008cc8:	4bc1                	li	s7,16
20008cca:	4a11                	li	s4,4
20008ccc:	f4442603          	lw	a2,-188(s0)
20008cd0:	b73d                	j	20008bfe <_ZN6kernel5sched6Kernel11kernel_loop17hb06500f832e0af8eE+0x334>
20008cd2:	f5442503          	lw	a0,-172(s0)
20008cd6:	556c                	lw	a1,108(a0)
20008cd8:	f5042503          	lw	a0,-176(s0)
20008cdc:	9582                	jalr	a1
20008cde:	f5442503          	lw	a0,-172(s0)
20008ce2:	08852603          	lw	a2,136(a0)
20008ce6:	f5042583          	lw	a1,-176(s0)
20008cea:	fa840513          	addi	a0,s0,-88
20008cee:	9602                	jalr	a2
20008cf0:	4581                	li	a1,0
20008cf2:	51758e63          	beq	a1,s7,2000920e <_ZN6kernel5sched6Kernel11kernel_loop17hb06500f832e0af8eE+0x944>
20008cf6:	00158513          	addi	a0,a1,1
20008cfa:	463d                	li	a2,15
20008cfc:	26c58163          	beq	a1,a2,20008f5e <_ZN6kernel5sched6Kernel11kernel_loop17hb06500f832e0af8eE+0x694>
20008d00:	2bb58863          	beq	a1,s11,20008fb0 <_ZN6kernel5sched6Kernel11kernel_loop17hb06500f832e0af8eE+0x6e6>
20008d04:	4609                	li	a2,2
20008d06:	4ac58c63          	beq	a1,a2,200091be <_ZN6kernel5sched6Kernel11kernel_loop17hb06500f832e0af8eE+0x8f4>
20008d0a:	46958163          	beq	a1,s1,2000916c <_ZN6kernel5sched6Kernel11kernel_loop17hb06500f832e0af8eE+0x8a2>
20008d0e:	0d458763          	beq	a1,s4,20008ddc <_ZN6kernel5sched6Kernel11kernel_loop17hb06500f832e0af8eE+0x512>
20008d12:	4615                	li	a2,5
20008d14:	2ec58463          	beq	a1,a2,20008ffc <_ZN6kernel5sched6Kernel11kernel_loop17hb06500f832e0af8eE+0x732>
20008d18:	4619                	li	a2,6
20008d1a:	10c58163          	beq	a1,a2,20008e1c <_ZN6kernel5sched6Kernel11kernel_loop17hb06500f832e0af8eE+0x552>
20008d1e:	461d                	li	a2,7
20008d20:	3ac58d63          	beq	a1,a2,200090da <_ZN6kernel5sched6Kernel11kernel_loop17hb06500f832e0af8eE+0x810>
20008d24:	41258463          	beq	a1,s2,2000912c <_ZN6kernel5sched6Kernel11kernel_loop17hb06500f832e0af8eE+0x862>
20008d28:	4625                	li	a2,9
20008d2a:	06c58363          	beq	a1,a2,20008d90 <_ZN6kernel5sched6Kernel11kernel_loop17hb06500f832e0af8eE+0x4c6>
20008d2e:	4629                	li	a2,10
20008d30:	30c58c63          	beq	a1,a2,20009048 <_ZN6kernel5sched6Kernel11kernel_loop17hb06500f832e0af8eE+0x77e>
20008d34:	462d                	li	a2,11
20008d36:	18c58563          	beq	a1,a2,20008ec0 <_ZN6kernel5sched6Kernel11kernel_loop17hb06500f832e0af8eE+0x5f6>
20008d3a:	4631                	li	a2,12
20008d3c:	34c58f63          	beq	a1,a2,2000909a <_ZN6kernel5sched6Kernel11kernel_loop17hb06500f832e0af8eE+0x7d0>
20008d40:	4635                	li	a2,13
20008d42:	1cc58863          	beq	a1,a2,20008f12 <_ZN6kernel5sched6Kernel11kernel_loop17hb06500f832e0af8eE+0x648>
20008d46:	4639                	li	a2,14
20008d48:	12c58363          	beq	a1,a2,20008e6e <_ZN6kernel5sched6Kernel11kernel_loop17hb06500f832e0af8eE+0x5a4>
20008d4c:	4c059163          	bnez	a1,2000920e <_ZN6kernel5sched6Kernel11kernel_loop17hb06500f832e0af8eE+0x944>
20008d50:	3a0025f3          	csrr	a1,pmpcfg0
20008d54:	99f9                	andi	a1,a1,-2
20008d56:	3a059073          	csrw	pmpcfg0,a1
20008d5a:	3a0025f3          	csrr	a1,pmpcfg0
20008d5e:	99f5                	andi	a1,a1,-3
20008d60:	3a059073          	csrw	pmpcfg0,a1
20008d64:	3a0025f3          	csrr	a1,pmpcfg0
20008d68:	99ed                	andi	a1,a1,-5
20008d6a:	3a059073          	csrw	pmpcfg0,a1
20008d6e:	3a0025f3          	csrr	a1,pmpcfg0
20008d72:	999d                	andi	a1,a1,-25
20008d74:	3a059073          	csrw	pmpcfg0,a1
20008d78:	3a0025f3          	csrr	a1,pmpcfg0
20008d7c:	f7f5f593          	andi	a1,a1,-129
20008d80:	3a059073          	csrw	pmpcfg0,a1
20008d84:	3b001073          	csrw	pmpaddr0,zero
20008d88:	85aa                	mv	a1,a0
20008d8a:	f77596e3          	bne	a1,s7,20008cf6 <_ZN6kernel5sched6Kernel11kernel_loop17hb06500f832e0af8eE+0x42c>
20008d8e:	a141                	j	2000920e <_ZN6kernel5sched6Kernel11kernel_loop17hb06500f832e0af8eE+0x944>
20008d90:	3a2025f3          	csrr	a1,pmpcfg2
20008d94:	eff5f593          	andi	a1,a1,-257
20008d98:	3a259073          	csrw	pmpcfg2,a1
20008d9c:	3a2025f3          	csrr	a1,pmpcfg2
20008da0:	dff5f593          	andi	a1,a1,-513
20008da4:	3a259073          	csrw	pmpcfg2,a1
20008da8:	3a2025f3          	csrr	a1,pmpcfg2
20008dac:	bff5f593          	andi	a1,a1,-1025
20008db0:	3a259073          	csrw	pmpcfg2,a1
20008db4:	3a2025f3          	csrr	a1,pmpcfg2
20008db8:	f1042603          	lw	a2,-240(s0)
20008dbc:	8df1                	and	a1,a1,a2
20008dbe:	3a259073          	csrw	pmpcfg2,a1
20008dc2:	3a2025f3          	csrr	a1,pmpcfg2
20008dc6:	f1442603          	lw	a2,-236(s0)
20008dca:	8df1                	and	a1,a1,a2
20008dcc:	3a259073          	csrw	pmpcfg2,a1
20008dd0:	3b901073          	csrw	pmpaddr9,zero
20008dd4:	85aa                	mv	a1,a0
20008dd6:	f37590e3          	bne	a1,s7,20008cf6 <_ZN6kernel5sched6Kernel11kernel_loop17hb06500f832e0af8eE+0x42c>
20008dda:	a915                	j	2000920e <_ZN6kernel5sched6Kernel11kernel_loop17hb06500f832e0af8eE+0x944>
20008ddc:	3a1025f3          	csrr	a1,pmpcfg1
20008de0:	99f9                	andi	a1,a1,-2
20008de2:	3a159073          	csrw	pmpcfg1,a1
20008de6:	3a1025f3          	csrr	a1,pmpcfg1
20008dea:	99f5                	andi	a1,a1,-3
20008dec:	3a159073          	csrw	pmpcfg1,a1
20008df0:	3a1025f3          	csrr	a1,pmpcfg1
20008df4:	99ed                	andi	a1,a1,-5
20008df6:	3a159073          	csrw	pmpcfg1,a1
20008dfa:	3a1025f3          	csrr	a1,pmpcfg1
20008dfe:	999d                	andi	a1,a1,-25
20008e00:	3a159073          	csrw	pmpcfg1,a1
20008e04:	3a1025f3          	csrr	a1,pmpcfg1
20008e08:	f7f5f593          	andi	a1,a1,-129
20008e0c:	3a159073          	csrw	pmpcfg1,a1
20008e10:	3b401073          	csrw	pmpaddr4,zero
20008e14:	85aa                	mv	a1,a0
20008e16:	ef7590e3          	bne	a1,s7,20008cf6 <_ZN6kernel5sched6Kernel11kernel_loop17hb06500f832e0af8eE+0x42c>
20008e1a:	aed5                	j	2000920e <_ZN6kernel5sched6Kernel11kernel_loop17hb06500f832e0af8eE+0x944>
20008e1c:	3a1025f3          	csrr	a1,pmpcfg1
20008e20:	f1842603          	lw	a2,-232(s0)
20008e24:	8df1                	and	a1,a1,a2
20008e26:	3a159073          	csrw	pmpcfg1,a1
20008e2a:	3a1025f3          	csrr	a1,pmpcfg1
20008e2e:	f1c42603          	lw	a2,-228(s0)
20008e32:	8df1                	and	a1,a1,a2
20008e34:	3a159073          	csrw	pmpcfg1,a1
20008e38:	3a1025f3          	csrr	a1,pmpcfg1
20008e3c:	f2042603          	lw	a2,-224(s0)
20008e40:	8df1                	and	a1,a1,a2
20008e42:	3a159073          	csrw	pmpcfg1,a1
20008e46:	3a1025f3          	csrr	a1,pmpcfg1
20008e4a:	f2442603          	lw	a2,-220(s0)
20008e4e:	8df1                	and	a1,a1,a2
20008e50:	3a159073          	csrw	pmpcfg1,a1
20008e54:	3a1025f3          	csrr	a1,pmpcfg1
20008e58:	f2842603          	lw	a2,-216(s0)
20008e5c:	8df1                	and	a1,a1,a2
20008e5e:	3a159073          	csrw	pmpcfg1,a1
20008e62:	3b601073          	csrw	pmpaddr6,zero
20008e66:	85aa                	mv	a1,a0
20008e68:	e97597e3          	bne	a1,s7,20008cf6 <_ZN6kernel5sched6Kernel11kernel_loop17hb06500f832e0af8eE+0x42c>
20008e6c:	a64d                	j	2000920e <_ZN6kernel5sched6Kernel11kernel_loop17hb06500f832e0af8eE+0x944>
20008e6e:	3a3025f3          	csrr	a1,pmpcfg3
20008e72:	f1842603          	lw	a2,-232(s0)
20008e76:	8df1                	and	a1,a1,a2
20008e78:	3a359073          	csrw	pmpcfg3,a1
20008e7c:	3a3025f3          	csrr	a1,pmpcfg3
20008e80:	f1c42603          	lw	a2,-228(s0)
20008e84:	8df1                	and	a1,a1,a2
20008e86:	3a359073          	csrw	pmpcfg3,a1
20008e8a:	3a3025f3          	csrr	a1,pmpcfg3
20008e8e:	f2042603          	lw	a2,-224(s0)
20008e92:	8df1                	and	a1,a1,a2
20008e94:	3a359073          	csrw	pmpcfg3,a1
20008e98:	3a3025f3          	csrr	a1,pmpcfg3
20008e9c:	f2442603          	lw	a2,-220(s0)
20008ea0:	8df1                	and	a1,a1,a2
20008ea2:	3a359073          	csrw	pmpcfg3,a1
20008ea6:	3a3025f3          	csrr	a1,pmpcfg3
20008eaa:	f2842603          	lw	a2,-216(s0)
20008eae:	8df1                	and	a1,a1,a2
20008eb0:	3a359073          	csrw	pmpcfg3,a1
20008eb4:	3be01073          	csrw	pmpaddr14,zero
20008eb8:	85aa                	mv	a1,a0
20008eba:	e3759ee3          	bne	a1,s7,20008cf6 <_ZN6kernel5sched6Kernel11kernel_loop17hb06500f832e0af8eE+0x42c>
20008ebe:	ae81                	j	2000920e <_ZN6kernel5sched6Kernel11kernel_loop17hb06500f832e0af8eE+0x944>
20008ec0:	3a2025f3          	csrr	a1,pmpcfg2
20008ec4:	f2c42603          	lw	a2,-212(s0)
20008ec8:	8df1                	and	a1,a1,a2
20008eca:	3a259073          	csrw	pmpcfg2,a1
20008ece:	3a2025f3          	csrr	a1,pmpcfg2
20008ed2:	f3042603          	lw	a2,-208(s0)
20008ed6:	8df1                	and	a1,a1,a2
20008ed8:	3a259073          	csrw	pmpcfg2,a1
20008edc:	3a2025f3          	csrr	a1,pmpcfg2
20008ee0:	f3442603          	lw	a2,-204(s0)
20008ee4:	8df1                	and	a1,a1,a2
20008ee6:	3a259073          	csrw	pmpcfg2,a1
20008eea:	3a2025f3          	csrr	a1,pmpcfg2
20008eee:	f3842603          	lw	a2,-200(s0)
20008ef2:	8df1                	and	a1,a1,a2
20008ef4:	3a259073          	csrw	pmpcfg2,a1
20008ef8:	3a2025f3          	csrr	a1,pmpcfg2
20008efc:	f3c42603          	lw	a2,-196(s0)
20008f00:	8df1                	and	a1,a1,a2
20008f02:	3a259073          	csrw	pmpcfg2,a1
20008f06:	3bb01073          	csrw	pmpaddr11,zero
20008f0a:	85aa                	mv	a1,a0
20008f0c:	df7595e3          	bne	a1,s7,20008cf6 <_ZN6kernel5sched6Kernel11kernel_loop17hb06500f832e0af8eE+0x42c>
20008f10:	acfd                	j	2000920e <_ZN6kernel5sched6Kernel11kernel_loop17hb06500f832e0af8eE+0x944>
20008f12:	3a3025f3          	csrr	a1,pmpcfg3
20008f16:	eff5f593          	andi	a1,a1,-257
20008f1a:	3a359073          	csrw	pmpcfg3,a1
20008f1e:	3a3025f3          	csrr	a1,pmpcfg3
20008f22:	dff5f593          	andi	a1,a1,-513
20008f26:	3a359073          	csrw	pmpcfg3,a1
20008f2a:	3a3025f3          	csrr	a1,pmpcfg3
20008f2e:	bff5f593          	andi	a1,a1,-1025
20008f32:	3a359073          	csrw	pmpcfg3,a1
20008f36:	3a3025f3          	csrr	a1,pmpcfg3
20008f3a:	f1042603          	lw	a2,-240(s0)
20008f3e:	8df1                	and	a1,a1,a2
20008f40:	3a359073          	csrw	pmpcfg3,a1
20008f44:	3a3025f3          	csrr	a1,pmpcfg3
20008f48:	f1442603          	lw	a2,-236(s0)
20008f4c:	8df1                	and	a1,a1,a2
20008f4e:	3a359073          	csrw	pmpcfg3,a1
20008f52:	3bd01073          	csrw	pmpaddr13,zero
20008f56:	85aa                	mv	a1,a0
20008f58:	d9759fe3          	bne	a1,s7,20008cf6 <_ZN6kernel5sched6Kernel11kernel_loop17hb06500f832e0af8eE+0x42c>
20008f5c:	ac4d                	j	2000920e <_ZN6kernel5sched6Kernel11kernel_loop17hb06500f832e0af8eE+0x944>
20008f5e:	3a3025f3          	csrr	a1,pmpcfg3
20008f62:	f2c42603          	lw	a2,-212(s0)
20008f66:	8df1                	and	a1,a1,a2
20008f68:	3a359073          	csrw	pmpcfg3,a1
20008f6c:	3a3025f3          	csrr	a1,pmpcfg3
20008f70:	f3042603          	lw	a2,-208(s0)
20008f74:	8df1                	and	a1,a1,a2
20008f76:	3a359073          	csrw	pmpcfg3,a1
20008f7a:	3a3025f3          	csrr	a1,pmpcfg3
20008f7e:	f3442603          	lw	a2,-204(s0)
20008f82:	8df1                	and	a1,a1,a2
20008f84:	3a359073          	csrw	pmpcfg3,a1
20008f88:	3a3025f3          	csrr	a1,pmpcfg3
20008f8c:	f3842603          	lw	a2,-200(s0)
20008f90:	8df1                	and	a1,a1,a2
20008f92:	3a359073          	csrw	pmpcfg3,a1
20008f96:	3a3025f3          	csrr	a1,pmpcfg3
20008f9a:	f3c42603          	lw	a2,-196(s0)
20008f9e:	8df1                	and	a1,a1,a2
20008fa0:	3a359073          	csrw	pmpcfg3,a1
20008fa4:	3bf01073          	csrw	pmpaddr15,zero
20008fa8:	85aa                	mv	a1,a0
20008faa:	d57596e3          	bne	a1,s7,20008cf6 <_ZN6kernel5sched6Kernel11kernel_loop17hb06500f832e0af8eE+0x42c>
20008fae:	a485                	j	2000920e <_ZN6kernel5sched6Kernel11kernel_loop17hb06500f832e0af8eE+0x944>
20008fb0:	3a0025f3          	csrr	a1,pmpcfg0
20008fb4:	eff5f593          	andi	a1,a1,-257
20008fb8:	3a059073          	csrw	pmpcfg0,a1
20008fbc:	3a0025f3          	csrr	a1,pmpcfg0
20008fc0:	dff5f593          	andi	a1,a1,-513
20008fc4:	3a059073          	csrw	pmpcfg0,a1
20008fc8:	3a0025f3          	csrr	a1,pmpcfg0
20008fcc:	bff5f593          	andi	a1,a1,-1025
20008fd0:	3a059073          	csrw	pmpcfg0,a1
20008fd4:	3a0025f3          	csrr	a1,pmpcfg0
20008fd8:	f1042603          	lw	a2,-240(s0)
20008fdc:	8df1                	and	a1,a1,a2
20008fde:	3a059073          	csrw	pmpcfg0,a1
20008fe2:	3a0025f3          	csrr	a1,pmpcfg0
20008fe6:	f1442603          	lw	a2,-236(s0)
20008fea:	8df1                	and	a1,a1,a2
20008fec:	3a059073          	csrw	pmpcfg0,a1
20008ff0:	3b101073          	csrw	pmpaddr1,zero
20008ff4:	85aa                	mv	a1,a0
20008ff6:	d17590e3          	bne	a1,s7,20008cf6 <_ZN6kernel5sched6Kernel11kernel_loop17hb06500f832e0af8eE+0x42c>
20008ffa:	ac11                	j	2000920e <_ZN6kernel5sched6Kernel11kernel_loop17hb06500f832e0af8eE+0x944>
20008ffc:	3a1025f3          	csrr	a1,pmpcfg1
20009000:	eff5f593          	andi	a1,a1,-257
20009004:	3a159073          	csrw	pmpcfg1,a1
20009008:	3a1025f3          	csrr	a1,pmpcfg1
2000900c:	dff5f593          	andi	a1,a1,-513
20009010:	3a159073          	csrw	pmpcfg1,a1
20009014:	3a1025f3          	csrr	a1,pmpcfg1
20009018:	bff5f593          	andi	a1,a1,-1025
2000901c:	3a159073          	csrw	pmpcfg1,a1
20009020:	3a1025f3          	csrr	a1,pmpcfg1
20009024:	f1042603          	lw	a2,-240(s0)
20009028:	8df1                	and	a1,a1,a2
2000902a:	3a159073          	csrw	pmpcfg1,a1
2000902e:	3a1025f3          	csrr	a1,pmpcfg1
20009032:	f1442603          	lw	a2,-236(s0)
20009036:	8df1                	and	a1,a1,a2
20009038:	3a159073          	csrw	pmpcfg1,a1
2000903c:	3b501073          	csrw	pmpaddr5,zero
20009040:	85aa                	mv	a1,a0
20009042:	cb759ae3          	bne	a1,s7,20008cf6 <_ZN6kernel5sched6Kernel11kernel_loop17hb06500f832e0af8eE+0x42c>
20009046:	a2e1                	j	2000920e <_ZN6kernel5sched6Kernel11kernel_loop17hb06500f832e0af8eE+0x944>
20009048:	3a2025f3          	csrr	a1,pmpcfg2
2000904c:	f1842603          	lw	a2,-232(s0)
20009050:	8df1                	and	a1,a1,a2
20009052:	3a259073          	csrw	pmpcfg2,a1
20009056:	3a2025f3          	csrr	a1,pmpcfg2
2000905a:	f1c42603          	lw	a2,-228(s0)
2000905e:	8df1                	and	a1,a1,a2
20009060:	3a259073          	csrw	pmpcfg2,a1
20009064:	3a2025f3          	csrr	a1,pmpcfg2
20009068:	f2042603          	lw	a2,-224(s0)
2000906c:	8df1                	and	a1,a1,a2
2000906e:	3a259073          	csrw	pmpcfg2,a1
20009072:	3a2025f3          	csrr	a1,pmpcfg2
20009076:	f2442603          	lw	a2,-220(s0)
2000907a:	8df1                	and	a1,a1,a2
2000907c:	3a259073          	csrw	pmpcfg2,a1
20009080:	3a2025f3          	csrr	a1,pmpcfg2
20009084:	f2842603          	lw	a2,-216(s0)
20009088:	8df1                	and	a1,a1,a2
2000908a:	3a259073          	csrw	pmpcfg2,a1
2000908e:	3ba01073          	csrw	pmpaddr10,zero
20009092:	85aa                	mv	a1,a0
20009094:	c77591e3          	bne	a1,s7,20008cf6 <_ZN6kernel5sched6Kernel11kernel_loop17hb06500f832e0af8eE+0x42c>
20009098:	aa9d                	j	2000920e <_ZN6kernel5sched6Kernel11kernel_loop17hb06500f832e0af8eE+0x944>
2000909a:	3a3025f3          	csrr	a1,pmpcfg3
2000909e:	99f9                	andi	a1,a1,-2
200090a0:	3a359073          	csrw	pmpcfg3,a1
200090a4:	3a3025f3          	csrr	a1,pmpcfg3
200090a8:	99f5                	andi	a1,a1,-3
200090aa:	3a359073          	csrw	pmpcfg3,a1
200090ae:	3a3025f3          	csrr	a1,pmpcfg3
200090b2:	99ed                	andi	a1,a1,-5
200090b4:	3a359073          	csrw	pmpcfg3,a1
200090b8:	3a3025f3          	csrr	a1,pmpcfg3
200090bc:	999d                	andi	a1,a1,-25
200090be:	3a359073          	csrw	pmpcfg3,a1
200090c2:	3a3025f3          	csrr	a1,pmpcfg3
200090c6:	f7f5f593          	andi	a1,a1,-129
200090ca:	3a359073          	csrw	pmpcfg3,a1
200090ce:	3bc01073          	csrw	pmpaddr12,zero
200090d2:	85aa                	mv	a1,a0
200090d4:	c37591e3          	bne	a1,s7,20008cf6 <_ZN6kernel5sched6Kernel11kernel_loop17hb06500f832e0af8eE+0x42c>
200090d8:	aa1d                	j	2000920e <_ZN6kernel5sched6Kernel11kernel_loop17hb06500f832e0af8eE+0x944>
200090da:	3a1025f3          	csrr	a1,pmpcfg1
200090de:	f2c42603          	lw	a2,-212(s0)
200090e2:	8df1                	and	a1,a1,a2
200090e4:	3a159073          	csrw	pmpcfg1,a1
200090e8:	3a1025f3          	csrr	a1,pmpcfg1
200090ec:	f3042603          	lw	a2,-208(s0)
200090f0:	8df1                	and	a1,a1,a2
200090f2:	3a159073          	csrw	pmpcfg1,a1
200090f6:	3a1025f3          	csrr	a1,pmpcfg1
200090fa:	f3442603          	lw	a2,-204(s0)
200090fe:	8df1                	and	a1,a1,a2
20009100:	3a159073          	csrw	pmpcfg1,a1
20009104:	3a1025f3          	csrr	a1,pmpcfg1
20009108:	f3842603          	lw	a2,-200(s0)
2000910c:	8df1                	and	a1,a1,a2
2000910e:	3a159073          	csrw	pmpcfg1,a1
20009112:	3a1025f3          	csrr	a1,pmpcfg1
20009116:	f3c42603          	lw	a2,-196(s0)
2000911a:	8df1                	and	a1,a1,a2
2000911c:	3a159073          	csrw	pmpcfg1,a1
20009120:	3b701073          	csrw	pmpaddr7,zero
20009124:	85aa                	mv	a1,a0
20009126:	bd7598e3          	bne	a1,s7,20008cf6 <_ZN6kernel5sched6Kernel11kernel_loop17hb06500f832e0af8eE+0x42c>
2000912a:	a0d5                	j	2000920e <_ZN6kernel5sched6Kernel11kernel_loop17hb06500f832e0af8eE+0x944>
2000912c:	3a2025f3          	csrr	a1,pmpcfg2
20009130:	99f9                	andi	a1,a1,-2
20009132:	3a259073          	csrw	pmpcfg2,a1
20009136:	3a2025f3          	csrr	a1,pmpcfg2
2000913a:	99f5                	andi	a1,a1,-3
2000913c:	3a259073          	csrw	pmpcfg2,a1
20009140:	3a2025f3          	csrr	a1,pmpcfg2
20009144:	99ed                	andi	a1,a1,-5
20009146:	3a259073          	csrw	pmpcfg2,a1
2000914a:	3a2025f3          	csrr	a1,pmpcfg2
2000914e:	999d                	andi	a1,a1,-25
20009150:	3a259073          	csrw	pmpcfg2,a1
20009154:	3a2025f3          	csrr	a1,pmpcfg2
20009158:	f7f5f593          	andi	a1,a1,-129
2000915c:	3a259073          	csrw	pmpcfg2,a1
20009160:	3b801073          	csrw	pmpaddr8,zero
20009164:	85aa                	mv	a1,a0
20009166:	b97598e3          	bne	a1,s7,20008cf6 <_ZN6kernel5sched6Kernel11kernel_loop17hb06500f832e0af8eE+0x42c>
2000916a:	a055                	j	2000920e <_ZN6kernel5sched6Kernel11kernel_loop17hb06500f832e0af8eE+0x944>
2000916c:	3a0025f3          	csrr	a1,pmpcfg0
20009170:	f2c42603          	lw	a2,-212(s0)
20009174:	8df1                	and	a1,a1,a2
20009176:	3a059073          	csrw	pmpcfg0,a1
2000917a:	3a0025f3          	csrr	a1,pmpcfg0
2000917e:	f3042603          	lw	a2,-208(s0)
20009182:	8df1                	and	a1,a1,a2
20009184:	3a059073          	csrw	pmpcfg0,a1
20009188:	3a0025f3          	csrr	a1,pmpcfg0
2000918c:	f3442603          	lw	a2,-204(s0)
20009190:	8df1                	and	a1,a1,a2
20009192:	3a059073          	csrw	pmpcfg0,a1
20009196:	3a0025f3          	csrr	a1,pmpcfg0
2000919a:	f3842603          	lw	a2,-200(s0)
2000919e:	8df1                	and	a1,a1,a2
200091a0:	3a059073          	csrw	pmpcfg0,a1
200091a4:	3a0025f3          	csrr	a1,pmpcfg0
200091a8:	f3c42603          	lw	a2,-196(s0)
200091ac:	8df1                	and	a1,a1,a2
200091ae:	3a059073          	csrw	pmpcfg0,a1
200091b2:	3b301073          	csrw	pmpaddr3,zero
200091b6:	85aa                	mv	a1,a0
200091b8:	b3759fe3          	bne	a1,s7,20008cf6 <_ZN6kernel5sched6Kernel11kernel_loop17hb06500f832e0af8eE+0x42c>
200091bc:	a889                	j	2000920e <_ZN6kernel5sched6Kernel11kernel_loop17hb06500f832e0af8eE+0x944>
200091be:	3a0025f3          	csrr	a1,pmpcfg0
200091c2:	f1842603          	lw	a2,-232(s0)
200091c6:	8df1                	and	a1,a1,a2
200091c8:	3a059073          	csrw	pmpcfg0,a1
200091cc:	3a0025f3          	csrr	a1,pmpcfg0
200091d0:	f1c42603          	lw	a2,-228(s0)
200091d4:	8df1                	and	a1,a1,a2
200091d6:	3a059073          	csrw	pmpcfg0,a1
200091da:	3a0025f3          	csrr	a1,pmpcfg0
200091de:	f2042603          	lw	a2,-224(s0)
200091e2:	8df1                	and	a1,a1,a2
200091e4:	3a059073          	csrw	pmpcfg0,a1
200091e8:	3a0025f3          	csrr	a1,pmpcfg0
200091ec:	f2442603          	lw	a2,-220(s0)
200091f0:	8df1                	and	a1,a1,a2
200091f2:	3a059073          	csrw	pmpcfg0,a1
200091f6:	3a0025f3          	csrr	a1,pmpcfg0
200091fa:	f2842603          	lw	a2,-216(s0)
200091fe:	8df1                	and	a1,a1,a2
20009200:	3a059073          	csrw	pmpcfg0,a1
20009204:	3b201073          	csrw	pmpaddr2,zero
20009208:	85aa                	mv	a1,a0
2000920a:	af7596e3          	bne	a1,s7,20008cf6 <_ZN6kernel5sched6Kernel11kernel_loop17hb06500f832e0af8eE+0x42c>
2000920e:	557d                	li	a0,-1
20009210:	3b051073          	csrw	pmpaddr0,a0
20009214:	3a002573          	csrr	a0,pmpcfg0
20009218:	00156513          	ori	a0,a0,1
2000921c:	3a051073          	csrw	pmpcfg0,a0
20009220:	3a002573          	csrr	a0,pmpcfg0
20009224:	00256513          	ori	a0,a0,2
20009228:	3a051073          	csrw	pmpcfg0,a0
2000922c:	3a002573          	csrr	a0,pmpcfg0
20009230:	00456513          	ori	a0,a0,4
20009234:	3a051073          	csrw	pmpcfg0,a0
20009238:	3a002573          	csrr	a0,pmpcfg0
2000923c:	991d                	andi	a0,a0,-25
2000923e:	00856513          	ori	a0,a0,8
20009242:	3a051073          	csrw	pmpcfg0,a0
20009246:	fa842b83          	lw	s7,-88(s0)
2000924a:	012b9c63          	bne	s7,s2,20009262 <_ZN6kernel5sched6Kernel11kernel_loop17hb06500f832e0af8eE+0x998>
2000924e:	f5442503          	lw	a0,-172(s0)
20009252:	554c                	lw	a1,44(a0)
20009254:	f5042503          	lw	a0,-176(s0)
20009258:	9582                	jalr	a1
2000925a:	4bc1                	li	s7,16
2000925c:	f4442603          	lw	a2,-188(s0)
20009260:	ba79                	j	20008bfe <_ZN6kernel5sched6Kernel11kernel_loop17hb06500f832e0af8eE+0x334>
20009262:	ffbb8513          	addi	a0,s7,-5
20009266:	00956463          	bltu	a0,s1,2000926e <_ZN6kernel5sched6Kernel11kernel_loop17hb06500f832e0af8eE+0x9a4>
2000926a:	4501                	li	a0,0
2000926c:	a019                	j	20009272 <_ZN6kernel5sched6Kernel11kernel_loop17hb06500f832e0af8eE+0x9a8>
2000926e:	ffcb8513          	addi	a0,s7,-4
20009272:	ffe50593          	addi	a1,a0,-2
20009276:	4609                	li	a2,2
20009278:	52c5e863          	bltu	a1,a2,200097a8 <_ZN6kernel5sched6Kernel11kernel_loop17hb06500f832e0af8eE+0xede>
2000927c:	f969                	bnez	a0,2000924e <_ZN6kernel5sched6Kernel11kernel_loop17hb06500f832e0af8eE+0x984>
2000927e:	f5042503          	lw	a0,-176(s0)
20009282:	f5442583          	lw	a1,-172(s0)
20009286:	fac42603          	lw	a2,-84(s0)
2000928a:	fb042683          	lw	a3,-80(s0)
2000928e:	fb442483          	lw	s1,-76(s0)
20009292:	fb842983          	lw	s3,-72(s0)
20009296:	f7342823          	sw	s3,-144(s0)
2000929a:	f6942623          	sw	s1,-148(s0)
2000929e:	eed42623          	sw	a3,-276(s0)
200092a2:	f6d42423          	sw	a3,-152(s0)
200092a6:	eec42823          	sw	a2,-272(s0)
200092aa:	f6c42223          	sw	a2,-156(s0)
200092ae:	f7742023          	sw	s7,-160(s0)
200092b2:	0a45a603          	lw	a2,164(a1)
200092b6:	f6040593          	addi	a1,s0,-160
200092ba:	9602                	jalr	a2
200092bc:	160b8c63          	beqz	s7,20009434 <_ZN6kernel5sched6Kernel11kernel_loop17hb06500f832e0af8eE+0xb6a>
200092c0:	07bb8763          	beq	s7,s11,2000932e <_ZN6kernel5sched6Kernel11kernel_loop17hb06500f832e0af8eE+0xa64>
200092c4:	4509                	li	a0,2
200092c6:	18ab8163          	beq	s7,a0,20009448 <_ZN6kernel5sched6Kernel11kernel_loop17hb06500f832e0af8eE+0xb7e>
200092ca:	0f4b8f63          	beq	s7,s4,200093c8 <_ZN6kernel5sched6Kernel11kernel_loop17hb06500f832e0af8eE+0xafe>
200092ce:	ef042683          	lw	a3,-272(s0)
200092d2:	eec42503          	lw	a0,-276(s0)
200092d6:	f4a42e23          	sw	a0,-164(s0)
200092da:	f8942e23          	sw	s1,-100(s0)
200092de:	f9342423          	sw	s3,-120(s0)
200092e2:	4bc1                	li	s7,16
200092e4:	f8840513          	addi	a0,s0,-120
200092e8:	1e068863          	beqz	a3,200094d8 <_ZN6kernel5sched6Kernel11kernel_loop17hb06500f832e0af8eE+0xc0e>
200092ec:	21b68b63          	beq	a3,s11,20009502 <_ZN6kernel5sched6Kernel11kernel_loop17hb06500f832e0af8eE+0xc38>
200092f0:	23268e63          	beq	a3,s2,2000952c <_ZN6kernel5sched6Kernel11kernel_loop17hb06500f832e0af8eE+0xc62>
200092f4:	27468163          	beq	a3,s4,20009556 <_ZN6kernel5sched6Kernel11kernel_loop17hb06500f832e0af8eE+0xc8c>
200092f8:	4531                	li	a0,12
200092fa:	4609                	li	a2,2
200092fc:	46c69f63          	bne	a3,a2,2000977a <_ZN6kernel5sched6Kernel11kernel_loop17hb06500f832e0af8eE+0xeb0>
20009300:	f5c40513          	addi	a0,s0,-164
20009304:	f6a42623          	sw	a0,-148(s0)
20009308:	f8840513          	addi	a0,s0,-120
2000930c:	f6a42423          	sw	a0,-152(s0)
20009310:	f9c40513          	addi	a0,s0,-100
20009314:	f6a42223          	sw	a0,-156(s0)
20009318:	f5040513          	addi	a0,s0,-176
2000931c:	f6a42023          	sw	a0,-160(s0)
20009320:	f6040513          	addi	a0,s0,-160
20009324:	f0c42583          	lw	a1,-244(s0)
20009328:	ed442603          	lw	a2,-300(s0)
2000932c:	ac89                	j	2000957e <_ZN6kernel5sched6Kernel11kernel_loop17hb06500f832e0af8eE+0xcb4>
2000932e:	eec42b83          	lw	s7,-276(s0)
20009332:	f9742e23          	sw	s7,-100(s0)
20009336:	f5442503          	lw	a0,-172(s0)
2000933a:	4d14                	lw	a3,24(a0)
2000933c:	f5042503          	lw	a0,-176(s0)
20009340:	ef042583          	lw	a1,-272(s0)
20009344:	865e                	mv	a2,s7
20009346:	9682                	jalr	a3
20009348:	14048e63          	beqz	s1,200094a4 <_ZN6kernel5sched6Kernel11kernel_loop17hb06500f832e0af8eE+0xbda>
2000934c:	f5442503          	lw	a0,-172(s0)
20009350:	4550                	lw	a2,12(a0)
20009352:	f5042583          	lw	a1,-176(s0)
20009356:	f8840513          	addi	a0,s0,-120
2000935a:	9602                	jalr	a2
2000935c:	f6942c23          	sw	s1,-136(s0)
20009360:	f7342a23          	sw	s3,-140(s0)
20009364:	f7742823          	sw	s7,-144(s0)
20009368:	ef042683          	lw	a3,-272(s0)
2000936c:	f6d42623          	sw	a3,-148(s0)
20009370:	f9042503          	lw	a0,-112(s0)
20009374:	f6a42423          	sw	a0,-152(s0)
20009378:	f8c42503          	lw	a0,-116(s0)
2000937c:	f6a42223          	sw	a0,-156(s0)
20009380:	f8842503          	lw	a0,-120(s0)
20009384:	f6a42023          	sw	a0,-160(s0)
20009388:	4bc1                	li	s7,16
2000938a:	12068463          	beqz	a3,200094b2 <_ZN6kernel5sched6Kernel11kernel_loop17hb06500f832e0af8eE+0xbe8>
2000938e:	1fb68d63          	beq	a3,s11,20009588 <_ZN6kernel5sched6Kernel11kernel_loop17hb06500f832e0af8eE+0xcbe>
20009392:	21268e63          	beq	a3,s2,200095ae <_ZN6kernel5sched6Kernel11kernel_loop17hb06500f832e0af8eE+0xce4>
20009396:	23468f63          	beq	a3,s4,200095d4 <_ZN6kernel5sched6Kernel11kernel_loop17hb06500f832e0af8eE+0xd0a>
2000939a:	4531                	li	a0,12
2000939c:	4609                	li	a2,2
2000939e:	3cc69e63          	bne	a3,a2,2000977a <_ZN6kernel5sched6Kernel11kernel_loop17hb06500f832e0af8eE+0xeb0>
200093a2:	f5040513          	addi	a0,s0,-176
200093a6:	f8a42823          	sw	a0,-112(s0)
200093aa:	f6040513          	addi	a0,s0,-160
200093ae:	f8a42623          	sw	a0,-116(s0)
200093b2:	f9c40513          	addi	a0,s0,-100
200093b6:	f8a42423          	sw	a0,-120(s0)
200093ba:	f8840513          	addi	a0,s0,-120
200093be:	f0c42583          	lw	a1,-244(s0)
200093c2:	ed442603          	lw	a2,-300(s0)
200093c6:	ac0d                	j	200095f8 <_ZN6kernel5sched6Kernel11kernel_loop17hb06500f832e0af8eE+0xd2e>
200093c8:	f5442983          	lw	s3,-172(s0)
200093cc:	f5042483          	lw	s1,-176(s0)
200093d0:	452d                	li	a0,11
200093d2:	ef042603          	lw	a2,-272(s0)
200093d6:	2ea60663          	beq	a2,a0,200096c2 <_ZN6kernel5sched6Kernel11kernel_loop17hb06500f832e0af8eE+0xdf8>
200093da:	2fb60c63          	beq	a2,s11,200096d2 <_ZN6kernel5sched6Kernel11kernel_loop17hb06500f832e0af8eE+0xe08>
200093de:	4589                	li	a1,2
200093e0:	30b60763          	beq	a2,a1,200096ee <_ZN6kernel5sched6Kernel11kernel_loop17hb06500f832e0af8eE+0xe24>
200093e4:	458d                	li	a1,3
200093e6:	30b60763          	beq	a2,a1,200096f4 <_ZN6kernel5sched6Kernel11kernel_loop17hb06500f832e0af8eE+0xe2a>
200093ea:	31460863          	beq	a2,s4,200096fa <_ZN6kernel5sched6Kernel11kernel_loop17hb06500f832e0af8eE+0xe30>
200093ee:	4bc1                	li	s7,16
200093f0:	4595                	li	a1,5
200093f2:	30b60c63          	beq	a2,a1,2000970a <_ZN6kernel5sched6Kernel11kernel_loop17hb06500f832e0af8eE+0xe40>
200093f6:	4599                	li	a1,6
200093f8:	30b60c63          	beq	a2,a1,20009710 <_ZN6kernel5sched6Kernel11kernel_loop17hb06500f832e0af8eE+0xe46>
200093fc:	459d                	li	a1,7
200093fe:	30b60c63          	beq	a2,a1,20009716 <_ZN6kernel5sched6Kernel11kernel_loop17hb06500f832e0af8eE+0xe4c>
20009402:	33260063          	beq	a2,s2,20009722 <_ZN6kernel5sched6Kernel11kernel_loop17hb06500f832e0af8eE+0xe58>
20009406:	45a5                	li	a1,9
20009408:	32b60d63          	beq	a2,a1,20009742 <_ZN6kernel5sched6Kernel11kernel_loop17hb06500f832e0af8eE+0xe78>
2000940c:	45a9                	li	a1,10
2000940e:	34b60d63          	beq	a2,a1,20009768 <_ZN6kernel5sched6Kernel11kernel_loop17hb06500f832e0af8eE+0xe9e>
20009412:	36061463          	bnez	a2,2000977a <_ZN6kernel5sched6Kernel11kernel_loop17hb06500f832e0af8eE+0xeb0>
20009416:	0389a683          	lw	a3,56(s3) # 10002038 <_ZN8capsules7console8READ_BUF17h6e0b2b2ce0ebb9daE+0x14>
2000941a:	f6040513          	addi	a0,s0,-160
2000941e:	85a6                	mv	a1,s1
20009420:	eec42603          	lw	a2,-276(s0)
20009424:	9682                	jalr	a3
20009426:	4529                	li	a0,10
20009428:	4585                	li	a1,1
2000942a:	f6044603          	lbu	a2,-160(s0)
2000942e:	34b61363          	bne	a2,a1,20009774 <_ZN6kernel5sched6Kernel11kernel_loop17hb06500f832e0af8eE+0xeaa>
20009432:	a6a1                	j	2000977a <_ZN6kernel5sched6Kernel11kernel_loop17hb06500f832e0af8eE+0xeb0>
20009434:	f5442503          	lw	a0,-172(s0)
20009438:	510c                	lw	a1,32(a0)
2000943a:	f5042503          	lw	a0,-176(s0)
2000943e:	9582                	jalr	a1
20009440:	100029b7          	lui	s3,0x10002
20009444:	448d                	li	s1,3
20009446:	bd11                	j	2000925a <_ZN6kernel5sched6Kernel11kernel_loop17hb06500f832e0af8eE+0x990>
20009448:	eec42503          	lw	a0,-276(s0)
2000944c:	f4a42e23          	sw	a0,-164(s0)
20009450:	f8942e23          	sw	s1,-100(s0)
20009454:	f9342423          	sw	s3,-120(s0)
20009458:	4bc1                	li	s7,16
2000945a:	ef042683          	lw	a3,-272(s0)
2000945e:	1a068263          	beqz	a3,20009602 <_ZN6kernel5sched6Kernel11kernel_loop17hb06500f832e0af8eE+0xd38>
20009462:	1db68763          	beq	a3,s11,20009630 <_ZN6kernel5sched6Kernel11kernel_loop17hb06500f832e0af8eE+0xd66>
20009466:	1f268c63          	beq	a3,s2,2000965e <_ZN6kernel5sched6Kernel11kernel_loop17hb06500f832e0af8eE+0xd94>
2000946a:	23468163          	beq	a3,s4,2000968c <_ZN6kernel5sched6Kernel11kernel_loop17hb06500f832e0af8eE+0xdc2>
2000946e:	4531                	li	a0,12
20009470:	4609                	li	a2,2
20009472:	30c69463          	bne	a3,a2,2000977a <_ZN6kernel5sched6Kernel11kernel_loop17hb06500f832e0af8eE+0xeb0>
20009476:	f5040513          	addi	a0,s0,-176
2000947a:	f6a42623          	sw	a0,-148(s0)
2000947e:	f8840513          	addi	a0,s0,-120
20009482:	f6a42423          	sw	a0,-152(s0)
20009486:	f9c40513          	addi	a0,s0,-100
2000948a:	f6a42223          	sw	a0,-156(s0)
2000948e:	f5c40513          	addi	a0,s0,-164
20009492:	f6a42023          	sw	a0,-160(s0)
20009496:	f6040513          	addi	a0,s0,-160
2000949a:	f0c42583          	lw	a1,-244(s0)
2000949e:	ed442603          	lw	a2,-300(s0)
200094a2:	ac19                	j	200096b8 <_ZN6kernel5sched6Kernel11kernel_loop17hb06500f832e0af8eE+0xdee>
200094a4:	f6042023          	sw	zero,-160(s0)
200094a8:	4bc1                	li	s7,16
200094aa:	ef042683          	lw	a3,-272(s0)
200094ae:	ee0690e3          	bnez	a3,2000938e <_ZN6kernel5sched6Kernel11kernel_loop17hb06500f832e0af8eE+0xac4>
200094b2:	f5040513          	addi	a0,s0,-176
200094b6:	f8a42823          	sw	a0,-112(s0)
200094ba:	f6040513          	addi	a0,s0,-160
200094be:	f8a42623          	sw	a0,-116(s0)
200094c2:	f9c40513          	addi	a0,s0,-100
200094c6:	f8a42423          	sw	a0,-120(s0)
200094ca:	f8840513          	addi	a0,s0,-120
200094ce:	f0042583          	lw	a1,-256(s0)
200094d2:	ee442603          	lw	a2,-284(s0)
200094d6:	a20d                	j	200095f8 <_ZN6kernel5sched6Kernel11kernel_loop17hb06500f832e0af8eE+0xd2e>
200094d8:	f5c40593          	addi	a1,s0,-164
200094dc:	f6b42623          	sw	a1,-148(s0)
200094e0:	f6a42423          	sw	a0,-152(s0)
200094e4:	f9c40513          	addi	a0,s0,-100
200094e8:	f6a42223          	sw	a0,-156(s0)
200094ec:	f5040513          	addi	a0,s0,-176
200094f0:	f6a42023          	sw	a0,-160(s0)
200094f4:	f6040513          	addi	a0,s0,-160
200094f8:	f0042583          	lw	a1,-256(s0)
200094fc:	ee442603          	lw	a2,-284(s0)
20009500:	a8bd                	j	2000957e <_ZN6kernel5sched6Kernel11kernel_loop17hb06500f832e0af8eE+0xcb4>
20009502:	f5c40593          	addi	a1,s0,-164
20009506:	f6b42623          	sw	a1,-148(s0)
2000950a:	f6a42423          	sw	a0,-152(s0)
2000950e:	f9c40513          	addi	a0,s0,-100
20009512:	f6a42223          	sw	a0,-156(s0)
20009516:	f5040513          	addi	a0,s0,-176
2000951a:	f6a42023          	sw	a0,-160(s0)
2000951e:	f6040513          	addi	a0,s0,-160
20009522:	f0442583          	lw	a1,-252(s0)
20009526:	ee042603          	lw	a2,-288(s0)
2000952a:	a891                	j	2000957e <_ZN6kernel5sched6Kernel11kernel_loop17hb06500f832e0af8eE+0xcb4>
2000952c:	f5c40593          	addi	a1,s0,-164
20009530:	f6b42623          	sw	a1,-148(s0)
20009534:	f6a42423          	sw	a0,-152(s0)
20009538:	f9c40513          	addi	a0,s0,-100
2000953c:	f6a42223          	sw	a0,-156(s0)
20009540:	f5040513          	addi	a0,s0,-176
20009544:	f6a42023          	sw	a0,-160(s0)
20009548:	f6040513          	addi	a0,s0,-160
2000954c:	efc42583          	lw	a1,-260(s0)
20009550:	edc42603          	lw	a2,-292(s0)
20009554:	a02d                	j	2000957e <_ZN6kernel5sched6Kernel11kernel_loop17hb06500f832e0af8eE+0xcb4>
20009556:	f5c40593          	addi	a1,s0,-164
2000955a:	f6b42623          	sw	a1,-148(s0)
2000955e:	f6a42423          	sw	a0,-152(s0)
20009562:	f9c40513          	addi	a0,s0,-100
20009566:	f6a42223          	sw	a0,-156(s0)
2000956a:	f5040513          	addi	a0,s0,-176
2000956e:	f6a42023          	sw	a0,-160(s0)
20009572:	f6040513          	addi	a0,s0,-160
20009576:	f0842583          	lw	a1,-248(s0)
2000957a:	ed842603          	lw	a2,-296(s0)
2000957e:	fffff097          	auipc	ra,0xfffff
20009582:	ca6080e7          	jalr	-858(ra) # 20008224 <_ZN6kernel5sched6Kernel10do_process28_$u7b$$u7b$closure$u7d$$u7d$17h5d632cde640c9adbE>
20009586:	aad5                	j	2000977a <_ZN6kernel5sched6Kernel11kernel_loop17hb06500f832e0af8eE+0xeb0>
20009588:	f5040513          	addi	a0,s0,-176
2000958c:	f8a42823          	sw	a0,-112(s0)
20009590:	f6040513          	addi	a0,s0,-160
20009594:	f8a42623          	sw	a0,-116(s0)
20009598:	f9c40513          	addi	a0,s0,-100
2000959c:	f8a42423          	sw	a0,-120(s0)
200095a0:	f8840513          	addi	a0,s0,-120
200095a4:	f0442583          	lw	a1,-252(s0)
200095a8:	ee042603          	lw	a2,-288(s0)
200095ac:	a0b1                	j	200095f8 <_ZN6kernel5sched6Kernel11kernel_loop17hb06500f832e0af8eE+0xd2e>
200095ae:	f5040513          	addi	a0,s0,-176
200095b2:	f8a42823          	sw	a0,-112(s0)
200095b6:	f6040513          	addi	a0,s0,-160
200095ba:	f8a42623          	sw	a0,-116(s0)
200095be:	f9c40513          	addi	a0,s0,-100
200095c2:	f8a42423          	sw	a0,-120(s0)
200095c6:	f8840513          	addi	a0,s0,-120
200095ca:	efc42583          	lw	a1,-260(s0)
200095ce:	edc42603          	lw	a2,-292(s0)
200095d2:	a01d                	j	200095f8 <_ZN6kernel5sched6Kernel11kernel_loop17hb06500f832e0af8eE+0xd2e>
200095d4:	f5040513          	addi	a0,s0,-176
200095d8:	f8a42823          	sw	a0,-112(s0)
200095dc:	f6040513          	addi	a0,s0,-160
200095e0:	f8a42623          	sw	a0,-116(s0)
200095e4:	f9c40513          	addi	a0,s0,-100
200095e8:	f8a42423          	sw	a0,-120(s0)
200095ec:	f8840513          	addi	a0,s0,-120
200095f0:	f0842583          	lw	a1,-248(s0)
200095f4:	ed842603          	lw	a2,-296(s0)
200095f8:	fffff097          	auipc	ra,0xfffff
200095fc:	d10080e7          	jalr	-752(ra) # 20008308 <_ZN6kernel5sched6Kernel10do_process28_$u7b$$u7b$closure$u7d$$u7d$17h16cec400e033d7c1E>
20009600:	aaad                	j	2000977a <_ZN6kernel5sched6Kernel11kernel_loop17hb06500f832e0af8eE+0xeb0>
20009602:	f5040513          	addi	a0,s0,-176
20009606:	f6a42623          	sw	a0,-148(s0)
2000960a:	f8840513          	addi	a0,s0,-120
2000960e:	f6a42423          	sw	a0,-152(s0)
20009612:	f9c40513          	addi	a0,s0,-100
20009616:	f6a42223          	sw	a0,-156(s0)
2000961a:	f5c40513          	addi	a0,s0,-164
2000961e:	f6a42023          	sw	a0,-160(s0)
20009622:	f6040513          	addi	a0,s0,-160
20009626:	f0042583          	lw	a1,-256(s0)
2000962a:	ee442603          	lw	a2,-284(s0)
2000962e:	a069                	j	200096b8 <_ZN6kernel5sched6Kernel11kernel_loop17hb06500f832e0af8eE+0xdee>
20009630:	f5040513          	addi	a0,s0,-176
20009634:	f6a42623          	sw	a0,-148(s0)
20009638:	f8840513          	addi	a0,s0,-120
2000963c:	f6a42423          	sw	a0,-152(s0)
20009640:	f9c40513          	addi	a0,s0,-100
20009644:	f6a42223          	sw	a0,-156(s0)
20009648:	f5c40513          	addi	a0,s0,-164
2000964c:	f6a42023          	sw	a0,-160(s0)
20009650:	f6040513          	addi	a0,s0,-160
20009654:	f0442583          	lw	a1,-252(s0)
20009658:	ee042603          	lw	a2,-288(s0)
2000965c:	a8b1                	j	200096b8 <_ZN6kernel5sched6Kernel11kernel_loop17hb06500f832e0af8eE+0xdee>
2000965e:	f5040513          	addi	a0,s0,-176
20009662:	f6a42623          	sw	a0,-148(s0)
20009666:	f8840513          	addi	a0,s0,-120
2000966a:	f6a42423          	sw	a0,-152(s0)
2000966e:	f9c40513          	addi	a0,s0,-100
20009672:	f6a42223          	sw	a0,-156(s0)
20009676:	f5c40513          	addi	a0,s0,-164
2000967a:	f6a42023          	sw	a0,-160(s0)
2000967e:	f6040513          	addi	a0,s0,-160
20009682:	efc42583          	lw	a1,-260(s0)
20009686:	edc42603          	lw	a2,-292(s0)
2000968a:	a03d                	j	200096b8 <_ZN6kernel5sched6Kernel11kernel_loop17hb06500f832e0af8eE+0xdee>
2000968c:	f5040513          	addi	a0,s0,-176
20009690:	f6a42623          	sw	a0,-148(s0)
20009694:	f8840513          	addi	a0,s0,-120
20009698:	f6a42423          	sw	a0,-152(s0)
2000969c:	f9c40513          	addi	a0,s0,-100
200096a0:	f6a42223          	sw	a0,-156(s0)
200096a4:	f5c40513          	addi	a0,s0,-164
200096a8:	f6a42023          	sw	a0,-160(s0)
200096ac:	f6040513          	addi	a0,s0,-160
200096b0:	f0842583          	lw	a1,-248(s0)
200096b4:	ed842603          	lw	a2,-296(s0)
200096b8:	fffff097          	auipc	ra,0xfffff
200096bc:	cb6080e7          	jalr	-842(ra) # 2000836e <_ZN6kernel5sched6Kernel10do_process28_$u7b$$u7b$closure$u7d$$u7d$17he3462991b006f952E>
200096c0:	a86d                	j	2000977a <_ZN6kernel5sched6Kernel11kernel_loop17hb06500f832e0af8eE+0xeb0>
200096c2:	0609a603          	lw	a2,96(s3) # 10002060 <_ZN8capsules7console8READ_BUF17h6e0b2b2ce0ebb9daE+0x3c>
200096c6:	8526                	mv	a0,s1
200096c8:	eec42583          	lw	a1,-276(s0)
200096cc:	9602                	jalr	a2
200096ce:	4505                	li	a0,1
200096d0:	a831                	j	200096ec <_ZN6kernel5sched6Kernel11kernel_loop17hb06500f832e0af8eE+0xe22>
200096d2:	03c9a683          	lw	a3,60(s3)
200096d6:	f6040513          	addi	a0,s0,-160
200096da:	85a6                	mv	a1,s1
200096dc:	eec42603          	lw	a2,-276(s0)
200096e0:	9682                	jalr	a3
200096e2:	f6044503          	lbu	a0,-160(s0)
200096e6:	0bb51e63          	bne	a0,s11,200097a2 <_ZN6kernel5sched6Kernel11kernel_loop17hb06500f832e0af8eE+0xed8>
200096ea:	4529                	li	a0,10
200096ec:	a829                	j	20009706 <_ZN6kernel5sched6Kernel11kernel_loop17hb06500f832e0af8eE+0xe3c>
200096ee:	0409a583          	lw	a1,64(s3)
200096f2:	a031                	j	200096fe <_ZN6kernel5sched6Kernel11kernel_loop17hb06500f832e0af8eE+0xe34>
200096f4:	0449a583          	lw	a1,68(s3)
200096f8:	a019                	j	200096fe <_ZN6kernel5sched6Kernel11kernel_loop17hb06500f832e0af8eE+0xe34>
200096fa:	0489a583          	lw	a1,72(s3)
200096fe:	8526                	mv	a0,s1
20009700:	9582                	jalr	a1
20009702:	85aa                	mv	a1,a0
20009704:	4501                	li	a0,0
20009706:	4bc1                	li	s7,16
20009708:	a88d                	j	2000977a <_ZN6kernel5sched6Kernel11kernel_loop17hb06500f832e0af8eE+0xeb0>
2000970a:	04c9a583          	lw	a1,76(s3)
2000970e:	a031                	j	2000971a <_ZN6kernel5sched6Kernel11kernel_loop17hb06500f832e0af8eE+0xe50>
20009710:	0509a583          	lw	a1,80(s3)
20009714:	a019                	j	2000971a <_ZN6kernel5sched6Kernel11kernel_loop17hb06500f832e0af8eE+0xe50>
20009716:	0549a583          	lw	a1,84(s3)
2000971a:	8526                	mv	a0,s1
2000971c:	9582                	jalr	a1
2000971e:	85aa                	mv	a1,a0
20009720:	a091                	j	20009764 <_ZN6kernel5sched6Kernel11kernel_loop17hb06500f832e0af8eE+0xe9a>
20009722:	0489a583          	lw	a1,72(s3)
20009726:	8526                	mv	a0,s1
20009728:	9582                	jalr	a1
2000972a:	eea42823          	sw	a0,-272(s0)
2000972e:	0589a603          	lw	a2,88(s3)
20009732:	8526                	mv	a0,s1
20009734:	eec42583          	lw	a1,-276(s0)
20009738:	9602                	jalr	a2
2000973a:	cd9d                	beqz	a1,20009778 <_ZN6kernel5sched6Kernel11kernel_loop17hb06500f832e0af8eE+0xeae>
2000973c:	ef042583          	lw	a1,-272(s0)
20009740:	a00d                	j	20009762 <_ZN6kernel5sched6Kernel11kernel_loop17hb06500f832e0af8eE+0xe98>
20009742:	0489a583          	lw	a1,72(s3)
20009746:	8526                	mv	a0,s1
20009748:	9582                	jalr	a1
2000974a:	eea42823          	sw	a0,-272(s0)
2000974e:	0589a603          	lw	a2,88(s3)
20009752:	8526                	mv	a0,s1
20009754:	eec42583          	lw	a1,-276(s0)
20009758:	9602                	jalr	a2
2000975a:	cd99                	beqz	a1,20009778 <_ZN6kernel5sched6Kernel11kernel_loop17hb06500f832e0af8eE+0xeae>
2000975c:	ef042603          	lw	a2,-272(s0)
20009760:	9532                	add	a0,a0,a2
20009762:	95aa                	add	a1,a1,a0
20009764:	4501                	li	a0,0
20009766:	a811                	j	2000977a <_ZN6kernel5sched6Kernel11kernel_loop17hb06500f832e0af8eE+0xeb0>
20009768:	05c9a603          	lw	a2,92(s3)
2000976c:	8526                	mv	a0,s1
2000976e:	eec42583          	lw	a1,-276(s0)
20009772:	9602                	jalr	a2
20009774:	4505                	li	a0,1
20009776:	a011                	j	2000977a <_ZN6kernel5sched6Kernel11kernel_loop17hb06500f832e0af8eE+0xeb0>
20009778:	4509                	li	a0,2
2000977a:	f5042983          	lw	s3,-176(s0)
2000977e:	f5442483          	lw	s1,-172(s0)
20009782:	ffffe097          	auipc	ra,0xffffe
20009786:	d0e080e7          	jalr	-754(ra) # 20007490 <_ZN6kernel10returncode93_$LT$impl$u20$core..convert..From$LT$kernel..returncode..ReturnCode$GT$$u20$for$u20$isize$GT$4from17h57f8dfadf44faa39E>
2000978a:	85aa                	mv	a1,a0
2000978c:	0804a603          	lw	a2,128(s1)
20009790:	854e                	mv	a0,s3
20009792:	9602                	jalr	a2
20009794:	100029b7          	lui	s3,0x10002
20009798:	448d                	li	s1,3
2000979a:	f4442603          	lw	a2,-188(s0)
2000979e:	c60ff06f          	j	20008bfe <_ZN6kernel5sched6Kernel11kernel_loop17hb06500f832e0af8eE+0x334>
200097a2:	f6442583          	lw	a1,-156(s0)
200097a6:	bfb9                	j	20009704 <_ZN6kernel5sched6Kernel11kernel_loop17hb06500f832e0af8eE+0xe3a>
200097a8:	4bc1                	li	s7,16
200097aa:	a011                	j	200097ae <_ZN6kernel5sched6Kernel11kernel_loop17hb06500f832e0af8eE+0xee4>
200097ac:	448d                	li	s1,3
200097ae:	f4442603          	lw	a2,-188(s0)
200097b2:	34402573          	csrr	a0,mip
200097b6:	f4c42583          	lw	a1,-180(s0)
200097ba:	8d6d                	and	a0,a0,a1
200097bc:	ed19                	bnez	a0,200097da <_ZN6kernel5sched6Kernel11kernel_loop17hb06500f832e0af8eE+0xf10>
200097be:	61c9a503          	lw	a0,1564(s3) # 1000261c <_ZN6kernel6common21dynamic_deferred_call21DYNAMIC_DEFERRED_CALL17h9a9b1043f381363dE>
200097c2:	c501                	beqz	a0,200097ca <_ZN6kernel5sched6Kernel11kernel_loop17hb06500f832e0af8eE+0xf00>
200097c4:	00c54503          	lbu	a0,12(a0)
200097c8:	a011                	j	200097cc <_ZN6kernel5sched6Kernel11kernel_loop17hb06500f832e0af8eE+0xf02>
200097ca:	4509                	li	a0,2
200097cc:	0621                	addi	a2,a2,8
200097ce:	4589                	li	a1,2
200097d0:	beb50863          	beq	a0,a1,20008bc0 <_ZN6kernel5sched6Kernel11kernel_loop17hb06500f832e0af8eE+0x2f6>
200097d4:	8905                	andi	a0,a0,1
200097d6:	be050563          	beqz	a0,20008bc0 <_ZN6kernel5sched6Kernel11kernel_loop17hb06500f832e0af8eE+0x2f6>
200097da:	30002573          	csrr	a0,mstatus
200097de:	00857593          	andi	a1,a0,8
200097e2:	c589                	beqz	a1,200097ec <_ZN6kernel5sched6Kernel11kernel_loop17hb06500f832e0af8eE+0xf22>
200097e4:	ff757613          	andi	a2,a0,-9
200097e8:	30061073          	csrw	mstatus,a2
200097ec:	34402673          	csrr	a2,mip
200097f0:	f4c42683          	lw	a3,-180(s0)
200097f4:	8e75                	and	a2,a2,a3
200097f6:	ca11                	beqz	a2,2000980a <_ZN6kernel5sched6Kernel11kernel_loop17hb06500f832e0af8eE+0xf40>
200097f8:	e199                	bnez	a1,200097fe <_ZN6kernel5sched6Kernel11kernel_loop17hb06500f832e0af8eE+0xf34>
200097fa:	a06ff06f          	j	20008a00 <_ZN6kernel5sched6Kernel11kernel_loop17hb06500f832e0af8eE+0x136>
200097fe:	00856513          	ori	a0,a0,8
20009802:	30051073          	csrw	mstatus,a0
20009806:	9faff06f          	j	20008a00 <_ZN6kernel5sched6Kernel11kernel_loop17hb06500f832e0af8eE+0x136>
2000980a:	61c9a603          	lw	a2,1564(s3)
2000980e:	c601                	beqz	a2,20009816 <_ZN6kernel5sched6Kernel11kernel_loop17hb06500f832e0af8eE+0xf4c>
20009810:	00c64603          	lbu	a2,12(a2)
20009814:	f275                	bnez	a2,200097f8 <_ZN6kernel5sched6Kernel11kernel_loop17hb06500f832e0af8eE+0xf2e>
20009816:	10002637          	lui	a2,0x10002
2000981a:	64862603          	lw	a2,1608(a2) # 10002648 <_ZN9opentitan13reset_handler3BUF17hde44aa74b73c5f78E>
2000981e:	fe69                	bnez	a2,200097f8 <_ZN6kernel5sched6Kernel11kernel_loop17hb06500f832e0af8eE+0xf2e>
20009820:	10500073          	wfi
20009824:	fde9                	bnez	a1,200097fe <_ZN6kernel5sched6Kernel11kernel_loop17hb06500f832e0af8eE+0xf34>
20009826:	9daff06f          	j	20008a00 <_ZN6kernel5sched6Kernel11kernel_loop17hb06500f832e0af8eE+0x136>
2000982a:	2000e537          	lui	a0,0x2000e
2000982e:	dd250513          	addi	a0,a0,-558 # 2000ddd2 <.L__unnamed_51>
20009832:	100025b7          	lui	a1,0x10002
20009836:	b3058613          	addi	a2,a1,-1232 # 10001b30 <.L__unnamed_44>
2000983a:	02600593          	li	a1,38
2000983e:	ffffb097          	auipc	ra,0xffffb
20009842:	2a2080e7          	jalr	674(ra) # 20004ae0 <_ZN4core9panicking5panic17haaa649c2263e8176E>
20009846:	00005097          	auipc	ra,0x5
2000984a:	396080e7          	jalr	918(ra) # 2000ebdc <abort>
2000984e:	00000097          	auipc	ra,0x0
20009852:	010080e7          	jalr	16(ra) # 2000985e <_ZN6kernel5sched6Kernel10do_process28_$u7b$$u7b$closure$u7d$$u7d$17h88c07dae823b9a87E>
20009856:	00005097          	auipc	ra,0x5
2000985a:	386080e7          	jalr	902(ra) # 2000ebdc <abort>

2000985e <_ZN6kernel5sched6Kernel10do_process28_$u7b$$u7b$closure$u7d$$u7d$17h88c07dae823b9a87E>:
2000985e:	1141                	addi	sp,sp,-16
20009860:	c606                	sw	ra,12(sp)
20009862:	c422                	sw	s0,8(sp)
20009864:	0800                	addi	s0,sp,16
20009866:	2000e537          	lui	a0,0x2000e
2000986a:	e1650513          	addi	a0,a0,-490 # 2000de16 <.L__unnamed_52>
2000986e:	100025b7          	lui	a1,0x10002
20009872:	b3058613          	addi	a2,a1,-1232 # 10001b30 <.L__unnamed_44>
20009876:	02e00593          	li	a1,46
2000987a:	ffffb097          	auipc	ra,0xffffb
2000987e:	266080e7          	jalr	614(ra) # 20004ae0 <_ZN4core9panicking5panic17haaa649c2263e8176E>
20009882:	00005097          	auipc	ra,0x5
20009886:	35a080e7          	jalr	858(ra) # 2000ebdc <abort>

2000988a <_ZN6kernel5sched6Kernel12create_grant17hf41ba8184592528dE>:
2000988a:	1141                	addi	sp,sp,-16
2000988c:	c606                	sw	ra,12(sp)
2000988e:	c422                	sw	s0,8(sp)
20009890:	0800                	addi	s0,sp,16
20009892:	10002537          	lui	a0,0x10002
20009896:	64850593          	addi	a1,a0,1608 # 10002648 <_ZN9opentitan13reset_handler3BUF17hde44aa74b73c5f78E>
2000989a:	0145c503          	lbu	a0,20(a1)
2000989e:	e909                	bnez	a0,200098b0 <_ZN6kernel5sched6Kernel12create_grant17hf41ba8184592528dE+0x26>
200098a0:	4988                	lw	a0,16(a1)
200098a2:	00150613          	addi	a2,a0,1
200098a6:	c990                	sw	a2,16(a1)
200098a8:	4422                	lw	s0,8(sp)
200098aa:	40b2                	lw	ra,12(sp)
200098ac:	0141                	addi	sp,sp,16
200098ae:	8082                	ret
200098b0:	2000e537          	lui	a0,0x2000e
200098b4:	e4450513          	addi	a0,a0,-444 # 2000de44 <.L__unnamed_43>
200098b8:	100025b7          	lui	a1,0x10002
200098bc:	b3058613          	addi	a2,a1,-1232 # 10001b30 <.L__unnamed_44>
200098c0:	02c00593          	li	a1,44
200098c4:	ffffb097          	auipc	ra,0xffffb
200098c8:	21c080e7          	jalr	540(ra) # 20004ae0 <_ZN4core9panicking5panic17haaa649c2263e8176E>
200098cc:	00005097          	auipc	ra,0x5
200098d0:	310080e7          	jalr	784(ra) # 2000ebdc <abort>

200098d4 <_ZN6kernel5debug5panic17hcd599e1ffdd50724E>:
200098d4:	1141                	addi	sp,sp,-16
200098d6:	c606                	sw	ra,12(sp)
200098d8:	c422                	sw	s0,8(sp)
200098da:	c226                	sw	s1,4(sp)
200098dc:	c04a                	sw	s2,0(sp)
200098de:	0800                	addi	s0,sp,16
200098e0:	84ae                	mv	s1,a1
200098e2:	892a                	mv	s2,a0
200098e4:	ffffe097          	auipc	ra,0xffffe
200098e8:	88e080e7          	jalr	-1906(ra) # 20007172 <_ZN6kernel5debug11panic_begin17he4af364ab94e8a6dE>
200098ec:	8526                	mv	a0,s1
200098ee:	00000097          	auipc	ra,0x0
200098f2:	032080e7          	jalr	50(ra) # 20009920 <_ZN6kernel5debug12panic_banner17hf0af569ae82ee912E>
200098f6:	00000097          	auipc	ra,0x0
200098fa:	162080e7          	jalr	354(ra) # 20009a58 <_ZN6kernel5debug5flush17h53d0474c908e6de9E>
200098fe:	00000097          	auipc	ra,0x0
20009902:	1c8080e7          	jalr	456(ra) # 20009ac6 <_ZN6kernel5debug15panic_cpu_state17h2ed0b67925ca2798E>
20009906:	00000097          	auipc	ra,0x0
2000990a:	1e2080e7          	jalr	482(ra) # 20009ae8 <_ZN6kernel5debug18panic_process_info17h4aad71dc9e665aeeE>
2000990e:	854a                	mv	a0,s2
20009910:	00000097          	auipc	ra,0x0
20009914:	274080e7          	jalr	628(ra) # 20009b84 <_ZN6kernel5debug19panic_blink_forever17hceb153ce1729493bE>
20009918:	00005097          	auipc	ra,0x5
2000991c:	2c4080e7          	jalr	708(ra) # 2000ebdc <abort>

20009920 <_ZN6kernel5debug12panic_banner17hf0af569ae82ee912E>:
20009920:	715d                	addi	sp,sp,-80
20009922:	c686                	sw	ra,76(sp)
20009924:	c4a2                	sw	s0,72(sp)
20009926:	c2a6                	sw	s1,68(sp)
20009928:	c0ca                	sw	s2,64(sp)
2000992a:	de4e                	sw	s3,60(sp)
2000992c:	dc52                	sw	s4,56(sp)
2000992e:	0880                	addi	s0,sp,80
20009930:	892a                	mv	s2,a0
20009932:	4548                	lw	a0,12(a0)
20009934:	410c                	lw	a1,0(a0)
20009936:	4150                	lw	a2,4(a0)
20009938:	fec42223          	sw	a2,-28(s0)
2000993c:	feb42023          	sw	a1,-32(s0)
20009940:	200055b7          	lui	a1,0x20005
20009944:	b9258593          	addi	a1,a1,-1134 # 20004b92 <_ZN4core3fmt3num3imp52_$LT$impl$u20$core..fmt..Display$u20$for$u20$u32$GT$3fmt17hd33618c459eb254aE>
20009948:	4508                	lw	a0,8(a0)
2000994a:	fab42e23          	sw	a1,-68(s0)
2000994e:	fc440593          	addi	a1,s0,-60
20009952:	fab42c23          	sw	a1,-72(s0)
20009956:	200075b7          	lui	a1,0x20007
2000995a:	47258593          	addi	a1,a1,1138 # 20007472 <_ZN44_$LT$$RF$T$u20$as$u20$core..fmt..Display$GT$3fmt17h4dc4fd09425098fcE>
2000995e:	fab42a23          	sw	a1,-76(s0)
20009962:	fe040a13          	addi	s4,s0,-32
20009966:	fb442823          	sw	s4,-80(s0)
2000996a:	fca42223          	sw	a0,-60(s0)
2000996e:	4509                	li	a0,2
20009970:	fca42e23          	sw	a0,-36(s0)
20009974:	fb040993          	addi	s3,s0,-80
20009978:	fd342c23          	sw	s3,-40(s0)
2000997c:	450d                	li	a0,3
2000997e:	fca42623          	sw	a0,-52(s0)
20009982:	10002537          	lui	a0,0x10002
20009986:	b6050513          	addi	a0,a0,-1184 # 10001b60 <.L__unnamed_53>
2000998a:	fca42423          	sw	a0,-56(s0)
2000998e:	10003537          	lui	a0,0x10003
20009992:	89c50493          	addi	s1,a0,-1892 # 1000289c <_ezero>
20009996:	fc042823          	sw	zero,-48(s0)
2000999a:	fc840593          	addi	a1,s0,-56
2000999e:	8526                	mv	a0,s1
200099a0:	00001097          	auipc	ra,0x1
200099a4:	bfe080e7          	jalr	-1026(ra) # 2000a59e <_ZN4core3fmt5Write9write_fmt17h57e2208449baac68E>
200099a8:	00892583          	lw	a1,8(s2)
200099ac:	c19d                	beqz	a1,200099d2 <_ZN6kernel5debug12panic_banner17hf0af569ae82ee912E+0xb2>
200099ae:	fc840913          	addi	s2,s0,-56
200099b2:	854a                	mv	a0,s2
200099b4:	4661                	li	a2,24
200099b6:	00002097          	auipc	ra,0x2
200099ba:	b28080e7          	jalr	-1240(ra) # 2000b4de <memcpy>
200099be:	10002537          	lui	a0,0x10002
200099c2:	b4850593          	addi	a1,a0,-1208 # 10001b48 <.L__unnamed_13>
200099c6:	8526                	mv	a0,s1
200099c8:	864a                	mv	a2,s2
200099ca:	ffffc097          	auipc	ra,0xffffc
200099ce:	300080e7          	jalr	768(ra) # 20005cca <_ZN4core3fmt5write17hb7761afb3ce3b207E>
200099d2:	2000e537          	lui	a0,0x2000e
200099d6:	f3a50513          	addi	a0,a0,-198 # 2000df3a <.L__unnamed_54>
200099da:	458d                	li	a1,3
200099dc:	00001097          	auipc	ra,0x1
200099e0:	b92080e7          	jalr	-1134(ra) # 2000a56e <_ZN64_$LT$opentitan..io..Writer$u20$as$u20$kernel..debug..IoWrite$GT$5write17h484887c61c779fcdE>
200099e4:	4505                	li	a0,1
200099e6:	fca42e23          	sw	a0,-36(s0)
200099ea:	fd442c23          	sw	s4,-40(s0)
200099ee:	2000e537          	lui	a0,0x2000e
200099f2:	f3d50513          	addi	a0,a0,-195 # 2000df3d <.L__unnamed_55>
200099f6:	c119                	beqz	a0,200099fc <_ZN6kernel5debug12panic_banner17hf0af569ae82ee912E+0xdc>
200099f8:	45e5                	li	a1,25
200099fa:	a031                	j	20009a06 <_ZN6kernel5debug12panic_banner17hf0af569ae82ee912E+0xe6>
200099fc:	459d                	li	a1,7
200099fe:	2000e537          	lui	a0,0x2000e
20009a02:	f5650513          	addi	a0,a0,-170 # 2000df56 <.L__unnamed_56>
20009a06:	fc042823          	sw	zero,-48(s0)
20009a0a:	4609                	li	a2,2
20009a0c:	fcc42623          	sw	a2,-52(s0)
20009a10:	10002637          	lui	a2,0x10002
20009a14:	b7860613          	addi	a2,a2,-1160 # 10001b78 <.L__unnamed_57>
20009a18:	fcc42423          	sw	a2,-56(s0)
20009a1c:	20007637          	lui	a2,0x20007
20009a20:	47260613          	addi	a2,a2,1138 # 20007472 <_ZN44_$LT$$RF$T$u20$as$u20$core..fmt..Display$GT$3fmt17h4dc4fd09425098fcE>
20009a24:	fec42223          	sw	a2,-28(s0)
20009a28:	ff342023          	sw	s3,-32(s0)
20009a2c:	fab42a23          	sw	a1,-76(s0)
20009a30:	faa42823          	sw	a0,-80(s0)
20009a34:	10003537          	lui	a0,0x10003
20009a38:	89c50513          	addi	a0,a0,-1892 # 1000289c <_ezero>
20009a3c:	fc840593          	addi	a1,s0,-56
20009a40:	00001097          	auipc	ra,0x1
20009a44:	b5e080e7          	jalr	-1186(ra) # 2000a59e <_ZN4core3fmt5Write9write_fmt17h57e2208449baac68E>
20009a48:	5a62                	lw	s4,56(sp)
20009a4a:	59f2                	lw	s3,60(sp)
20009a4c:	4906                	lw	s2,64(sp)
20009a4e:	4496                	lw	s1,68(sp)
20009a50:	4426                	lw	s0,72(sp)
20009a52:	40b6                	lw	ra,76(sp)
20009a54:	6161                	addi	sp,sp,80
20009a56:	8082                	ret

20009a58 <_ZN6kernel5debug5flush17h53d0474c908e6de9E>:
20009a58:	1141                	addi	sp,sp,-16
20009a5a:	c606                	sw	ra,12(sp)
20009a5c:	c422                	sw	s0,8(sp)
20009a5e:	c226                	sw	s1,4(sp)
20009a60:	0800                	addi	s0,sp,16
20009a62:	ffffd097          	auipc	ra,0xffffd
20009a66:	730080e7          	jalr	1840(ra) # 20007192 <_ZN6kernel5debug16get_debug_writer17h0818da5526d49829E>
20009a6a:	00454583          	lbu	a1,4(a0)
20009a6e:	cd95                	beqz	a1,20009aaa <_ZN6kernel5debug5flush17h53d0474c908e6de9E+0x52>
20009a70:	00050223          	sb	zero,4(a0)
20009a74:	410c                	lw	a1,0(a0)
20009a76:	4984                	lw	s1,16(a1)
20009a78:	0005a823          	sw	zero,16(a1)
20009a7c:	4585                	li	a1,1
20009a7e:	00b50223          	sb	a1,4(a0)
20009a82:	c485                	beqz	s1,20009aaa <_ZN6kernel5debug5flush17h53d0474c908e6de9E+0x52>
20009a84:	44c8                	lw	a0,12(s1)
20009a86:	448c                	lw	a1,8(s1)
20009a88:	02a58163          	beq	a1,a0,20009aaa <_ZN6kernel5debug5flush17h53d0474c908e6de9E+0x52>
20009a8c:	2000e537          	lui	a0,0x2000e
20009a90:	ea050513          	addi	a0,a0,-352 # 2000dea0 <.L__unnamed_58>
20009a94:	04e00593          	li	a1,78
20009a98:	00001097          	auipc	ra,0x1
20009a9c:	ad6080e7          	jalr	-1322(ra) # 2000a56e <_ZN64_$LT$opentitan..io..Writer$u20$as$u20$kernel..debug..IoWrite$GT$5write17h484887c61c779fcdE>
20009aa0:	8526                	mv	a0,s1
20009aa2:	00001097          	auipc	ra,0x1
20009aa6:	bba080e7          	jalr	-1094(ra) # 2000a65c <_ZN6kernel5debug7IoWrite17write_ring_buffer17haa6006c44a1c9f92E>
20009aaa:	2000e537          	lui	a0,0x2000e
20009aae:	eee50513          	addi	a0,a0,-274 # 2000deee <.L__unnamed_59>
20009ab2:	04c00593          	li	a1,76
20009ab6:	4492                	lw	s1,4(sp)
20009ab8:	4422                	lw	s0,8(sp)
20009aba:	40b2                	lw	ra,12(sp)
20009abc:	0141                	addi	sp,sp,16
20009abe:	00001317          	auipc	t1,0x1
20009ac2:	ab030067          	jr	-1360(t1) # 2000a56e <_ZN64_$LT$opentitan..io..Writer$u20$as$u20$kernel..debug..IoWrite$GT$5write17h484887c61c779fcdE>

20009ac6 <_ZN6kernel5debug15panic_cpu_state17h2ed0b67925ca2798E>:
20009ac6:	1141                	addi	sp,sp,-16
20009ac8:	c606                	sw	ra,12(sp)
20009aca:	c422                	sw	s0,8(sp)
20009acc:	0800                	addi	s0,sp,16
20009ace:	10002537          	lui	a0,0x10002
20009ad2:	62452503          	lw	a0,1572(a0) # 10002624 <_ZN9opentitan4CHIP17h2aac1febd54e4f4fE>
20009ad6:	c509                	beqz	a0,20009ae0 <_ZN6kernel5debug15panic_cpu_state17h2ed0b67925ca2798E+0x1a>
20009ad8:	00001097          	auipc	ra,0x1
20009adc:	220080e7          	jalr	544(ra) # 2000acf8 <_ZN5rv32i17print_riscv_state17hdf47b7d4a1a43c82E>
20009ae0:	4422                	lw	s0,8(sp)
20009ae2:	40b2                	lw	ra,12(sp)
20009ae4:	0141                	addi	sp,sp,16
20009ae6:	8082                	ret

20009ae8 <_ZN6kernel5debug18panic_process_info17h4aad71dc9e665aeeE>:
20009ae8:	7139                	addi	sp,sp,-64
20009aea:	de06                	sw	ra,60(sp)
20009aec:	dc22                	sw	s0,56(sp)
20009aee:	da26                	sw	s1,52(sp)
20009af0:	d84a                	sw	s2,48(sp)
20009af2:	d64e                	sw	s3,44(sp)
20009af4:	d452                	sw	s4,40(sp)
20009af6:	d256                	sw	s5,36(sp)
20009af8:	0080                	addi	s0,sp,64
20009afa:	4505                	li	a0,1
20009afc:	fca42623          	sw	a0,-52(s0)
20009b00:	2000e537          	lui	a0,0x2000e
20009b04:	00c50513          	addi	a0,a0,12 # 2000e00c <.Lanon.d9778860540cf11319bb138777b2a7cb.67>
20009b08:	fca42c23          	sw	a0,-40(s0)
20009b0c:	10002537          	lui	a0,0x10002
20009b10:	b4050513          	addi	a0,a0,-1216 # 10001b40 <.L__unnamed_60>
20009b14:	fca42423          	sw	a0,-56(s0)
20009b18:	fc042e23          	sw	zero,-36(s0)
20009b1c:	fc042823          	sw	zero,-48(s0)
20009b20:	10003537          	lui	a0,0x10003
20009b24:	89c50913          	addi	s2,a0,-1892 # 1000289c <_ezero>
20009b28:	fc840593          	addi	a1,s0,-56
20009b2c:	854a                	mv	a0,s2
20009b2e:	00001097          	auipc	ra,0x1
20009b32:	a70080e7          	jalr	-1424(ra) # 2000a59e <_ZN4core3fmt5Write9write_fmt17h57e2208449baac68E>
20009b36:	02000993          	li	s3,32
20009b3a:	10002537          	lui	a0,0x10002
20009b3e:	62850a93          	addi	s5,a0,1576 # 10002628 <_ZN9opentitan9PROCESSES17hab9b83d12e51c3dfE>
20009b42:	10002537          	lui	a0,0x10002
20009b46:	b4850a13          	addi	s4,a0,-1208 # 10001b48 <.L__unnamed_13>
20009b4a:	4481                	li	s1,0
20009b4c:	03348363          	beq	s1,s3,20009b72 <_ZN6kernel5debug18panic_process_info17h4aad71dc9e665aeeE+0x8a>
20009b50:	01548633          	add	a2,s1,s5
20009b54:	4208                	lw	a0,0(a2)
20009b56:	4581                	li	a1,0
20009b58:	c111                	beqz	a0,20009b5c <_ZN6kernel5debug18panic_process_info17h4aad71dc9e665aeeE+0x74>
20009b5a:	85b2                	mv	a1,a2
20009b5c:	c901                	beqz	a0,20009b6c <_ZN6kernel5debug18panic_process_info17h4aad71dc9e665aeeE+0x84>
20009b5e:	4188                	lw	a0,0(a1)
20009b60:	41cc                	lw	a1,4(a1)
20009b62:	0905a683          	lw	a3,144(a1)
20009b66:	85ca                	mv	a1,s2
20009b68:	8652                	mv	a2,s4
20009b6a:	9682                	jalr	a3
20009b6c:	04a1                	addi	s1,s1,8
20009b6e:	ff3491e3          	bne	s1,s3,20009b50 <_ZN6kernel5debug18panic_process_info17h4aad71dc9e665aeeE+0x68>
20009b72:	5a92                	lw	s5,36(sp)
20009b74:	5a22                	lw	s4,40(sp)
20009b76:	59b2                	lw	s3,44(sp)
20009b78:	5942                	lw	s2,48(sp)
20009b7a:	54d2                	lw	s1,52(sp)
20009b7c:	5462                	lw	s0,56(sp)
20009b7e:	50f2                	lw	ra,60(sp)
20009b80:	6121                	addi	sp,sp,64
20009b82:	8082                	ret

20009b84 <_ZN6kernel5debug19panic_blink_forever17hceb153ce1729493bE>:
20009b84:	7179                	addi	sp,sp,-48
20009b86:	d606                	sw	ra,44(sp)
20009b88:	d422                	sw	s0,40(sp)
20009b8a:	d226                	sw	s1,36(sp)
20009b8c:	d04a                	sw	s2,32(sp)
20009b8e:	ce4e                	sw	s3,28(sp)
20009b90:	cc52                	sw	s4,24(sp)
20009b92:	ca56                	sw	s5,20(sp)
20009b94:	c85a                	sw	s6,16(sp)
20009b96:	c65e                	sw	s7,12(sp)
20009b98:	1800                	addi	s0,sp,48
20009b9a:	8baa                	mv	s7,a0
20009b9c:	4911                	li	s2,4
20009b9e:	4481                	li	s1,0
20009ba0:	01248c63          	beq	s1,s2,20009bb8 <_ZN6kernel5debug19panic_blink_forever17hceb153ce1729493bE+0x34>
20009ba4:	009b8533          	add	a0,s7,s1
20009ba8:	410c                	lw	a1,0(a0)
20009baa:	4188                	lw	a0,0(a1)
20009bac:	41cc                	lw	a1,4(a1)
20009bae:	558c                	lw	a1,40(a1)
20009bb0:	9582                	jalr	a1
20009bb2:	0491                	addi	s1,s1,4
20009bb4:	ff2498e3          	bne	s1,s2,20009ba4 <_ZN6kernel5debug19panic_blink_forever17hceb153ce1729493bE+0x20>
20009bb8:	000f4537          	lui	a0,0xf4
20009bbc:	24050913          	addi	s2,a0,576 # f4240 <.Lline_table_start0+0xe21d1>
20009bc0:	6561                	lui	a0,0x18
20009bc2:	6a050993          	addi	s3,a0,1696 # 186a0 <.Lline_table_start0+0x6631>
20009bc6:	0007a537          	lui	a0,0x7a
20009bca:	12050a13          	addi	s4,a0,288 # 7a120 <.Lline_table_start0+0x680b1>
20009bce:	4a91                	li	s5,4
20009bd0:	4b01                	li	s6,0
20009bd2:	032b0263          	beq	s6,s2,20009bf6 <_ZN6kernel5debug19panic_blink_forever17hceb153ce1729493bE+0x72>
20009bd6:	4481                	li	s1,0
20009bd8:	01548c63          	beq	s1,s5,20009bf0 <_ZN6kernel5debug19panic_blink_forever17hceb153ce1729493bE+0x6c>
20009bdc:	009b8533          	add	a0,s7,s1
20009be0:	410c                	lw	a1,0(a0)
20009be2:	4188                	lw	a0,0(a1)
20009be4:	41cc                	lw	a1,4(a1)
20009be6:	4d8c                	lw	a1,24(a1)
20009be8:	9582                	jalr	a1
20009bea:	0491                	addi	s1,s1,4
20009bec:	ff5498e3          	bne	s1,s5,20009bdc <_ZN6kernel5debug19panic_blink_forever17hceb153ce1729493bE+0x58>
20009bf0:	0b05                	addi	s6,s6,1
20009bf2:	ff2b12e3          	bne	s6,s2,20009bd6 <_ZN6kernel5debug19panic_blink_forever17hceb153ce1729493bE+0x52>
20009bf6:	4b01                	li	s6,0
20009bf8:	033b0263          	beq	s6,s3,20009c1c <_ZN6kernel5debug19panic_blink_forever17hceb153ce1729493bE+0x98>
20009bfc:	4481                	li	s1,0
20009bfe:	01548c63          	beq	s1,s5,20009c16 <_ZN6kernel5debug19panic_blink_forever17hceb153ce1729493bE+0x92>
20009c02:	009b8533          	add	a0,s7,s1
20009c06:	410c                	lw	a1,0(a0)
20009c08:	4188                	lw	a0,0(a1)
20009c0a:	41cc                	lw	a1,4(a1)
20009c0c:	49cc                	lw	a1,20(a1)
20009c0e:	9582                	jalr	a1
20009c10:	0491                	addi	s1,s1,4
20009c12:	ff5498e3          	bne	s1,s5,20009c02 <_ZN6kernel5debug19panic_blink_forever17hceb153ce1729493bE+0x7e>
20009c16:	0b05                	addi	s6,s6,1
20009c18:	ff3b12e3          	bne	s6,s3,20009bfc <_ZN6kernel5debug19panic_blink_forever17hceb153ce1729493bE+0x78>
20009c1c:	4b01                	li	s6,0
20009c1e:	032b0263          	beq	s6,s2,20009c42 <_ZN6kernel5debug19panic_blink_forever17hceb153ce1729493bE+0xbe>
20009c22:	4481                	li	s1,0
20009c24:	01548c63          	beq	s1,s5,20009c3c <_ZN6kernel5debug19panic_blink_forever17hceb153ce1729493bE+0xb8>
20009c28:	009b8533          	add	a0,s7,s1
20009c2c:	410c                	lw	a1,0(a0)
20009c2e:	4188                	lw	a0,0(a1)
20009c30:	41cc                	lw	a1,4(a1)
20009c32:	4d8c                	lw	a1,24(a1)
20009c34:	9582                	jalr	a1
20009c36:	0491                	addi	s1,s1,4
20009c38:	ff5498e3          	bne	s1,s5,20009c28 <_ZN6kernel5debug19panic_blink_forever17hceb153ce1729493bE+0xa4>
20009c3c:	0b05                	addi	s6,s6,1
20009c3e:	ff2b12e3          	bne	s6,s2,20009c22 <_ZN6kernel5debug19panic_blink_forever17hceb153ce1729493bE+0x9e>
20009c42:	4b01                	li	s6,0
20009c44:	f94b06e3          	beq	s6,s4,20009bd0 <_ZN6kernel5debug19panic_blink_forever17hceb153ce1729493bE+0x4c>
20009c48:	4481                	li	s1,0
20009c4a:	01548c63          	beq	s1,s5,20009c62 <_ZN6kernel5debug19panic_blink_forever17hceb153ce1729493bE+0xde>
20009c4e:	009b8533          	add	a0,s7,s1
20009c52:	410c                	lw	a1,0(a0)
20009c54:	4188                	lw	a0,0(a1)
20009c56:	41cc                	lw	a1,4(a1)
20009c58:	49cc                	lw	a1,20(a1)
20009c5a:	9582                	jalr	a1
20009c5c:	0491                	addi	s1,s1,4
20009c5e:	ff5498e3          	bne	s1,s5,20009c4e <_ZN6kernel5debug19panic_blink_forever17hceb153ce1729493bE+0xca>
20009c62:	0b05                	addi	s6,s6,1
20009c64:	ff4b12e3          	bne	s6,s4,20009c48 <_ZN6kernel5debug19panic_blink_forever17hceb153ce1729493bE+0xc4>
20009c68:	b7a5                	j	20009bd0 <_ZN6kernel5debug19panic_blink_forever17hceb153ce1729493bE+0x4c>

20009c6a <_ZN4core3ptr13drop_in_place17hbcb9315d8128737bE>:
20009c6a:	1141                	addi	sp,sp,-16
20009c6c:	c606                	sw	ra,12(sp)
20009c6e:	c422                	sw	s0,8(sp)
20009c70:	0800                	addi	s0,sp,16
20009c72:	4422                	lw	s0,8(sp)
20009c74:	40b2                	lw	ra,12(sp)
20009c76:	0141                	addi	sp,sp,16
20009c78:	8082                	ret

20009c7a <_ZN93_$LT$capsules..virtual_alarm..MuxAlarm$LT$A$GT$$u20$as$u20$kernel..hil..time..AlarmClient$GT$5fired17h6bfa76168bae1df7E>:
20009c7a:	1101                	addi	sp,sp,-32
20009c7c:	ce06                	sw	ra,28(sp)
20009c7e:	cc22                	sw	s0,24(sp)
20009c80:	ca26                	sw	s1,20(sp)
20009c82:	c84a                	sw	s2,16(sp)
20009c84:	1000                	addi	s0,sp,32
20009c86:	892a                	mv	s2,a0
20009c88:	4548                	lw	a0,12(a0)
20009c8a:	4108                	lw	a0,0(a0)
20009c8c:	10452503          	lw	a0,260(a0)
20009c90:	fea42423          	sw	a0,-24(s0)
20009c94:	00892503          	lw	a0,8(s2)
20009c98:	fea42623          	sw	a0,-20(s0)
20009c9c:	00092483          	lw	s1,0(s2)
20009ca0:	cc8d                	beqz	s1,20009cda <_ZN93_$LT$capsules..virtual_alarm..MuxAlarm$LT$A$GT$$u20$as$u20$kernel..hil..time..AlarmClient$GT$5fired17h6bfa76168bae1df7E+0x60>
20009ca2:	85a6                	mv	a1,s1
20009ca4:	4484                	lw	s1,8(s1)
20009ca6:	0145c503          	lbu	a0,20(a1)
20009caa:	d97d                	beqz	a0,20009ca0 <_ZN93_$LT$capsules..virtual_alarm..MuxAlarm$LT$A$GT$$u20$as$u20$kernel..hil..time..AlarmClient$GT$5fired17h6bfa76168bae1df7E+0x26>
20009cac:	fec42503          	lw	a0,-20(s0)
20009cb0:	fe842603          	lw	a2,-24(s0)
20009cb4:	8e09                	sub	a2,a2,a0
20009cb6:	41d4                	lw	a3,4(a1)
20009cb8:	40a68533          	sub	a0,a3,a0
20009cbc:	fea662e3          	bltu	a2,a0,20009ca0 <_ZN93_$LT$capsules..virtual_alarm..MuxAlarm$LT$A$GT$$u20$as$u20$kernel..hil..time..AlarmClient$GT$5fired17h6bfa76168bae1df7E+0x26>
20009cc0:	00058a23          	sb	zero,20(a1)
20009cc4:	00492503          	lw	a0,4(s2)
20009cc8:	157d                	addi	a0,a0,-1
20009cca:	00a92223          	sw	a0,4(s2)
20009cce:	45c8                	lw	a0,12(a1)
20009cd0:	d961                	beqz	a0,20009ca0 <_ZN93_$LT$capsules..virtual_alarm..MuxAlarm$LT$A$GT$$u20$as$u20$kernel..hil..time..AlarmClient$GT$5fired17h6bfa76168bae1df7E+0x26>
20009cd2:	498c                	lw	a1,16(a1)
20009cd4:	45cc                	lw	a1,12(a1)
20009cd6:	9582                	jalr	a1
20009cd8:	f4e9                	bnez	s1,20009ca2 <_ZN93_$LT$capsules..virtual_alarm..MuxAlarm$LT$A$GT$$u20$as$u20$kernel..hil..time..AlarmClient$GT$5fired17h6bfa76168bae1df7E+0x28>
20009cda:	00092603          	lw	a2,0(s2)
20009cde:	ca35                	beqz	a2,20009d52 <_ZN93_$LT$capsules..virtual_alarm..MuxAlarm$LT$A$GT$$u20$as$u20$kernel..hil..time..AlarmClient$GT$5fired17h6bfa76168bae1df7E+0xd8>
20009ce0:	8532                	mv	a0,a2
20009ce2:	4610                	lw	a2,8(a2)
20009ce4:	01454583          	lbu	a1,20(a0)
20009ce8:	d9fd                	beqz	a1,20009cde <_ZN93_$LT$capsules..virtual_alarm..MuxAlarm$LT$A$GT$$u20$as$u20$kernel..hil..time..AlarmClient$GT$5fired17h6bfa76168bae1df7E+0x64>
20009cea:	4154                	lw	a3,4(a0)
20009cec:	fe842583          	lw	a1,-24(s0)
20009cf0:	8e8d                	sub	a3,a3,a1
20009cf2:	ce19                	beqz	a2,20009d10 <_ZN93_$LT$capsules..virtual_alarm..MuxAlarm$LT$A$GT$$u20$as$u20$kernel..hil..time..AlarmClient$GT$5fired17h6bfa76168bae1df7E+0x96>
20009cf4:	4618                	lw	a4,8(a2)
20009cf6:	01464783          	lbu	a5,20(a2)
20009cfa:	cb89                	beqz	a5,20009d0c <_ZN93_$LT$capsules..virtual_alarm..MuxAlarm$LT$A$GT$$u20$as$u20$kernel..hil..time..AlarmClient$GT$5fired17h6bfa76168bae1df7E+0x92>
20009cfc:	425c                	lw	a5,4(a2)
20009cfe:	8f8d                	sub	a5,a5,a1
20009d00:	00d7e463          	bltu	a5,a3,20009d08 <_ZN93_$LT$capsules..virtual_alarm..MuxAlarm$LT$A$GT$$u20$as$u20$kernel..hil..time..AlarmClient$GT$5fired17h6bfa76168bae1df7E+0x8e>
20009d04:	862a                	mv	a2,a0
20009d06:	87b6                	mv	a5,a3
20009d08:	86be                	mv	a3,a5
20009d0a:	8532                	mv	a0,a2
20009d0c:	863a                	mv	a2,a4
20009d0e:	f27d                	bnez	a2,20009cf4 <_ZN93_$LT$capsules..virtual_alarm..MuxAlarm$LT$A$GT$$u20$as$u20$kernel..hil..time..AlarmClient$GT$5fired17h6bfa76168bae1df7E+0x7a>
20009d10:	fe842583          	lw	a1,-24(s0)
20009d14:	00b92423          	sw	a1,8(s2)
20009d18:	00c92583          	lw	a1,12(s2)
20009d1c:	418c                	lw	a1,0(a1)
20009d1e:	4150                	lw	a2,4(a0)
20009d20:	1005a423          	sw	zero,264(a1)
20009d24:	10c5a623          	sw	a2,268(a1)
20009d28:	4605                	li	a2,1
20009d2a:	10c5aa23          	sw	a2,276(a1)
20009d2e:	4148                	lw	a0,4(a0)
20009d30:	00c92583          	lw	a1,12(s2)
20009d34:	418c                	lw	a1,0(a1)
20009d36:	1045a583          	lw	a1,260(a1)
20009d3a:	fec42603          	lw	a2,-20(s0)
20009d3e:	8d11                	sub	a0,a0,a2
20009d40:	8d91                	sub	a1,a1,a2
20009d42:	02a5e163          	bltu	a1,a0,20009d64 <_ZN93_$LT$capsules..virtual_alarm..MuxAlarm$LT$A$GT$$u20$as$u20$kernel..hil..time..AlarmClient$GT$5fired17h6bfa76168bae1df7E+0xea>
20009d46:	854a                	mv	a0,s2
20009d48:	00000097          	auipc	ra,0x0
20009d4c:	f32080e7          	jalr	-206(ra) # 20009c7a <_ZN93_$LT$capsules..virtual_alarm..MuxAlarm$LT$A$GT$$u20$as$u20$kernel..hil..time..AlarmClient$GT$5fired17h6bfa76168bae1df7E>
20009d50:	a811                	j	20009d64 <_ZN93_$LT$capsules..virtual_alarm..MuxAlarm$LT$A$GT$$u20$as$u20$kernel..hil..time..AlarmClient$GT$5fired17h6bfa76168bae1df7E+0xea>
20009d52:	fe842503          	lw	a0,-24(s0)
20009d56:	00a92423          	sw	a0,8(s2)
20009d5a:	00c92503          	lw	a0,12(s2)
20009d5e:	4108                	lw	a0,0(a0)
20009d60:	10052a23          	sw	zero,276(a0)
20009d64:	4942                	lw	s2,16(sp)
20009d66:	44d2                	lw	s1,20(sp)
20009d68:	4462                	lw	s0,24(sp)
20009d6a:	40f2                	lw	ra,28(sp)
20009d6c:	6105                	addi	sp,sp,32
20009d6e:	8082                	ret

20009d70 <_ZN94_$LT$capsules..virtual_alarm..VirtualMuxAlarm$LT$A$GT$$u20$as$u20$kernel..hil..time..Alarm$GT$10set_client17hc4785c41a748aefbE>:
20009d70:	1141                	addi	sp,sp,-16
20009d72:	c606                	sw	ra,12(sp)
20009d74:	c422                	sw	s0,8(sp)
20009d76:	0800                	addi	s0,sp,16
20009d78:	10003537          	lui	a0,0x10003
20009d7c:	87050593          	addi	a1,a0,-1936 # 10002870 <_ZN9opentitan13reset_handler3BUF17ha23ded1fbd13c762E>
20009d80:	87052503          	lw	a0,-1936(a0)
20009d84:	4110                	lw	a2,0(a0)
20009d86:	c590                	sw	a2,8(a1)
20009d88:	c10c                	sw	a1,0(a0)
20009d8a:	00058a23          	sb	zero,20(a1)
20009d8e:	0005a223          	sw	zero,4(a1)
20009d92:	10002537          	lui	a0,0x10002
20009d96:	b1850513          	addi	a0,a0,-1256 # 10001b18 <.L__unnamed_12>
20009d9a:	c988                	sw	a0,16(a1)
20009d9c:	10003537          	lui	a0,0x10003
20009da0:	88850513          	addi	a0,a0,-1912 # 10002888 <_ZN9opentitan13reset_handler3BUF17h1160644769b18797E>
20009da4:	c5c8                	sw	a0,12(a1)
20009da6:	4422                	lw	s0,8(sp)
20009da8:	40b2                	lw	ra,12(sp)
20009daa:	0141                	addi	sp,sp,16
20009dac:	8082                	ret

20009dae <_ZN94_$LT$capsules..virtual_alarm..VirtualMuxAlarm$LT$A$GT$$u20$as$u20$kernel..hil..time..Alarm$GT$7disable17hb60758683e5caa80E>:
20009dae:	1141                	addi	sp,sp,-16
20009db0:	c606                	sw	ra,12(sp)
20009db2:	c422                	sw	s0,8(sp)
20009db4:	0800                	addi	s0,sp,16
20009db6:	01454583          	lbu	a1,20(a0)
20009dba:	cd89                	beqz	a1,20009dd4 <_ZN94_$LT$capsules..virtual_alarm..VirtualMuxAlarm$LT$A$GT$$u20$as$u20$kernel..hil..time..Alarm$GT$7disable17hb60758683e5caa80E+0x26>
20009dbc:	00050a23          	sb	zero,20(a0)
20009dc0:	410c                	lw	a1,0(a0)
20009dc2:	41d0                	lw	a2,4(a1)
20009dc4:	167d                	addi	a2,a2,-1
20009dc6:	c1d0                	sw	a2,4(a1)
20009dc8:	e611                	bnez	a2,20009dd4 <_ZN94_$LT$capsules..virtual_alarm..VirtualMuxAlarm$LT$A$GT$$u20$as$u20$kernel..hil..time..Alarm$GT$7disable17hb60758683e5caa80E+0x26>
20009dca:	4108                	lw	a0,0(a0)
20009dcc:	4548                	lw	a0,12(a0)
20009dce:	4108                	lw	a0,0(a0)
20009dd0:	10052a23          	sw	zero,276(a0)
20009dd4:	4422                	lw	s0,8(sp)
20009dd6:	40b2                	lw	ra,12(sp)
20009dd8:	0141                	addi	sp,sp,16
20009dda:	8082                	ret

20009ddc <_ZN71_$LT$kernel..grant..Owned$LT$T$GT$$u20$as$u20$core..ops..drop..Drop$GT$4drop17h9927a2340e8a61d2E>:
20009ddc:	7179                	addi	sp,sp,-48
20009dde:	d606                	sw	ra,44(sp)
20009de0:	d422                	sw	s0,40(sp)
20009de2:	d226                	sw	s1,36(sp)
20009de4:	d04a                	sw	s2,32(sp)
20009de6:	ce4e                	sw	s3,28(sp)
20009de8:	cc52                	sw	s4,24(sp)
20009dea:	1800                	addi	s0,sp,48
20009dec:	4150                	lw	a2,4(a0)
20009dee:	450c                	lw	a1,8(a0)
20009df0:	4614                	lw	a3,8(a2)
20009df2:	02d5fc63          	bgeu	a1,a3,20009e2a <_ZN71_$LT$kernel..grant..Owned$LT$T$GT$$u20$as$u20$core..ops..drop..Drop$GT$4drop17h9927a2340e8a61d2E+0x4e>
20009df6:	4250                	lw	a2,4(a2)
20009df8:	058e                	slli	a1,a1,0x3
20009dfa:	95b2                	add	a1,a1,a2
20009dfc:	4184                	lw	s1,0(a1)
20009dfe:	c495                	beqz	s1,20009e2a <_ZN71_$LT$kernel..grant..Owned$LT$T$GT$$u20$as$u20$core..ops..drop..Drop$GT$4drop17h9927a2340e8a61d2E+0x4e>
20009e00:	00c52a03          	lw	s4,12(a0)
20009e04:	00052903          	lw	s2,0(a0)
20009e08:	0045a983          	lw	s3,4(a1)
20009e0c:	00c9a603          	lw	a2,12(s3)
20009e10:	fd840513          	addi	a0,s0,-40
20009e14:	85a6                	mv	a1,s1
20009e16:	9602                	jalr	a2
20009e18:	fe042503          	lw	a0,-32(s0)
20009e1c:	01451763          	bne	a0,s4,20009e2a <_ZN71_$LT$kernel..grant..Owned$LT$T$GT$$u20$as$u20$core..ops..drop..Drop$GT$4drop17h9927a2340e8a61d2E+0x4e>
20009e20:	0789a603          	lw	a2,120(s3)
20009e24:	8526                	mv	a0,s1
20009e26:	85ca                	mv	a1,s2
20009e28:	9602                	jalr	a2
20009e2a:	4a62                	lw	s4,24(sp)
20009e2c:	49f2                	lw	s3,28(sp)
20009e2e:	5902                	lw	s2,32(sp)
20009e30:	5492                	lw	s1,36(sp)
20009e32:	5422                	lw	s0,40(sp)
20009e34:	50b2                	lw	ra,44(sp)
20009e36:	6145                	addi	sp,sp,48
20009e38:	8082                	ret

20009e3a <_ZN106_$LT$kernel..common..ring_buffer..RingBuffer$LT$T$GT$$u20$as$u20$kernel..common..queue..Queue$LT$T$GT$$GT$3len17h63c07b7591620bfcE>:
20009e3a:	1141                	addi	sp,sp,-16
20009e3c:	c606                	sw	ra,12(sp)
20009e3e:	c422                	sw	s0,8(sp)
20009e40:	0800                	addi	s0,sp,16
20009e42:	00c5f563          	bgeu	a1,a2,20009e4c <_ZN106_$LT$kernel..common..ring_buffer..RingBuffer$LT$T$GT$$u20$as$u20$kernel..common..queue..Queue$LT$T$GT$$GT$3len17h63c07b7591620bfcE+0x12>
20009e46:	40b60533          	sub	a0,a2,a1
20009e4a:	a801                	j	20009e5a <_ZN106_$LT$kernel..common..ring_buffer..RingBuffer$LT$T$GT$$u20$as$u20$kernel..common..queue..Queue$LT$T$GT$$GT$3len17h63c07b7591620bfcE+0x20>
20009e4c:	00b67663          	bgeu	a2,a1,20009e58 <_ZN106_$LT$kernel..common..ring_buffer..RingBuffer$LT$T$GT$$u20$as$u20$kernel..common..queue..Queue$LT$T$GT$$GT$3len17h63c07b7591620bfcE+0x1e>
20009e50:	40b605b3          	sub	a1,a2,a1
20009e54:	952e                	add	a0,a0,a1
20009e56:	a011                	j	20009e5a <_ZN106_$LT$kernel..common..ring_buffer..RingBuffer$LT$T$GT$$u20$as$u20$kernel..common..queue..Queue$LT$T$GT$$GT$3len17h63c07b7591620bfcE+0x20>
20009e58:	4501                	li	a0,0
20009e5a:	4422                	lw	s0,8(sp)
20009e5c:	40b2                	lw	ra,12(sp)
20009e5e:	0141                	addi	sp,sp,16
20009e60:	8082                	ret

20009e62 <_ZN106_$LT$kernel..common..ring_buffer..RingBuffer$LT$T$GT$$u20$as$u20$kernel..common..queue..Queue$LT$T$GT$$GT$7enqueue17h1485d6c9e9be0704E>:
20009e62:	7139                	addi	sp,sp,-64
20009e64:	de06                	sw	ra,60(sp)
20009e66:	dc22                	sw	s0,56(sp)
20009e68:	da26                	sw	s1,52(sp)
20009e6a:	d84a                	sw	s2,48(sp)
20009e6c:	d64e                	sw	s3,44(sp)
20009e6e:	d452                	sw	s4,40(sp)
20009e70:	0080                	addi	s0,sp,64
20009e72:	00452903          	lw	s2,4(a0)
20009e76:	06090663          	beqz	s2,20009ee2 <_ZN106_$LT$kernel..common..ring_buffer..RingBuffer$LT$T$GT$$u20$as$u20$kernel..common..queue..Queue$LT$T$GT$$GT$7enqueue17h1485d6c9e9be0704E+0x80>
20009e7a:	84aa                	mv	s1,a0
20009e7c:	00c52983          	lw	s3,12(a0)
20009e80:	00198513          	addi	a0,s3,1
20009e84:	03257533          	remu	a0,a0,s2
20009e88:	4490                	lw	a2,8(s1)
20009e8a:	00a61463          	bne	a2,a0,20009e92 <_ZN106_$LT$kernel..common..ring_buffer..RingBuffer$LT$T$GT$$u20$as$u20$kernel..common..queue..Queue$LT$T$GT$$GT$7enqueue17h1485d6c9e9be0704E+0x30>
20009e8e:	4501                	li	a0,0
20009e90:	a089                	j	20009ed2 <_ZN106_$LT$kernel..common..ring_buffer..RingBuffer$LT$T$GT$$u20$as$u20$kernel..common..queue..Queue$LT$T$GT$$GT$7enqueue17h1485d6c9e9be0704E+0x70>
20009e92:	fc040513          	addi	a0,s0,-64
20009e96:	02400a13          	li	s4,36
20009e9a:	02400613          	li	a2,36
20009e9e:	00001097          	auipc	ra,0x1
20009ea2:	640080e7          	jalr	1600(ra) # 2000b4de <memcpy>
20009ea6:	0529f763          	bgeu	s3,s2,20009ef4 <_ZN106_$LT$kernel..common..ring_buffer..RingBuffer$LT$T$GT$$u20$as$u20$kernel..common..queue..Queue$LT$T$GT$$GT$7enqueue17h1485d6c9e9be0704E+0x92>
20009eaa:	03498533          	mul	a0,s3,s4
20009eae:	408c                	lw	a1,0(s1)
20009eb0:	952e                	add	a0,a0,a1
20009eb2:	fc040593          	addi	a1,s0,-64
20009eb6:	02400613          	li	a2,36
20009eba:	00001097          	auipc	ra,0x1
20009ebe:	624080e7          	jalr	1572(ra) # 2000b4de <memcpy>
20009ec2:	40c8                	lw	a0,4(s1)
20009ec4:	c531                	beqz	a0,20009f10 <_ZN106_$LT$kernel..common..ring_buffer..RingBuffer$LT$T$GT$$u20$as$u20$kernel..common..queue..Queue$LT$T$GT$$GT$7enqueue17h1485d6c9e9be0704E+0xae>
20009ec6:	44cc                	lw	a1,12(s1)
20009ec8:	0585                	addi	a1,a1,1
20009eca:	02a5f533          	remu	a0,a1,a0
20009ece:	c4c8                	sw	a0,12(s1)
20009ed0:	4505                	li	a0,1
20009ed2:	5a22                	lw	s4,40(sp)
20009ed4:	59b2                	lw	s3,44(sp)
20009ed6:	5942                	lw	s2,48(sp)
20009ed8:	54d2                	lw	s1,52(sp)
20009eda:	5462                	lw	s0,56(sp)
20009edc:	50f2                	lw	ra,60(sp)
20009ede:	6121                	addi	sp,sp,64
20009ee0:	8082                	ret
20009ee2:	2000e537          	lui	a0,0x2000e
20009ee6:	f8050513          	addi	a0,a0,-128 # 2000df80 <str.0.921>
20009eea:	100025b7          	lui	a1,0x10002
20009eee:	bd858613          	addi	a2,a1,-1064 # 10001bd8 <.L__unnamed_45>
20009ef2:	a03d                	j	20009f20 <_ZN106_$LT$kernel..common..ring_buffer..RingBuffer$LT$T$GT$$u20$as$u20$kernel..common..queue..Queue$LT$T$GT$$GT$7enqueue17h1485d6c9e9be0704E+0xbe>
20009ef4:	10002537          	lui	a0,0x10002
20009ef8:	be850513          	addi	a0,a0,-1048 # 10001be8 <.L__unnamed_46>
20009efc:	85ce                	mv	a1,s3
20009efe:	864a                	mv	a2,s2
20009f00:	ffffb097          	auipc	ra,0xffffb
20009f04:	c28080e7          	jalr	-984(ra) # 20004b28 <_ZN4core9panicking18panic_bounds_check17h95c8cd8536e82dafE>
20009f08:	00005097          	auipc	ra,0x5
20009f0c:	cd4080e7          	jalr	-812(ra) # 2000ebdc <abort>
20009f10:	2000e537          	lui	a0,0x2000e
20009f14:	f8050513          	addi	a0,a0,-128 # 2000df80 <str.0.921>
20009f18:	100025b7          	lui	a1,0x10002
20009f1c:	bf858613          	addi	a2,a1,-1032 # 10001bf8 <.L__unnamed_47>
20009f20:	03900593          	li	a1,57
20009f24:	ffffb097          	auipc	ra,0xffffb
20009f28:	bbc080e7          	jalr	-1092(ra) # 20004ae0 <_ZN4core9panicking5panic17haaa649c2263e8176E>
20009f2c:	00005097          	auipc	ra,0x5
20009f30:	cb0080e7          	jalr	-848(ra) # 2000ebdc <abort>

20009f34 <_ZN6kernel6driver6Driver5allow17h7cbbf9de573d48dbE>:
20009f34:	1141                	addi	sp,sp,-16
20009f36:	c606                	sw	ra,12(sp)
20009f38:	c422                	sw	s0,8(sp)
20009f3a:	0800                	addi	s0,sp,16
20009f3c:	4288                	lw	a0,0(a3)
20009f3e:	c511                	beqz	a0,20009f4a <_ZN6kernel6driver6Driver5allow17h7cbbf9de573d48dbE+0x16>
20009f40:	8536                	mv	a0,a3
20009f42:	ffffd097          	auipc	ra,0xffffd
20009f46:	c4a080e7          	jalr	-950(ra) # 20006b8c <_ZN74_$LT$kernel..mem..AppPtr$LT$L$C$T$GT$$u20$as$u20$core..ops..drop..Drop$GT$4drop17h5721b51cc2d71355E>
20009f4a:	452d                	li	a0,11
20009f4c:	4422                	lw	s0,8(sp)
20009f4e:	40b2                	lw	ra,12(sp)
20009f50:	0141                	addi	sp,sp,16
20009f52:	8082                	ret

20009f54 <_ZN80_$LT$capsules..alarm..AlarmDriver$LT$A$GT$$u20$as$u20$kernel..driver..Driver$GT$7command17h10cc3f4c5db1201eE>:
20009f54:	711d                	addi	sp,sp,-96
20009f56:	ce86                	sw	ra,92(sp)
20009f58:	cca2                	sw	s0,88(sp)
20009f5a:	caa6                	sw	s1,84(sp)
20009f5c:	c8ca                	sw	s2,80(sp)
20009f5e:	c6ce                	sw	s3,76(sp)
20009f60:	c4d2                	sw	s4,72(sp)
20009f62:	c2d6                	sw	s5,68(sp)
20009f64:	1080                	addi	s0,sp,96
20009f66:	892a                	mv	s2,a0
20009f68:	fab42823          	sw	a1,-80(s0)
20009f6c:	faa42623          	sw	a0,-84(s0)
20009f70:	fac42a23          	sw	a2,-76(s0)
20009f74:	4704                	lw	s1,8(a4)
20009f76:	fc942023          	sw	s1,-64(s0)
20009f7a:	4348                	lw	a0,4(a4)
20009f7c:	faa42e23          	sw	a0,-68(s0)
20009f80:	430c                	lw	a1,0(a4)
20009f82:	fab42c23          	sw	a1,-72(s0)
20009f86:	4590                	lw	a2,8(a1)
20009f88:	0ac57463          	bgeu	a0,a2,2000a030 <_ZN80_$LT$capsules..alarm..AlarmDriver$LT$A$GT$$u20$as$u20$kernel..driver..Driver$GT$7command17h10cc3f4c5db1201eE+0xdc>
20009f8c:	41cc                	lw	a1,4(a1)
20009f8e:	050e                	slli	a0,a0,0x3
20009f90:	952e                	add	a0,a0,a1
20009f92:	00052a03          	lw	s4,0(a0)
20009f96:	080a0d63          	beqz	s4,2000a030 <_ZN80_$LT$capsules..alarm..AlarmDriver$LT$A$GT$$u20$as$u20$kernel..driver..Driver$GT$7command17h10cc3f4c5db1201eE+0xdc>
20009f9a:	00452a83          	lw	s5,4(a0)
20009f9e:	00caa603          	lw	a2,12(s5)
20009fa2:	fc840513          	addi	a0,s0,-56
20009fa6:	85d2                	mv	a1,s4
20009fa8:	9602                	jalr	a2
20009faa:	fd042503          	lw	a0,-48(s0)
20009fae:	08951163          	bne	a0,s1,2000a030 <_ZN80_$LT$capsules..alarm..AlarmDriver$LT$A$GT$$u20$as$u20$kernel..driver..Driver$GT$7command17h10cc3f4c5db1201eE+0xdc>
20009fb2:	07caa603          	lw	a2,124(s5)
20009fb6:	00c92583          	lw	a1,12(s2)
20009fba:	8552                	mv	a0,s4
20009fbc:	9602                	jalr	a2
20009fbe:	89ae                	mv	s3,a1
20009fc0:	458d                	li	a1,3
20009fc2:	4605                	li	a2,1
20009fc4:	06c51763          	bne	a0,a2,2000a032 <_ZN80_$LT$capsules..alarm..AlarmDriver$LT$A$GT$$u20$as$u20$kernel..driver..Driver$GT$7command17h10cc3f4c5db1201eE+0xde>
20009fc8:	0009a903          	lw	s2,0(s3)
20009fcc:	02091963          	bnez	s2,20009ffe <_ZN80_$LT$capsules..alarm..AlarmDriver$LT$A$GT$$u20$as$u20$kernel..driver..Driver$GT$7command17h10cc3f4c5db1201eE+0xaa>
20009fd0:	074aa683          	lw	a3,116(s5)
20009fd4:	8552                	mv	a0,s4
20009fd6:	02400593          	li	a1,36
20009fda:	4611                	li	a2,4
20009fdc:	9682                	jalr	a3
20009fde:	c141                	beqz	a0,2000a05e <_ZN80_$LT$capsules..alarm..AlarmDriver$LT$A$GT$$u20$as$u20$kernel..driver..Driver$GT$7command17h10cc3f4c5db1201eE+0x10a>
20009fe0:	892a                	mv	s2,a0
20009fe2:	00052423          	sw	zero,8(a0)
20009fe6:	00052023          	sw	zero,0(a0)
20009fea:	0531                	addi	a0,a0,12
20009fec:	fc840593          	addi	a1,s0,-56
20009ff0:	4661                	li	a2,24
20009ff2:	00001097          	auipc	ra,0x1
20009ff6:	4ec080e7          	jalr	1260(ra) # 2000b4de <memcpy>
20009ffa:	0129a023          	sw	s2,0(s3)
20009ffe:	fac42503          	lw	a0,-84(s0)
2000a002:	410c                	lw	a1,0(a0)
2000a004:	418c                	lw	a1,0(a1)
2000a006:	45cc                	lw	a1,12(a1)
2000a008:	418c                	lw	a1,0(a1)
2000a00a:	1045a583          	lw	a1,260(a1)
2000a00e:	fb042603          	lw	a2,-80(s0)
2000a012:	4691                	li	a3,4
2000a014:	04d60763          	beq	a2,a3,2000a062 <_ZN80_$LT$capsules..alarm..AlarmDriver$LT$A$GT$$u20$as$u20$kernel..driver..Driver$GT$7command17h10cc3f4c5db1201eE+0x10e>
2000a018:	4505                	li	a0,1
2000a01a:	02a60e63          	beq	a2,a0,2000a056 <_ZN80_$LT$capsules..alarm..AlarmDriver$LT$A$GT$$u20$as$u20$kernel..driver..Driver$GT$7command17h10cc3f4c5db1201eE+0x102>
2000a01e:	4509                	li	a0,2
2000a020:	06a60263          	beq	a2,a0,2000a084 <_ZN80_$LT$capsules..alarm..AlarmDriver$LT$A$GT$$u20$as$u20$kernel..driver..Driver$GT$7command17h10cc3f4c5db1201eE+0x130>
2000a024:	450d                	li	a0,3
2000a026:	06a60263          	beq	a2,a0,2000a08a <_ZN80_$LT$capsules..alarm..AlarmDriver$LT$A$GT$$u20$as$u20$kernel..driver..Driver$GT$7command17h10cc3f4c5db1201eE+0x136>
2000a02a:	ea41                	bnez	a2,2000a0ba <_ZN80_$LT$capsules..alarm..AlarmDriver$LT$A$GT$$u20$as$u20$kernel..driver..Driver$GT$7command17h10cc3f4c5db1201eE+0x166>
2000a02c:	4985                	li	s3,1
2000a02e:	a8a1                	j	2000a086 <_ZN80_$LT$capsules..alarm..AlarmDriver$LT$A$GT$$u20$as$u20$kernel..driver..Driver$GT$7command17h10cc3f4c5db1201eE+0x132>
2000a030:	4581                	li	a1,0
2000a032:	2000e537          	lui	a0,0x2000e
2000a036:	c9050513          	addi	a0,a0,-880 # 2000dc90 <.Lswitch.table._ZN6kernel7process110_$LT$impl$u20$core..convert..From$LT$kernel..process..Error$GT$$u20$for$u20$kernel..returncode..ReturnCode$GT$4from17h3567326624cf5547E>
2000a03a:	058a                	slli	a1,a1,0x2
2000a03c:	952e                	add	a0,a0,a1
2000a03e:	4104                	lw	s1,0(a0)
2000a040:	8526                	mv	a0,s1
2000a042:	85ce                	mv	a1,s3
2000a044:	4a96                	lw	s5,68(sp)
2000a046:	4a26                	lw	s4,72(sp)
2000a048:	49b6                	lw	s3,76(sp)
2000a04a:	4946                	lw	s2,80(sp)
2000a04c:	44d6                	lw	s1,84(sp)
2000a04e:	4466                	lw	s0,88(sp)
2000a050:	40f6                	lw	ra,92(sp)
2000a052:	6125                	addi	sp,sp,96
2000a054:	8082                	ret
2000a056:	6509                	lui	a0,0x2
2000a058:	71050993          	addi	s3,a0,1808 # 2710 <.Lline_table_start8+0x120>
2000a05c:	a02d                	j	2000a086 <_ZN80_$LT$capsules..alarm..AlarmDriver$LT$A$GT$$u20$as$u20$kernel..driver..Driver$GT$7command17h10cc3f4c5db1201eE+0x132>
2000a05e:	4585                	li	a1,1
2000a060:	bfc9                	j	2000a032 <_ZN80_$LT$capsules..alarm..AlarmDriver$LT$A$GT$$u20$as$u20$kernel..driver..Driver$GT$7command17h10cc3f4c5db1201eE+0xde>
2000a062:	fb442983          	lw	s3,-76(s0)
2000a066:	00092603          	lw	a2,0(s2)
2000a06a:	e601                	bnez	a2,2000a072 <_ZN80_$LT$capsules..alarm..AlarmDriver$LT$A$GT$$u20$as$u20$kernel..driver..Driver$GT$7command17h10cc3f4c5db1201eE+0x11e>
2000a06c:	4150                	lw	a2,4(a0)
2000a06e:	0605                	addi	a2,a2,1
2000a070:	c150                	sw	a2,4(a0)
2000a072:	01392223          	sw	s3,4(s2)
2000a076:	4505                	li	a0,1
2000a078:	00a92023          	sw	a0,0(s2)
2000a07c:	fac42503          	lw	a0,-84(s0)
2000a080:	4481                	li	s1,0
2000a082:	a03d                	j	2000a0b0 <_ZN80_$LT$capsules..alarm..AlarmDriver$LT$A$GT$$u20$as$u20$kernel..driver..Driver$GT$7command17h10cc3f4c5db1201eE+0x15c>
2000a084:	89ae                	mv	s3,a1
2000a086:	4481                	li	s1,0
2000a088:	bf65                	j	2000a040 <_ZN80_$LT$capsules..alarm..AlarmDriver$LT$A$GT$$u20$as$u20$kernel..driver..Driver$GT$7command17h10cc3f4c5db1201eE+0xec>
2000a08a:	00092503          	lw	a0,0(s2)
2000a08e:	4605                	li	a2,1
2000a090:	02c51763          	bne	a0,a2,2000a0be <_ZN80_$LT$capsules..alarm..AlarmDriver$LT$A$GT$$u20$as$u20$kernel..driver..Driver$GT$7command17h10cc3f4c5db1201eE+0x16a>
2000a094:	00492503          	lw	a0,4(s2)
2000a098:	fb442603          	lw	a2,-76(s0)
2000a09c:	02c51363          	bne	a0,a2,2000a0c2 <_ZN80_$LT$capsules..alarm..AlarmDriver$LT$A$GT$$u20$as$u20$kernel..driver..Driver$GT$7command17h10cc3f4c5db1201eE+0x16e>
2000a0a0:	00092023          	sw	zero,0(s2)
2000a0a4:	fac42503          	lw	a0,-84(s0)
2000a0a8:	4150                	lw	a2,4(a0)
2000a0aa:	167d                	addi	a2,a2,-1
2000a0ac:	c150                	sw	a2,4(a0)
2000a0ae:	4485                	li	s1,1
2000a0b0:	00000097          	auipc	ra,0x0
2000a0b4:	270080e7          	jalr	624(ra) # 2000a320 <_ZN8capsules5alarm20AlarmDriver$LT$A$GT$18reset_active_alarm17h19dc25310fc89d49E>
2000a0b8:	b761                	j	2000a040 <_ZN80_$LT$capsules..alarm..AlarmDriver$LT$A$GT$$u20$as$u20$kernel..driver..Driver$GT$7command17h10cc3f4c5db1201eE+0xec>
2000a0ba:	44ad                	li	s1,11
2000a0bc:	b751                	j	2000a040 <_ZN80_$LT$capsules..alarm..AlarmDriver$LT$A$GT$$u20$as$u20$kernel..driver..Driver$GT$7command17h10cc3f4c5db1201eE+0xec>
2000a0be:	4491                	li	s1,4
2000a0c0:	b741                	j	2000a040 <_ZN80_$LT$capsules..alarm..AlarmDriver$LT$A$GT$$u20$as$u20$kernel..driver..Driver$GT$7command17h10cc3f4c5db1201eE+0xec>
2000a0c2:	449d                	li	s1,7
2000a0c4:	bfb5                	j	2000a040 <_ZN80_$LT$capsules..alarm..AlarmDriver$LT$A$GT$$u20$as$u20$kernel..driver..Driver$GT$7command17h10cc3f4c5db1201eE+0xec>

2000a0c6 <_ZN80_$LT$capsules..alarm..AlarmDriver$LT$A$GT$$u20$as$u20$kernel..driver..Driver$GT$9subscribe17h5d6316a5749870b9E>:
2000a0c6:	715d                	addi	sp,sp,-80
2000a0c8:	c686                	sw	ra,76(sp)
2000a0ca:	c4a2                	sw	s0,72(sp)
2000a0cc:	c2a6                	sw	s1,68(sp)
2000a0ce:	c0ca                	sw	s2,64(sp)
2000a0d0:	de4e                	sw	s3,60(sp)
2000a0d2:	dc52                	sw	s4,56(sp)
2000a0d4:	da56                	sw	s5,52(sp)
2000a0d6:	d85a                	sw	s6,48(sp)
2000a0d8:	0880                	addi	s0,sp,80
2000a0da:	8932                	mv	s2,a2
2000a0dc:	89aa                	mv	s3,a0
2000a0de:	4684                	lw	s1,8(a3)
2000a0e0:	fc942023          	sw	s1,-64(s0)
2000a0e4:	42c8                	lw	a0,4(a3)
2000a0e6:	faa42e23          	sw	a0,-68(s0)
2000a0ea:	428c                	lw	a1,0(a3)
2000a0ec:	fab42c23          	sw	a1,-72(s0)
2000a0f0:	4590                	lw	a2,8(a1)
2000a0f2:	08c57563          	bgeu	a0,a2,2000a17c <_ZN80_$LT$capsules..alarm..AlarmDriver$LT$A$GT$$u20$as$u20$kernel..driver..Driver$GT$9subscribe17h5d6316a5749870b9E+0xb6>
2000a0f6:	41cc                	lw	a1,4(a1)
2000a0f8:	050e                	slli	a0,a0,0x3
2000a0fa:	952e                	add	a0,a0,a1
2000a0fc:	00052b03          	lw	s6,0(a0)
2000a100:	060b0e63          	beqz	s6,2000a17c <_ZN80_$LT$capsules..alarm..AlarmDriver$LT$A$GT$$u20$as$u20$kernel..driver..Driver$GT$9subscribe17h5d6316a5749870b9E+0xb6>
2000a104:	00452a83          	lw	s5,4(a0)
2000a108:	00caa603          	lw	a2,12(s5)
2000a10c:	fc840513          	addi	a0,s0,-56
2000a110:	85da                	mv	a1,s6
2000a112:	9602                	jalr	a2
2000a114:	fd042503          	lw	a0,-48(s0)
2000a118:	06951263          	bne	a0,s1,2000a17c <_ZN80_$LT$capsules..alarm..AlarmDriver$LT$A$GT$$u20$as$u20$kernel..driver..Driver$GT$9subscribe17h5d6316a5749870b9E+0xb6>
2000a11c:	07caa603          	lw	a2,124(s5)
2000a120:	00c9a583          	lw	a1,12(s3)
2000a124:	855a                	mv	a0,s6
2000a126:	9602                	jalr	a2
2000a128:	89ae                	mv	s3,a1
2000a12a:	458d                	li	a1,3
2000a12c:	4605                	li	a2,1
2000a12e:	04c51863          	bne	a0,a2,2000a17e <_ZN80_$LT$capsules..alarm..AlarmDriver$LT$A$GT$$u20$as$u20$kernel..driver..Driver$GT$9subscribe17h5d6316a5749870b9E+0xb8>
2000a132:	0009aa03          	lw	s4,0(s3)
2000a136:	020a1963          	bnez	s4,2000a168 <_ZN80_$LT$capsules..alarm..AlarmDriver$LT$A$GT$$u20$as$u20$kernel..driver..Driver$GT$9subscribe17h5d6316a5749870b9E+0xa2>
2000a13a:	074aa683          	lw	a3,116(s5)
2000a13e:	855a                	mv	a0,s6
2000a140:	02400593          	li	a1,36
2000a144:	4611                	li	a2,4
2000a146:	9682                	jalr	a3
2000a148:	cd21                	beqz	a0,2000a1a0 <_ZN80_$LT$capsules..alarm..AlarmDriver$LT$A$GT$$u20$as$u20$kernel..driver..Driver$GT$9subscribe17h5d6316a5749870b9E+0xda>
2000a14a:	8a2a                	mv	s4,a0
2000a14c:	00052423          	sw	zero,8(a0)
2000a150:	00052023          	sw	zero,0(a0)
2000a154:	0531                	addi	a0,a0,12
2000a156:	fc840593          	addi	a1,s0,-56
2000a15a:	4661                	li	a2,24
2000a15c:	00001097          	auipc	ra,0x1
2000a160:	382080e7          	jalr	898(ra) # 2000b4de <memcpy>
2000a164:	0149a023          	sw	s4,0(s3)
2000a168:	008a0513          	addi	a0,s4,8
2000a16c:	85ca                	mv	a1,s2
2000a16e:	4671                	li	a2,28
2000a170:	00001097          	auipc	ra,0x1
2000a174:	36e080e7          	jalr	878(ra) # 2000b4de <memcpy>
2000a178:	4505                	li	a0,1
2000a17a:	a809                	j	2000a18c <_ZN80_$LT$capsules..alarm..AlarmDriver$LT$A$GT$$u20$as$u20$kernel..driver..Driver$GT$9subscribe17h5d6316a5749870b9E+0xc6>
2000a17c:	4581                	li	a1,0
2000a17e:	2000e537          	lui	a0,0x2000e
2000a182:	c9050513          	addi	a0,a0,-880 # 2000dc90 <.Lswitch.table._ZN6kernel7process110_$LT$impl$u20$core..convert..From$LT$kernel..process..Error$GT$$u20$for$u20$kernel..returncode..ReturnCode$GT$4from17h3567326624cf5547E>
2000a186:	058a                	slli	a1,a1,0x2
2000a188:	952e                	add	a0,a0,a1
2000a18a:	4108                	lw	a0,0(a0)
2000a18c:	5b42                	lw	s6,48(sp)
2000a18e:	5ad2                	lw	s5,52(sp)
2000a190:	5a62                	lw	s4,56(sp)
2000a192:	59f2                	lw	s3,60(sp)
2000a194:	4906                	lw	s2,64(sp)
2000a196:	4496                	lw	s1,68(sp)
2000a198:	4426                	lw	s0,72(sp)
2000a19a:	40b6                	lw	ra,76(sp)
2000a19c:	6161                	addi	sp,sp,80
2000a19e:	8082                	ret
2000a1a0:	4585                	li	a1,1
2000a1a2:	bff1                	j	2000a17e <_ZN80_$LT$capsules..alarm..AlarmDriver$LT$A$GT$$u20$as$u20$kernel..driver..Driver$GT$9subscribe17h5d6316a5749870b9E+0xb8>

2000a1a4 <_ZN88_$LT$capsules..alarm..AlarmDriver$LT$A$GT$$u20$as$u20$kernel..hil..time..AlarmClient$GT$5fired17hbec2cf1103da2d94E>:
2000a1a4:	7119                	addi	sp,sp,-128
2000a1a6:	de86                	sw	ra,124(sp)
2000a1a8:	dca2                	sw	s0,120(sp)
2000a1aa:	daa6                	sw	s1,116(sp)
2000a1ac:	d8ca                	sw	s2,112(sp)
2000a1ae:	d6ce                	sw	s3,108(sp)
2000a1b0:	d4d2                	sw	s4,104(sp)
2000a1b2:	d2d6                	sw	s5,100(sp)
2000a1b4:	d0da                	sw	s6,96(sp)
2000a1b6:	cede                	sw	s7,92(sp)
2000a1b8:	cce2                	sw	s8,88(sp)
2000a1ba:	cae6                	sw	s9,84(sp)
2000a1bc:	c8ea                	sw	s10,80(sp)
2000a1be:	c6ee                	sw	s11,76(sp)
2000a1c0:	0100                	addi	s0,sp,128
2000a1c2:	8c2a                	mv	s8,a0
2000a1c4:	f8c40c93          	addi	s9,s0,-116
2000a1c8:	4108                	lw	a0,0(a0)
2000a1ca:	4108                	lw	a0,0(a0)
2000a1cc:	4548                	lw	a0,12(a0)
2000a1ce:	4108                	lw	a0,0(a0)
2000a1d0:	10452903          	lw	s2,260(a0)
2000a1d4:	008c2503          	lw	a0,8(s8)
2000a1d8:	450c                	lw	a1,8(a0)
2000a1da:	00359d13          	slli	s10,a1,0x3
2000a1de:	4148                	lw	a0,4(a0)
2000a1e0:	00450d93          	addi	s11,a0,4
2000a1e4:	4985                	li	s3,1
2000a1e6:	fb040a13          	addi	s4,s0,-80
2000a1ea:	f9840613          	addi	a2,s0,-104
2000a1ee:	0c0d0563          	beqz	s10,2000a2b8 <_ZN88_$LT$capsules..alarm..AlarmDriver$LT$A$GT$$u20$as$u20$kernel..hil..time..AlarmClient$GT$5fired17hbec2cf1103da2d94E+0x114>
2000a1f2:	ffcda483          	lw	s1,-4(s11)
2000a1f6:	cccd                	beqz	s1,2000a2b0 <_ZN88_$LT$capsules..alarm..AlarmDriver$LT$A$GT$$u20$as$u20$kernel..hil..time..AlarmClient$GT$5fired17hbec2cf1103da2d94E+0x10c>
2000a1f8:	00cc2583          	lw	a1,12(s8)
2000a1fc:	000dab83          	lw	s7,0(s11)
2000a200:	8b32                	mv	s6,a2
2000a202:	07cba603          	lw	a2,124(s7)
2000a206:	8526                	mv	a0,s1
2000a208:	9602                	jalr	a2
2000a20a:	865a                	mv	a2,s6
2000a20c:	0b351263          	bne	a0,s3,2000a2b0 <_ZN88_$LT$capsules..alarm..AlarmDriver$LT$A$GT$$u20$as$u20$kernel..hil..time..AlarmClient$GT$5fired17hbec2cf1103da2d94E+0x10c>
2000a210:	0005aa83          	lw	s5,0(a1)
2000a214:	080a8e63          	beqz	s5,2000a2b0 <_ZN88_$LT$capsules..alarm..AlarmDriver$LT$A$GT$$u20$as$u20$kernel..hil..time..AlarmClient$GT$5fired17hbec2cf1103da2d94E+0x10c>
2000a218:	00cba603          	lw	a2,12(s7)
2000a21c:	8552                	mv	a0,s4
2000a21e:	85a6                	mv	a1,s1
2000a220:	9602                	jalr	a2
2000a222:	f9542423          	sw	s5,-120(s0)
2000a226:	fb842503          	lw	a0,-72(s0)
2000a22a:	00aca423          	sw	a0,8(s9)
2000a22e:	fb442503          	lw	a0,-76(s0)
2000a232:	00aca223          	sw	a0,4(s9)
2000a236:	fb042503          	lw	a0,-80(s0)
2000a23a:	00aca023          	sw	a0,0(s9)
2000a23e:	000aa503          	lw	a0,0(s5)
2000a242:	07351063          	bne	a0,s3,2000a2a2 <_ZN88_$LT$capsules..alarm..AlarmDriver$LT$A$GT$$u20$as$u20$kernel..hil..time..AlarmClient$GT$5fired17hbec2cf1103da2d94E+0xfe>
2000a246:	010c2503          	lw	a0,16(s8)
2000a24a:	40a905b3          	sub	a1,s2,a0
2000a24e:	004aab83          	lw	s7,4(s5)
2000a252:	40ab8533          	sub	a0,s7,a0
2000a256:	04a5e663          	bltu	a1,a0,2000a2a2 <_ZN88_$LT$capsules..alarm..AlarmDriver$LT$A$GT$$u20$as$u20$kernel..hil..time..AlarmClient$GT$5fired17hbec2cf1103da2d94E+0xfe>
2000a25a:	000aa023          	sw	zero,0(s5)
2000a25e:	004c2503          	lw	a0,4(s8)
2000a262:	157d                	addi	a0,a0,-1
2000a264:	00ac2223          	sw	a0,4(s8)
2000a268:	008aa483          	lw	s1,8(s5)
2000a26c:	00ca8593          	addi	a1,s5,12
2000a270:	8ada                	mv	s5,s6
2000a272:	855a                	mv	a0,s6
2000a274:	4661                	li	a2,24
2000a276:	00001097          	auipc	ra,0x1
2000a27a:	268080e7          	jalr	616(ra) # 2000b4de <memcpy>
2000a27e:	c095                	beqz	s1,2000a2a2 <_ZN88_$LT$capsules..alarm..AlarmDriver$LT$A$GT$$u20$as$u20$kernel..hil..time..AlarmClient$GT$5fired17hbec2cf1103da2d94E+0xfe>
2000a280:	fa942823          	sw	s1,-80(s0)
2000a284:	fb440513          	addi	a0,s0,-76
2000a288:	85d6                	mv	a1,s5
2000a28a:	4661                	li	a2,24
2000a28c:	00001097          	auipc	ra,0x1
2000a290:	252080e7          	jalr	594(ra) # 2000b4de <memcpy>
2000a294:	8552                	mv	a0,s4
2000a296:	85ca                	mv	a1,s2
2000a298:	865e                	mv	a2,s7
2000a29a:	ffffd097          	auipc	ra,0xffffd
2000a29e:	856080e7          	jalr	-1962(ra) # 20006af0 <_ZN6kernel8callback8Callback8schedule17h74c330256afd1722E>
2000a2a2:	f8840513          	addi	a0,s0,-120
2000a2a6:	00000097          	auipc	ra,0x0
2000a2aa:	b36080e7          	jalr	-1226(ra) # 20009ddc <_ZN71_$LT$kernel..grant..Owned$LT$T$GT$$u20$as$u20$core..ops..drop..Drop$GT$4drop17h9927a2340e8a61d2E>
2000a2ae:	865a                	mv	a2,s6
2000a2b0:	1d61                	addi	s10,s10,-8
2000a2b2:	0da1                	addi	s11,s11,8
2000a2b4:	f20d1fe3          	bnez	s10,2000a1f2 <_ZN88_$LT$capsules..alarm..AlarmDriver$LT$A$GT$$u20$as$u20$kernel..hil..time..AlarmClient$GT$5fired17hbec2cf1103da2d94E+0x4e>
2000a2b8:	004c2503          	lw	a0,4(s8)
2000a2bc:	cd0d                	beqz	a0,2000a2f6 <_ZN88_$LT$capsules..alarm..AlarmDriver$LT$A$GT$$u20$as$u20$kernel..hil..time..AlarmClient$GT$5fired17hbec2cf1103da2d94E+0x152>
2000a2be:	8562                	mv	a0,s8
2000a2c0:	85ca                	mv	a1,s2
2000a2c2:	00000097          	auipc	ra,0x0
2000a2c6:	05e080e7          	jalr	94(ra) # 2000a320 <_ZN8capsules5alarm20AlarmDriver$LT$A$GT$18reset_active_alarm17h19dc25310fc89d49E>
2000a2ca:	4605                	li	a2,1
2000a2cc:	02c51563          	bne	a0,a2,2000a2f6 <_ZN88_$LT$capsules..alarm..AlarmDriver$LT$A$GT$$u20$as$u20$kernel..hil..time..AlarmClient$GT$5fired17hbec2cf1103da2d94E+0x152>
2000a2d0:	41258533          	sub	a0,a1,s2
2000a2d4:	000c2583          	lw	a1,0(s8)
2000a2d8:	418c                	lw	a1,0(a1)
2000a2da:	45cc                	lw	a1,12(a1)
2000a2dc:	418c                	lw	a1,0(a1)
2000a2de:	1045a583          	lw	a1,260(a1)
2000a2e2:	412585b3          	sub	a1,a1,s2
2000a2e6:	00a5ee63          	bltu	a1,a0,2000a302 <_ZN88_$LT$capsules..alarm..AlarmDriver$LT$A$GT$$u20$as$u20$kernel..hil..time..AlarmClient$GT$5fired17hbec2cf1103da2d94E+0x15e>
2000a2ea:	8562                	mv	a0,s8
2000a2ec:	00000097          	auipc	ra,0x0
2000a2f0:	eb8080e7          	jalr	-328(ra) # 2000a1a4 <_ZN88_$LT$capsules..alarm..AlarmDriver$LT$A$GT$$u20$as$u20$kernel..hil..time..AlarmClient$GT$5fired17hbec2cf1103da2d94E>
2000a2f4:	a039                	j	2000a302 <_ZN88_$LT$capsules..alarm..AlarmDriver$LT$A$GT$$u20$as$u20$kernel..hil..time..AlarmClient$GT$5fired17hbec2cf1103da2d94E+0x15e>
2000a2f6:	000c2503          	lw	a0,0(s8)
2000a2fa:	00000097          	auipc	ra,0x0
2000a2fe:	ab4080e7          	jalr	-1356(ra) # 20009dae <_ZN94_$LT$capsules..virtual_alarm..VirtualMuxAlarm$LT$A$GT$$u20$as$u20$kernel..hil..time..Alarm$GT$7disable17hb60758683e5caa80E>
2000a302:	4db6                	lw	s11,76(sp)
2000a304:	4d46                	lw	s10,80(sp)
2000a306:	4cd6                	lw	s9,84(sp)
2000a308:	4c66                	lw	s8,88(sp)
2000a30a:	4bf6                	lw	s7,92(sp)
2000a30c:	5b06                	lw	s6,96(sp)
2000a30e:	5a96                	lw	s5,100(sp)
2000a310:	5a26                	lw	s4,104(sp)
2000a312:	59b6                	lw	s3,108(sp)
2000a314:	5946                	lw	s2,112(sp)
2000a316:	54d6                	lw	s1,116(sp)
2000a318:	5466                	lw	s0,120(sp)
2000a31a:	50f6                	lw	ra,124(sp)
2000a31c:	6109                	addi	sp,sp,128
2000a31e:	8082                	ret

2000a320 <_ZN8capsules5alarm20AlarmDriver$LT$A$GT$18reset_active_alarm17h19dc25310fc89d49E>:
2000a320:	715d                	addi	sp,sp,-80
2000a322:	c686                	sw	ra,76(sp)
2000a324:	c4a2                	sw	s0,72(sp)
2000a326:	c2a6                	sw	s1,68(sp)
2000a328:	c0ca                	sw	s2,64(sp)
2000a32a:	de4e                	sw	s3,60(sp)
2000a32c:	dc52                	sw	s4,56(sp)
2000a32e:	da56                	sw	s5,52(sp)
2000a330:	d85a                	sw	s6,48(sp)
2000a332:	d65e                	sw	s7,44(sp)
2000a334:	d462                	sw	s8,40(sp)
2000a336:	d266                	sw	s9,36(sp)
2000a338:	d06a                	sw	s10,32(sp)
2000a33a:	ce6e                	sw	s11,28(sp)
2000a33c:	0880                	addi	s0,sp,80
2000a33e:	8aaa                	mv	s5,a0
2000a340:	fab42823          	sw	a1,-80(s0)
2000a344:	c90c                	sw	a1,16(a0)
2000a346:	597d                	li	s2,-1
2000a348:	4508                	lw	a0,8(a0)
2000a34a:	00452b83          	lw	s7,4(a0)
2000a34e:	4508                	lw	a0,8(a0)
2000a350:	050e                	slli	a0,a0,0x3
2000a352:	00ab8c33          	add	s8,s7,a0
2000a356:	4c85                	li	s9,1
2000a358:	fb840a13          	addi	s4,s0,-72
2000a35c:	557d                	li	a0,-1
2000a35e:	faa42a23          	sw	a0,-76(s0)
2000a362:	00caab03          	lw	s6,12(s5)
2000a366:	0d7c0363          	beq	s8,s7,2000a42c <_ZN8capsules5alarm20AlarmDriver$LT$A$GT$18reset_active_alarm17h19dc25310fc89d49E+0x10c>
2000a36a:	000ba483          	lw	s1,0(s7)
2000a36e:	c48d                	beqz	s1,2000a398 <_ZN8capsules5alarm20AlarmDriver$LT$A$GT$18reset_active_alarm17h19dc25310fc89d49E+0x78>
2000a370:	004bad03          	lw	s10,4(s7)
2000a374:	07cd2603          	lw	a2,124(s10)
2000a378:	8526                	mv	a0,s1
2000a37a:	85da                	mv	a1,s6
2000a37c:	9602                	jalr	a2
2000a37e:	01951d63          	bne	a0,s9,2000a398 <_ZN8capsules5alarm20AlarmDriver$LT$A$GT$18reset_active_alarm17h19dc25310fc89d49E+0x78>
2000a382:	4188                	lw	a0,0(a1)
2000a384:	c911                	beqz	a0,2000a398 <_ZN8capsules5alarm20AlarmDriver$LT$A$GT$18reset_active_alarm17h19dc25310fc89d49E+0x78>
2000a386:	00cd2603          	lw	a2,12(s10)
2000a38a:	8552                	mv	a0,s4
2000a38c:	85a6                	mv	a1,s1
2000a38e:	9602                	jalr	a2
2000a390:	fb842483          	lw	s1,-72(s0)
2000a394:	c481                	beqz	s1,2000a39c <_ZN8capsules5alarm20AlarmDriver$LT$A$GT$18reset_active_alarm17h19dc25310fc89d49E+0x7c>
2000a396:	a039                	j	2000a3a4 <_ZN8capsules5alarm20AlarmDriver$LT$A$GT$18reset_active_alarm17h19dc25310fc89d49E+0x84>
2000a398:	fa042c23          	sw	zero,-72(s0)
2000a39c:	0ba1                	addi	s7,s7,8
2000a39e:	fd7c16e3          	bne	s8,s7,2000a36a <_ZN8capsules5alarm20AlarmDriver$LT$A$GT$18reset_active_alarm17h19dc25310fc89d49E+0x4a>
2000a3a2:	a069                	j	2000a42c <_ZN8capsules5alarm20AlarmDriver$LT$A$GT$18reset_active_alarm17h19dc25310fc89d49E+0x10c>
2000a3a4:	fbc42d83          	lw	s11,-68(s0)
2000a3a8:	4488                	lw	a0,8(s1)
2000a3aa:	08adf163          	bgeu	s11,a0,2000a42c <_ZN8capsules5alarm20AlarmDriver$LT$A$GT$18reset_active_alarm17h19dc25310fc89d49E+0x10c>
2000a3ae:	40c8                	lw	a0,4(s1)
2000a3b0:	003d9593          	slli	a1,s11,0x3
2000a3b4:	952e                	add	a0,a0,a1
2000a3b6:	00052b03          	lw	s6,0(a0)
2000a3ba:	060b0963          	beqz	s6,2000a42c <_ZN8capsules5alarm20AlarmDriver$LT$A$GT$18reset_active_alarm17h19dc25310fc89d49E+0x10c>
2000a3be:	fc042d03          	lw	s10,-64(s0)
2000a3c2:	00452983          	lw	s3,4(a0)
2000a3c6:	00c9a603          	lw	a2,12(s3)
2000a3ca:	8552                	mv	a0,s4
2000a3cc:	85da                	mv	a1,s6
2000a3ce:	9602                	jalr	a2
2000a3d0:	fc042503          	lw	a0,-64(s0)
2000a3d4:	05a51c63          	bne	a0,s10,2000a42c <_ZN8capsules5alarm20AlarmDriver$LT$A$GT$18reset_active_alarm17h19dc25310fc89d49E+0x10c>
2000a3d8:	07c9a603          	lw	a2,124(s3)
2000a3dc:	00caa583          	lw	a1,12(s5)
2000a3e0:	855a                	mv	a0,s6
2000a3e2:	9602                	jalr	a2
2000a3e4:	05951463          	bne	a0,s9,2000a42c <_ZN8capsules5alarm20AlarmDriver$LT$A$GT$18reset_active_alarm17h19dc25310fc89d49E+0x10c>
2000a3e8:	4188                	lw	a0,0(a1)
2000a3ea:	c129                	beqz	a0,2000a42c <_ZN8capsules5alarm20AlarmDriver$LT$A$GT$18reset_active_alarm17h19dc25310fc89d49E+0x10c>
2000a3ec:	fdb42023          	sw	s11,-64(s0)
2000a3f0:	fa942e23          	sw	s1,-68(s0)
2000a3f4:	fda42223          	sw	s10,-60(s0)
2000a3f8:	faa42c23          	sw	a0,-72(s0)
2000a3fc:	410c                	lw	a1,0(a0)
2000a3fe:	03959063          	bne	a1,s9,2000a41e <_ZN8capsules5alarm20AlarmDriver$LT$A$GT$18reset_active_alarm17h19dc25310fc89d49E+0xfe>
2000a402:	4148                	lw	a0,4(a0)
2000a404:	fb042583          	lw	a1,-80(s0)
2000a408:	40b505b3          	sub	a1,a0,a1
2000a40c:	fb442603          	lw	a2,-76(s0)
2000a410:	00c5e463          	bltu	a1,a2,2000a418 <_ZN8capsules5alarm20AlarmDriver$LT$A$GT$18reset_active_alarm17h19dc25310fc89d49E+0xf8>
2000a414:	854a                	mv	a0,s2
2000a416:	85b2                	mv	a1,a2
2000a418:	892a                	mv	s2,a0
2000a41a:	fab42a23          	sw	a1,-76(s0)
2000a41e:	0ba1                	addi	s7,s7,8
2000a420:	8552                	mv	a0,s4
2000a422:	00000097          	auipc	ra,0x0
2000a426:	9ba080e7          	jalr	-1606(ra) # 20009ddc <_ZN71_$LT$kernel..grant..Owned$LT$T$GT$$u20$as$u20$core..ops..drop..Drop$GT$4drop17h9927a2340e8a61d2E>
2000a42a:	bf25                	j	2000a362 <_ZN8capsules5alarm20AlarmDriver$LT$A$GT$18reset_active_alarm17h19dc25310fc89d49E+0x42>
2000a42c:	557d                	li	a0,-1
2000a42e:	04a90d63          	beq	s2,a0,2000a488 <_ZN8capsules5alarm20AlarmDriver$LT$A$GT$18reset_active_alarm17h19dc25310fc89d49E+0x168>
2000a432:	000aa503          	lw	a0,0(s5)
2000a436:	410c                	lw	a1,0(a0)
2000a438:	41d0                	lw	a2,4(a1)
2000a43a:	01454683          	lbu	a3,20(a0)
2000a43e:	ea81                	bnez	a3,2000a44e <_ZN8capsules5alarm20AlarmDriver$LT$A$GT$18reset_active_alarm17h19dc25310fc89d49E+0x12e>
2000a440:	00160693          	addi	a3,a2,1
2000a444:	c1d4                	sw	a3,4(a1)
2000a446:	4585                	li	a1,1
2000a448:	00b50a23          	sb	a1,20(a0)
2000a44c:	410c                	lw	a1,0(a0)
2000a44e:	45d4                	lw	a3,12(a1)
2000a450:	4294                	lw	a3,0(a3)
2000a452:	ca11                	beqz	a2,2000a466 <_ZN8capsules5alarm20AlarmDriver$LT$A$GT$18reset_active_alarm17h19dc25310fc89d49E+0x146>
2000a454:	10c6a603          	lw	a2,268(a3)
2000a458:	1046a703          	lw	a4,260(a3)
2000a45c:	8e19                	sub	a2,a2,a4
2000a45e:	40e90733          	sub	a4,s2,a4
2000a462:	00c77f63          	bgeu	a4,a2,2000a480 <_ZN8capsules5alarm20AlarmDriver$LT$A$GT$18reset_active_alarm17h19dc25310fc89d49E+0x160>
2000a466:	1046a603          	lw	a2,260(a3)
2000a46a:	c590                	sw	a2,8(a1)
2000a46c:	410c                	lw	a1,0(a0)
2000a46e:	45cc                	lw	a1,12(a1)
2000a470:	418c                	lw	a1,0(a1)
2000a472:	1005a423          	sw	zero,264(a1)
2000a476:	1125a623          	sw	s2,268(a1)
2000a47a:	4605                	li	a2,1
2000a47c:	10c5aa23          	sw	a2,276(a1)
2000a480:	01252223          	sw	s2,4(a0)
2000a484:	4505                	li	a0,1
2000a486:	a011                	j	2000a48a <_ZN8capsules5alarm20AlarmDriver$LT$A$GT$18reset_active_alarm17h19dc25310fc89d49E+0x16a>
2000a488:	4501                	li	a0,0
2000a48a:	85ca                	mv	a1,s2
2000a48c:	4df2                	lw	s11,28(sp)
2000a48e:	5d02                	lw	s10,32(sp)
2000a490:	5c92                	lw	s9,36(sp)
2000a492:	5c22                	lw	s8,40(sp)
2000a494:	5bb2                	lw	s7,44(sp)
2000a496:	5b42                	lw	s6,48(sp)
2000a498:	5ad2                	lw	s5,52(sp)
2000a49a:	5a62                	lw	s4,56(sp)
2000a49c:	59f2                	lw	s3,60(sp)
2000a49e:	4906                	lw	s2,64(sp)
2000a4a0:	4496                	lw	s1,68(sp)
2000a4a2:	4426                	lw	s0,72(sp)
2000a4a4:	40b6                	lw	ra,76(sp)
2000a4a6:	6161                	addi	sp,sp,80
2000a4a8:	8082                	ret

2000a4aa <_ZN4core3fmt5Write10write_char17h496185f6c39fec5fE>:
2000a4aa:	1141                	addi	sp,sp,-16
2000a4ac:	c606                	sw	ra,12(sp)
2000a4ae:	c422                	sw	s0,8(sp)
2000a4b0:	0800                	addi	s0,sp,16
2000a4b2:	fe042a23          	sw	zero,-12(s0)
2000a4b6:	08000513          	li	a0,128
2000a4ba:	00a5f663          	bgeu	a1,a0,2000a4c6 <_ZN4core3fmt5Write10write_char17h496185f6c39fec5fE+0x1c>
2000a4be:	feb40a23          	sb	a1,-12(s0)
2000a4c2:	4585                	li	a1,1
2000a4c4:	a851                	j	2000a558 <_ZN4core3fmt5Write10write_char17h496185f6c39fec5fE+0xae>
2000a4c6:	00b5d513          	srli	a0,a1,0xb
2000a4ca:	e105                	bnez	a0,2000a4ea <_ZN4core3fmt5Write10write_char17h496185f6c39fec5fE+0x40>
2000a4cc:	03f5f513          	andi	a0,a1,63
2000a4d0:	08056513          	ori	a0,a0,128
2000a4d4:	fea40aa3          	sb	a0,-11(s0)
2000a4d8:	0065d513          	srli	a0,a1,0x6
2000a4dc:	897d                	andi	a0,a0,31
2000a4de:	0c056513          	ori	a0,a0,192
2000a4e2:	fea40a23          	sb	a0,-12(s0)
2000a4e6:	4589                	li	a1,2
2000a4e8:	a885                	j	2000a558 <_ZN4core3fmt5Write10write_char17h496185f6c39fec5fE+0xae>
2000a4ea:	0105d513          	srli	a0,a1,0x10
2000a4ee:	e905                	bnez	a0,2000a51e <_ZN4core3fmt5Write10write_char17h496185f6c39fec5fE+0x74>
2000a4f0:	03f5f513          	andi	a0,a1,63
2000a4f4:	08056513          	ori	a0,a0,128
2000a4f8:	fea40b23          	sb	a0,-10(s0)
2000a4fc:	0065d513          	srli	a0,a1,0x6
2000a500:	03f57513          	andi	a0,a0,63
2000a504:	08056513          	ori	a0,a0,128
2000a508:	fea40aa3          	sb	a0,-11(s0)
2000a50c:	00c5d513          	srli	a0,a1,0xc
2000a510:	893d                	andi	a0,a0,15
2000a512:	0e056513          	ori	a0,a0,224
2000a516:	fea40a23          	sb	a0,-12(s0)
2000a51a:	458d                	li	a1,3
2000a51c:	a835                	j	2000a558 <_ZN4core3fmt5Write10write_char17h496185f6c39fec5fE+0xae>
2000a51e:	03f5f513          	andi	a0,a1,63
2000a522:	08056513          	ori	a0,a0,128
2000a526:	fea40ba3          	sb	a0,-9(s0)
2000a52a:	0125d513          	srli	a0,a1,0x12
2000a52e:	0f056513          	ori	a0,a0,240
2000a532:	fea40a23          	sb	a0,-12(s0)
2000a536:	0065d513          	srli	a0,a1,0x6
2000a53a:	03f57513          	andi	a0,a0,63
2000a53e:	08056513          	ori	a0,a0,128
2000a542:	fea40b23          	sb	a0,-10(s0)
2000a546:	00c5d513          	srli	a0,a1,0xc
2000a54a:	03f57513          	andi	a0,a0,63
2000a54e:	08056513          	ori	a0,a0,128
2000a552:	fea40aa3          	sb	a0,-11(s0)
2000a556:	4591                	li	a1,4
2000a558:	ff440513          	addi	a0,s0,-12
2000a55c:	00000097          	auipc	ra,0x0
2000a560:	012080e7          	jalr	18(ra) # 2000a56e <_ZN64_$LT$opentitan..io..Writer$u20$as$u20$kernel..debug..IoWrite$GT$5write17h484887c61c779fcdE>
2000a564:	4501                	li	a0,0
2000a566:	4422                	lw	s0,8(sp)
2000a568:	40b2                	lw	ra,12(sp)
2000a56a:	0141                	addi	sp,sp,16
2000a56c:	8082                	ret

2000a56e <_ZN64_$LT$opentitan..io..Writer$u20$as$u20$kernel..debug..IoWrite$GT$5write17h484887c61c779fcdE>:
2000a56e:	1141                	addi	sp,sp,-16
2000a570:	c606                	sw	ra,12(sp)
2000a572:	c422                	sw	s0,8(sp)
2000a574:	0800                	addi	s0,sp,16
2000a576:	95aa                	add	a1,a1,a0
2000a578:	10001637          	lui	a2,0x10001
2000a57c:	5c862603          	lw	a2,1480(a2) # 100015c8 <_ZN4ibex4uart5UART017h0613b20b11c2866fE>
2000a580:	00b50b63          	beq	a0,a1,2000a596 <_ZN64_$LT$opentitan..io..Writer$u20$as$u20$kernel..debug..IoWrite$GT$5write17h484887c61c779fcdE+0x28>
2000a584:	4a14                	lw	a3,16(a2)
2000a586:	8a85                	andi	a3,a3,1
2000a588:	fef5                	bnez	a3,2000a584 <_ZN64_$LT$opentitan..io..Writer$u20$as$u20$kernel..debug..IoWrite$GT$5write17h484887c61c779fcdE+0x16>
2000a58a:	00054683          	lbu	a3,0(a0)
2000a58e:	ce14                	sw	a3,24(a2)
2000a590:	0505                	addi	a0,a0,1
2000a592:	feb519e3          	bne	a0,a1,2000a584 <_ZN64_$LT$opentitan..io..Writer$u20$as$u20$kernel..debug..IoWrite$GT$5write17h484887c61c779fcdE+0x16>
2000a596:	4422                	lw	s0,8(sp)
2000a598:	40b2                	lw	ra,12(sp)
2000a59a:	0141                	addi	sp,sp,16
2000a59c:	8082                	ret

2000a59e <_ZN4core3fmt5Write9write_fmt17h57e2208449baac68E>:
2000a59e:	7179                	addi	sp,sp,-48
2000a5a0:	d606                	sw	ra,44(sp)
2000a5a2:	d422                	sw	s0,40(sp)
2000a5a4:	d226                	sw	s1,36(sp)
2000a5a6:	1800                	addi	s0,sp,48
2000a5a8:	fca42a23          	sw	a0,-44(s0)
2000a5ac:	fd840493          	addi	s1,s0,-40
2000a5b0:	8526                	mv	a0,s1
2000a5b2:	4661                	li	a2,24
2000a5b4:	00001097          	auipc	ra,0x1
2000a5b8:	f2a080e7          	jalr	-214(ra) # 2000b4de <memcpy>
2000a5bc:	10002537          	lui	a0,0x10002
2000a5c0:	c0850593          	addi	a1,a0,-1016 # 10001c08 <.L__unnamed_14>
2000a5c4:	fd440513          	addi	a0,s0,-44
2000a5c8:	8626                	mv	a2,s1
2000a5ca:	ffffb097          	auipc	ra,0xffffb
2000a5ce:	700080e7          	jalr	1792(ra) # 20005cca <_ZN4core3fmt5write17hb7761afb3ce3b207E>
2000a5d2:	5492                	lw	s1,36(sp)
2000a5d4:	5422                	lw	s0,40(sp)
2000a5d6:	50b2                	lw	ra,44(sp)
2000a5d8:	6145                	addi	sp,sp,48
2000a5da:	8082                	ret

2000a5dc <_ZN4core3ptr13drop_in_place17h01cb24fbd17c2a5dE>:
2000a5dc:	1141                	addi	sp,sp,-16
2000a5de:	c606                	sw	ra,12(sp)
2000a5e0:	c422                	sw	s0,8(sp)
2000a5e2:	0800                	addi	s0,sp,16
2000a5e4:	4422                	lw	s0,8(sp)
2000a5e6:	40b2                	lw	ra,12(sp)
2000a5e8:	0141                	addi	sp,sp,16
2000a5ea:	8082                	ret

2000a5ec <_ZN50_$LT$$RF$mut$u20$W$u20$as$u20$core..fmt..Write$GT$9write_str17h0b1175b24c964cc2E>:
2000a5ec:	1141                	addi	sp,sp,-16
2000a5ee:	c606                	sw	ra,12(sp)
2000a5f0:	c422                	sw	s0,8(sp)
2000a5f2:	0800                	addi	s0,sp,16
2000a5f4:	852e                	mv	a0,a1
2000a5f6:	85b2                	mv	a1,a2
2000a5f8:	00000097          	auipc	ra,0x0
2000a5fc:	f76080e7          	jalr	-138(ra) # 2000a56e <_ZN64_$LT$opentitan..io..Writer$u20$as$u20$kernel..debug..IoWrite$GT$5write17h484887c61c779fcdE>
2000a600:	4501                	li	a0,0
2000a602:	4422                	lw	s0,8(sp)
2000a604:	40b2                	lw	ra,12(sp)
2000a606:	0141                	addi	sp,sp,16
2000a608:	8082                	ret

2000a60a <_ZN50_$LT$$RF$mut$u20$W$u20$as$u20$core..fmt..Write$GT$10write_char17h61bc2cb51e04b6a6E>:
2000a60a:	1141                	addi	sp,sp,-16
2000a60c:	c606                	sw	ra,12(sp)
2000a60e:	c422                	sw	s0,8(sp)
2000a610:	0800                	addi	s0,sp,16
2000a612:	4108                	lw	a0,0(a0)
2000a614:	00000097          	auipc	ra,0x0
2000a618:	e96080e7          	jalr	-362(ra) # 2000a4aa <_ZN4core3fmt5Write10write_char17h496185f6c39fec5fE>
2000a61c:	4501                	li	a0,0
2000a61e:	4422                	lw	s0,8(sp)
2000a620:	40b2                	lw	ra,12(sp)
2000a622:	0141                	addi	sp,sp,16
2000a624:	8082                	ret

2000a626 <_ZN50_$LT$$RF$mut$u20$W$u20$as$u20$core..fmt..Write$GT$9write_fmt17hededbe28d3116a6bE>:
2000a626:	7179                	addi	sp,sp,-48
2000a628:	d606                	sw	ra,44(sp)
2000a62a:	d422                	sw	s0,40(sp)
2000a62c:	d226                	sw	s1,36(sp)
2000a62e:	d04a                	sw	s2,32(sp)
2000a630:	1800                	addi	s0,sp,48
2000a632:	4104                	lw	s1,0(a0)
2000a634:	fd840913          	addi	s2,s0,-40
2000a638:	854a                	mv	a0,s2
2000a63a:	4661                	li	a2,24
2000a63c:	00001097          	auipc	ra,0x1
2000a640:	ea2080e7          	jalr	-350(ra) # 2000b4de <memcpy>
2000a644:	8526                	mv	a0,s1
2000a646:	85ca                	mv	a1,s2
2000a648:	00000097          	auipc	ra,0x0
2000a64c:	f56080e7          	jalr	-170(ra) # 2000a59e <_ZN4core3fmt5Write9write_fmt17h57e2208449baac68E>
2000a650:	5902                	lw	s2,32(sp)
2000a652:	5492                	lw	s1,36(sp)
2000a654:	5422                	lw	s0,40(sp)
2000a656:	50b2                	lw	ra,44(sp)
2000a658:	6145                	addi	sp,sp,48
2000a65a:	8082                	ret

2000a65c <_ZN6kernel5debug7IoWrite17write_ring_buffer17haa6006c44a1c9f92E>:
2000a65c:	1101                	addi	sp,sp,-32
2000a65e:	ce06                	sw	ra,28(sp)
2000a660:	cc22                	sw	s0,24(sp)
2000a662:	ca26                	sw	s1,20(sp)
2000a664:	c84a                	sw	s2,16(sp)
2000a666:	c64e                	sw	s3,12(sp)
2000a668:	c452                	sw	s4,8(sp)
2000a66a:	c256                	sw	s5,4(sp)
2000a66c:	c05a                	sw	s6,0(sp)
2000a66e:	1000                	addi	s0,sp,32
2000a670:	00c52a03          	lw	s4,12(a0)
2000a674:	4504                	lw	s1,8(a0)
2000a676:	0344fd63          	bgeu	s1,s4,2000a6b0 <_ZN6kernel5debug7IoWrite17write_ring_buffer17haa6006c44a1c9f92E+0x54>
2000a67a:	4154                	lw	a3,4(a0)
2000a67c:	4110                	lw	a2,0(a0)
2000a67e:	8526                	mv	a0,s1
2000a680:	85d2                	mv	a1,s4
2000a682:	ffffc097          	auipc	ra,0xffffc
2000a686:	7b6080e7          	jalr	1974(ra) # 20006e38 <_ZN99_$LT$core..ops..range..Range$LT$usize$GT$$u20$as$u20$core..slice..SliceIndex$LT$$u5b$T$u5d$$GT$$GT$5index17h37ffd480a74619a9E.llvm.4797975692018640014>
2000a68a:	89aa                	mv	s3,a0
2000a68c:	892e                	mv	s2,a1
2000a68e:	4481                	li	s1,0
2000a690:	00098863          	beqz	s3,2000a6a0 <_ZN6kernel5debug7IoWrite17write_ring_buffer17haa6006c44a1c9f92E+0x44>
2000a694:	854e                	mv	a0,s3
2000a696:	85ca                	mv	a1,s2
2000a698:	00000097          	auipc	ra,0x0
2000a69c:	ed6080e7          	jalr	-298(ra) # 2000a56e <_ZN64_$LT$opentitan..io..Writer$u20$as$u20$kernel..debug..IoWrite$GT$5write17h484887c61c779fcdE>
2000a6a0:	ccb9                	beqz	s1,2000a6fe <_ZN6kernel5debug7IoWrite17write_ring_buffer17haa6006c44a1c9f92E+0xa2>
2000a6a2:	8526                	mv	a0,s1
2000a6a4:	85d2                	mv	a1,s4
2000a6a6:	00000097          	auipc	ra,0x0
2000a6aa:	ec8080e7          	jalr	-312(ra) # 2000a56e <_ZN64_$LT$opentitan..io..Writer$u20$as$u20$kernel..debug..IoWrite$GT$5write17h484887c61c779fcdE>
2000a6ae:	a881                	j	2000a6fe <_ZN6kernel5debug7IoWrite17write_ring_buffer17haa6006c44a1c9f92E+0xa2>
2000a6b0:	049a7763          	bgeu	s4,s1,2000a6fe <_ZN6kernel5debug7IoWrite17write_ring_buffer17haa6006c44a1c9f92E+0xa2>
2000a6b4:	00452903          	lw	s2,4(a0)
2000a6b8:	00052983          	lw	s3,0(a0)
2000a6bc:	854e                	mv	a0,s3
2000a6be:	85ca                	mv	a1,s2
2000a6c0:	8626                	mv	a2,s1
2000a6c2:	ffffc097          	auipc	ra,0xffffc
2000a6c6:	756080e7          	jalr	1878(ra) # 20006e18 <_ZN4core5slice74_$LT$impl$u20$core..ops..index..Index$LT$I$GT$$u20$for$u20$$u5b$T$u5d$$GT$5index17hcfc3692881aa25a7E.llvm.4797975692018640014>
2000a6ca:	8aaa                	mv	s5,a0
2000a6cc:	8b2e                	mv	s6,a1
2000a6ce:	8526                	mv	a0,s1
2000a6d0:	85ca                	mv	a1,s2
2000a6d2:	864e                	mv	a2,s3
2000a6d4:	86ca                	mv	a3,s2
2000a6d6:	ffffc097          	auipc	ra,0xffffc
2000a6da:	762080e7          	jalr	1890(ra) # 20006e38 <_ZN99_$LT$core..ops..range..Range$LT$usize$GT$$u20$as$u20$core..slice..SliceIndex$LT$$u5b$T$u5d$$GT$$GT$5index17h37ffd480a74619a9E.llvm.4797975692018640014>
2000a6de:	89aa                	mv	s3,a0
2000a6e0:	892e                	mv	s2,a1
2000a6e2:	fa0a06e3          	beqz	s4,2000a68e <_ZN6kernel5debug7IoWrite17write_ring_buffer17haa6006c44a1c9f92E+0x32>
2000a6e6:	8556                	mv	a0,s5
2000a6e8:	85da                	mv	a1,s6
2000a6ea:	8652                	mv	a2,s4
2000a6ec:	ffffc097          	auipc	ra,0xffffc
2000a6f0:	72c080e7          	jalr	1836(ra) # 20006e18 <_ZN4core5slice74_$LT$impl$u20$core..ops..index..Index$LT$I$GT$$u20$for$u20$$u5b$T$u5d$$GT$5index17hcfc3692881aa25a7E.llvm.4797975692018640014>
2000a6f4:	84aa                	mv	s1,a0
2000a6f6:	8a2e                	mv	s4,a1
2000a6f8:	f8099ee3          	bnez	s3,2000a694 <_ZN6kernel5debug7IoWrite17write_ring_buffer17haa6006c44a1c9f92E+0x38>
2000a6fc:	b755                	j	2000a6a0 <_ZN6kernel5debug7IoWrite17write_ring_buffer17haa6006c44a1c9f92E+0x44>
2000a6fe:	4b02                	lw	s6,0(sp)
2000a700:	4a92                	lw	s5,4(sp)
2000a702:	4a22                	lw	s4,8(sp)
2000a704:	49b2                	lw	s3,12(sp)
2000a706:	4942                	lw	s2,16(sp)
2000a708:	44d2                	lw	s1,20(sp)
2000a70a:	4462                	lw	s0,24(sp)
2000a70c:	40f2                	lw	ra,28(sp)
2000a70e:	6105                	addi	sp,sp,32
2000a710:	8082                	ret

2000a712 <_ZN58_$LT$opentitan..io..Writer$u20$as$u20$core..fmt..Write$GT$9write_str17h5aeb89738ce73061E>:
2000a712:	1141                	addi	sp,sp,-16
2000a714:	c606                	sw	ra,12(sp)
2000a716:	c422                	sw	s0,8(sp)
2000a718:	0800                	addi	s0,sp,16
2000a71a:	852e                	mv	a0,a1
2000a71c:	85b2                	mv	a1,a2
2000a71e:	00000097          	auipc	ra,0x0
2000a722:	e50080e7          	jalr	-432(ra) # 2000a56e <_ZN64_$LT$opentitan..io..Writer$u20$as$u20$kernel..debug..IoWrite$GT$5write17h484887c61c779fcdE>
2000a726:	4501                	li	a0,0
2000a728:	4422                	lw	s0,8(sp)
2000a72a:	40b2                	lw	ra,12(sp)
2000a72c:	0141                	addi	sp,sp,16
2000a72e:	8082                	ret

2000a730 <rust_begin_unwind>:
2000a730:	1101                	addi	sp,sp,-32
2000a732:	ce06                	sw	ra,28(sp)
2000a734:	cc22                	sw	s0,24(sp)
2000a736:	ca26                	sw	s1,20(sp)
2000a738:	1000                	addi	s0,sp,32
2000a73a:	84aa                	mv	s1,a0
2000a73c:	10002537          	lui	a0,0x10002
2000a740:	c2050513          	addi	a0,a0,-992 # 10001c20 <.L__unnamed_15>
2000a744:	fea42623          	sw	a0,-20(s0)
2000a748:	10001537          	lui	a0,0x10001
2000a74c:	69850513          	addi	a0,a0,1688 # 10001698 <_ZN4ibex4gpio4PORT17h42b1a5fcc7cae9dcE+0x8c>
2000a750:	fea42423          	sw	a0,-24(s0)
2000a754:	ffffd097          	auipc	ra,0xffffd
2000a758:	0c8080e7          	jalr	200(ra) # 2000781c <_ZN71_$LT$lowrisc..gpio..GpioPin$u20$as$u20$kernel..hil..gpio..Configure$GT$11make_output17h9d4bfaf69053c6fdE>
2000a75c:	fe840513          	addi	a0,s0,-24
2000a760:	fea42823          	sw	a0,-16(s0)
2000a764:	ff040513          	addi	a0,s0,-16
2000a768:	85a6                	mv	a1,s1
2000a76a:	fffff097          	auipc	ra,0xfffff
2000a76e:	16a080e7          	jalr	362(ra) # 200098d4 <_ZN6kernel5debug5panic17hcd599e1ffdd50724E>
2000a772:	00004097          	auipc	ra,0x4
2000a776:	46a080e7          	jalr	1130(ra) # 2000ebdc <abort>

2000a77a <_ZN4core3ptr13drop_in_place17h25375294a4788135E.950>:
2000a77a:	1141                	addi	sp,sp,-16
2000a77c:	c606                	sw	ra,12(sp)
2000a77e:	c422                	sw	s0,8(sp)
2000a780:	0800                	addi	s0,sp,16
2000a782:	4422                	lw	s0,8(sp)
2000a784:	40b2                	lw	ra,12(sp)
2000a786:	0141                	addi	sp,sp,16
2000a788:	8082                	ret

2000a78a <_ZN68_$LT$rv32i..pmp..PMPConfig$u20$as$u20$kernel..platform..mpu..MPU$GT$15allocate_region17hb539a302545ad1c9E>:
2000a78a:	7179                	addi	sp,sp,-48
2000a78c:	d606                	sw	ra,44(sp)
2000a78e:	d422                	sw	s0,40(sp)
2000a790:	d226                	sw	s1,36(sp)
2000a792:	d04a                	sw	s2,32(sp)
2000a794:	ce4e                	sw	s3,28(sp)
2000a796:	cc52                	sw	s4,24(sp)
2000a798:	ca56                	sw	s5,20(sp)
2000a79a:	c85a                	sw	s6,16(sp)
2000a79c:	c65e                	sw	s7,12(sp)
2000a79e:	c462                	sw	s8,8(sp)
2000a7a0:	1800                	addi	s0,sp,48
2000a7a2:	8b3e                	mv	s6,a5
2000a7a4:	893a                	mv	s2,a4
2000a7a6:	8ab6                	mv	s5,a3
2000a7a8:	8c32                	mv	s8,a2
2000a7aa:	8a2e                	mv	s4,a1
2000a7ac:	89aa                	mv	s3,a0
2000a7ae:	0a000b93          	li	s7,160
2000a7b2:	4481                	li	s1,0
2000a7b4:	01748d63          	beq	s1,s7,2000a7ce <_ZN68_$LT$rv32i..pmp..PMPConfig$u20$as$u20$kernel..platform..mpu..MPU$GT$15allocate_region17hb539a302545ad1c9E+0x44>
2000a7b8:	009b0533          	add	a0,s6,s1
2000a7bc:	85d2                	mv	a1,s4
2000a7be:	8662                	mv	a2,s8
2000a7c0:	00000097          	auipc	ra,0x0
2000a7c4:	0cc080e7          	jalr	204(ra) # 2000a88c <_ZN5rv32i3pmp9PMPRegion8overlaps17hd72212574e3c6861E>
2000a7c8:	04d1                	addi	s1,s1,20
2000a7ca:	d56d                	beqz	a0,2000a7b4 <_ZN68_$LT$rv32i..pmp..PMPConfig$u20$as$u20$kernel..platform..mpu..MPU$GT$15allocate_region17hb539a302545ad1c9E+0x2a>
2000a7cc:	a025                	j	2000a7f4 <_ZN68_$LT$rv32i..pmp..PMPConfig$u20$as$u20$kernel..platform..mpu..MPU$GT$15allocate_region17hb539a302545ad1c9E+0x6a>
2000a7ce:	0a0b2603          	lw	a2,160(s6)
2000a7d2:	0a000693          	li	a3,160
2000a7d6:	4701                	li	a4,0
2000a7d8:	4581                	li	a1,0
2000a7da:	00d70d63          	beq	a4,a3,2000a7f4 <_ZN68_$LT$rv32i..pmp..PMPConfig$u20$as$u20$kernel..platform..mpu..MPU$GT$15allocate_region17hb539a302545ad1c9E+0x6a>
2000a7de:	c719                	beqz	a4,2000a7ec <_ZN68_$LT$rv32i..pmp..PMPConfig$u20$as$u20$kernel..platform..mpu..MPU$GT$15allocate_region17hb539a302545ad1c9E+0x62>
2000a7e0:	00c5f663          	bgeu	a1,a2,2000a7ec <_ZN68_$LT$rv32i..pmp..PMPConfig$u20$as$u20$kernel..platform..mpu..MPU$GT$15allocate_region17hb539a302545ad1c9E+0x62>
2000a7e4:	00eb0533          	add	a0,s6,a4
2000a7e8:	411c                	lw	a5,0(a0)
2000a7ea:	c39d                	beqz	a5,2000a810 <_ZN68_$LT$rv32i..pmp..PMPConfig$u20$as$u20$kernel..platform..mpu..MPU$GT$15allocate_region17hb539a302545ad1c9E+0x86>
2000a7ec:	0585                	addi	a1,a1,1
2000a7ee:	0751                	addi	a4,a4,20
2000a7f0:	fed717e3          	bne	a4,a3,2000a7de <_ZN68_$LT$rv32i..pmp..PMPConfig$u20$as$u20$kernel..platform..mpu..MPU$GT$15allocate_region17hb539a302545ad1c9E+0x54>
2000a7f4:	0009a023          	sw	zero,0(s3)
2000a7f8:	4c22                	lw	s8,8(sp)
2000a7fa:	4bb2                	lw	s7,12(sp)
2000a7fc:	4b42                	lw	s6,16(sp)
2000a7fe:	4ad2                	lw	s5,20(sp)
2000a800:	4a62                	lw	s4,24(sp)
2000a802:	49f2                	lw	s3,28(sp)
2000a804:	5902                	lw	s2,32(sp)
2000a806:	5492                	lw	s1,36(sp)
2000a808:	5422                	lw	s0,40(sp)
2000a80a:	50b2                	lw	ra,44(sp)
2000a80c:	6145                	addi	sp,sp,48
2000a80e:	8082                	ret
2000a810:	001a8693          	addi	a3,s5,1
2000a814:	4601                	li	a2,0
2000a816:	0036f493          	andi	s1,a3,3
2000a81a:	4791                	li	a5,4
2000a81c:	4701                	li	a4,0
2000a81e:	c099                	beqz	s1,2000a824 <_ZN68_$LT$rv32i..pmp..PMPConfig$u20$as$u20$kernel..platform..mpu..MPU$GT$15allocate_region17hb539a302545ad1c9E+0x9a>
2000a820:	40978733          	sub	a4,a5,s1
2000a824:	003a7493          	andi	s1,s4,3
2000a828:	00c48463          	beq	s1,a2,2000a830 <_ZN68_$LT$rv32i..pmp..PMPConfig$u20$as$u20$kernel..platform..mpu..MPU$GT$15allocate_region17hb539a302545ad1c9E+0xa6>
2000a82c:	40978633          	sub	a2,a5,s1
2000a830:	96ba                	add	a3,a3,a4
2000a832:	4721                	li	a4,8
2000a834:	00d76363          	bltu	a4,a3,2000a83a <_ZN68_$LT$rv32i..pmp..PMPConfig$u20$as$u20$kernel..platform..mpu..MPU$GT$15allocate_region17hb539a302545ad1c9E+0xb0>
2000a838:	46a1                	li	a3,8
2000a83a:	02e5fc63          	bgeu	a1,a4,2000a872 <_ZN68_$LT$rv32i..pmp..PMPConfig$u20$as$u20$kernel..platform..mpu..MPU$GT$15allocate_region17hb539a302545ad1c9E+0xe8>
2000a83e:	014605b3          	add	a1,a2,s4
2000a842:	2000e637          	lui	a2,0x2000e
2000a846:	ff860613          	addi	a2,a2,-8 # 2000dff8 <.Lswitch.table._ZN5rv32i3pmp9PMPRegion3new17h9c50b17266ec6eecE>
2000a84a:	01891713          	slli	a4,s2,0x18
2000a84e:	8761                	srai	a4,a4,0x18
2000a850:	070a                	slli	a4,a4,0x2
2000a852:	963a                	add	a2,a2,a4
2000a854:	477d                	li	a4,31
2000a856:	c558                	sw	a4,12(a0)
2000a858:	4210                	lw	a2,0(a2)
2000a85a:	c910                	sw	a2,16(a0)
2000a85c:	c514                	sw	a3,8(a0)
2000a85e:	c14c                	sw	a1,4(a0)
2000a860:	4605                	li	a2,1
2000a862:	c110                	sw	a2,0(a0)
2000a864:	00d9a423          	sw	a3,8(s3)
2000a868:	00b9a223          	sw	a1,4(s3)
2000a86c:	00c9a023          	sw	a2,0(s3)
2000a870:	b761                	j	2000a7f8 <_ZN68_$LT$rv32i..pmp..PMPConfig$u20$as$u20$kernel..platform..mpu..MPU$GT$15allocate_region17hb539a302545ad1c9E+0x6e>
2000a872:	10002537          	lui	a0,0x10002
2000a876:	c6c50513          	addi	a0,a0,-916 # 10001c6c <.Lanon.902df6e7e544c99734e58538d26fe4ad.5>
2000a87a:	4621                	li	a2,8
2000a87c:	ffffa097          	auipc	ra,0xffffa
2000a880:	2ac080e7          	jalr	684(ra) # 20004b28 <_ZN4core9panicking18panic_bounds_check17h95c8cd8536e82dafE>
2000a884:	00004097          	auipc	ra,0x4
2000a888:	358080e7          	jalr	856(ra) # 2000ebdc <abort>

2000a88c <_ZN5rv32i3pmp9PMPRegion8overlaps17hd72212574e3c6861E>:
2000a88c:	1141                	addi	sp,sp,-16
2000a88e:	c606                	sw	ra,12(sp)
2000a890:	c422                	sw	s0,8(sp)
2000a892:	0800                	addi	s0,sp,16
2000a894:	4114                	lw	a3,0(a0)
2000a896:	4705                	li	a4,1
2000a898:	00e69c63          	bne	a3,a4,2000a8b0 <_ZN5rv32i3pmp9PMPRegion8overlaps17hd72212574e3c6861E+0x24>
2000a89c:	962e                	add	a2,a2,a1
2000a89e:	4154                	lw	a3,4(a0)
2000a8a0:	00c6b633          	sltu	a2,a3,a2
2000a8a4:	4508                	lw	a0,8(a0)
2000a8a6:	9536                	add	a0,a0,a3
2000a8a8:	00a5b533          	sltu	a0,a1,a0
2000a8ac:	8d71                	and	a0,a0,a2
2000a8ae:	a011                	j	2000a8b2 <_ZN5rv32i3pmp9PMPRegion8overlaps17hd72212574e3c6861E+0x26>
2000a8b0:	4501                	li	a0,0
2000a8b2:	4422                	lw	s0,8(sp)
2000a8b4:	40b2                	lw	ra,12(sp)
2000a8b6:	0141                	addi	sp,sp,16
2000a8b8:	8082                	ret

2000a8ba <_ZN68_$LT$rv32i..pmp..PMPConfig$u20$as$u20$kernel..platform..mpu..MPU$GT$24update_app_memory_region17h96ee4faf3cd0a245E>:
2000a8ba:	1141                	addi	sp,sp,-16
2000a8bc:	c606                	sw	ra,12(sp)
2000a8be:	c422                	sw	s0,8(sp)
2000a8c0:	0800                	addi	s0,sp,16
2000a8c2:	86aa                	mv	a3,a0
2000a8c4:	4505                	li	a0,1
2000a8c6:	00d5ec63          	bltu	a1,a3,2000a8de <_ZN68_$LT$rv32i..pmp..PMPConfig$u20$as$u20$kernel..platform..mpu..MPU$GT$24update_app_memory_region17h96ee4faf3cd0a245E+0x24>
2000a8ca:	4214                	lw	a3,0(a2)
2000a8cc:	4585                	li	a1,1
2000a8ce:	00b69863          	bne	a3,a1,2000a8de <_ZN68_$LT$rv32i..pmp..PMPConfig$u20$as$u20$kernel..platform..mpu..MPU$GT$24update_app_memory_region17h96ee4faf3cd0a245E+0x24>
2000a8d2:	452d                	li	a0,11
2000a8d4:	ca08                	sw	a0,16(a2)
2000a8d6:	457d                	li	a0,31
2000a8d8:	c648                	sw	a0,12(a2)
2000a8da:	c20c                	sw	a1,0(a2)
2000a8dc:	4501                	li	a0,0
2000a8de:	4422                	lw	s0,8(sp)
2000a8e0:	40b2                	lw	ra,12(sp)
2000a8e2:	0141                	addi	sp,sp,16
2000a8e4:	8082                	ret

2000a8e6 <_ZN68_$LT$rv32i..pmp..PMPConfig$u20$as$u20$kernel..platform..mpu..MPU$GT$13configure_mpu17h4363cac150c4abadE>:
2000a8e6:	7151                	addi	sp,sp,-240
2000a8e8:	d786                	sw	ra,236(sp)
2000a8ea:	d5a2                	sw	s0,232(sp)
2000a8ec:	d3a6                	sw	s1,228(sp)
2000a8ee:	d1ca                	sw	s2,224(sp)
2000a8f0:	cfce                	sw	s3,220(sp)
2000a8f2:	cdd2                	sw	s4,216(sp)
2000a8f4:	cbd6                	sw	s5,212(sp)
2000a8f6:	c9da                	sw	s6,208(sp)
2000a8f8:	c7de                	sw	s7,204(sp)
2000a8fa:	c5e2                	sw	s8,200(sp)
2000a8fc:	c3e6                	sw	s9,196(sp)
2000a8fe:	c1ea                	sw	s10,192(sp)
2000a900:	df6e                	sw	s11,188(sp)
2000a902:	1980                	addi	s0,sp,240
2000a904:	f0a42e23          	sw	a0,-228(s0)
2000a908:	f2040993          	addi	s3,s0,-224
2000a90c:	854e                	mv	a0,s3
2000a90e:	0a000613          	li	a2,160
2000a912:	00001097          	auipc	ra,0x1
2000a916:	bcc080e7          	jalr	-1076(ra) # 2000b4de <memcpy>
2000a91a:	4a05                	li	s4,1
2000a91c:	f0c40a93          	addi	s5,s0,-244
2000a920:	4b21                	li	s6,8
2000a922:	4bd1                	li	s7,20
2000a924:	4c05                	li	s8,1
2000a926:	0b6c0763          	beq	s8,s6,2000a9d4 <_ZN68_$LT$rv32i..pmp..PMPConfig$u20$as$u20$kernel..platform..mpu..MPU$GT$13configure_mpu17h4363cac150c4abadE+0xee>
2000a92a:	037c0533          	mul	a0,s8,s7
2000a92e:	954e                	add	a0,a0,s3
2000a930:	fec52583          	lw	a1,-20(a0)
2000a934:	01458463          	beq	a1,s4,2000a93c <_ZN68_$LT$rv32i..pmp..PMPConfig$u20$as$u20$kernel..platform..mpu..MPU$GT$13configure_mpu17h4363cac150c4abadE+0x56>
2000a938:	55fd                	li	a1,-1
2000a93a:	a019                	j	2000a940 <_ZN68_$LT$rv32i..pmp..PMPConfig$u20$as$u20$kernel..platform..mpu..MPU$GT$13configure_mpu17h4363cac150c4abadE+0x5a>
2000a93c:	ff052583          	lw	a1,-16(a0)
2000a940:	00452d03          	lw	s10,4(a0)
2000a944:	00052c83          	lw	s9,0(a0)
2000a948:	8dea                	mv	s11,s10
2000a94a:	014c8363          	beq	s9,s4,2000a950 <_ZN68_$LT$rv32i..pmp..PMPConfig$u20$as$u20$kernel..platform..mpu..MPU$GT$13configure_mpu17h4363cac150c4abadE+0x6a>
2000a94e:	5dfd                	li	s11,-1
2000a950:	06bdfe63          	bgeu	s11,a1,2000a9cc <_ZN68_$LT$rv32i..pmp..PMPConfig$u20$as$u20$kernel..platform..mpu..MPU$GT$13configure_mpu17h4363cac150c4abadE+0xe6>
2000a954:	fffc0913          	addi	s2,s8,-1
2000a958:	fec50593          	addi	a1,a0,-20
2000a95c:	4910                	lw	a2,16(a0)
2000a95e:	fcc42423          	sw	a2,-56(s0)
2000a962:	4550                	lw	a2,12(a0)
2000a964:	fcc42223          	sw	a2,-60(s0)
2000a968:	4510                	lw	a2,8(a0)
2000a96a:	fcc42023          	sw	a2,-64(s0)
2000a96e:	4651                	li	a2,20
2000a970:	00001097          	auipc	ra,0x1
2000a974:	b6e080e7          	jalr	-1170(ra) # 2000b4de <memcpy>
2000a978:	84d6                	mv	s1,s5
2000a97a:	02090863          	beqz	s2,2000a9aa <_ZN68_$LT$rv32i..pmp..PMPConfig$u20$as$u20$kernel..platform..mpu..MPU$GT$13configure_mpu17h4363cac150c4abadE+0xc4>
2000a97e:	4088                	lw	a0,0(s1)
2000a980:	01450663          	beq	a0,s4,2000a98c <_ZN68_$LT$rv32i..pmp..PMPConfig$u20$as$u20$kernel..platform..mpu..MPU$GT$13configure_mpu17h4363cac150c4abadE+0xa6>
2000a984:	557d                	li	a0,-1
2000a986:	00ade663          	bltu	s11,a0,2000a992 <_ZN68_$LT$rv32i..pmp..PMPConfig$u20$as$u20$kernel..platform..mpu..MPU$GT$13configure_mpu17h4363cac150c4abadE+0xac>
2000a98a:	a00d                	j	2000a9ac <_ZN68_$LT$rv32i..pmp..PMPConfig$u20$as$u20$kernel..platform..mpu..MPU$GT$13configure_mpu17h4363cac150c4abadE+0xc6>
2000a98c:	40c8                	lw	a0,4(s1)
2000a98e:	00adff63          	bgeu	s11,a0,2000a9ac <_ZN68_$LT$rv32i..pmp..PMPConfig$u20$as$u20$kernel..platform..mpu..MPU$GT$13configure_mpu17h4363cac150c4abadE+0xc6>
2000a992:	197d                	addi	s2,s2,-1
2000a994:	01448513          	addi	a0,s1,20
2000a998:	85a6                	mv	a1,s1
2000a99a:	4651                	li	a2,20
2000a99c:	00001097          	auipc	ra,0x1
2000a9a0:	b42080e7          	jalr	-1214(ra) # 2000b4de <memcpy>
2000a9a4:	14b1                	addi	s1,s1,-20
2000a9a6:	fc091ce3          	bnez	s2,2000a97e <_ZN68_$LT$rv32i..pmp..PMPConfig$u20$as$u20$kernel..platform..mpu..MPU$GT$13configure_mpu17h4363cac150c4abadE+0x98>
2000a9aa:	4901                	li	s2,0
2000a9ac:	03790533          	mul	a0,s2,s7
2000a9b0:	954e                	add	a0,a0,s3
2000a9b2:	01a52223          	sw	s10,4(a0)
2000a9b6:	01952023          	sw	s9,0(a0)
2000a9ba:	fc042583          	lw	a1,-64(s0)
2000a9be:	c50c                	sw	a1,8(a0)
2000a9c0:	fc442583          	lw	a1,-60(s0)
2000a9c4:	c54c                	sw	a1,12(a0)
2000a9c6:	fc842583          	lw	a1,-56(s0)
2000a9ca:	c90c                	sw	a1,16(a0)
2000a9cc:	0c05                	addi	s8,s8,1
2000a9ce:	0ad1                	addi	s5,s5,20
2000a9d0:	f56c1de3          	bne	s8,s6,2000a92a <_ZN68_$LT$rv32i..pmp..PMPConfig$u20$as$u20$kernel..platform..mpu..MPU$GT$13configure_mpu17h4363cac150c4abadE+0x44>
2000a9d4:	f2840513          	addi	a0,s0,-216
2000a9d8:	f1c42583          	lw	a1,-228(s0)
2000a9dc:	0a05a603          	lw	a2,160(a1)
2000a9e0:	e80005b7          	lui	a1,0xe8000
2000a9e4:	fff58813          	addi	a6,a1,-1 # e7ffffff <_sapps+0xc7fcffff>
2000a9e8:	fc0005b7          	lui	a1,0xfc000
2000a9ec:	fff58893          	addi	a7,a1,-1 # fbffffff <_sapps+0xdbfcffff>
2000a9f0:	fe0005b7          	lui	a1,0xfe000
2000a9f4:	fff58293          	addi	t0,a1,-1 # fdffffff <_sapps+0xddfcffff>
2000a9f8:	ff0005b7          	lui	a1,0xff000
2000a9fc:	fff58b93          	addi	s7,a1,-1 # feffffff <_sapps+0xdefcffff>
2000aa00:	4ca1                	li	s9,8
2000aa02:	4d05                	li	s10,1
2000aa04:	4c1d                	li	s8,7
2000aa06:	08000337          	lui	t1,0x8000
2000aa0a:	75c1                	lui	a1,0xffff0
2000aa0c:	fff58393          	addi	t2,a1,-1 # fffeffff <_sapps+0xdffbffff>
2000aa10:	7581                	lui	a1,0xfffe0
2000aa12:	fff58e13          	addi	t3,a1,-1 # fffdffff <_sapps+0xdffaffff>
2000aa16:	fffc05b7          	lui	a1,0xfffc0
2000aa1a:	fff58e93          	addi	t4,a1,-1 # fffbffff <_sapps+0xdff8ffff>
2000aa1e:	ffe805b7          	lui	a1,0xffe80
2000aa22:	fff58f13          	addi	t5,a1,-1 # ffe7ffff <_sapps+0xdfe4ffff>
2000aa26:	00080fb7          	lui	t6,0x80
2000aa2a:	4909                	li	s2,2
2000aa2c:	498d                	li	s3,3
2000aa2e:	4a11                	li	s4,4
2000aa30:	4a95                	li	s5,5
2000aa32:	4b19                	li	s6,6
2000aa34:	4581                	li	a1,0
2000aa36:	28b60563          	beq	a2,a1,2000acc0 <_ZN68_$LT$rv32i..pmp..PMPConfig$u20$as$u20$kernel..platform..mpu..MPU$GT$13configure_mpu17h4363cac150c4abadE+0x3da>
2000aa3a:	2b958263          	beq	a1,s9,2000acde <_ZN68_$LT$rv32i..pmp..PMPConfig$u20$as$u20$kernel..platform..mpu..MPU$GT$13configure_mpu17h4363cac150c4abadE+0x3f8>
2000aa3e:	ff852683          	lw	a3,-8(a0)
2000aa42:	27a69b63          	bne	a3,s10,2000acb8 <_ZN68_$LT$rv32i..pmp..PMPConfig$u20$as$u20$kernel..platform..mpu..MPU$GT$13configure_mpu17h4363cac150c4abadE+0x3d2>
2000aa46:	4514                	lw	a3,8(a0)
2000aa48:	4118                	lw	a4,0(a0)
2000aa4a:	ffc52783          	lw	a5,-4(a0)
2000aa4e:	00f704b3          	add	s1,a4,a5
2000aa52:	8389                	srli	a5,a5,0x2
2000aa54:	01869713          	slli	a4,a3,0x18
2000aa58:	15858163          	beq	a1,s8,2000ab9a <_ZN68_$LT$rv32i..pmp..PMPConfig$u20$as$u20$kernel..platform..mpu..MPU$GT$13configure_mpu17h4363cac150c4abadE+0x2b4>
2000aa5c:	0ba58363          	beq	a1,s10,2000ab02 <_ZN68_$LT$rv32i..pmp..PMPConfig$u20$as$u20$kernel..platform..mpu..MPU$GT$13configure_mpu17h4363cac150c4abadE+0x21c>
2000aa60:	06a2                	slli	a3,a3,0x8
2000aa62:	05258e63          	beq	a1,s2,2000aabe <_ZN68_$LT$rv32i..pmp..PMPConfig$u20$as$u20$kernel..platform..mpu..MPU$GT$13configure_mpu17h4363cac150c4abadE+0x1d8>
2000aa66:	0f358463          	beq	a1,s3,2000ab4e <_ZN68_$LT$rv32i..pmp..PMPConfig$u20$as$u20$kernel..platform..mpu..MPU$GT$13configure_mpu17h4363cac150c4abadE+0x268>
2000aa6a:	17458e63          	beq	a1,s4,2000abe6 <_ZN68_$LT$rv32i..pmp..PMPConfig$u20$as$u20$kernel..platform..mpu..MPU$GT$13configure_mpu17h4363cac150c4abadE+0x300>
2000aa6e:	21558063          	beq	a1,s5,2000ac6e <_ZN68_$LT$rv32i..pmp..PMPConfig$u20$as$u20$kernel..platform..mpu..MPU$GT$13configure_mpu17h4363cac150c4abadE+0x388>
2000aa72:	1b658c63          	beq	a1,s6,2000ac2a <_ZN68_$LT$rv32i..pmp..PMPConfig$u20$as$u20$kernel..platform..mpu..MPU$GT$13configure_mpu17h4363cac150c4abadE+0x344>
2000aa76:	24059563          	bnez	a1,2000acc0 <_ZN68_$LT$rv32i..pmp..PMPConfig$u20$as$u20$kernel..platform..mpu..MPU$GT$13configure_mpu17h4363cac150c4abadE+0x3da>
2000aa7a:	3a002773          	csrr	a4,pmpcfg0
2000aa7e:	9b79                	andi	a4,a4,-2
2000aa80:	3a071073          	csrw	pmpcfg0,a4
2000aa84:	3a002773          	csrr	a4,pmpcfg0
2000aa88:	9b75                	andi	a4,a4,-3
2000aa8a:	3a071073          	csrw	pmpcfg0,a4
2000aa8e:	3a002773          	csrr	a4,pmpcfg0
2000aa92:	9b6d                	andi	a4,a4,-5
2000aa94:	3a071073          	csrw	pmpcfg0,a4
2000aa98:	3a002773          	csrr	a4,pmpcfg0
2000aa9c:	9b1d                	andi	a4,a4,-25
2000aa9e:	00876713          	ori	a4,a4,8
2000aaa2:	3a071073          	csrw	pmpcfg0,a4
2000aaa6:	3b079073          	csrw	pmpaddr0,a5
2000aaaa:	3a002773          	csrr	a4,pmpcfg0
2000aaae:	8ed9                	or	a3,a3,a4
2000aab0:	3a069073          	csrw	pmpcfg0,a3
2000aab4:	0024d693          	srli	a3,s1,0x2
2000aab8:	3b169073          	csrw	pmpaddr1,a3
2000aabc:	aaf5                	j	2000acb8 <_ZN68_$LT$rv32i..pmp..PMPConfig$u20$as$u20$kernel..platform..mpu..MPU$GT$13configure_mpu17h4363cac150c4abadE+0x3d2>
2000aabe:	3a102773          	csrr	a4,pmpcfg1
2000aac2:	9b79                	andi	a4,a4,-2
2000aac4:	3a171073          	csrw	pmpcfg1,a4
2000aac8:	3a102773          	csrr	a4,pmpcfg1
2000aacc:	9b75                	andi	a4,a4,-3
2000aace:	3a171073          	csrw	pmpcfg1,a4
2000aad2:	3a102773          	csrr	a4,pmpcfg1
2000aad6:	9b6d                	andi	a4,a4,-5
2000aad8:	3a171073          	csrw	pmpcfg1,a4
2000aadc:	3a102773          	csrr	a4,pmpcfg1
2000aae0:	9b1d                	andi	a4,a4,-25
2000aae2:	00876713          	ori	a4,a4,8
2000aae6:	3a171073          	csrw	pmpcfg1,a4
2000aaea:	3b479073          	csrw	pmpaddr4,a5
2000aaee:	3a002773          	csrr	a4,pmpcfg0
2000aaf2:	8ed9                	or	a3,a3,a4
2000aaf4:	3a169073          	csrw	pmpcfg1,a3
2000aaf8:	0024d693          	srli	a3,s1,0x2
2000aafc:	3b569073          	csrw	pmpaddr5,a3
2000ab00:	aa65                	j	2000acb8 <_ZN68_$LT$rv32i..pmp..PMPConfig$u20$as$u20$kernel..platform..mpu..MPU$GT$13configure_mpu17h4363cac150c4abadE+0x3d2>
2000ab02:	3a0026f3          	csrr	a3,pmpcfg0
2000ab06:	0076f6b3          	and	a3,a3,t2
2000ab0a:	3a069073          	csrw	pmpcfg0,a3
2000ab0e:	3a0026f3          	csrr	a3,pmpcfg0
2000ab12:	01c6f6b3          	and	a3,a3,t3
2000ab16:	3a069073          	csrw	pmpcfg0,a3
2000ab1a:	3a0026f3          	csrr	a3,pmpcfg0
2000ab1e:	01d6f6b3          	and	a3,a3,t4
2000ab22:	3a069073          	csrw	pmpcfg0,a3
2000ab26:	3a0026f3          	csrr	a3,pmpcfg0
2000ab2a:	01e6f6b3          	and	a3,a3,t5
2000ab2e:	01f6e6b3          	or	a3,a3,t6
2000ab32:	3a069073          	csrw	pmpcfg0,a3
2000ab36:	3b279073          	csrw	pmpaddr2,a5
2000ab3a:	3a0026f3          	csrr	a3,pmpcfg0
2000ab3e:	8ed9                	or	a3,a3,a4
2000ab40:	3a069073          	csrw	pmpcfg0,a3
2000ab44:	0024d693          	srli	a3,s1,0x2
2000ab48:	3b369073          	csrw	pmpaddr3,a3
2000ab4c:	a2b5                	j	2000acb8 <_ZN68_$LT$rv32i..pmp..PMPConfig$u20$as$u20$kernel..platform..mpu..MPU$GT$13configure_mpu17h4363cac150c4abadE+0x3d2>
2000ab4e:	3a1026f3          	csrr	a3,pmpcfg1
2000ab52:	0176f6b3          	and	a3,a3,s7
2000ab56:	3a169073          	csrw	pmpcfg1,a3
2000ab5a:	3a1026f3          	csrr	a3,pmpcfg1
2000ab5e:	0056f6b3          	and	a3,a3,t0
2000ab62:	3a169073          	csrw	pmpcfg1,a3
2000ab66:	3a1026f3          	csrr	a3,pmpcfg1
2000ab6a:	0116f6b3          	and	a3,a3,a7
2000ab6e:	3a169073          	csrw	pmpcfg1,a3
2000ab72:	3a1026f3          	csrr	a3,pmpcfg1
2000ab76:	0106f6b3          	and	a3,a3,a6
2000ab7a:	0066e6b3          	or	a3,a3,t1
2000ab7e:	3a169073          	csrw	pmpcfg1,a3
2000ab82:	3b679073          	csrw	pmpaddr6,a5
2000ab86:	3a0026f3          	csrr	a3,pmpcfg0
2000ab8a:	8ed9                	or	a3,a3,a4
2000ab8c:	3a169073          	csrw	pmpcfg1,a3
2000ab90:	0024d693          	srli	a3,s1,0x2
2000ab94:	3b769073          	csrw	pmpaddr7,a3
2000ab98:	a205                	j	2000acb8 <_ZN68_$LT$rv32i..pmp..PMPConfig$u20$as$u20$kernel..platform..mpu..MPU$GT$13configure_mpu17h4363cac150c4abadE+0x3d2>
2000ab9a:	3a3026f3          	csrr	a3,pmpcfg3
2000ab9e:	0176f6b3          	and	a3,a3,s7
2000aba2:	3a369073          	csrw	pmpcfg3,a3
2000aba6:	3a3026f3          	csrr	a3,pmpcfg3
2000abaa:	0056f6b3          	and	a3,a3,t0
2000abae:	3a369073          	csrw	pmpcfg3,a3
2000abb2:	3a3026f3          	csrr	a3,pmpcfg3
2000abb6:	0116f6b3          	and	a3,a3,a7
2000abba:	3a369073          	csrw	pmpcfg3,a3
2000abbe:	3a3026f3          	csrr	a3,pmpcfg3
2000abc2:	0106f6b3          	and	a3,a3,a6
2000abc6:	0066e6b3          	or	a3,a3,t1
2000abca:	3a369073          	csrw	pmpcfg3,a3
2000abce:	3be79073          	csrw	pmpaddr14,a5
2000abd2:	3a0026f3          	csrr	a3,pmpcfg0
2000abd6:	8ed9                	or	a3,a3,a4
2000abd8:	3a369073          	csrw	pmpcfg3,a3
2000abdc:	0024d693          	srli	a3,s1,0x2
2000abe0:	3bf69073          	csrw	pmpaddr15,a3
2000abe4:	a8d1                	j	2000acb8 <_ZN68_$LT$rv32i..pmp..PMPConfig$u20$as$u20$kernel..platform..mpu..MPU$GT$13configure_mpu17h4363cac150c4abadE+0x3d2>
2000abe6:	3a202773          	csrr	a4,pmpcfg2
2000abea:	9b79                	andi	a4,a4,-2
2000abec:	3a271073          	csrw	pmpcfg2,a4
2000abf0:	3a202773          	csrr	a4,pmpcfg2
2000abf4:	9b75                	andi	a4,a4,-3
2000abf6:	3a271073          	csrw	pmpcfg2,a4
2000abfa:	3a202773          	csrr	a4,pmpcfg2
2000abfe:	9b6d                	andi	a4,a4,-5
2000ac00:	3a271073          	csrw	pmpcfg2,a4
2000ac04:	3a202773          	csrr	a4,pmpcfg2
2000ac08:	9b1d                	andi	a4,a4,-25
2000ac0a:	00876713          	ori	a4,a4,8
2000ac0e:	3a271073          	csrw	pmpcfg2,a4
2000ac12:	3b879073          	csrw	pmpaddr8,a5
2000ac16:	3a002773          	csrr	a4,pmpcfg0
2000ac1a:	8ed9                	or	a3,a3,a4
2000ac1c:	3a269073          	csrw	pmpcfg2,a3
2000ac20:	0024d693          	srli	a3,s1,0x2
2000ac24:	3b969073          	csrw	pmpaddr9,a3
2000ac28:	a841                	j	2000acb8 <_ZN68_$LT$rv32i..pmp..PMPConfig$u20$as$u20$kernel..platform..mpu..MPU$GT$13configure_mpu17h4363cac150c4abadE+0x3d2>
2000ac2a:	3a302773          	csrr	a4,pmpcfg3
2000ac2e:	9b79                	andi	a4,a4,-2
2000ac30:	3a371073          	csrw	pmpcfg3,a4
2000ac34:	3a302773          	csrr	a4,pmpcfg3
2000ac38:	9b75                	andi	a4,a4,-3
2000ac3a:	3a371073          	csrw	pmpcfg3,a4
2000ac3e:	3a302773          	csrr	a4,pmpcfg3
2000ac42:	9b6d                	andi	a4,a4,-5
2000ac44:	3a371073          	csrw	pmpcfg3,a4
2000ac48:	3a302773          	csrr	a4,pmpcfg3
2000ac4c:	9b1d                	andi	a4,a4,-25
2000ac4e:	00876713          	ori	a4,a4,8
2000ac52:	3a371073          	csrw	pmpcfg3,a4
2000ac56:	3bc79073          	csrw	pmpaddr12,a5
2000ac5a:	3a002773          	csrr	a4,pmpcfg0
2000ac5e:	8ed9                	or	a3,a3,a4
2000ac60:	3a369073          	csrw	pmpcfg3,a3
2000ac64:	0024d693          	srli	a3,s1,0x2
2000ac68:	3bd69073          	csrw	pmpaddr13,a3
2000ac6c:	a0b1                	j	2000acb8 <_ZN68_$LT$rv32i..pmp..PMPConfig$u20$as$u20$kernel..platform..mpu..MPU$GT$13configure_mpu17h4363cac150c4abadE+0x3d2>
2000ac6e:	3a2026f3          	csrr	a3,pmpcfg2
2000ac72:	0176f6b3          	and	a3,a3,s7
2000ac76:	3a269073          	csrw	pmpcfg2,a3
2000ac7a:	3a2026f3          	csrr	a3,pmpcfg2
2000ac7e:	0056f6b3          	and	a3,a3,t0
2000ac82:	3a269073          	csrw	pmpcfg2,a3
2000ac86:	3a2026f3          	csrr	a3,pmpcfg2
2000ac8a:	0116f6b3          	and	a3,a3,a7
2000ac8e:	3a269073          	csrw	pmpcfg2,a3
2000ac92:	3a2026f3          	csrr	a3,pmpcfg2
2000ac96:	0106f6b3          	and	a3,a3,a6
2000ac9a:	0066e6b3          	or	a3,a3,t1
2000ac9e:	3a269073          	csrw	pmpcfg2,a3
2000aca2:	3ba79073          	csrw	pmpaddr10,a5
2000aca6:	3a0026f3          	csrr	a3,pmpcfg0
2000acaa:	8ed9                	or	a3,a3,a4
2000acac:	3a269073          	csrw	pmpcfg2,a3
2000acb0:	0024d693          	srli	a3,s1,0x2
2000acb4:	3bb69073          	csrw	pmpaddr11,a3
2000acb8:	0585                	addi	a1,a1,1
2000acba:	0551                	addi	a0,a0,20
2000acbc:	d6b61fe3          	bne	a2,a1,2000aa3a <_ZN68_$LT$rv32i..pmp..PMPConfig$u20$as$u20$kernel..platform..mpu..MPU$GT$13configure_mpu17h4363cac150c4abadE+0x154>
2000acc0:	5dfa                	lw	s11,188(sp)
2000acc2:	4d0e                	lw	s10,192(sp)
2000acc4:	4c9e                	lw	s9,196(sp)
2000acc6:	4c2e                	lw	s8,200(sp)
2000acc8:	4bbe                	lw	s7,204(sp)
2000acca:	4b4e                	lw	s6,208(sp)
2000accc:	4ade                	lw	s5,212(sp)
2000acce:	4a6e                	lw	s4,216(sp)
2000acd0:	49fe                	lw	s3,220(sp)
2000acd2:	590e                	lw	s2,224(sp)
2000acd4:	549e                	lw	s1,228(sp)
2000acd6:	542e                	lw	s0,232(sp)
2000acd8:	50be                	lw	ra,236(sp)
2000acda:	616d                	addi	sp,sp,240
2000acdc:	8082                	ret
2000acde:	10002537          	lui	a0,0x10002
2000ace2:	c7c50513          	addi	a0,a0,-900 # 10001c7c <.Lanon.902df6e7e544c99734e58538d26fe4ad.6>
2000ace6:	4621                	li	a2,8
2000ace8:	ffffa097          	auipc	ra,0xffffa
2000acec:	e40080e7          	jalr	-448(ra) # 20004b28 <_ZN4core9panicking18panic_bounds_check17h95c8cd8536e82dafE>
2000acf0:	00004097          	auipc	ra,0x4
2000acf4:	eec080e7          	jalr	-276(ra) # 2000ebdc <abort>

2000acf8 <_ZN5rv32i17print_riscv_state17hdf47b7d4a1a43c82E>:
2000acf8:	ce010113          	addi	sp,sp,-800
2000acfc:	30112e23          	sw	ra,796(sp)
2000ad00:	30812c23          	sw	s0,792(sp)
2000ad04:	30912a23          	sw	s1,788(sp)
2000ad08:	31212823          	sw	s2,784(sp)
2000ad0c:	31312623          	sw	s3,780(sp)
2000ad10:	31412423          	sw	s4,776(sp)
2000ad14:	31512223          	sw	s5,772(sp)
2000ad18:	31612023          	sw	s6,768(sp)
2000ad1c:	2f712e23          	sw	s7,764(sp)
2000ad20:	2f812c23          	sw	s8,760(sp)
2000ad24:	2f912a23          	sw	s9,756(sp)
2000ad28:	2fa12823          	sw	s10,752(sp)
2000ad2c:	1600                	addi	s0,sp,800
2000ad2e:	34202573          	csrr	a0,mcause
2000ad32:	00000097          	auipc	ra,0x0
2000ad36:	6b0080e7          	jalr	1712(ra) # 2000b3e2 <_ZN166_$LT$rv32i..csr..mcause..Trap$u20$as$u20$core..convert..From$LT$tock_registers..registers..LocalRegisterCopy$LT$u32$C$rv32i..csr..mcause..mcause..Register$GT$$GT$$GT$4from17he55e2e304bb2ea34E>
2000ad3a:	89aa                	mv	s3,a0
2000ad3c:	892e                	mv	s2,a1
2000ad3e:	10002537          	lui	a0,0x10002
2000ad42:	c8c50513          	addi	a0,a0,-884 # 10001c8c <.Lanon.d9778860540cf11319bb138777b2a7cb.2>
2000ad46:	f2a42823          	sw	a0,-208(s0)
2000ad4a:	f4042223          	sw	zero,-188(s0)
2000ad4e:	2000e537          	lui	a0,0x2000e
2000ad52:	00c50493          	addi	s1,a0,12 # 2000e00c <.Lanon.d9778860540cf11319bb138777b2a7cb.67>
2000ad56:	f4942023          	sw	s1,-192(s0)
2000ad5a:	f2042c23          	sw	zero,-200(s0)
2000ad5e:	4a05                	li	s4,1
2000ad60:	f3442a23          	sw	s4,-204(s0)
2000ad64:	10003537          	lui	a0,0x10003
2000ad68:	89c50a93          	addi	s5,a0,-1892 # 1000289c <_ezero>
2000ad6c:	f3040593          	addi	a1,s0,-208
2000ad70:	8556                	mv	a0,s5
2000ad72:	00000097          	auipc	ra,0x0
2000ad76:	82c080e7          	jalr	-2004(ra) # 2000a59e <_ZN4core3fmt5Write9write_fmt17h57e2208449baac68E>
2000ad7a:	f4942023          	sw	s1,-192(s0)
2000ad7e:	f3442a23          	sw	s4,-204(s0)
2000ad82:	10002537          	lui	a0,0x10002
2000ad86:	c9450513          	addi	a0,a0,-876 # 10001c94 <.Lanon.d9778860540cf11319bb138777b2a7cb.5>
2000ad8a:	f2a42823          	sw	a0,-208(s0)
2000ad8e:	f4042223          	sw	zero,-188(s0)
2000ad92:	f2042c23          	sw	zero,-200(s0)
2000ad96:	f3040a13          	addi	s4,s0,-208
2000ad9a:	8556                	mv	a0,s5
2000ad9c:	85d2                	mv	a1,s4
2000ad9e:	00000097          	auipc	ra,0x0
2000ada2:	800080e7          	jalr	-2048(ra) # 2000a59e <_ZN4core3fmt5Write9write_fmt17h57e2208449baac68E>
2000ada6:	0019f513          	andi	a0,s3,1
2000adaa:	e139                	bnez	a0,2000adf0 <_ZN5rv32i17print_riscv_state17hdf47b7d4a1a43c82E+0xf8>
2000adac:	0ff97513          	andi	a0,s2,255
2000adb0:	cd59                	beqz	a0,2000ae4e <_ZN5rv32i17print_riscv_state17hdf47b7d4a1a43c82E+0x156>
2000adb2:	4585                	li	a1,1
2000adb4:	0ab50463          	beq	a0,a1,2000ae5c <_ZN5rv32i17print_riscv_state17hdf47b7d4a1a43c82E+0x164>
2000adb8:	4589                	li	a1,2
2000adba:	0ab50863          	beq	a0,a1,2000ae6a <_ZN5rv32i17print_riscv_state17hdf47b7d4a1a43c82E+0x172>
2000adbe:	458d                	li	a1,3
2000adc0:	0ab50c63          	beq	a0,a1,2000ae78 <_ZN5rv32i17print_riscv_state17hdf47b7d4a1a43c82E+0x180>
2000adc4:	4591                	li	a1,4
2000adc6:	0cb50063          	beq	a0,a1,2000ae86 <_ZN5rv32i17print_riscv_state17hdf47b7d4a1a43c82E+0x18e>
2000adca:	4595                	li	a1,5
2000adcc:	0cb50463          	beq	a0,a1,2000ae94 <_ZN5rv32i17print_riscv_state17hdf47b7d4a1a43c82E+0x19c>
2000add0:	4599                	li	a1,6
2000add2:	0cb50863          	beq	a0,a1,2000aea2 <_ZN5rv32i17print_riscv_state17hdf47b7d4a1a43c82E+0x1aa>
2000add6:	459d                	li	a1,7
2000add8:	0cb50c63          	beq	a0,a1,2000aeb0 <_ZN5rv32i17print_riscv_state17hdf47b7d4a1a43c82E+0x1b8>
2000addc:	45a1                	li	a1,8
2000adde:	0eb50063          	beq	a0,a1,2000aebe <_ZN5rv32i17print_riscv_state17hdf47b7d4a1a43c82E+0x1c6>
2000ade2:	dc040a13          	addi	s4,s0,-576
2000ade6:	10002537          	lui	a0,0x10002
2000adea:	d5450513          	addi	a0,a0,-684 # 10001d54 <.Lanon.d9778860540cf11319bb138777b2a7cb.37>
2000adee:	a245                	j	2000af8e <_ZN5rv32i17print_riscv_state17hdf47b7d4a1a43c82E+0x296>
2000adf0:	0ff97513          	andi	a0,s2,255
2000adf4:	cd61                	beqz	a0,2000aecc <_ZN5rv32i17print_riscv_state17hdf47b7d4a1a43c82E+0x1d4>
2000adf6:	4585                	li	a1,1
2000adf8:	0eb50163          	beq	a0,a1,2000aeda <_ZN5rv32i17print_riscv_state17hdf47b7d4a1a43c82E+0x1e2>
2000adfc:	4589                	li	a1,2
2000adfe:	0eb50563          	beq	a0,a1,2000aee8 <_ZN5rv32i17print_riscv_state17hdf47b7d4a1a43c82E+0x1f0>
2000ae02:	458d                	li	a1,3
2000ae04:	0eb50963          	beq	a0,a1,2000aef6 <_ZN5rv32i17print_riscv_state17hdf47b7d4a1a43c82E+0x1fe>
2000ae08:	4591                	li	a1,4
2000ae0a:	0eb50d63          	beq	a0,a1,2000af04 <_ZN5rv32i17print_riscv_state17hdf47b7d4a1a43c82E+0x20c>
2000ae0e:	4595                	li	a1,5
2000ae10:	10b50163          	beq	a0,a1,2000af12 <_ZN5rv32i17print_riscv_state17hdf47b7d4a1a43c82E+0x21a>
2000ae14:	4599                	li	a1,6
2000ae16:	10b50563          	beq	a0,a1,2000af20 <_ZN5rv32i17print_riscv_state17hdf47b7d4a1a43c82E+0x228>
2000ae1a:	459d                	li	a1,7
2000ae1c:	10b50963          	beq	a0,a1,2000af2e <_ZN5rv32i17print_riscv_state17hdf47b7d4a1a43c82E+0x236>
2000ae20:	45a1                	li	a1,8
2000ae22:	10b50d63          	beq	a0,a1,2000af3c <_ZN5rv32i17print_riscv_state17hdf47b7d4a1a43c82E+0x244>
2000ae26:	45a5                	li	a1,9
2000ae28:	12b50163          	beq	a0,a1,2000af4a <_ZN5rv32i17print_riscv_state17hdf47b7d4a1a43c82E+0x252>
2000ae2c:	45a9                	li	a1,10
2000ae2e:	12b50563          	beq	a0,a1,2000af58 <_ZN5rv32i17print_riscv_state17hdf47b7d4a1a43c82E+0x260>
2000ae32:	45ad                	li	a1,11
2000ae34:	12b50963          	beq	a0,a1,2000af66 <_ZN5rv32i17print_riscv_state17hdf47b7d4a1a43c82E+0x26e>
2000ae38:	45b1                	li	a1,12
2000ae3a:	12b50d63          	beq	a0,a1,2000af74 <_ZN5rv32i17print_riscv_state17hdf47b7d4a1a43c82E+0x27c>
2000ae3e:	45b5                	li	a1,13
2000ae40:	14b50163          	beq	a0,a1,2000af82 <_ZN5rv32i17print_riscv_state17hdf47b7d4a1a43c82E+0x28a>
2000ae44:	10002537          	lui	a0,0x10002
2000ae48:	d5c50513          	addi	a0,a0,-676 # 10001d5c <.Lanon.d9778860540cf11319bb138777b2a7cb.7>
2000ae4c:	a289                	j	2000af8e <_ZN5rv32i17print_riscv_state17hdf47b7d4a1a43c82E+0x296>
2000ae4e:	ce840a13          	addi	s4,s0,-792
2000ae52:	10002537          	lui	a0,0x10002
2000ae56:	c9c50513          	addi	a0,a0,-868 # 10001c9c <.Lanon.d9778860540cf11319bb138777b2a7cb.55>
2000ae5a:	aa15                	j	2000af8e <_ZN5rv32i17print_riscv_state17hdf47b7d4a1a43c82E+0x296>
2000ae5c:	d0040a13          	addi	s4,s0,-768
2000ae60:	10002537          	lui	a0,0x10002
2000ae64:	ca450513          	addi	a0,a0,-860 # 10001ca4 <.Lanon.d9778860540cf11319bb138777b2a7cb.53>
2000ae68:	a21d                	j	2000af8e <_ZN5rv32i17print_riscv_state17hdf47b7d4a1a43c82E+0x296>
2000ae6a:	d1840a13          	addi	s4,s0,-744
2000ae6e:	10002537          	lui	a0,0x10002
2000ae72:	cac50513          	addi	a0,a0,-852 # 10001cac <.Lanon.d9778860540cf11319bb138777b2a7cb.51>
2000ae76:	aa21                	j	2000af8e <_ZN5rv32i17print_riscv_state17hdf47b7d4a1a43c82E+0x296>
2000ae78:	d3040a13          	addi	s4,s0,-720
2000ae7c:	10002537          	lui	a0,0x10002
2000ae80:	cb450513          	addi	a0,a0,-844 # 10001cb4 <.Lanon.d9778860540cf11319bb138777b2a7cb.49>
2000ae84:	a229                	j	2000af8e <_ZN5rv32i17print_riscv_state17hdf47b7d4a1a43c82E+0x296>
2000ae86:	d4840a13          	addi	s4,s0,-696
2000ae8a:	10002537          	lui	a0,0x10002
2000ae8e:	cbc50513          	addi	a0,a0,-836 # 10001cbc <.Lanon.d9778860540cf11319bb138777b2a7cb.47>
2000ae92:	a8f5                	j	2000af8e <_ZN5rv32i17print_riscv_state17hdf47b7d4a1a43c82E+0x296>
2000ae94:	d6040a13          	addi	s4,s0,-672
2000ae98:	10002537          	lui	a0,0x10002
2000ae9c:	cc450513          	addi	a0,a0,-828 # 10001cc4 <.Lanon.d9778860540cf11319bb138777b2a7cb.45>
2000aea0:	a0fd                	j	2000af8e <_ZN5rv32i17print_riscv_state17hdf47b7d4a1a43c82E+0x296>
2000aea2:	d7840a13          	addi	s4,s0,-648
2000aea6:	10002537          	lui	a0,0x10002
2000aeaa:	ccc50513          	addi	a0,a0,-820 # 10001ccc <.Lanon.d9778860540cf11319bb138777b2a7cb.43>
2000aeae:	a0c5                	j	2000af8e <_ZN5rv32i17print_riscv_state17hdf47b7d4a1a43c82E+0x296>
2000aeb0:	d9040a13          	addi	s4,s0,-624
2000aeb4:	10002537          	lui	a0,0x10002
2000aeb8:	cd450513          	addi	a0,a0,-812 # 10001cd4 <.Lanon.d9778860540cf11319bb138777b2a7cb.41>
2000aebc:	a8c9                	j	2000af8e <_ZN5rv32i17print_riscv_state17hdf47b7d4a1a43c82E+0x296>
2000aebe:	da840a13          	addi	s4,s0,-600
2000aec2:	10002537          	lui	a0,0x10002
2000aec6:	cdc50513          	addi	a0,a0,-804 # 10001cdc <.Lanon.d9778860540cf11319bb138777b2a7cb.39>
2000aeca:	a0d1                	j	2000af8e <_ZN5rv32i17print_riscv_state17hdf47b7d4a1a43c82E+0x296>
2000aecc:	dd840a13          	addi	s4,s0,-552
2000aed0:	10002537          	lui	a0,0x10002
2000aed4:	ce450513          	addi	a0,a0,-796 # 10001ce4 <.Lanon.d9778860540cf11319bb138777b2a7cb.35>
2000aed8:	a85d                	j	2000af8e <_ZN5rv32i17print_riscv_state17hdf47b7d4a1a43c82E+0x296>
2000aeda:	df040a13          	addi	s4,s0,-528
2000aede:	10002537          	lui	a0,0x10002
2000aee2:	cec50513          	addi	a0,a0,-788 # 10001cec <.Lanon.d9778860540cf11319bb138777b2a7cb.33>
2000aee6:	a065                	j	2000af8e <_ZN5rv32i17print_riscv_state17hdf47b7d4a1a43c82E+0x296>
2000aee8:	e0840a13          	addi	s4,s0,-504
2000aeec:	10002537          	lui	a0,0x10002
2000aef0:	cf450513          	addi	a0,a0,-780 # 10001cf4 <.Lanon.d9778860540cf11319bb138777b2a7cb.31>
2000aef4:	a869                	j	2000af8e <_ZN5rv32i17print_riscv_state17hdf47b7d4a1a43c82E+0x296>
2000aef6:	e2040a13          	addi	s4,s0,-480
2000aefa:	10002537          	lui	a0,0x10002
2000aefe:	cfc50513          	addi	a0,a0,-772 # 10001cfc <.Lanon.d9778860540cf11319bb138777b2a7cb.29>
2000af02:	a071                	j	2000af8e <_ZN5rv32i17print_riscv_state17hdf47b7d4a1a43c82E+0x296>
2000af04:	e3840a13          	addi	s4,s0,-456
2000af08:	10002537          	lui	a0,0x10002
2000af0c:	d0450513          	addi	a0,a0,-764 # 10001d04 <.Lanon.d9778860540cf11319bb138777b2a7cb.27>
2000af10:	a8bd                	j	2000af8e <_ZN5rv32i17print_riscv_state17hdf47b7d4a1a43c82E+0x296>
2000af12:	e5040a13          	addi	s4,s0,-432
2000af16:	10002537          	lui	a0,0x10002
2000af1a:	d0c50513          	addi	a0,a0,-756 # 10001d0c <.Lanon.d9778860540cf11319bb138777b2a7cb.25>
2000af1e:	a885                	j	2000af8e <_ZN5rv32i17print_riscv_state17hdf47b7d4a1a43c82E+0x296>
2000af20:	e6840a13          	addi	s4,s0,-408
2000af24:	10002537          	lui	a0,0x10002
2000af28:	d1450513          	addi	a0,a0,-748 # 10001d14 <.Lanon.d9778860540cf11319bb138777b2a7cb.23>
2000af2c:	a08d                	j	2000af8e <_ZN5rv32i17print_riscv_state17hdf47b7d4a1a43c82E+0x296>
2000af2e:	e8040a13          	addi	s4,s0,-384
2000af32:	10002537          	lui	a0,0x10002
2000af36:	d1c50513          	addi	a0,a0,-740 # 10001d1c <.Lanon.d9778860540cf11319bb138777b2a7cb.21>
2000af3a:	a891                	j	2000af8e <_ZN5rv32i17print_riscv_state17hdf47b7d4a1a43c82E+0x296>
2000af3c:	e9840a13          	addi	s4,s0,-360
2000af40:	10002537          	lui	a0,0x10002
2000af44:	d2450513          	addi	a0,a0,-732 # 10001d24 <.Lanon.d9778860540cf11319bb138777b2a7cb.19>
2000af48:	a099                	j	2000af8e <_ZN5rv32i17print_riscv_state17hdf47b7d4a1a43c82E+0x296>
2000af4a:	eb040a13          	addi	s4,s0,-336
2000af4e:	10002537          	lui	a0,0x10002
2000af52:	d2c50513          	addi	a0,a0,-724 # 10001d2c <.Lanon.d9778860540cf11319bb138777b2a7cb.17>
2000af56:	a825                	j	2000af8e <_ZN5rv32i17print_riscv_state17hdf47b7d4a1a43c82E+0x296>
2000af58:	ec840a13          	addi	s4,s0,-312
2000af5c:	10002537          	lui	a0,0x10002
2000af60:	d3450513          	addi	a0,a0,-716 # 10001d34 <.Lanon.d9778860540cf11319bb138777b2a7cb.15>
2000af64:	a02d                	j	2000af8e <_ZN5rv32i17print_riscv_state17hdf47b7d4a1a43c82E+0x296>
2000af66:	ee040a13          	addi	s4,s0,-288
2000af6a:	10002537          	lui	a0,0x10002
2000af6e:	d3c50513          	addi	a0,a0,-708 # 10001d3c <.Lanon.d9778860540cf11319bb138777b2a7cb.13>
2000af72:	a831                	j	2000af8e <_ZN5rv32i17print_riscv_state17hdf47b7d4a1a43c82E+0x296>
2000af74:	ef840a13          	addi	s4,s0,-264
2000af78:	10002537          	lui	a0,0x10002
2000af7c:	d4450513          	addi	a0,a0,-700 # 10001d44 <.Lanon.d9778860540cf11319bb138777b2a7cb.11>
2000af80:	a039                	j	2000af8e <_ZN5rv32i17print_riscv_state17hdf47b7d4a1a43c82E+0x296>
2000af82:	f1840a13          	addi	s4,s0,-232
2000af86:	10002537          	lui	a0,0x10002
2000af8a:	d4c50513          	addi	a0,a0,-692 # 10001d4c <.Lanon.d9778860540cf11319bb138777b2a7cb.9>
2000af8e:	2000e5b7          	lui	a1,0x2000e
2000af92:	00c58593          	addi	a1,a1,12 # 2000e00c <.Lanon.d9778860540cf11319bb138777b2a7cb.67>
2000af96:	00ba2823          	sw	a1,16(s4)
2000af9a:	4585                	li	a1,1
2000af9c:	00ba2223          	sw	a1,4(s4)
2000afa0:	00aa2023          	sw	a0,0(s4)
2000afa4:	10003537          	lui	a0,0x10003
2000afa8:	89c50993          	addi	s3,a0,-1892 # 1000289c <_ezero>
2000afac:	000a2a23          	sw	zero,20(s4)
2000afb0:	000a2423          	sw	zero,8(s4)
2000afb4:	854e                	mv	a0,s3
2000afb6:	85d2                	mv	a1,s4
2000afb8:	fffff097          	auipc	ra,0xfffff
2000afbc:	5e6080e7          	jalr	1510(ra) # 2000a59e <_ZN4core3fmt5Write9write_fmt17h57e2208449baac68E>
2000afc0:	34202573          	csrr	a0,mcause
2000afc4:	01f55593          	srli	a1,a0,0x1f
2000afc8:	f0b40923          	sb	a1,-238(s0)
2000afcc:	800005b7          	lui	a1,0x80000
2000afd0:	15fd                	addi	a1,a1,-1
2000afd2:	8d6d                	and	a0,a0,a1
2000afd4:	e6a42423          	sw	a0,-408(s0)
2000afd8:	4509                	li	a0,2
2000afda:	f4a42223          	sw	a0,-188(s0)
2000afde:	f1840513          	addi	a0,s0,-232
2000afe2:	f4a42023          	sw	a0,-192(s0)
2000afe6:	450d                	li	a0,3
2000afe8:	f2a42a23          	sw	a0,-204(s0)
2000afec:	10002537          	lui	a0,0x10002
2000aff0:	d6450513          	addi	a0,a0,-668 # 10001d64 <.Lanon.d9778860540cf11319bb138777b2a7cb.59>
2000aff4:	f2a42823          	sw	a0,-208(s0)
2000aff8:	20005537          	lui	a0,0x20005
2000affc:	b9250513          	addi	a0,a0,-1134 # 20004b92 <_ZN4core3fmt3num3imp52_$LT$impl$u20$core..fmt..Display$u20$for$u20$u32$GT$3fmt17hd33618c459eb254aE>
2000b000:	f2a42223          	sw	a0,-220(s0)
2000b004:	e6840513          	addi	a0,s0,-408
2000b008:	f2a42023          	sw	a0,-224(s0)
2000b00c:	f1240513          	addi	a0,s0,-238
2000b010:	f0a42c23          	sw	a0,-232(s0)
2000b014:	20006537          	lui	a0,0x20006
2000b018:	65650493          	addi	s1,a0,1622 # 20006656 <_ZN43_$LT$bool$u20$as$u20$core..fmt..Display$GT$3fmt17h5f198d03fb47839aE>
2000b01c:	f2042c23          	sw	zero,-200(s0)
2000b020:	f0942e23          	sw	s1,-228(s0)
2000b024:	f3040913          	addi	s2,s0,-208
2000b028:	854e                	mv	a0,s3
2000b02a:	85ca                	mv	a1,s2
2000b02c:	fffff097          	auipc	ra,0xfffff
2000b030:	572080e7          	jalr	1394(ra) # 2000a59e <_ZN4core3fmt5Write9write_fmt17h57e2208449baac68E>
2000b034:	34302573          	csrr	a0,mtval
2000b038:	e8a42023          	sw	a0,-384(s0)
2000b03c:	34102573          	csrr	a0,mepc
2000b040:	e8a42c23          	sw	a0,-360(s0)
2000b044:	30002573          	csrr	a0,mstatus
2000b048:	eaa42823          	sw	a0,-336(s0)
2000b04c:	b0002573          	csrr	a0,mcycle
2000b050:	eca42423          	sw	a0,-312(s0)
2000b054:	b0202573          	csrr	a0,minstret
2000b058:	eea42023          	sw	a0,-288(s0)
2000b05c:	30502573          	csrr	a0,mtvec
2000b060:	eea42c23          	sw	a0,-264(s0)
2000b064:	ef840a93          	addi	s5,s0,-264
2000b068:	f5542c23          	sw	s5,-168(s0)
2000b06c:	ee040a13          	addi	s4,s0,-288
2000b070:	f5442823          	sw	s4,-176(s0)
2000b074:	ec840d13          	addi	s10,s0,-312
2000b078:	f5a42423          	sw	s10,-184(s0)
2000b07c:	eb040c93          	addi	s9,s0,-336
2000b080:	f5942023          	sw	s9,-192(s0)
2000b084:	e9840c13          	addi	s8,s0,-360
2000b088:	f3842c23          	sw	s8,-200(s0)
2000b08c:	e8040b93          	addi	s7,s0,-384
2000b090:	f3742823          	sw	s7,-208(s0)
2000b094:	f3242423          	sw	s2,-216(s0)
2000b098:	2000e537          	lui	a0,0x2000e
2000b09c:	00c50513          	addi	a0,a0,12 # 2000e00c <.Lanon.d9778860540cf11319bb138777b2a7cb.67>
2000b0a0:	f2a42023          	sw	a0,-224(s0)
2000b0a4:	4519                	li	a0,6
2000b0a6:	f2a42623          	sw	a0,-212(s0)
2000b0aa:	f2a42223          	sw	a0,-220(s0)
2000b0ae:	f0a42e23          	sw	a0,-228(s0)
2000b0b2:	10002537          	lui	a0,0x10002
2000b0b6:	d7c50513          	addi	a0,a0,-644 # 10001d7c <.Lanon.d9778860540cf11319bb138777b2a7cb.66>
2000b0ba:	f0a42c23          	sw	a0,-232(s0)
2000b0be:	20006537          	lui	a0,0x20006
2000b0c2:	71450b13          	addi	s6,a0,1812 # 20006714 <_ZN4core3fmt3num53_$LT$impl$u20$core..fmt..UpperHex$u20$for$u20$i32$GT$3fmt17had038f5c59c3e8e9E>
2000b0c6:	f5642e23          	sw	s6,-164(s0)
2000b0ca:	f5642a23          	sw	s6,-172(s0)
2000b0ce:	f5642623          	sw	s6,-180(s0)
2000b0d2:	f5642223          	sw	s6,-188(s0)
2000b0d6:	f3642e23          	sw	s6,-196(s0)
2000b0da:	f3642a23          	sw	s6,-204(s0)
2000b0de:	f1840593          	addi	a1,s0,-232
2000b0e2:	854e                	mv	a0,s3
2000b0e4:	fffff097          	auipc	ra,0xfffff
2000b0e8:	4ba080e7          	jalr	1210(ra) # 2000a59e <_ZN4core3fmt5Write9write_fmt17h57e2208449baac68E>
2000b0ec:	30002573          	csrr	a0,mstatus
2000b0f0:	00157593          	andi	a1,a0,1
2000b0f4:	f0b409a3          	sb	a1,-237(s0)
2000b0f8:	0ff57593          	andi	a1,a0,255
2000b0fc:	0015d613          	srli	a2,a1,0x1
2000b100:	8a05                	andi	a2,a2,1
2000b102:	f0c40a23          	sb	a2,-236(s0)
2000b106:	0035d613          	srli	a2,a1,0x3
2000b10a:	8a05                	andi	a2,a2,1
2000b10c:	f0c40aa3          	sb	a2,-235(s0)
2000b110:	0045d613          	srli	a2,a1,0x4
2000b114:	8a05                	andi	a2,a2,1
2000b116:	f0c40b23          	sb	a2,-234(s0)
2000b11a:	0055d613          	srli	a2,a1,0x5
2000b11e:	8a05                	andi	a2,a2,1
2000b120:	f0c40ba3          	sb	a2,-233(s0)
2000b124:	819d                	srli	a1,a1,0x7
2000b126:	ceb40423          	sb	a1,-792(s0)
2000b12a:	8121                	srli	a0,a0,0x8
2000b12c:	8905                	andi	a0,a0,1
2000b12e:	d0a40023          	sb	a0,-768(s0)
2000b132:	f3242423          	sw	s2,-216(s0)
2000b136:	f2042023          	sw	zero,-224(s0)
2000b13a:	451d                	li	a0,7
2000b13c:	f2a42623          	sw	a0,-212(s0)
2000b140:	f0a42e23          	sw	a0,-228(s0)
2000b144:	10002537          	lui	a0,0x10002
2000b148:	dac50513          	addi	a0,a0,-596 # 10001dac <.Lanon.d9778860540cf11319bb138777b2a7cb.75>
2000b14c:	f0a42c23          	sw	a0,-232(s0)
2000b150:	d0040513          	addi	a0,s0,-768
2000b154:	f6a42023          	sw	a0,-160(s0)
2000b158:	ce840513          	addi	a0,s0,-792
2000b15c:	f4a42c23          	sw	a0,-168(s0)
2000b160:	f1740513          	addi	a0,s0,-233
2000b164:	f4a42823          	sw	a0,-176(s0)
2000b168:	f1640513          	addi	a0,s0,-234
2000b16c:	f4a42423          	sw	a0,-184(s0)
2000b170:	f1540513          	addi	a0,s0,-235
2000b174:	f4a42023          	sw	a0,-192(s0)
2000b178:	f1440513          	addi	a0,s0,-236
2000b17c:	f2a42c23          	sw	a0,-200(s0)
2000b180:	f1340513          	addi	a0,s0,-237
2000b184:	f2a42823          	sw	a0,-208(s0)
2000b188:	f6942223          	sw	s1,-156(s0)
2000b18c:	f4942e23          	sw	s1,-164(s0)
2000b190:	f4942a23          	sw	s1,-172(s0)
2000b194:	f4942623          	sw	s1,-180(s0)
2000b198:	f4942223          	sw	s1,-188(s0)
2000b19c:	f2942e23          	sw	s1,-196(s0)
2000b1a0:	f2942a23          	sw	s1,-204(s0)
2000b1a4:	f1840593          	addi	a1,s0,-232
2000b1a8:	854e                	mv	a0,s3
2000b1aa:	fffff097          	auipc	ra,0xfffff
2000b1ae:	3f4080e7          	jalr	1012(ra) # 2000a59e <_ZN4core3fmt5Write9write_fmt17h57e2208449baac68E>
2000b1b2:	30402573          	csrr	a0,mie
2000b1b6:	8905                	andi	a0,a0,1
2000b1b8:	d0a40c23          	sb	a0,-744(s0)
2000b1bc:	30402573          	csrr	a0,mie
2000b1c0:	8105                	srli	a0,a0,0x1
2000b1c2:	8905                	andi	a0,a0,1
2000b1c4:	d2a40823          	sb	a0,-720(s0)
2000b1c8:	30402573          	csrr	a0,mie
2000b1cc:	810d                	srli	a0,a0,0x3
2000b1ce:	8905                	andi	a0,a0,1
2000b1d0:	d4a40423          	sb	a0,-696(s0)
2000b1d4:	30402573          	csrr	a0,mie
2000b1d8:	8111                	srli	a0,a0,0x4
2000b1da:	8905                	andi	a0,a0,1
2000b1dc:	d6a40023          	sb	a0,-672(s0)
2000b1e0:	30402573          	csrr	a0,mie
2000b1e4:	8115                	srli	a0,a0,0x5
2000b1e6:	8905                	andi	a0,a0,1
2000b1e8:	d6a40c23          	sb	a0,-648(s0)
2000b1ec:	30402573          	csrr	a0,mie
2000b1f0:	08057513          	andi	a0,a0,128
2000b1f4:	811d                	srli	a0,a0,0x7
2000b1f6:	d8a40823          	sb	a0,-624(s0)
2000b1fa:	30402573          	csrr	a0,mie
2000b1fe:	8121                	srli	a0,a0,0x8
2000b200:	8905                	andi	a0,a0,1
2000b202:	daa40423          	sb	a0,-600(s0)
2000b206:	30402573          	csrr	a0,mie
2000b20a:	8125                	srli	a0,a0,0x9
2000b20c:	8905                	andi	a0,a0,1
2000b20e:	dca40023          	sb	a0,-576(s0)
2000b212:	30402573          	csrr	a0,mie
2000b216:	812d                	srli	a0,a0,0xb
2000b218:	8905                	andi	a0,a0,1
2000b21a:	dca40c23          	sb	a0,-552(s0)
2000b21e:	34402573          	csrr	a0,mip
2000b222:	8905                	andi	a0,a0,1
2000b224:	dea40823          	sb	a0,-528(s0)
2000b228:	34402573          	csrr	a0,mip
2000b22c:	8105                	srli	a0,a0,0x1
2000b22e:	8905                	andi	a0,a0,1
2000b230:	e0a40423          	sb	a0,-504(s0)
2000b234:	34402573          	csrr	a0,mip
2000b238:	810d                	srli	a0,a0,0x3
2000b23a:	8905                	andi	a0,a0,1
2000b23c:	e2a40023          	sb	a0,-480(s0)
2000b240:	34402573          	csrr	a0,mip
2000b244:	8111                	srli	a0,a0,0x4
2000b246:	8905                	andi	a0,a0,1
2000b248:	e2a40c23          	sb	a0,-456(s0)
2000b24c:	34402573          	csrr	a0,mip
2000b250:	8115                	srli	a0,a0,0x5
2000b252:	8905                	andi	a0,a0,1
2000b254:	e4a40823          	sb	a0,-432(s0)
2000b258:	34402573          	csrr	a0,mip
2000b25c:	08057513          	andi	a0,a0,128
2000b260:	811d                	srli	a0,a0,0x7
2000b262:	e8a40023          	sb	a0,-384(s0)
2000b266:	34402573          	csrr	a0,mip
2000b26a:	8121                	srli	a0,a0,0x8
2000b26c:	8905                	andi	a0,a0,1
2000b26e:	e8a40c23          	sb	a0,-360(s0)
2000b272:	34402573          	csrr	a0,mip
2000b276:	8125                	srli	a0,a0,0x9
2000b278:	8905                	andi	a0,a0,1
2000b27a:	eaa40823          	sb	a0,-336(s0)
2000b27e:	34402573          	csrr	a0,mip
2000b282:	812d                	srli	a0,a0,0xb
2000b284:	8905                	andi	a0,a0,1
2000b286:	eca40423          	sb	a0,-312(s0)
2000b28a:	30402573          	csrr	a0,mie
2000b28e:	eea42023          	sw	a0,-288(s0)
2000b292:	34402573          	csrr	a0,mip
2000b296:	eea42c23          	sw	a0,-264(s0)
2000b29a:	fda42423          	sw	s10,-56(s0)
2000b29e:	dd840513          	addi	a0,s0,-552
2000b2a2:	fca42023          	sw	a0,-64(s0)
2000b2a6:	fb942c23          	sw	s9,-72(s0)
2000b2aa:	dc040513          	addi	a0,s0,-576
2000b2ae:	faa42823          	sw	a0,-80(s0)
2000b2b2:	fb842423          	sw	s8,-88(s0)
2000b2b6:	da840513          	addi	a0,s0,-600
2000b2ba:	faa42023          	sw	a0,-96(s0)
2000b2be:	f9742c23          	sw	s7,-104(s0)
2000b2c2:	d9040513          	addi	a0,s0,-624
2000b2c6:	f8a42823          	sw	a0,-112(s0)
2000b2ca:	e5040513          	addi	a0,s0,-432
2000b2ce:	f8a42423          	sw	a0,-120(s0)
2000b2d2:	d7840513          	addi	a0,s0,-648
2000b2d6:	f8a42023          	sw	a0,-128(s0)
2000b2da:	e3840513          	addi	a0,s0,-456
2000b2de:	f6a42c23          	sw	a0,-136(s0)
2000b2e2:	d6040513          	addi	a0,s0,-672
2000b2e6:	f6a42823          	sw	a0,-144(s0)
2000b2ea:	e2040513          	addi	a0,s0,-480
2000b2ee:	f6a42423          	sw	a0,-152(s0)
2000b2f2:	d4840513          	addi	a0,s0,-696
2000b2f6:	f6a42023          	sw	a0,-160(s0)
2000b2fa:	e0840513          	addi	a0,s0,-504
2000b2fe:	f4a42c23          	sw	a0,-168(s0)
2000b302:	d3040513          	addi	a0,s0,-720
2000b306:	f4a42823          	sw	a0,-176(s0)
2000b30a:	df040513          	addi	a0,s0,-528
2000b30e:	f4a42423          	sw	a0,-184(s0)
2000b312:	fc942623          	sw	s1,-52(s0)
2000b316:	fc942223          	sw	s1,-60(s0)
2000b31a:	fa942e23          	sw	s1,-68(s0)
2000b31e:	fa942a23          	sw	s1,-76(s0)
2000b322:	fa942623          	sw	s1,-84(s0)
2000b326:	fa942223          	sw	s1,-92(s0)
2000b32a:	f8942e23          	sw	s1,-100(s0)
2000b32e:	f8942a23          	sw	s1,-108(s0)
2000b332:	f8942623          	sw	s1,-116(s0)
2000b336:	f8942223          	sw	s1,-124(s0)
2000b33a:	f6942e23          	sw	s1,-132(s0)
2000b33e:	f6942a23          	sw	s1,-140(s0)
2000b342:	f6942623          	sw	s1,-148(s0)
2000b346:	f6942223          	sw	s1,-156(s0)
2000b34a:	f4942e23          	sw	s1,-164(s0)
2000b34e:	f4942a23          	sw	s1,-172(s0)
2000b352:	f4942623          	sw	s1,-180(s0)
2000b356:	f4942223          	sw	s1,-188(s0)
2000b35a:	d1840513          	addi	a0,s0,-744
2000b35e:	f4a42023          	sw	a0,-192(s0)
2000b362:	f3542c23          	sw	s5,-200(s0)
2000b366:	f3642e23          	sw	s6,-196(s0)
2000b36a:	f3642a23          	sw	s6,-204(s0)
2000b36e:	f3442823          	sw	s4,-208(s0)
2000b372:	f3242423          	sw	s2,-216(s0)
2000b376:	4551                	li	a0,20
2000b378:	f2a42623          	sw	a0,-212(s0)
2000b37c:	f2a42223          	sw	a0,-220(s0)
2000b380:	2000e537          	lui	a0,0x2000e
2000b384:	0cc50513          	addi	a0,a0,204 # 2000e0cc <.Lanon.d9778860540cf11319bb138777b2a7cb.90>
2000b388:	f2a42023          	sw	a0,-224(s0)
2000b38c:	4555                	li	a0,21
2000b38e:	f0a42e23          	sw	a0,-228(s0)
2000b392:	10002537          	lui	a0,0x10002
2000b396:	de450513          	addi	a0,a0,-540 # 10001de4 <.Lanon.d9778860540cf11319bb138777b2a7cb.89>
2000b39a:	f0a42c23          	sw	a0,-232(s0)
2000b39e:	f1840593          	addi	a1,s0,-232
2000b3a2:	854e                	mv	a0,s3
2000b3a4:	fffff097          	auipc	ra,0xfffff
2000b3a8:	1fa080e7          	jalr	506(ra) # 2000a59e <_ZN4core3fmt5Write9write_fmt17h57e2208449baac68E>
2000b3ac:	2f012d03          	lw	s10,752(sp)
2000b3b0:	2f412c83          	lw	s9,756(sp)
2000b3b4:	2f812c03          	lw	s8,760(sp)
2000b3b8:	2fc12b83          	lw	s7,764(sp)
2000b3bc:	30012b03          	lw	s6,768(sp)
2000b3c0:	30412a83          	lw	s5,772(sp)
2000b3c4:	30812a03          	lw	s4,776(sp)
2000b3c8:	30c12983          	lw	s3,780(sp)
2000b3cc:	31012903          	lw	s2,784(sp)
2000b3d0:	31412483          	lw	s1,788(sp)
2000b3d4:	31812403          	lw	s0,792(sp)
2000b3d8:	31c12083          	lw	ra,796(sp)
2000b3dc:	32010113          	addi	sp,sp,800
2000b3e0:	8082                	ret

2000b3e2 <_ZN166_$LT$rv32i..csr..mcause..Trap$u20$as$u20$core..convert..From$LT$tock_registers..registers..LocalRegisterCopy$LT$u32$C$rv32i..csr..mcause..mcause..Register$GT$$GT$$GT$4from17he55e2e304bb2ea34E>:
2000b3e2:	1141                	addi	sp,sp,-16
2000b3e4:	c606                	sw	ra,12(sp)
2000b3e6:	c422                	sw	s0,8(sp)
2000b3e8:	0800                	addi	s0,sp,16
2000b3ea:	00f57613          	andi	a2,a0,15
2000b3ee:	04054f63          	bltz	a0,2000b44c <_ZN166_$LT$rv32i..csr..mcause..Trap$u20$as$u20$core..convert..From$LT$tock_registers..registers..LocalRegisterCopy$LT$u32$C$rv32i..csr..mcause..mcause..Register$GT$$GT$$GT$4from17he55e2e304bb2ea34E+0x6a>
2000b3f2:	4505                	li	a0,1
2000b3f4:	45bd                	li	a1,15
2000b3f6:	08b60863          	beq	a2,a1,2000b486 <_ZN166_$LT$rv32i..csr..mcause..Trap$u20$as$u20$core..convert..From$LT$tock_registers..registers..LocalRegisterCopy$LT$u32$C$rv32i..csr..mcause..mcause..Register$GT$$GT$$GT$4from17he55e2e304bb2ea34E+0xa4>
2000b3fa:	4585                	li	a1,1
2000b3fc:	08b60363          	beq	a2,a1,2000b482 <_ZN166_$LT$rv32i..csr..mcause..Trap$u20$as$u20$core..convert..From$LT$tock_registers..registers..LocalRegisterCopy$LT$u32$C$rv32i..csr..mcause..mcause..Register$GT$$GT$$GT$4from17he55e2e304bb2ea34E+0xa0>
2000b400:	4589                	li	a1,2
2000b402:	08b60063          	beq	a2,a1,2000b482 <_ZN166_$LT$rv32i..csr..mcause..Trap$u20$as$u20$core..convert..From$LT$tock_registers..registers..LocalRegisterCopy$LT$u32$C$rv32i..csr..mcause..mcause..Register$GT$$GT$$GT$4from17he55e2e304bb2ea34E+0xa0>
2000b406:	458d                	li	a1,3
2000b408:	06b60d63          	beq	a2,a1,2000b482 <_ZN166_$LT$rv32i..csr..mcause..Trap$u20$as$u20$core..convert..From$LT$tock_registers..registers..LocalRegisterCopy$LT$u32$C$rv32i..csr..mcause..mcause..Register$GT$$GT$$GT$4from17he55e2e304bb2ea34E+0xa0>
2000b40c:	4591                	li	a1,4
2000b40e:	06b60a63          	beq	a2,a1,2000b482 <_ZN166_$LT$rv32i..csr..mcause..Trap$u20$as$u20$core..convert..From$LT$tock_registers..registers..LocalRegisterCopy$LT$u32$C$rv32i..csr..mcause..mcause..Register$GT$$GT$$GT$4from17he55e2e304bb2ea34E+0xa0>
2000b412:	4595                	li	a1,5
2000b414:	06b60763          	beq	a2,a1,2000b482 <_ZN166_$LT$rv32i..csr..mcause..Trap$u20$as$u20$core..convert..From$LT$tock_registers..registers..LocalRegisterCopy$LT$u32$C$rv32i..csr..mcause..mcause..Register$GT$$GT$$GT$4from17he55e2e304bb2ea34E+0xa0>
2000b418:	4599                	li	a1,6
2000b41a:	06b60463          	beq	a2,a1,2000b482 <_ZN166_$LT$rv32i..csr..mcause..Trap$u20$as$u20$core..convert..From$LT$tock_registers..registers..LocalRegisterCopy$LT$u32$C$rv32i..csr..mcause..mcause..Register$GT$$GT$$GT$4from17he55e2e304bb2ea34E+0xa0>
2000b41e:	459d                	li	a1,7
2000b420:	06b60163          	beq	a2,a1,2000b482 <_ZN166_$LT$rv32i..csr..mcause..Trap$u20$as$u20$core..convert..From$LT$tock_registers..registers..LocalRegisterCopy$LT$u32$C$rv32i..csr..mcause..mcause..Register$GT$$GT$$GT$4from17he55e2e304bb2ea34E+0xa0>
2000b424:	45a1                	li	a1,8
2000b426:	04b60e63          	beq	a2,a1,2000b482 <_ZN166_$LT$rv32i..csr..mcause..Trap$u20$as$u20$core..convert..From$LT$tock_registers..registers..LocalRegisterCopy$LT$u32$C$rv32i..csr..mcause..mcause..Register$GT$$GT$$GT$4from17he55e2e304bb2ea34E+0xa0>
2000b42a:	45a5                	li	a1,9
2000b42c:	04b60b63          	beq	a2,a1,2000b482 <_ZN166_$LT$rv32i..csr..mcause..Trap$u20$as$u20$core..convert..From$LT$tock_registers..registers..LocalRegisterCopy$LT$u32$C$rv32i..csr..mcause..mcause..Register$GT$$GT$$GT$4from17he55e2e304bb2ea34E+0xa0>
2000b430:	45ad                	li	a1,11
2000b432:	04b60c63          	beq	a2,a1,2000b48a <_ZN166_$LT$rv32i..csr..mcause..Trap$u20$as$u20$core..convert..From$LT$tock_registers..registers..LocalRegisterCopy$LT$u32$C$rv32i..csr..mcause..mcause..Register$GT$$GT$$GT$4from17he55e2e304bb2ea34E+0xa8>
2000b436:	45b1                	li	a1,12
2000b438:	04b60c63          	beq	a2,a1,2000b490 <_ZN166_$LT$rv32i..csr..mcause..Trap$u20$as$u20$core..convert..From$LT$tock_registers..registers..LocalRegisterCopy$LT$u32$C$rv32i..csr..mcause..mcause..Register$GT$$GT$$GT$4from17he55e2e304bb2ea34E+0xae>
2000b43c:	45b5                	li	a1,13
2000b43e:	04b60c63          	beq	a2,a1,2000b496 <_ZN166_$LT$rv32i..csr..mcause..Trap$u20$as$u20$core..convert..From$LT$tock_registers..registers..LocalRegisterCopy$LT$u32$C$rv32i..csr..mcause..mcause..Register$GT$$GT$$GT$4from17he55e2e304bb2ea34E+0xb4>
2000b442:	45b9                	li	a1,14
2000b444:	ee25                	bnez	a2,2000b4bc <_ZN166_$LT$rv32i..csr..mcause..Trap$u20$as$u20$core..convert..From$LT$tock_registers..registers..LocalRegisterCopy$LT$u32$C$rv32i..csr..mcause..mcause..Register$GT$$GT$$GT$4from17he55e2e304bb2ea34E+0xda>
2000b446:	4505                	li	a0,1
2000b448:	4581                	li	a1,0
2000b44a:	a88d                	j	2000b4bc <_ZN166_$LT$rv32i..csr..mcause..Trap$u20$as$u20$core..convert..From$LT$tock_registers..registers..LocalRegisterCopy$LT$u32$C$rv32i..csr..mcause..mcause..Register$GT$$GT$$GT$4from17he55e2e304bb2ea34E+0xda>
2000b44c:	452d                	li	a0,11
2000b44e:	04a60763          	beq	a2,a0,2000b49c <_ZN166_$LT$rv32i..csr..mcause..Trap$u20$as$u20$core..convert..From$LT$tock_registers..registers..LocalRegisterCopy$LT$u32$C$rv32i..csr..mcause..mcause..Register$GT$$GT$$GT$4from17he55e2e304bb2ea34E+0xba>
2000b452:	4585                	li	a1,1
2000b454:	06b60363          	beq	a2,a1,2000b4ba <_ZN166_$LT$rv32i..csr..mcause..Trap$u20$as$u20$core..convert..From$LT$tock_registers..registers..LocalRegisterCopy$LT$u32$C$rv32i..csr..mcause..mcause..Register$GT$$GT$$GT$4from17he55e2e304bb2ea34E+0xd8>
2000b458:	450d                	li	a0,3
2000b45a:	04a60363          	beq	a2,a0,2000b4a0 <_ZN166_$LT$rv32i..csr..mcause..Trap$u20$as$u20$core..convert..From$LT$tock_registers..registers..LocalRegisterCopy$LT$u32$C$rv32i..csr..mcause..mcause..Register$GT$$GT$$GT$4from17he55e2e304bb2ea34E+0xbe>
2000b45e:	4511                	li	a0,4
2000b460:	04a60263          	beq	a2,a0,2000b4a4 <_ZN166_$LT$rv32i..csr..mcause..Trap$u20$as$u20$core..convert..From$LT$tock_registers..registers..LocalRegisterCopy$LT$u32$C$rv32i..csr..mcause..mcause..Register$GT$$GT$$GT$4from17he55e2e304bb2ea34E+0xc2>
2000b464:	4515                	li	a0,5
2000b466:	04a60163          	beq	a2,a0,2000b4a8 <_ZN166_$LT$rv32i..csr..mcause..Trap$u20$as$u20$core..convert..From$LT$tock_registers..registers..LocalRegisterCopy$LT$u32$C$rv32i..csr..mcause..mcause..Register$GT$$GT$$GT$4from17he55e2e304bb2ea34E+0xc6>
2000b46a:	451d                	li	a0,7
2000b46c:	04a60063          	beq	a2,a0,2000b4ac <_ZN166_$LT$rv32i..csr..mcause..Trap$u20$as$u20$core..convert..From$LT$tock_registers..registers..LocalRegisterCopy$LT$u32$C$rv32i..csr..mcause..mcause..Register$GT$$GT$$GT$4from17he55e2e304bb2ea34E+0xca>
2000b470:	4521                	li	a0,8
2000b472:	02a60f63          	beq	a2,a0,2000b4b0 <_ZN166_$LT$rv32i..csr..mcause..Trap$u20$as$u20$core..convert..From$LT$tock_registers..registers..LocalRegisterCopy$LT$u32$C$rv32i..csr..mcause..mcause..Register$GT$$GT$$GT$4from17he55e2e304bb2ea34E+0xce>
2000b476:	4525                	li	a0,9
2000b478:	02a60e63          	beq	a2,a0,2000b4b4 <_ZN166_$LT$rv32i..csr..mcause..Trap$u20$as$u20$core..convert..From$LT$tock_registers..registers..LocalRegisterCopy$LT$u32$C$rv32i..csr..mcause..mcause..Register$GT$$GT$$GT$4from17he55e2e304bb2ea34E+0xd2>
2000b47c:	ee15                	bnez	a2,2000b4b8 <_ZN166_$LT$rv32i..csr..mcause..Trap$u20$as$u20$core..convert..From$LT$tock_registers..registers..LocalRegisterCopy$LT$u32$C$rv32i..csr..mcause..mcause..Register$GT$$GT$$GT$4from17he55e2e304bb2ea34E+0xd6>
2000b47e:	4581                	li	a1,0
2000b480:	a82d                	j	2000b4ba <_ZN166_$LT$rv32i..csr..mcause..Trap$u20$as$u20$core..convert..From$LT$tock_registers..registers..LocalRegisterCopy$LT$u32$C$rv32i..csr..mcause..mcause..Register$GT$$GT$$GT$4from17he55e2e304bb2ea34E+0xd8>
2000b482:	4505                	li	a0,1
2000b484:	a825                	j	2000b4bc <_ZN166_$LT$rv32i..csr..mcause..Trap$u20$as$u20$core..convert..From$LT$tock_registers..registers..LocalRegisterCopy$LT$u32$C$rv32i..csr..mcause..mcause..Register$GT$$GT$$GT$4from17he55e2e304bb2ea34E+0xda>
2000b486:	45b5                	li	a1,13
2000b488:	a815                	j	2000b4bc <_ZN166_$LT$rv32i..csr..mcause..Trap$u20$as$u20$core..convert..From$LT$tock_registers..registers..LocalRegisterCopy$LT$u32$C$rv32i..csr..mcause..mcause..Register$GT$$GT$$GT$4from17he55e2e304bb2ea34E+0xda>
2000b48a:	4505                	li	a0,1
2000b48c:	45a9                	li	a1,10
2000b48e:	a03d                	j	2000b4bc <_ZN166_$LT$rv32i..csr..mcause..Trap$u20$as$u20$core..convert..From$LT$tock_registers..registers..LocalRegisterCopy$LT$u32$C$rv32i..csr..mcause..mcause..Register$GT$$GT$$GT$4from17he55e2e304bb2ea34E+0xda>
2000b490:	4505                	li	a0,1
2000b492:	45ad                	li	a1,11
2000b494:	a025                	j	2000b4bc <_ZN166_$LT$rv32i..csr..mcause..Trap$u20$as$u20$core..convert..From$LT$tock_registers..registers..LocalRegisterCopy$LT$u32$C$rv32i..csr..mcause..mcause..Register$GT$$GT$$GT$4from17he55e2e304bb2ea34E+0xda>
2000b496:	4505                	li	a0,1
2000b498:	45b1                	li	a1,12
2000b49a:	a00d                	j	2000b4bc <_ZN166_$LT$rv32i..csr..mcause..Trap$u20$as$u20$core..convert..From$LT$tock_registers..registers..LocalRegisterCopy$LT$u32$C$rv32i..csr..mcause..mcause..Register$GT$$GT$$GT$4from17he55e2e304bb2ea34E+0xda>
2000b49c:	45a1                	li	a1,8
2000b49e:	a831                	j	2000b4ba <_ZN166_$LT$rv32i..csr..mcause..Trap$u20$as$u20$core..convert..From$LT$tock_registers..registers..LocalRegisterCopy$LT$u32$C$rv32i..csr..mcause..mcause..Register$GT$$GT$$GT$4from17he55e2e304bb2ea34E+0xd8>
2000b4a0:	4589                	li	a1,2
2000b4a2:	a821                	j	2000b4ba <_ZN166_$LT$rv32i..csr..mcause..Trap$u20$as$u20$core..convert..From$LT$tock_registers..registers..LocalRegisterCopy$LT$u32$C$rv32i..csr..mcause..mcause..Register$GT$$GT$$GT$4from17he55e2e304bb2ea34E+0xd8>
2000b4a4:	458d                	li	a1,3
2000b4a6:	a811                	j	2000b4ba <_ZN166_$LT$rv32i..csr..mcause..Trap$u20$as$u20$core..convert..From$LT$tock_registers..registers..LocalRegisterCopy$LT$u32$C$rv32i..csr..mcause..mcause..Register$GT$$GT$$GT$4from17he55e2e304bb2ea34E+0xd8>
2000b4a8:	4591                	li	a1,4
2000b4aa:	a801                	j	2000b4ba <_ZN166_$LT$rv32i..csr..mcause..Trap$u20$as$u20$core..convert..From$LT$tock_registers..registers..LocalRegisterCopy$LT$u32$C$rv32i..csr..mcause..mcause..Register$GT$$GT$$GT$4from17he55e2e304bb2ea34E+0xd8>
2000b4ac:	4595                	li	a1,5
2000b4ae:	a031                	j	2000b4ba <_ZN166_$LT$rv32i..csr..mcause..Trap$u20$as$u20$core..convert..From$LT$tock_registers..registers..LocalRegisterCopy$LT$u32$C$rv32i..csr..mcause..mcause..Register$GT$$GT$$GT$4from17he55e2e304bb2ea34E+0xd8>
2000b4b0:	4599                	li	a1,6
2000b4b2:	a021                	j	2000b4ba <_ZN166_$LT$rv32i..csr..mcause..Trap$u20$as$u20$core..convert..From$LT$tock_registers..registers..LocalRegisterCopy$LT$u32$C$rv32i..csr..mcause..mcause..Register$GT$$GT$$GT$4from17he55e2e304bb2ea34E+0xd8>
2000b4b4:	459d                	li	a1,7
2000b4b6:	a011                	j	2000b4ba <_ZN166_$LT$rv32i..csr..mcause..Trap$u20$as$u20$core..convert..From$LT$tock_registers..registers..LocalRegisterCopy$LT$u32$C$rv32i..csr..mcause..mcause..Register$GT$$GT$$GT$4from17he55e2e304bb2ea34E+0xd8>
2000b4b8:	45a5                	li	a1,9
2000b4ba:	4501                	li	a0,0
2000b4bc:	4422                	lw	s0,8(sp)
2000b4be:	40b2                	lw	ra,12(sp)
2000b4c0:	0141                	addi	sp,sp,16
2000b4c2:	8082                	ret

2000b4c4 <_ZN75_$LT$rv32i..csr..mcause..Trap$u20$as$u20$core..convert..From$LT$u32$GT$$GT$4from17h20c7d60a4846e24fE>:
2000b4c4:	1141                	addi	sp,sp,-16
2000b4c6:	c606                	sw	ra,12(sp)
2000b4c8:	c422                	sw	s0,8(sp)
2000b4ca:	0800                	addi	s0,sp,16
2000b4cc:	00000097          	auipc	ra,0x0
2000b4d0:	f16080e7          	jalr	-234(ra) # 2000b3e2 <_ZN166_$LT$rv32i..csr..mcause..Trap$u20$as$u20$core..convert..From$LT$tock_registers..registers..LocalRegisterCopy$LT$u32$C$rv32i..csr..mcause..mcause..Register$GT$$GT$$GT$4from17he55e2e304bb2ea34E>
2000b4d4:	8905                	andi	a0,a0,1
2000b4d6:	4422                	lw	s0,8(sp)
2000b4d8:	40b2                	lw	ra,12(sp)
2000b4da:	0141                	addi	sp,sp,16
2000b4dc:	8082                	ret

2000b4de <memcpy>:
2000b4de:	1141                	addi	sp,sp,-16
2000b4e0:	c606                	sw	ra,12(sp)
2000b4e2:	c422                	sw	s0,8(sp)
2000b4e4:	0800                	addi	s0,sp,16
2000b4e6:	ca11                	beqz	a2,2000b4fa <memcpy+0x1c>
2000b4e8:	86aa                	mv	a3,a0
2000b4ea:	00058703          	lb	a4,0(a1) # 80000000 <_sapps+0x5ffd0000>
2000b4ee:	00e68023          	sb	a4,0(a3)
2000b4f2:	0685                	addi	a3,a3,1
2000b4f4:	0585                	addi	a1,a1,1
2000b4f6:	167d                	addi	a2,a2,-1
2000b4f8:	fa6d                	bnez	a2,2000b4ea <memcpy+0xc>
2000b4fa:	4422                	lw	s0,8(sp)
2000b4fc:	40b2                	lw	ra,12(sp)
2000b4fe:	0141                	addi	sp,sp,16
2000b500:	8082                	ret

2000b502 <memset>:
2000b502:	1141                	addi	sp,sp,-16
2000b504:	c606                	sw	ra,12(sp)
2000b506:	c422                	sw	s0,8(sp)
2000b508:	0800                	addi	s0,sp,16
2000b50a:	c619                	beqz	a2,2000b518 <memset+0x16>
2000b50c:	86aa                	mv	a3,a0
2000b50e:	00b68023          	sb	a1,0(a3)
2000b512:	0685                	addi	a3,a3,1
2000b514:	167d                	addi	a2,a2,-1
2000b516:	fe65                	bnez	a2,2000b50e <memset+0xc>
2000b518:	4422                	lw	s0,8(sp)
2000b51a:	40b2                	lw	ra,12(sp)
2000b51c:	0141                	addi	sp,sp,16
2000b51e:	8082                	ret

2000b520 <bcmp>:
2000b520:	1141                	addi	sp,sp,-16
2000b522:	c606                	sw	ra,12(sp)
2000b524:	c422                	sw	s0,8(sp)
2000b526:	0800                	addi	s0,sp,16
2000b528:	ca19                	beqz	a2,2000b53e <bcmp+0x1e>
2000b52a:	0005c683          	lbu	a3,0(a1)
2000b52e:	00054703          	lbu	a4,0(a0)
2000b532:	00d71b63          	bne	a4,a3,2000b548 <bcmp+0x28>
2000b536:	0505                	addi	a0,a0,1
2000b538:	0585                	addi	a1,a1,1
2000b53a:	167d                	addi	a2,a2,-1
2000b53c:	f67d                	bnez	a2,2000b52a <bcmp+0xa>
2000b53e:	4501                	li	a0,0
2000b540:	4422                	lw	s0,8(sp)
2000b542:	40b2                	lw	ra,12(sp)
2000b544:	0141                	addi	sp,sp,16
2000b546:	8082                	ret
2000b548:	40d70533          	sub	a0,a4,a3
2000b54c:	4422                	lw	s0,8(sp)
2000b54e:	40b2                	lw	ra,12(sp)
2000b550:	0141                	addi	sp,sp,16
2000b552:	8082                	ret

2000b554 <__udivdi3>:
2000b554:	1141                	addi	sp,sp,-16
2000b556:	c606                	sw	ra,12(sp)
2000b558:	c422                	sw	s0,8(sp)
2000b55a:	0800                	addi	s0,sp,16
2000b55c:	4701                	li	a4,0
2000b55e:	4422                	lw	s0,8(sp)
2000b560:	40b2                	lw	ra,12(sp)
2000b562:	0141                	addi	sp,sp,16
2000b564:	00000317          	auipc	t1,0x0
2000b568:	00830067          	jr	8(t1) # 2000b56c <__udivmoddi4>

2000b56c <__udivmoddi4>:
2000b56c:	1141                	addi	sp,sp,-16
2000b56e:	c606                	sw	ra,12(sp)
2000b570:	c422                	sw	s0,8(sp)
2000b572:	0800                	addi	s0,sp,16
2000b574:	10058c63          	beqz	a1,2000b68c <__udivmoddi4+0x120>
2000b578:	12060663          	beqz	a2,2000b6a4 <__udivmoddi4+0x138>
2000b57c:	1a068163          	beqz	a3,2000b71e <__udivmoddi4+0x1b2>
2000b580:	02000813          	li	a6,32
2000b584:	02000893          	li	a7,32
2000b588:	ceb5                	beqz	a3,2000b604 <__udivmoddi4+0x98>
2000b58a:	0016d793          	srli	a5,a3,0x1
2000b58e:	00f6e8b3          	or	a7,a3,a5
2000b592:	0028d793          	srli	a5,a7,0x2
2000b596:	00f8e8b3          	or	a7,a7,a5
2000b59a:	0048d793          	srli	a5,a7,0x4
2000b59e:	00f8e8b3          	or	a7,a7,a5
2000b5a2:	0088d793          	srli	a5,a7,0x8
2000b5a6:	00f8e8b3          	or	a7,a7,a5
2000b5aa:	0108d793          	srli	a5,a7,0x10
2000b5ae:	00f8e8b3          	or	a7,a7,a5
2000b5b2:	555557b7          	lui	a5,0x55555
2000b5b6:	55578293          	addi	t0,a5,1365 # 55555555 <_sapps+0x35525555>
2000b5ba:	fff8c893          	not	a7,a7
2000b5be:	0018d793          	srli	a5,a7,0x1
2000b5c2:	0057f7b3          	and	a5,a5,t0
2000b5c6:	40f888b3          	sub	a7,a7,a5
2000b5ca:	333337b7          	lui	a5,0x33333
2000b5ce:	33378313          	addi	t1,a5,819 # 33333333 <_sapps+0x13303333>
2000b5d2:	0068f2b3          	and	t0,a7,t1
2000b5d6:	0028d793          	srli	a5,a7,0x2
2000b5da:	0067f7b3          	and	a5,a5,t1
2000b5de:	00f288b3          	add	a7,t0,a5
2000b5e2:	0048d793          	srli	a5,a7,0x4
2000b5e6:	98be                	add	a7,a7,a5
2000b5e8:	0f0f17b7          	lui	a5,0xf0f1
2000b5ec:	f0f78793          	addi	a5,a5,-241 # f0f0f0f <.Lline_table_start0+0xf0deea0>
2000b5f0:	00f8f8b3          	and	a7,a7,a5
2000b5f4:	010107b7          	lui	a5,0x1010
2000b5f8:	10178793          	addi	a5,a5,257 # 1010101 <.Lline_table_start0+0xffe092>
2000b5fc:	02f887b3          	mul	a5,a7,a5
2000b600:	0187d893          	srli	a7,a5,0x18
2000b604:	cdb5                	beqz	a1,2000b680 <__udivmoddi4+0x114>
2000b606:	0015d793          	srli	a5,a1,0x1
2000b60a:	00f5e833          	or	a6,a1,a5
2000b60e:	00285793          	srli	a5,a6,0x2
2000b612:	00f86833          	or	a6,a6,a5
2000b616:	00485793          	srli	a5,a6,0x4
2000b61a:	00f86833          	or	a6,a6,a5
2000b61e:	00885793          	srli	a5,a6,0x8
2000b622:	00f86833          	or	a6,a6,a5
2000b626:	01085793          	srli	a5,a6,0x10
2000b62a:	00f86833          	or	a6,a6,a5
2000b62e:	555557b7          	lui	a5,0x55555
2000b632:	55578293          	addi	t0,a5,1365 # 55555555 <_sapps+0x35525555>
2000b636:	fff84813          	not	a6,a6
2000b63a:	00185793          	srli	a5,a6,0x1
2000b63e:	0057f7b3          	and	a5,a5,t0
2000b642:	40f80833          	sub	a6,a6,a5
2000b646:	333337b7          	lui	a5,0x33333
2000b64a:	33378313          	addi	t1,a5,819 # 33333333 <_sapps+0x13303333>
2000b64e:	006872b3          	and	t0,a6,t1
2000b652:	00285793          	srli	a5,a6,0x2
2000b656:	0067f7b3          	and	a5,a5,t1
2000b65a:	00f28833          	add	a6,t0,a5
2000b65e:	00485793          	srli	a5,a6,0x4
2000b662:	983e                	add	a6,a6,a5
2000b664:	0f0f17b7          	lui	a5,0xf0f1
2000b668:	f0f78793          	addi	a5,a5,-241 # f0f0f0f <.Lline_table_start0+0xf0deea0>
2000b66c:	00f87833          	and	a6,a6,a5
2000b670:	010107b7          	lui	a5,0x1010
2000b674:	10178793          	addi	a5,a5,257 # 1010101 <.Lline_table_start0+0xffe092>
2000b678:	02f807b3          	mul	a5,a6,a5
2000b67c:	0187d813          	srli	a6,a5,0x18
2000b680:	41088833          	sub	a6,a7,a6
2000b684:	47fd                	li	a5,31
2000b686:	3507f663          	bgeu	a5,a6,2000b9d2 <__udivmoddi4+0x466>
2000b68a:	ae3d                	j	2000b9c8 <__udivmoddi4+0x45c>
2000b68c:	32069e63          	bnez	a3,2000b9c8 <__udivmoddi4+0x45c>
2000b690:	46070663          	beqz	a4,2000bafc <__udivmoddi4+0x590>
2000b694:	4a060663          	beqz	a2,2000bb40 <__udivmoddi4+0x5d4>
2000b698:	00072223          	sw	zero,4(a4)
2000b69c:	02c575b3          	remu	a1,a0,a2
2000b6a0:	c30c                	sw	a1,0(a4)
2000b6a2:	a9b1                	j	2000bafe <__udivmoddi4+0x592>
2000b6a4:	48068e63          	beqz	a3,2000bb40 <__udivmoddi4+0x5d4>
2000b6a8:	cd65                	beqz	a0,2000b7a0 <__udivmoddi4+0x234>
2000b6aa:	fff68813          	addi	a6,a3,-1
2000b6ae:	0106f7b3          	and	a5,a3,a6
2000b6b2:	0017b893          	seqz	a7,a5
2000b6b6:	00d037b3          	snez	a5,a3
2000b6ba:	0117f7b3          	and	a5,a5,a7
2000b6be:	20078063          	beqz	a5,2000b8be <__udivmoddi4+0x352>
2000b6c2:	c709                	beqz	a4,2000b6cc <__udivmoddi4+0x160>
2000b6c4:	c308                	sw	a0,0(a4)
2000b6c6:	00b87533          	and	a0,a6,a1
2000b6ca:	c348                	sw	a0,4(a4)
2000b6cc:	44068063          	beqz	a3,2000bb0c <__udivmoddi4+0x5a0>
2000b6d0:	fff6c513          	not	a0,a3
2000b6d4:	01057533          	and	a0,a0,a6
2000b6d8:	55555637          	lui	a2,0x55555
2000b6dc:	55560613          	addi	a2,a2,1365 # 55555555 <_sapps+0x35525555>
2000b6e0:	00155693          	srli	a3,a0,0x1
2000b6e4:	8e75                	and	a2,a2,a3
2000b6e6:	8d11                	sub	a0,a0,a2
2000b6e8:	33333637          	lui	a2,0x33333
2000b6ec:	33360613          	addi	a2,a2,819 # 33333333 <_sapps+0x13303333>
2000b6f0:	00c576b3          	and	a3,a0,a2
2000b6f4:	8109                	srli	a0,a0,0x2
2000b6f6:	8d71                	and	a0,a0,a2
2000b6f8:	9536                	add	a0,a0,a3
2000b6fa:	00455613          	srli	a2,a0,0x4
2000b6fe:	9532                	add	a0,a0,a2
2000b700:	0f0f1637          	lui	a2,0xf0f1
2000b704:	f0f60613          	addi	a2,a2,-241 # f0f0f0f <.Lline_table_start0+0xf0deea0>
2000b708:	8d71                	and	a0,a0,a2
2000b70a:	01010637          	lui	a2,0x1010
2000b70e:	10160613          	addi	a2,a2,257 # 1010101 <.Lline_table_start0+0xffe092>
2000b712:	02c50533          	mul	a0,a0,a2
2000b716:	8161                	srli	a0,a0,0x18
2000b718:	00a5d533          	srl	a0,a1,a0
2000b71c:	a6dd                	j	2000bb02 <__udivmoddi4+0x596>
2000b71e:	fff60813          	addi	a6,a2,-1
2000b722:	010677b3          	and	a5,a2,a6
2000b726:	0017b893          	seqz	a7,a5
2000b72a:	00c037b3          	snez	a5,a2
2000b72e:	0117f7b3          	and	a5,a5,a7
2000b732:	c3c1                	beqz	a5,2000b7b2 <__udivmoddi4+0x246>
2000b734:	c711                	beqz	a4,2000b740 <__udivmoddi4+0x1d4>
2000b736:	00072223          	sw	zero,4(a4)
2000b73a:	00a876b3          	and	a3,a6,a0
2000b73e:	c314                	sw	a3,0(a4)
2000b740:	4685                	li	a3,1
2000b742:	36d60b63          	beq	a2,a3,2000bab8 <__udivmoddi4+0x54c>
2000b746:	3c060863          	beqz	a2,2000bb16 <__udivmoddi4+0x5aa>
2000b74a:	fff64613          	not	a2,a2
2000b74e:	01067633          	and	a2,a2,a6
2000b752:	555556b7          	lui	a3,0x55555
2000b756:	55568693          	addi	a3,a3,1365 # 55555555 <_sapps+0x35525555>
2000b75a:	00165713          	srli	a4,a2,0x1
2000b75e:	8ef9                	and	a3,a3,a4
2000b760:	8e15                	sub	a2,a2,a3
2000b762:	333336b7          	lui	a3,0x33333
2000b766:	33368693          	addi	a3,a3,819 # 33333333 <_sapps+0x13303333>
2000b76a:	00d67733          	and	a4,a2,a3
2000b76e:	8209                	srli	a2,a2,0x2
2000b770:	8e75                	and	a2,a2,a3
2000b772:	963a                	add	a2,a2,a4
2000b774:	00465693          	srli	a3,a2,0x4
2000b778:	9636                	add	a2,a2,a3
2000b77a:	0f0f16b7          	lui	a3,0xf0f1
2000b77e:	f0f68693          	addi	a3,a3,-241 # f0f0f0f <.Lline_table_start0+0xf0deea0>
2000b782:	8e75                	and	a2,a2,a3
2000b784:	010106b7          	lui	a3,0x1010
2000b788:	10168693          	addi	a3,a3,257 # 1010101 <.Lline_table_start0+0xffe092>
2000b78c:	02d60633          	mul	a2,a2,a3
2000b790:	8261                	srli	a2,a2,0x18
2000b792:	fe060693          	addi	a3,a2,-32
2000b796:	3806c663          	bltz	a3,2000bb22 <__udivmoddi4+0x5b6>
2000b79a:	00d5d533          	srl	a0,a1,a3
2000b79e:	a695                	j	2000bb02 <__udivmoddi4+0x596>
2000b7a0:	c711                	beqz	a4,2000b7ac <__udivmoddi4+0x240>
2000b7a2:	00072023          	sw	zero,0(a4)
2000b7a6:	02d5f533          	remu	a0,a1,a3
2000b7aa:	c348                	sw	a0,4(a4)
2000b7ac:	02d5d533          	divu	a0,a1,a3
2000b7b0:	ae89                	j	2000bb02 <__udivmoddi4+0x596>
2000b7b2:	02000893          	li	a7,32
2000b7b6:	02000793          	li	a5,32
2000b7ba:	ce2d                	beqz	a2,2000b834 <__udivmoddi4+0x2c8>
2000b7bc:	00165793          	srli	a5,a2,0x1
2000b7c0:	00f66833          	or	a6,a2,a5
2000b7c4:	00285793          	srli	a5,a6,0x2
2000b7c8:	00f86833          	or	a6,a6,a5
2000b7cc:	00485793          	srli	a5,a6,0x4
2000b7d0:	00f86833          	or	a6,a6,a5
2000b7d4:	00885793          	srli	a5,a6,0x8
2000b7d8:	00f86833          	or	a6,a6,a5
2000b7dc:	01085793          	srli	a5,a6,0x10
2000b7e0:	00f86833          	or	a6,a6,a5
2000b7e4:	555557b7          	lui	a5,0x55555
2000b7e8:	55578293          	addi	t0,a5,1365 # 55555555 <_sapps+0x35525555>
2000b7ec:	fff84813          	not	a6,a6
2000b7f0:	00185793          	srli	a5,a6,0x1
2000b7f4:	0057f7b3          	and	a5,a5,t0
2000b7f8:	40f80833          	sub	a6,a6,a5
2000b7fc:	333337b7          	lui	a5,0x33333
2000b800:	33378313          	addi	t1,a5,819 # 33333333 <_sapps+0x13303333>
2000b804:	006872b3          	and	t0,a6,t1
2000b808:	00285793          	srli	a5,a6,0x2
2000b80c:	0067f7b3          	and	a5,a5,t1
2000b810:	00f28833          	add	a6,t0,a5
2000b814:	00485793          	srli	a5,a6,0x4
2000b818:	983e                	add	a6,a6,a5
2000b81a:	0f0f17b7          	lui	a5,0xf0f1
2000b81e:	f0f78793          	addi	a5,a5,-241 # f0f0f0f <.Lline_table_start0+0xf0deea0>
2000b822:	00f87833          	and	a6,a6,a5
2000b826:	010107b7          	lui	a5,0x1010
2000b82a:	10178793          	addi	a5,a5,257 # 1010101 <.Lline_table_start0+0xffe092>
2000b82e:	02f807b3          	mul	a5,a6,a5
2000b832:	83e1                	srli	a5,a5,0x18
2000b834:	02178813          	addi	a6,a5,33
2000b838:	cdb5                	beqz	a1,2000b8b4 <__udivmoddi4+0x348>
2000b83a:	0015d793          	srli	a5,a1,0x1
2000b83e:	00f5e8b3          	or	a7,a1,a5
2000b842:	0028d793          	srli	a5,a7,0x2
2000b846:	00f8e8b3          	or	a7,a7,a5
2000b84a:	0048d793          	srli	a5,a7,0x4
2000b84e:	00f8e8b3          	or	a7,a7,a5
2000b852:	0088d793          	srli	a5,a7,0x8
2000b856:	00f8e8b3          	or	a7,a7,a5
2000b85a:	0108d793          	srli	a5,a7,0x10
2000b85e:	00f8e8b3          	or	a7,a7,a5
2000b862:	555557b7          	lui	a5,0x55555
2000b866:	55578293          	addi	t0,a5,1365 # 55555555 <_sapps+0x35525555>
2000b86a:	fff8c893          	not	a7,a7
2000b86e:	0018d793          	srli	a5,a7,0x1
2000b872:	0057f7b3          	and	a5,a5,t0
2000b876:	40f888b3          	sub	a7,a7,a5
2000b87a:	333337b7          	lui	a5,0x33333
2000b87e:	33378313          	addi	t1,a5,819 # 33333333 <_sapps+0x13303333>
2000b882:	0068f2b3          	and	t0,a7,t1
2000b886:	0028d793          	srli	a5,a7,0x2
2000b88a:	0067f7b3          	and	a5,a5,t1
2000b88e:	00f288b3          	add	a7,t0,a5
2000b892:	0048d793          	srli	a5,a7,0x4
2000b896:	98be                	add	a7,a7,a5
2000b898:	0f0f17b7          	lui	a5,0xf0f1
2000b89c:	f0f78793          	addi	a5,a5,-241 # f0f0f0f <.Lline_table_start0+0xf0deea0>
2000b8a0:	00f8f8b3          	and	a7,a7,a5
2000b8a4:	010107b7          	lui	a5,0x1010
2000b8a8:	10178793          	addi	a5,a5,257 # 1010101 <.Lline_table_start0+0xffe092>
2000b8ac:	02f887b3          	mul	a5,a7,a5
2000b8b0:	0187d893          	srli	a7,a5,0x18
2000b8b4:	41180e33          	sub	t3,a6,a7
2000b8b8:	41c002b3          	neg	t0,t3
2000b8bc:	a20d                	j	2000b9de <__udivmoddi4+0x472>
2000b8be:	02000813          	li	a6,32
2000b8c2:	02000893          	li	a7,32
2000b8c6:	ceb5                	beqz	a3,2000b942 <__udivmoddi4+0x3d6>
2000b8c8:	0016d793          	srli	a5,a3,0x1
2000b8cc:	00f6e8b3          	or	a7,a3,a5
2000b8d0:	0028d793          	srli	a5,a7,0x2
2000b8d4:	00f8e8b3          	or	a7,a7,a5
2000b8d8:	0048d793          	srli	a5,a7,0x4
2000b8dc:	00f8e8b3          	or	a7,a7,a5
2000b8e0:	0088d793          	srli	a5,a7,0x8
2000b8e4:	00f8e8b3          	or	a7,a7,a5
2000b8e8:	0108d793          	srli	a5,a7,0x10
2000b8ec:	00f8e8b3          	or	a7,a7,a5
2000b8f0:	555557b7          	lui	a5,0x55555
2000b8f4:	55578293          	addi	t0,a5,1365 # 55555555 <_sapps+0x35525555>
2000b8f8:	fff8c893          	not	a7,a7
2000b8fc:	0018d793          	srli	a5,a7,0x1
2000b900:	0057f7b3          	and	a5,a5,t0
2000b904:	40f888b3          	sub	a7,a7,a5
2000b908:	333337b7          	lui	a5,0x33333
2000b90c:	33378313          	addi	t1,a5,819 # 33333333 <_sapps+0x13303333>
2000b910:	0068f2b3          	and	t0,a7,t1
2000b914:	0028d793          	srli	a5,a7,0x2
2000b918:	0067f7b3          	and	a5,a5,t1
2000b91c:	00f288b3          	add	a7,t0,a5
2000b920:	0048d793          	srli	a5,a7,0x4
2000b924:	98be                	add	a7,a7,a5
2000b926:	0f0f17b7          	lui	a5,0xf0f1
2000b92a:	f0f78793          	addi	a5,a5,-241 # f0f0f0f <.Lline_table_start0+0xf0deea0>
2000b92e:	00f8f8b3          	and	a7,a7,a5
2000b932:	010107b7          	lui	a5,0x1010
2000b936:	10178793          	addi	a5,a5,257 # 1010101 <.Lline_table_start0+0xffe092>
2000b93a:	02f887b3          	mul	a5,a7,a5
2000b93e:	0187d893          	srli	a7,a5,0x18
2000b942:	cdb5                	beqz	a1,2000b9be <__udivmoddi4+0x452>
2000b944:	0015d793          	srli	a5,a1,0x1
2000b948:	00f5e833          	or	a6,a1,a5
2000b94c:	00285793          	srli	a5,a6,0x2
2000b950:	00f86833          	or	a6,a6,a5
2000b954:	00485793          	srli	a5,a6,0x4
2000b958:	00f86833          	or	a6,a6,a5
2000b95c:	00885793          	srli	a5,a6,0x8
2000b960:	00f86833          	or	a6,a6,a5
2000b964:	01085793          	srli	a5,a6,0x10
2000b968:	00f86833          	or	a6,a6,a5
2000b96c:	555557b7          	lui	a5,0x55555
2000b970:	55578293          	addi	t0,a5,1365 # 55555555 <_sapps+0x35525555>
2000b974:	fff84813          	not	a6,a6
2000b978:	00185793          	srli	a5,a6,0x1
2000b97c:	0057f7b3          	and	a5,a5,t0
2000b980:	40f80833          	sub	a6,a6,a5
2000b984:	333337b7          	lui	a5,0x33333
2000b988:	33378313          	addi	t1,a5,819 # 33333333 <_sapps+0x13303333>
2000b98c:	006872b3          	and	t0,a6,t1
2000b990:	00285793          	srli	a5,a6,0x2
2000b994:	0067f7b3          	and	a5,a5,t1
2000b998:	00f28833          	add	a6,t0,a5
2000b99c:	00485793          	srli	a5,a6,0x4
2000b9a0:	983e                	add	a6,a6,a5
2000b9a2:	0f0f17b7          	lui	a5,0xf0f1
2000b9a6:	f0f78793          	addi	a5,a5,-241 # f0f0f0f <.Lline_table_start0+0xf0deea0>
2000b9aa:	00f87833          	and	a6,a6,a5
2000b9ae:	010107b7          	lui	a5,0x1010
2000b9b2:	10178793          	addi	a5,a5,257 # 1010101 <.Lline_table_start0+0xffe092>
2000b9b6:	02f807b3          	mul	a5,a6,a5
2000b9ba:	0187d813          	srli	a6,a5,0x18
2000b9be:	41088833          	sub	a6,a7,a6
2000b9c2:	47f9                	li	a5,30
2000b9c4:	0107f763          	bgeu	a5,a6,2000b9d2 <__udivmoddi4+0x466>
2000b9c8:	cf65                	beqz	a4,2000bac0 <__udivmoddi4+0x554>
2000b9ca:	c308                	sw	a0,0(a4)
2000b9cc:	c34c                	sw	a1,4(a4)
2000b9ce:	4501                	li	a0,0
2000b9d0:	aa0d                	j	2000bb02 <__udivmoddi4+0x596>
2000b9d2:	03f00793          	li	a5,63
2000b9d6:	410782b3          	sub	t0,a5,a6
2000b9da:	00180e13          	addi	t3,a6,1
2000b9de:	03f2f793          	andi	a5,t0,63
2000b9e2:	48fd                	li	a7,31
2000b9e4:	03fe7393          	andi	t2,t3,63
2000b9e8:	fe078313          	addi	t1,a5,-32
2000b9ec:	0c034c63          	bltz	t1,2000bac4 <__udivmoddi4+0x558>
2000b9f0:	00651833          	sll	a6,a0,t1
2000b9f4:	fe038e93          	addi	t4,t2,-32
2000b9f8:	0e0ed463          	bgez	t4,2000bae0 <__udivmoddi4+0x574>
2000b9fc:	407888b3          	sub	a7,a7,t2
2000ba00:	00159793          	slli	a5,a1,0x1
2000ba04:	011798b3          	sll	a7,a5,a7
2000ba08:	01c557b3          	srl	a5,a0,t3
2000ba0c:	0117e8b3          	or	a7,a5,a7
2000ba10:	0c035c63          	bgez	t1,2000bae8 <__udivmoddi4+0x57c>
2000ba14:	005512b3          	sll	t0,a0,t0
2000ba18:	0c0edb63          	bgez	t4,2000baee <__udivmoddi4+0x582>
2000ba1c:	01c5d333          	srl	t1,a1,t3
2000ba20:	4381                	li	t2,0
2000ba22:	0c0e0a63          	beqz	t3,2000baf6 <__udivmoddi4+0x58a>
2000ba26:	4e81                	li	t4,0
2000ba28:	8796                	mv	a5,t0
2000ba2a:	00189593          	slli	a1,a7,0x1
2000ba2e:	01f85513          	srli	a0,a6,0x1f
2000ba32:	00a5ef33          	or	t5,a1,a0
2000ba36:	ffff4593          	not	a1,t5
2000ba3a:	00c58533          	add	a0,a1,a2
2000ba3e:	00b532b3          	sltu	t0,a0,a1
2000ba42:	01f8d593          	srli	a1,a7,0x1f
2000ba46:	00131513          	slli	a0,t1,0x1
2000ba4a:	8d4d                	or	a0,a0,a1
2000ba4c:	fff54593          	not	a1,a0
2000ba50:	95b6                	add	a1,a1,a3
2000ba52:	005588b3          	add	a7,a1,t0
2000ba56:	00179593          	slli	a1,a5,0x1
2000ba5a:	00b3e2b3          	or	t0,t2,a1
2000ba5e:	01f7d593          	srli	a1,a5,0x1f
2000ba62:	00181793          	slli	a5,a6,0x1
2000ba66:	00b7e833          	or	a6,a5,a1
2000ba6a:	41f8d793          	srai	a5,a7,0x1f
2000ba6e:	00d7f5b3          	and	a1,a5,a3
2000ba72:	40b508b3          	sub	a7,a0,a1
2000ba76:	010ee833          	or	a6,t4,a6
2000ba7a:	00c7f5b3          	and	a1,a5,a2
2000ba7e:	00bf3533          	sltu	a0,t5,a1
2000ba82:	40a88333          	sub	t1,a7,a0
2000ba86:	40bf08b3          	sub	a7,t5,a1
2000ba8a:	0017f393          	andi	t2,a5,1
2000ba8e:	1e7d                	addi	t3,t3,-1
2000ba90:	4581                	li	a1,0
2000ba92:	4e81                	li	t4,0
2000ba94:	8796                	mv	a5,t0
2000ba96:	f80e1ae3          	bnez	t3,2000ba2a <__udivmoddi4+0x4be>
2000ba9a:	c709                	beqz	a4,2000baa4 <__udivmoddi4+0x538>
2000ba9c:	01172023          	sw	a7,0(a4)
2000baa0:	00672223          	sw	t1,4(a4)
2000baa4:	00129513          	slli	a0,t0,0x1
2000baa8:	00a3e533          	or	a0,t2,a0
2000baac:	01f2d613          	srli	a2,t0,0x1f
2000bab0:	00181693          	slli	a3,a6,0x1
2000bab4:	8e55                	or	a2,a2,a3
2000bab6:	8dd1                	or	a1,a1,a2
2000bab8:	4422                	lw	s0,8(sp)
2000baba:	40b2                	lw	ra,12(sp)
2000babc:	0141                	addi	sp,sp,16
2000babe:	8082                	ret
2000bac0:	4501                	li	a0,0
2000bac2:	a081                	j	2000bb02 <__udivmoddi4+0x596>
2000bac4:	40f88833          	sub	a6,a7,a5
2000bac8:	00155793          	srli	a5,a0,0x1
2000bacc:	0107d833          	srl	a6,a5,a6
2000bad0:	005597b3          	sll	a5,a1,t0
2000bad4:	0107e833          	or	a6,a5,a6
2000bad8:	fe038e93          	addi	t4,t2,-32
2000badc:	f20ec0e3          	bltz	t4,2000b9fc <__udivmoddi4+0x490>
2000bae0:	01d5d8b3          	srl	a7,a1,t4
2000bae4:	f20348e3          	bltz	t1,2000ba14 <__udivmoddi4+0x4a8>
2000bae8:	4281                	li	t0,0
2000baea:	f20ec9e3          	bltz	t4,2000ba1c <__udivmoddi4+0x4b0>
2000baee:	4301                	li	t1,0
2000baf0:	4381                	li	t2,0
2000baf2:	f20e1ae3          	bnez	t3,2000ba26 <__udivmoddi4+0x4ba>
2000baf6:	4581                	li	a1,0
2000baf8:	f355                	bnez	a4,2000ba9c <__udivmoddi4+0x530>
2000bafa:	b76d                	j	2000baa4 <__udivmoddi4+0x538>
2000bafc:	c231                	beqz	a2,2000bb40 <__udivmoddi4+0x5d4>
2000bafe:	02c55533          	divu	a0,a0,a2
2000bb02:	4581                	li	a1,0
2000bb04:	4422                	lw	s0,8(sp)
2000bb06:	40b2                	lw	ra,12(sp)
2000bb08:	0141                	addi	sp,sp,16
2000bb0a:	8082                	ret
2000bb0c:	02000513          	li	a0,32
2000bb10:	00a5d533          	srl	a0,a1,a0
2000bb14:	b7fd                	j	2000bb02 <__udivmoddi4+0x596>
2000bb16:	02000613          	li	a2,32
2000bb1a:	fe060693          	addi	a3,a2,-32
2000bb1e:	c606dee3          	bgez	a3,2000b79a <__udivmoddi4+0x22e>
2000bb22:	46fd                	li	a3,31
2000bb24:	8e91                	sub	a3,a3,a2
2000bb26:	00159713          	slli	a4,a1,0x1
2000bb2a:	00d716b3          	sll	a3,a4,a3
2000bb2e:	00c55533          	srl	a0,a0,a2
2000bb32:	8d55                	or	a0,a0,a3
2000bb34:	00c5d5b3          	srl	a1,a1,a2
2000bb38:	4422                	lw	s0,8(sp)
2000bb3a:	40b2                	lw	ra,12(sp)
2000bb3c:	0141                	addi	sp,sp,16
2000bb3e:	8082                	ret
2000bb40:	00003097          	auipc	ra,0x3
2000bb44:	09c080e7          	jalr	156(ra) # 2000ebdc <abort>
2000bb48:	00003097          	auipc	ra,0x3
2000bb4c:	094080e7          	jalr	148(ra) # 2000ebdc <abort>

2000bb50 <.L__unnamed_61>:
2000bb50:	6b636f74 72656b2f 2f6c656e 2f637273     tock/kernel/src/
2000bb60:	636f7270 2e737365 0a0d7372 20365220     process.rs.. R6 
2000bb70:	2820203a 65747962 0a0d2073 20315220     :  (bytes .. R1 
2000bb80:	0a0d203a 34315220 0a0d203a 20305220     : .. R14: .. R0 
2000bb90:	0a0d203a 20435020 0a0d203a 20385220     : .. PC : .. R8 
2000bba0:	0a0d203a 3a505320 0a0d2020 30315220     : .. SP:  .. R10
2000bbb0:	0a0d203a 32315220 0a0d203a 35315220     : .. R12: .. R15
2000bbc0:	0a0d203a 33315220 7250203a 7365636f     : .. R13: Proces
2000bbd0:	0a0d2073 20375220 0a0d203a 20345220     s .. R7 : .. R4 
2000bbe0:	2020203a 20202d20 65525b20 76726573     :    -   [Reserv
2000bbf0:	0a0d6465 31315220 0a0d203a 20325220     ed.. R11: .. R2 
2000bc00:	0a0d203a 20355220 0a0d203a 20395220     : .. R5 : .. R9 
2000bc10:	0a0d203a 20335220                        : .. R3 : 

2000bc1a <.L__unnamed_63>:
2000bc1a:	64616820 66206120 746c7561               had a fault

2000bc26 <.L__unnamed_65>:
2000bc26:	3a707041                                 App: 

2000bc2b <.L__unnamed_67>:
2000bc2b:	200a0d5d 6e657645 51207374 65756575     ].. Events Queue
2000bc3b:	                                         d: 

2000bc3e <.L__unnamed_68>:
2000bc3e:	53202020 61637379 43206c6c 746e756f        Syscall Count
2000bc4e:	                                         : 

2000bc50 <.L__unnamed_69>:
2000bc50:	44202020 70706f72 43206465 626c6c61        Dropped Callb
2000bc60:	206b6361 6e756f43                        ack Count: 

2000bc6b <.L__unnamed_70>:
2000bc6b:	6552200a 72617473 6f432074 3a746e75     . Restart Count:
2000bc7b:	                                          

2000bc7c <.L__unnamed_71>:
2000bc7c:	73614c20 79532074 6c616373                Last Syscall: 

2000bc8b <.L__unnamed_21>:
2000bc8b:	73614c20 79532074 6c616373 4e203a6c      Last Syscall: N
2000bc9b:	                                         one

2000bc9e <.L__unnamed_72>:
2000bc9e:	0a0d0a0d 9495e220 e29095e2 95e29095     .... ...........
2000bcae:	9095e290 e29095e2 95e29095 9095e290     ................
2000bcbe:	e29095e2 95e29095 a495e290 e29095e2     ................
2000bcce:	95e29095 9095e290 e29095e2 95e29095     ................
2000bcde:	9095e290 e29095e2 95e29095 9095e290     ................
2000bcee:	e29095e2 95e29095 9095e290 e29095e2     ................
2000bcfe:	95e29095 9095e290 e29095e2 95e29095     ................
2000bd0e:	9095e290 e29095e2 95e29095 9095e290     ................
2000bd1e:	e29095e2 95e29095 9095e290 e29095e2     ................
2000bd2e:	95e29095 9095e290 e29095e2 95e29095     ................
2000bd3e:	9095e290 e29095e2 95e29095 200a0d97     ............... 
2000bd4e:	209195e2 64644120 73736572 94e22020     ...  Address  ..
2000bd5e:	65522082 6e6f6967 6d614e20 20202065     . Region Name   
2000bd6e:	65735520 207c2064 6f6c6c41 65746163      Used | Allocate
2000bd7e:	62282064 73657479 e2202029 0a0d9195     d (bytes)  .....
2000bd8e:	9a95e220                                 ...

2000bd92 <.L__unnamed_73>:
2000bd92:	e29095e2 95e2aa95 9095e290 e29095e2     ................
2000bda2:	95e29095 9095e290 e29095e2 95e29095     ................
2000bdb2:	9095e290 e29095e2 95e29095 9095e290     ................
2000bdc2:	e29095e2 95e29095 9095e290 e29095e2     ................
2000bdd2:	95e29095 9095e290 e29095e2 95e29095     ................
2000bde2:	9095e290 e29095e2 95e29095 9095e290     ................
2000bdf2:	e29095e2 95e29095 9095e290 e29095e2     ................
2000be02:	95e29095 9095e290 e29095e2 95e29095     ................
2000be12:	9095e290 0d9d95e2 2020200a 20202020     .........       
2000be22:	20202020 94e22020 96e22082 724720bc           ... ... Gr
2000be32:	20746e61 20202020                        ant      

2000be3b <.L__unnamed_74>:
2000be3b:	00207c20 20202000 6d6f5320                | ..    Some

2000be48 <anon.94f59e978f0f32a54617dd47149c5ef2.0.llvm.1410106067623364693>:
2000be48:	40090000 203d3c20 65757274 20200a0d     ...@ <= true..  
2000be58:	00000000 31677261 30677261 656e6f4e     ....arg1arg0None

2000be68 <.L__unnamed_76>:
2000be68:	bc94e220 e28094e2 94e28094 8094e280      ...............
2000be78:	e28094e2 94e28094 8094e280 e28094e2     ................
2000be88:	94e28094 8094e280 e28094e2 94e28094     ................
2000be98:	8094e280 e28094e2 94e28094 8094e280     ................
2000bea8:	e28094e2 94e28094 8094e280 e28094e2     ................
2000beb8:	94e28094 8094e280 e28094e2 94e28094     ................
2000bec8:	8094e280 e28094e2 94e28094 8094e280     ................
2000bed8:	e28094e2 94e28094 8094e280 e28094e2     ................
2000bee8:	94e28094 200a0d80 20202020 20202020     .......         
2000bef8:	20202020 208294e2 73756e55 0a0d6465         ... Unused..
2000bf08:	                                           

2000bf0a <.L__unnamed_77>:
2000bf0a:	bc94e220 e28094e2 94e28094 8094e280      ...............
2000bf1a:	e28094e2 94e28094 8094e280 e28094e2     ................
2000bf2a:	94e28094 8094e280 e28094e2 94e28094     ................
2000bf3a:	8094e280 e28094e2 94e28094 8094e280     ................
2000bf4a:	e28094e2 94e28094 8094e280 e28094e2     ................
2000bf5a:	94e28094 8094e280 e28094e2 94e28094     ................
2000bf6a:	8094e280 e28094e2 94e28094 8094e280     ................
2000bf7a:	e28094e2 94e28094 8094e280 e28094e2     ................
2000bf8a:	94e28094                                 ......

2000bf90 <.L__unnamed_23>:
2000bf90:	00000000 00000020 0000000c 00000002     .... ...........
	...
2000bfa8:	0000000a 00000003 00000001 00000020     ............ ...
2000bfb8:	00000000 00000002 00000000 00000000     ................
2000bfc8:	00000006 00000003 00000002 00000020     ............ ...
2000bfd8:	00000000 00000002 00000000 00000000     ................
2000bfe8:	00000006 00000003 00000003 00000020     ............ ...
2000bff8:	00000000 00000002 00000000 00000002     ................
2000c008:	00000000 00000003 00000004 00000020     ............ ...
2000c018:	0000000c 00000002 00000000 00000000     ................
2000c028:	0000000a 00000003 00000005 00000020     ............ ...
2000c038:	0000000c 00000002 00000000 00000000     ................
2000c048:	0000000a 00000003                       ........

2000c050 <.L__unnamed_78>:
2000c050:	20200a0d 20202020 20202020 e2202020     ..             .
2000c060:	e2208294 4820b296 20706165 20202020     .. ... Heap     
2000c070:	                                           

2000c072 <.L__unnamed_79>:
2000c072:	20202020 0a0d5320                             S..  

2000c07c <.L__unnamed_80>:
2000c07c:	bc94e220 e28094e2 94e28094 8094e280      ...............
2000c08c:	e28094e2 94e28094 8094e280 e28094e2     ................
2000c09c:	94e28094 8094e280 e28094e2 94e28094     ................
2000c0ac:	8094e280 e28094e2 94e28094 8094e280     ................
2000c0bc:	e28094e2 94e28094 8094e280 e28094e2     ................
2000c0cc:	94e28094 8094e280 e28094e2 94e28094     ................
2000c0dc:	8094e280 e28094e2 94e28094 8094e280     ................
2000c0ec:	e28094e2 94e28094 8094e280 e28094e2     ................
2000c0fc:	94e28094 00522080                       ..... R.

2000c104 <.L__unnamed_26>:
2000c104:	00000000 00000020 00000000 00000002     .... ...........
	...
2000c11c:	00000006 00000003 00000001 00000020     ............ ...
2000c12c:	00000000 00000002 00000000 00000000     ................
2000c13c:	00000006 00000003 00000002 00000020     ............ ...
2000c14c:	00000000 00000002 00000000 00000002     ................
2000c15c:	00000000 00000003 00000003 00000020     ............ ...
2000c16c:	0000000c 00000002 00000000 00000000     ................
2000c17c:	0000000a 00000003                       ........

2000c184 <.L__unnamed_25>:
2000c184:	20200a0d 20202020 20202020 e2202020     ..             .
2000c194:	e2208294 4820b296 20706165 20202020     .. ... Heap     
2000c1a4:	20202020 3f202020 20207c20 20202020            ? |      
2000c1b4:	2020203f 20202020 20202020 20202020     ?               
2000c1c4:	200a0d53 3f3f3f20 3f3f3f3f 203f3f3f     S..  ?????????? 
2000c1d4:	e2bc94e2 94e28094 8094e280 e28094e2     ................
2000c1e4:	94e28094 8094e280 e28094e2 94e28094     ................
2000c1f4:	8094e280 e28094e2 94e28094 8094e280     ................
2000c204:	e28094e2 94e28094 8094e280 e28094e2     ................
2000c214:	94e28094 8094e280 e28094e2 94e28094     ................
2000c224:	8094e280 e28094e2 94e28094 8094e280     ................
2000c234:	e28094e2 94e28094 8094e280 e28094e2     ................
2000c244:	94e28094 8094e280 e28094e2 94e28094     ................
2000c254:	8094e280                                 .... R

2000c25a <.L__unnamed_30>:
2000c25a:	20200a0d 20202020 20202020 e2202020     ..             .
2000c26a:	44208294 20617461 20202020 20202020     .. Data         
2000c27a:	20202020 7c203f20 20202020 203f2020          ? |      ? 
2000c28a:	20202020 20202020 20202020 69412020                   Ai
2000c29a:	7865646e 74756f20 20666f20 6e756f62     ndex out of boun
2000c2aa:	203a7364 20656874 206e656c 0d207369     ds: the len is .
2000c2ba:	2020200a 20202020 20202020 94e22020     .             ..
2000c2ca:	61442082 20206174 20202020 73202020     . Data         s
2000c2da:	6c2f6372 6f636269 752f6572 6f63696e     rc/libcore/unico
2000c2ea:	702f6564 746e6972 656c6261 5273722e     de/printable.rsR
2000c2fa:	72657365 2f646576 6e6b6e55 096e776f     eserved/Unknown.
2000c30a:	6e72654b 76206c65 69737265 29206e6f     Kernel version )
2000c31a:	65687720 6c73206e 6e696369 43602067      when slicing `C
2000c32a:	65737561 636d2820 65737561 20203a29     ause (mcause):  
2000c33a:	20202020 20202020 20202020 73412020                   As
2000c34a:	72646275 72657669 6d756e5f 00726562     ubdriver_number.
	...

2000c35c <.L__unnamed_28>:
2000c35c:	00000000 00000020 00000000 00000002     .... ...........
	...
2000c374:	00000006 00000003 00000001 00000020     ............ ...
2000c384:	00000000 00000002 00000000 00000000     ................
2000c394:	00000006 00000003                       ........

2000c39c <.L__unnamed_83>:
2000c39c:	bc94e220 e28094e2 94e28094 8094e280      ...............
2000c3ac:	e28094e2 94e28094 8094e280 e28094e2     ................
2000c3bc:	94e28094 8094e280 e28094e2 94e28094     ................
2000c3cc:	8094e280 e28094e2 94e28094 8094e280     ................
2000c3dc:	e28094e2 94e28094 8094e280 e28094e2     ................
2000c3ec:	94e28094 8094e280 e28094e2 94e28094     ................
2000c3fc:	8094e280 e28094e2 94e28094 8094e280     ................
2000c40c:	e28094e2 94e28094 8094e280 e28094e2     ................
2000c41c:	94e28094 0d4d2080 2020200a 20202020     ..... M..       
2000c42c:	20202020 94e22020 96e22082 745320bc           ... ... St
2000c43c:	206b6361 20202020 00000020              ack      ...

2000c448 <.L__unnamed_31>:
2000c448:	00000000 00000020 0000000c 00000002     .... ...........
	...
2000c460:	0000000a 00000003 00000001 00000020     ............ ...
2000c470:	00000000 00000002 00000000 00000000     ................
2000c480:	00000006 00000003 00000002 00000020     ............ ...
2000c490:	00000000 00000002 00000000 00000000     ................
2000c4a0:	00000006 00000003 00000003 00000020     ............ ...
2000c4b0:	00000000 00000002 00000000 00000002     ................
2000c4c0:	00000000 00000003                       ........

2000c4c8 <.L__unnamed_33>:
2000c4c8:	20200a0d 3f3f3f3f 3f3f3f3f e2203f3f     ..  ?????????? .
2000c4d8:	94e2bc94 8094e280 e28094e2 94e28094     ................
2000c4e8:	8094e280 e28094e2 94e28094 8094e280     ................
2000c4f8:	e28094e2 94e28094 8094e280 e28094e2     ................
2000c508:	94e28094 8094e280 e28094e2 94e28094     ................
2000c518:	8094e280 e28094e2 94e28094 8094e280     ................
2000c528:	e28094e2 94e28094 8094e280 e28094e2     ................
2000c538:	94e28094 8094e280 e28094e2 94e28094     ................
2000c548:	8094e280 e28094e2 94e28094 8094e280     ................
2000c558:	208094e2 200a0d4d 20202020 20202020     ... M..         
2000c568:	20202020 208294e2 20bc96e2 63617453         ... ... Stac
2000c578:	2020206b 20202020 20202020 207c203f     k           ? | 
2000c588:	20202020                                      ?

2000c58e <.L__unnamed_84>:
2000c58e:	b494e220 e28094e2 94e28094 8094e280      ...............
2000c59e:	e28094e2 94e28094 8094e280 e28094e2     ................
2000c5ae:	94e28094 8094e280 e28094e2 94e28094     ................
2000c5be:	8094e280 e28094e2 94e28094 8094e280     ................
2000c5ce:	e28094e2 94e28094 8094e280 e28094e2     ................
2000c5de:	94e28094 8094e280 e28094e2 94e28094     ................
2000c5ee:	8094e280 e28094e2 94e28094 8094e280     ................
2000c5fe:	e28094e2 94e28094 8094e280 e28094e2     ................
2000c60e:	94e28094 200a0d80 20202020 20202020     .......         
2000c61e:	20202020 2e2e2e2e 200a0d2e                   .......  

2000c62b <.L__unnamed_85>:
2000c62b:	ac94e220 e28094e2 94e28094 8094e280      ...............
2000c63b:	e28094e2 94e28094 8094e280 e28094e2     ................
2000c64b:	94e28094 8094e280 e28094e2 94e28094     ................
2000c65b:	8094e280 e28094e2 94e28094 8094e280     ................
2000c66b:	e28094e2 94e28094 8094e280 e28094e2     ................
2000c67b:	94e28094 8094e280 e28094e2 94e28094     ................
2000c68b:	8094e280 e28094e2 94e28094 8094e280     ................
2000c69b:	e28094e2 94e28094 8094e280 e28094e2     ................
2000c6ab:	94e28094 0d462080 2020200a 20202020     ..... F..       
2000c6bb:	20202020 94e22020 70412082 6c462070           ... App Fl
2000c6cb:	20687361                                 ash    

2000c6d2 <.L__unnamed_86>:
2000c6d2:	20202020 20202020 20202020 20202020                     
2000c6e2:	20202020 20202020 200a0d4c                       L..  

2000c6ef <.L__unnamed_87>:
2000c6ef:	bc94e220 e28094e2 94e28094 8094e280      ...............
2000c6ff:	e28094e2 94e28094 8094e280 e28094e2     ................
2000c70f:	94e28094 8094e280 e28094e2 94e28094     ................
2000c71f:	8094e280 e28094e2 94e28094 8094e280     ................
2000c72f:	e28094e2 94e28094 8094e280 e28094e2     ................
2000c73f:	94e28094 8094e280 e28094e2 94e28094     ................
2000c74f:	8094e280 e28094e2 94e28094 8094e280     ................
2000c75f:	e28094e2 94e28094 8094e280 e28094e2     ................
2000c76f:	94e28094 0d412080 2020200a 20202020     ..... A..       
2000c77f:	20202020 94e22020 72502082 6365746f           ... Protec
2000c78f:	20646574                                 ted    

2000c796 <.L__unnamed_88>:
2000c796:	20202020 20202020 20202020 20202020                     
2000c7a6:	20202020 20202020 200a0d53                       S..  

2000c7b3 <.L__unnamed_89>:
2000c7b3:	b494e220 e28094e2 94e28094 8094e280      ...............
2000c7c3:	e28094e2 94e28094 8094e280 e28094e2     ................
2000c7d3:	94e28094 8094e280 e28094e2 94e28094     ................
2000c7e3:	8094e280 e28094e2 94e28094 8094e280     ................
2000c7f3:	e28094e2 94e28094 8094e280 e28094e2     ................
2000c803:	94e28094 8094e280 e28094e2 94e28094     ................
2000c813:	8094e280 e28094e2 94e28094 8094e280     ................
2000c823:	e28094e2 94e28094 8094e280 e28094e2     ................
2000c833:	94e28094 0d482080                        ..... H..

2000c83c <.L__unnamed_34>:
2000c83c:	00000000 00000020 0000000c 00000002     .... ...........
	...
2000c854:	0000000a 00000003 00000001 00000020     ............ ...
2000c864:	0000000c 00000002 00000000 00000000     ................
2000c874:	0000000a 00000003 00000002 00000020     ............ ...
2000c884:	0000000c 00000002 00000000 00000000     ................
2000c894:	0000000a 00000003 00000003 00000020     ............ ...
2000c8a4:	00000000 00000002 00000000 00000000     ................
2000c8b4:	00000006 00000003 00000004 00000020     ............ ...
2000c8c4:	0000000c 00000002 00000000 00000000     ................
2000c8d4:	0000000a 00000003 00000005 00000020     ............ ...
2000c8e4:	00000000 00000002 00000000 00000000     ................
2000c8f4:	00000006 00000003 00000006 00000020     ............ ...
2000c904:	0000000c 00000002 00000000 00000000     ................
2000c914:	0000000a 00000003                       ........

2000c91c <.L__unnamed_90>:
2000c91c:	6f540a0d 62656420 202c6775 206e7572     ..To debug, run 
2000c92c:	6b616d60 65642065 20677562 5f4d4152     `make debug RAM_
2000c93c:	52415453                                 START=

2000c942 <.L__unnamed_91>:
2000c942:	414c4620 495f4853 3d54494e               FLASH_INIT=

2000c94e <.L__unnamed_92>:
2000c94e:	690a0d60 6874206e 70612065 20732770     `..in the app's 
2000c95e:	646c6f66 61207265 6f20646e 206e6570     folder and open 
2000c96e:	20656874 74736c2e 6c696620 0a0d2e65     the .lst file...
2000c97e:	                                         ..

2000c980 <.L__unnamed_37>:
2000c980:	00000000 00000020 00000004 00000002     .... ...........
2000c990:	00000000 00000002 00000000 00000003     ................
2000c9a0:	00000001 00000020 00000004 00000002     .... ...........
2000c9b0:	00000000 00000002 00000000 00000003     ................

2000c9c0 <.Lanon.df4ef2eca40d8df31d41968dfc3d5204.0>:
2000c9c0:	65737361 6f697472 6166206e 64656c69     assertion failed
2000c9d0:	2860203a 7466656c 203d3d20 68676972     : `(left == righ
2000c9e0:	0a602974 656c2020 203a7466               t)`.  left: `

2000c9ed <.Lanon.df4ef2eca40d8df31d41968dfc3d5204.1>:
2000c9ed:	200a2c60 68676972 60203a74              `,. right: `

2000c9f9 <.Lanon.df4ef2eca40d8df31d41968dfc3d5204.2>:
2000c9f9:	                                         `: 

2000c9fc <.Lanon.df4ef2eca40d8df31d41968dfc3d5204.4>:
2000c9fc:	74736564 74616e69 206e6f69 20646e61     destination and 
2000ca0c:	72756f73 73206563 6563696c 61682073     source slices ha
2000ca1c:	64206576 65666669 746e6572 6e656c20     ve different len
2000ca2c:	73687467                                gths

2000ca30 <.Lanon.df4ef2eca40d8df31d41968dfc3d5204.7>:
2000ca30:	7375722f 392f6374 38626236 63313362     /rustc/96bb8b31c
2000ca40:	63643138 34393332 66373133 38306632     81dc2394317f2f08
2000ca50:	61336333 30386663 66653738 2f316165     3c3acf8087efea1/
2000ca60:	2f637273 6362696c 2f65726f 7263616d     src/libcore/macr
2000ca70:	6d2f736f 722e646f                        os/mod.rs

2000ca79 <.Lanon.74e246f328b6922f19353390cfc12dbf.25>:
2000ca79:	6b636f74 7061632f 656c7573 72732f73     tock/capsules/sr
2000ca89:	69762f63 61757472 61755f6c 722e7472     c/virtual_uart.r
2000ca99:	                                         s

2000ca9a <.Lanon.05c3764499f3745b8ff54a94c704932a.0>:
2000ca9a:	6b636f74 7061632f 656c7573 72732f73     tock/capsules/sr
2000caaa:	70672f63 722e6f69                        c/gpio.rs

2000cab3 <.Lanon.feac3395153e28be8a3a74fc51ace254.21>:
2000cab3:	4c776f4c 6c657665 75626544 41203a67     LowLevelDebug: A
2000cac3:	30207070                                 pp 0x

2000cac8 <.Lanon.feac3395153e28be8a3a74fc51ace254.22>:
2000cac8:	69727020 2073746e                         prints 0x

2000cad2 <.Lanon.feac3395153e28be8a3a74fc51ace254.24>:
2000cad2:	                                         .

2000cad3 <.Lanon.feac3395153e28be8a3a74fc51ace254.27>:
2000cad3:	656c6120 63207472 2065646f                alert code 0x

2000cae1 <.Lanon.feac3395153e28be8a3a74fc51ace254.29>:
2000cae1:	4c776f4c 6c657665 75626544 44203a67     LowLevelDebug: D
2000caf1:	70706f72 30206465                        ropped 0x

2000cafa <.Lanon.feac3395153e28be8a3a74fc51ace254.30>:
2000cafa:	746e6520 73656972 726f6620 70706120      entries for app
2000cb0a:	                                          0x

2000cb0d <.Lanon.feac3395153e28be8a3a74fc51ace254.23>:
2000cb0d:	                                          0x

2000cb10 <.Lanon.beaecb7a7e66f7266837a47152f7994d.1>:
2000cb10:	64206f6e 72656665 20646572 6c6c6163     no deferred call
2000cb20:	6f6c7320 76612074 616c6961 20656c62      slot available 
2000cb30:	20726f66 74726175 78756d20              for uart mux

2000cb3c <.Lanon.beaecb7a7e66f7266837a47152f7994d.2>:
2000cb3c:	6b636f74 616f622f 2f736472 706d6f63     tock/boards/comp
2000cb4c:	6e656e6f 732f7374 632f6372 6f736e6f     onents/src/conso
2000cb5c:	722e656c                                 le.rs

2000cb61 <.Lanon.5307d46a70a516668bc8f698eac18c61.0>:
2000cb61:	4c776f4c 6c657665 75626544 67203a67     LowLevelDebug: g
2000cb71:	746e6172 696e6920 61662074 64656c69     rant init failed
2000cb81:	                                         .

2000cb82 <_ZN4core3str15UTF8_CHAR_WIDTH17hdcc898e3b9ea16a7E>:
2000cb82:	01010101 01010101 01010101 01010101     ................
2000cb92:	01010101 01010101 01010101 01010101     ................
2000cba2:	01010101 01010101 01010101 01010101     ................
2000cbb2:	01010101 01010101 01010101 01010101     ................
2000cbc2:	01010101 01010101 01010101 01010101     ................
2000cbd2:	01010101 01010101 01010101 01010101     ................
2000cbe2:	01010101 01010101 01010101 01010101     ................
2000cbf2:	01010101 01010101 01010101 01010101     ................
	...
2000cc42:	02020000 02020202 02020202 02020202     ................
2000cc52:	02020202 02020202 02020202 02020202     ................
2000cc62:	03030303 03030303 03030303 03030303     ................
2000cc72:	04040404 00000004 00000000 00000000     ................

2000cc82 <.Lanon.f9bb9288c9d7617347bc8817bc65a1df.171>:
2000cc82:	74756220 65687420 646e6920 69207865      but the index i
2000cc92:	                                         s 

2000cc94 <.Lanon.f9bb9288c9d7617347bc8817bc65a1df.205>:
2000cc94:	31303030 33303230 35303430 37303630     0001020304050607
2000cca4:	39303830 31313031 33313231 35313431     0809101112131415
2000ccb4:	37313631 39313831 31323032 33323232     1617181920212223
2000ccc4:	35323432 37323632 39323832 31333033     2425262728293031
2000ccd4:	33333233 35333433 37333633 39333833     3233343536373839
2000cce4:	31343034 33343234 35343434 37343634     4041424344454647
2000ccf4:	39343834 31353035 33353235 35353435     4849505152535455
2000cd04:	37353635 39353835 31363036 33363236     5657585960616263
2000cd14:	35363436 37363636 39363836 31373037     6465666768697071
2000cd24:	33373237 35373437 37373637 39373837     7273747576777879
2000cd34:	31383038 33383238 35383438 37383638     8081828384858687
2000cd44:	39383838 31393039 33393239 35393439     8889909192939495
2000cd54:	37393639 39393839                       96979899

2000cd5c <.Lanon.f9bb9288c9d7617347bc8817bc65a1df.217>:
2000cd5c:	2f637273 6362696c 2f65726f 63696c73     src/libcore/slic
2000cd6c:	6f6d2f65 73722e64                       e/mod.rs

2000cd74 <.Lanon.f9bb9288c9d7617347bc8817bc65a1df.218>:
2000cd74:	65646e69                                 index 

2000cd7a <.Lanon.f9bb9288c9d7617347bc8817bc65a1df.219>:
2000cd7a:	74756f20 20666f20 676e6172 6f662065      out of range fo
2000cd8a:	6c732072 20656369 6c20666f 74676e65     r slice of lengt
2000cd9a:	                                         h 

2000cd9c <.Lanon.f9bb9288c9d7617347bc8817bc65a1df.222>:
2000cd9c:	63696c73 6e692065 20786564 72617473     slice index star
2000cdac:	61207374                                 ts at 

2000cdb2 <.Lanon.f9bb9288c9d7617347bc8817bc65a1df.223>:
2000cdb2:	74756220 646e6520 74612073                but ends at 

2000cdbf <.Lanon.f9bb9288c9d7617347bc8817bc65a1df.269>:
2000cdbf:	2e2e2e5b                                 [...]

2000cdc4 <.Lanon.f9bb9288c9d7617347bc8817bc65a1df.159>:
2000cdc4:	6c6c6163 60206465 6974704f 3a3a6e6f     called `Option::
2000cdd4:	72776e75 29287061 6e6f2060 60206120     unwrap()` on a `
2000cde4:	656e6f4e 61762060                        None` value

2000cdef <.Lanon.f9bb9288c9d7617347bc8817bc65a1df.266>:
2000cdef:	2f637273 6362696c 2f65726f 2f727473     src/libcore/str/
2000cdff:	2e646f6d                                 mod.rs

2000ce05 <.Lanon.f9bb9288c9d7617347bc8817bc65a1df.270>:
2000ce05:	65747962 646e6920                        byte index 

2000ce10 <.Lanon.f9bb9288c9d7617347bc8817bc65a1df.280>:
2000ce10:	20736920 20746f6e 68632061 62207261      is not a char b
2000ce20:	646e756f 3b797261 20746920 69207369     oundary; it is i
2000ce30:	6469736e                                 nside 

2000ce36 <.Lanon.f9bb9288c9d7617347bc8817bc65a1df.282>:
2000ce36:	666f2029                                 ) of `

2000ce3c <.Lanon.f9bb9288c9d7617347bc8817bc65a1df.29>:
2000ce3c:	                                         `

2000ce3d <.Lanon.f9bb9288c9d7617347bc8817bc65a1df.207>:
2000ce3d:	2f637273 6362696c 2f65726f 2f746d66     src/libcore/fmt/
2000ce4d:	2e646f6d                                 mod.rs

2000ce53 <.Lanon.f9bb9288c9d7617347bc8817bc65a1df.125>:
2000ce53:	                                         ..

2000ce55 <.Lanon.f9bb9288c9d7617347bc8817bc65a1df.202>:
2000ce55:	                                         0x

2000ce57 <_ZN4core7unicode12unicode_data15grapheme_extend17BITSET_CHUNKS_MAP17h22355b3dbe42063aE>:
2000ce57:	1b150f04 17120319 0e000011 00000016     ................
	...
2000ce7f:	00130600 00000000 00000000 00000000     ................
2000ce8f:	00000000 07020000 0c08000a 1a181c1d     ................
	...
2000ceaf:	01050000 00000000 00000000 00000000     ................
2000cebf:	00000000 10000000 00000000 0009000b     ................
2000cecf:	                                         ...

2000ced2 <_ZN4core7unicode12unicode_data15grapheme_extend19BITSET_INDEX_CHUNKS17h42db309ce693e410E>:
	...
2000ceee:	00120f00 00000000 00000000 00000000     ................
2000cefe:	0000001f 00000000 00000000 00000000     ................
2000cf0e:	1d664649 00000000 00000000 00000000     IFf.............
2000cf1e:	00003e8a 00000000 00000000 4b000000     .>.............K
2000cf2e:	00000053 00000000 00000000 42236700     S............g#B
	...
2000cf4a:	0000003d 00230000 00000000 00000000     =.....#.........
2000cf5a:	2d000075 00000000 00000000 00000000     u..-............
2000cf6a:	003c4e82 00000000 00000000 63000000     .N<............c
2000cf7a:	25000000 00005a00 00000000 00368100     ...%.Z........6.
2000cf8a:	00000300 00000000 00000000 0000002f     ............/...
2000cf9a:	00000000 00001000 13000000 00000800     ................
	...
2000cfb2:	43000000 89007200 00000000 00000000     ...C.r..........
2000cfc2:	00070000 057d0000 37003f18 64400987     ......}..?.7..@d
2000cfd2:	00210000 00000000 00000000 00000000     ..!.............
2000cfe2:	4100000a 00000000 00000000 00000000     ...A............
2000cff2:	0030000c 0000005c 00717719 44354760     ..0.\....wq.`G5D
2000d002:	7400002e 2c651139 507f5e51 34000000     ...t9.e,Q^.P...4
2000d012:	00000031 00000053 3a000000 00000000     1...S......:....
2000d022:	88001a38 696b2b5f 845d4f5d 14682a80     8..._+ki]O]..*h.
2000d032:	0017003b 00000000 00000000 00000000     ;...............
2000d042:	57000055 83000000 00000000 00000000     U..W............
2000d052:	00000059 26000000 00161b6e 00000000     Y......&n.......
2000d062:	001c4a6d 00000000 00000000 00002400     mJ...........$..
2000d072:	0052007c 0015067b 48000000 00000000     |.R.{......H....
2000d082:	2776287e 2200296c 0d610e5b 04627056     ~(v'l)."[.a.Vpb.
2000d092:	02782085 1e7a0000 00540179 00000033     . x...z.y.T.3...
2000d0a2:	00587386 0b6f454d 3200006a 00004c6c     .sX.MEo.j..2lL..
2000d0b2:	00008a89 3e8a8a8a 00000000 00000000     .......>........
2000d0c2:	00000000                                 ......

2000d0c8 <_ZN4core7unicode12unicode_data15grapheme_extend6BITSET17hb86cd42baf0b5b47E>:
	...
2000d0d0:	00000001 00000000 0000000d 00000000     ................
2000d0e0:	0000001c 00000000 00000040 00000000     ........@.......
2000d0f0:	000000b6 00000000 000000bf 00000000     ................
2000d100:	000003f8 00000000 000007f0 00000000     ................
2000d110:	000007ff 00000000 00001000 00000000     ................
2000d120:	00001e00 00000000 00003800 00000000     .........8......
2000d130:	00003f00 00000000 00007f80 00000000     .?..............
2000d140:	00008000 00000000 0001ffc0 00000000     ................
2000d150:	0003ff80 00000000 00078000 00000000     ................
2000d160:	007f0000 00000000 00802001 00000000     ......... ......
2000d170:	00a30000 00000000 037ffc00 00000000     ................
2000d180:	06000000 00000000 07ff0000 00000000     ................
2000d190:	09800000 00000000 0e000000 00000000     ................
2000d1a0:	0e7e0080 00000000 20002064 00000000     ..~.....d . ....
2000d1b0:	200ffe40 00000000 30000001 00000000     @.. .......0....
2000d1c0:	40000000 00000000 4000005c 00000000     ...@....\..@....
2000d1d0:	60000000 00000000 805c8400 00000000     ...`......\.....
2000d1e0:	c0000000 00000000 e0000000 00000000     ................
2000d1f0:	00000000 00000001 0cf00000 00000001     ................
2000d200:	00603044 0000000c 00603dc1 0000000c     D0`......=`.....
2000d210:	0080201e 0000000c 00c0201e 0000000c     . ....... ......
2000d220:	00fe21fe 0000000c 00000000 00000020     .!.......... ...
2000d230:	00000000 00000060 00000844 00000060     ....`...D...`...
2000d240:	00000000 000000f0 00000060 00000200     ........`.......
2000d250:	f9ffff7f 000007db 80000000 000007f8     ................
2000d260:	e0000000 00000fbc 00000000 00002120     ............ !..
2000d270:	00000003 00003b3c 00000fe7 00003c00     ....<;.......<..
2000d280:	9fc00000 00003d9f fbc00000 00003eef     .....=.......>..
2000d290:	00000000 00003fc0 00000000 0000f000     .....?..........
2000d2a0:	00000000 0000fc00 f8000010 0000fffe     ................
2000d2b0:	0000ffff 0000ffff ffffffff 0000ffff     ................
2000d2c0:	fffff800 00010000 00000000 0001ffc0     ................
2000d2d0:	ffff0000 0001ffff 00000000 00030000     ................
2000d2e0:	00000000 00038000 00000000 0003a340     ............@...
2000d2f0:	00000000 00080000 000c0000 000c0000     ................
2000d300:	00000004 000ff800 00000000 00180000     ................
2000d310:	001c0000 001c0000 c3000000 001e0001     ................
2000d320:	00000000 001f0000 00800001 001f1fc0     ................
2000d330:	00000007 001fef80 ffffffff 00201fff     .............. .
2000d340:	00023986 00230000 00000002 00403000     .9....#......0@.
2000d350:	00000000 00667e00 fffc0000 006dfcff     .....~f.......m.
2000d360:	00000000 007f0000 00000000 00bf2800     .............(..
2000d370:	00000000 00cff000 03000000 02a00000     ................
2000d380:	fff70000 031021fd 00000003 06780000     .....!........x.
2000d390:	00000000 06ff8000 00000000 07c00000     ................
2000d3a0:	00000000 07f20000 00000000 0e040187     ................
2000d3b0:	00000006 10000000 00001008 10000000     ................
2000d3c0:	00000007 14000000 0000000f 17f00000     ................
2000d3d0:	00000000 1ff20000 feffe0df 1fffffff     ................
2000d3e0:	00000000 20000000 00000000 200ff800     ....... ....... 
2000d3f0:	00000007 33c80000 00000000 3fb00000     .......3.......?
2000d400:	00000000 3ff78000 00000004 40000000     .......?.......@
2000d410:	0080201e 4000000c 00000000 40d38000     . .....@.......@
2000d420:	00000002 50000000 00000003 58000000     .......P.......X
2000d430:	00000000 66fde000 000007fe 79f80000     .......f.......y
2000d440:	00000003 7fc00000 00000000 7ffe0000     ................
2000d450:	00000000 7fff0000 00000000 80000000     ................
2000d460:	0000007f 80000000 00000030 8003ffff     ........0.......
2000d470:	0000f06e 87000000 00000002 90000000     n...............
2000d480:	7f400000 9ff81fe5 00000000 a5f90000     ..@.............
2000d490:	00000000 a7f80000 00000000 b03c8000     ..............<.
2000d4a0:	00000000 b47e0000 00000000 bf7f0000     ......~.........
2000d4b0:	fffe0000 bfffffff 00000011 c0000000     ................
2000d4c0:	00000000 c19d0000 00000002 d0000000     ................
2000d4d0:	00000000 f807c3a0 ffffffff f87fffff     ................
2000d4e0:	ffffffff fbffffff 000021be fc00000c     .........!......
2000d4f0:	00000000 ff000000 00000002 ff000000     ................
2000d500:	00020000 ffff0000 fff80000 fffffffb     ................
2000d510:	00000000 ffffffff ffffffff ffffffff     ................

2000d520 <.Lanon.f9bb9288c9d7617347bc8817bc65a1df.313>:
2000d520:	2f637273 6362696c 2f65726f 63696e75     src/libcore/unic
2000d530:	2f65646f 2e646f6d                        ode/mod.rs

2000d53a <.Lanon.f9bb9288c9d7617347bc8817bc65a1df.307>:
2000d53a:	05030100 03060605 08080607 1c0a1109     ................
2000d54a:	140c190b 0d0e120d 0310040f 09131212     ................
2000d55a:	05170116 03190218 021c071a 161f011d     ................
2000d56a:	042b0320 0b2d022c 0330012e 01320231      .+.,.-...0.1.2.
2000d57a:	02a902a7 08ab04aa 05fb02fa 03fe04fd     ................
2000d58a:	                                         ..

2000d58c <.Lanon.f9bb9288c9d7617347bc8817bc65a1df.308>:
2000d58c:	8b7978ad 5730a28d 908c8b58 0edd1d1c     .xy...0WX.......
2000d59c:	fb4c4b0f 3f2f2efc b55f5d5c 8e8d84e2     .KL.../?\]_.....
2000d5ac:	b1a99291 c6c5bbba e4decac9 0400ffe5     ................
2000d5bc:	31291211 3b3a3734 5d4a493d a9928e84     ..)147:;=IJ]....
2000d5cc:	bbbab4b1 cfcecac6 0400e5e4 12110e0d     ................
2000d5dc:	3a343129 4946453b 65645e4a 9d9b9184     )14:;EFIJ^de....
2000d5ec:	0dcfcec9 49452911 8d656457 bab4a991     .....)EIWde.....
2000d5fc:	dfc9c5bb 04f0e5e4 4945110d 81806564     ..........EIde..
2000d60c:	bebcb284 f0d7d5bf 8b8583f1 bfbea6a4     ................
2000d61c:	cfcec7c5 9848dbda cec6cdbd 4f4e49cf     ......H......INO
2000d62c:	5f5e5957 b18f8e89 c1bfb7b6 11d7c7c6     WY^_............
2000d63c:	5c5b1716 fffef7f6 716d0d80 0f0edfde     ..[\......mq....
2000d64c:	1c6f6e1f 7e7d5f1d bcbbafae 1e1716fa     .no.._}~........
2000d65c:	4e47461f 5c5a584f b57f7e5e dcd5d4c5     .FGNOXZ\^~......
2000d66c:	72f5f1f0 75748f73 5f2f9796 a72f2e26     ...rs.tu../_&./.
2000d67c:	c7bfb7af 9adfd7cf 30989740 c1c01f8f     ........@..0....
2000d68c:	4f4effce 08075b5a 2f27100f 6f6eefee     ..NOZ[....'/..no
2000d69c:	423f3d37 fe919045 756753ff d1d0c9c8     7=?BE....Sgu....
2000d6ac:	fee7d9d8                                 .....

2000d6b1 <.Lanon.f9bb9288c9d7617347bc8817bc65a1df.309>:
2000d6b1:	225f2000 8204df82 041b0844 ac811106     . _"....D.......
2000d6c1:	35ab800e e080151e 01081903 34042f04     ...5........./.4
2000d6d1:	01030704 11070607 120f500a 02085507     .........P...U..
2000d6e1:	090a1c04 07030803 03030203 05040c03     ................
2000d6f1:	01060b03 3a05150e 06071103 57071005     .......:.......W
2000d701:	15070207 4304500d 01032d03 0f061104     .....P.C.-......
2000d711:	1d043a0c 6d205f25 80256a04 b08205c8     .:..%_ m.j%.....
2000d721:	82061a03 075903fd 09170b15 0c140c14     ......Y.........
2000d731:	060a066a 0759061a 0a46052b 040c042c     j.....Y.+.F.,...
2000d741:	0b310301 061a042c ac80030b 1f060a06     ..1.,...........
2000d751:	2d044c41 3c087403 3c030f03 2b083807     AL.-.t.<...<.8.+
2000d761:	11ff8205 112f0818 1020032d 8c800f21     ....../.-. .!...
2000d771:	19978204 9488150b 3b052f05 180e0207     ........./.;....
2000d781:	30b08009 d6800c74 80050c1a b68005ff     ...0t...........
2000d791:	9b0c2405 30d20ac6 038d8410 5c810937     .$.....0....7..\
2000d7a1:	08b88014 3530c780 38060a04 0c084608     ......05...8.F..
2000d7b1:	1e0b7406 59045a03 18838009 09160a1c     .t...Z.Y........
2000d7c1:	8a800848 0ca4ab06 a1310417 26da8104     H.........1....&
2000d7d1:	05050c07 8111a580 2878106d 044c062a     ........m.x(*.L.
2000d7e1:	80048d80 031b03be                        ..........

2000d7eb <.Lanon.f9bb9288c9d7617347bc8817bc65a1df.310>:
2000d7eb:	01010600 02040103 02090808 020b050a     ................
2000d7fb:	04110110 11130512 02150214 04190217     ................
2000d80b:	081d051c 036a0124 02bc026b 0cd402d1     ....$.j.k.......
2000d81b:	02d609d5 01da02d7 02e105e0 20ee02e8     ............... 
2000d82b:	06f904f0                                 ......

2000d831 <.Lanon.f9bb9288c9d7617347bc8817bc65a1df.311>:
2000d831:	3e3b270c 9e8f4f4e 07069f9e 3e3d3609     .';>NO.......6=>
2000d841:	d1d0f356 36181404 bd575637 e0cfce35     V......67VW.5...
2000d851:	8e898712 0e0d049e 31291211 46453a34     ..........)14:EF
2000d861:	4f4e4a49 5c5a6564 1c1bb7b6 d9d8a9a8     IJNOdeZ\........
2000d871:	91903709 3b0a07a8 8f69663e ee5f6f92     .7.....;>fi..o_.
2000d881:	9a625aef 5528279b a3a1a09d ada8a7a4     .Zb..'(U........
2000d891:	06c4bcba 1d150c0b 51453f3a cdcca7a6     ........:?EQ....
2000d8a1:	1a1907a0 3f3e2522 2004c6c5 28262523     ...."%>?... #%&(
2000d8b1:	483a3833 53504c4a 5a585655 63605e5c     38:HJLPSUVXZ\^`c
2000d8c1:	736b6665 8a7f7d78 b0afaaa4 720cd0c0     efksx}.........r
2000d8d1:	cccba4a3                                 ....no

2000d8d7 <.Lanon.f9bb9288c9d7617347bc8817bc65a1df.312>:
2000d8d7:	057b225e 032d0403 2f010465 1d82802e     ^"{...-.e../....
2000d8e7:	1c0f3103 1e092404 44052b05 802a0e04     .1...$...+.D..*.
2000d8f7:	042406aa 08280424 80010b34 09378190     ..$.$.(.4.....7.
2000d907:	80080a16 63033998 16300908 1b032105     .....9.c..0..!..
2000d917:	38400105 2f054b04 09070a04 27204007     ..@8.K./.....@ '
2000d927:	36090c04 1a053a03 070c0407 33374950     ...6.:......PI73
2000d937:	2e07330d 26810a08 2881801f 86802a08     .3.....&...(.*..
2000d947:	044e0917 0e430f1e 060a0719 09270947     ..N...C.....G.'.
2000d957:	413f0b75 053b062a 0651060a 03100501     u.?A*.;...Q.....
2000d967:	608b8005 0a084820 225ea680 060a0b45     ...` H....^"E...
2000d977:	0739130d 042c360a 3cc08010 010c5364     ..9..6,....<dS..
2000d987:	1b45a080 1d530848 46078139 47031d0a     ..E.H.S.9..F...G
2000d997:	0e033749 39060a08 36810a07 32c78019     I7.....9...6...2
2000d9a7:	669b830d c4800b75 2f84bc8a 4782d18f     ...fu....../...G
2000d9b7:	3982b9a1 02042a07 460a2660 1305280a     ...9.*..`&.F.(..
2000d9c7:	655bb082 0739044b 1c044011 8208f897     ..[eK.9..@......
2000d9d7:	810da5f3 1103311f 8c810804 056b0489     .....1........k.
2000d9e7:	0709030d 80609310 08730af6 8046176e     ......`...s.n.F.
2000d9f7:	570c149a 87801909 85034781 85150f42     ...W.....G..B...
2000da07:	d5802b50 041a032d 3a708102 00850105     P+..-.....p:....
2000da17:	4c29d780 02040a04 4c441183 3cc2803d     ..)L......DL=..<
2000da27:	55040106 02341b05 042c0e81 0a560c64     ...U..4...,.d.V.
2000da37:	035d030d 0d1d393d 0709042c 80060e02     ..].=9..,.......
2000da47:	0ad6839a 050b030d 07590c74 040c140c     ........t.Y.....
2000da57:	060a0838 521e0828 03310377 140ca680     8...(..Rw.1.....
2000da67:	03050304 6a85060d                       .......j

2000da6f <.Lanon.f9bb9288c9d7617347bc8817bc65a1df.274>:
2000da6f:	69676562 3d3c206e 646e6520               begin <= end (

2000da7d <.Lanon.f9bb9288c9d7617347bc8817bc65a1df.271>:
2000da7d:	20736920 2074756f 6220666f 646e756f      is out of bound
2000da8d:	666f2073                                 s of `

2000da93 <.Lanon.f9bb9288c9d7617347bc8817bc65a1df.161>:
2000da93:	                                         : 

2000da95 <.Lanon.f9bb9288c9d7617347bc8817bc65a1df.179>:
2000da95:	                                          { 

2000da98 <.Lanon.f9bb9288c9d7617347bc8817bc65a1df.178>:
2000da98:	                                         , 

2000da9a <.Lanon.f9bb9288c9d7617347bc8817bc65a1df.176>:
2000da9a:	                                          {.

2000da9d <.Lanon.f9bb9288c9d7617347bc8817bc65a1df.177>:
2000da9d:	                                         ,.

2000da9f <.Lanon.f9bb9288c9d7617347bc8817bc65a1df.184>:
2000da9f:	                                          }

2000daa1 <.Lanon.f9bb9288c9d7617347bc8817bc65a1df.183>:
2000daa1:	                                         }

2000daa2 <.Lanon.f9bb9288c9d7617347bc8817bc65a1df.186>:
2000daa2:	                                         (

2000daa3 <.Lanon.f9bb9288c9d7617347bc8817bc65a1df.185>:
2000daa3:	                                         (.

2000daa5 <.Lanon.f9bb9288c9d7617347bc8817bc65a1df.187>:
2000daa5:	                                         ,

2000daa6 <.Lanon.f9bb9288c9d7617347bc8817bc65a1df.213>:
2000daa6:	736c6166                                 false

2000daab <.Lanon.eb07db2179ae97cf87156a9bbd6f5ec6.0>:
2000daab:	78646950                                 Pidx 

2000dab0 <.Lanon.eb07db2179ae97cf87156a9bbd6f5ec6.3>:
2000dab0:	61746166 7865206c 74706563               fatal exception

2000dabf <.Lanon.eb07db2179ae97cf87156a9bbd6f5ec6.8>:
2000dabf:	78656e75 74636570 73206465 72657075     unexpected super
2000dacf:	6f736976 6f6d2d72 69206564 7265746e     visor-mode inter
2000dadf:	74707572                                rupt

2000dae3 <.Lanon.eb07db2179ae97cf87156a9bbd6f5ec6.10>:
2000dae3:	78656e75 74636570 75206465 2d726573     unexpected user-
2000daf3:	65646f6d 746e6920 75727265               mode interrupt

2000db01 <.Lanon.eb07db2179ae97cf87156a9bbd6f5ec6.6>:
2000db01:	65746e69 70757272 666f2074 6b6e7520     interrupt of unk
2000db11:	6e776f6e 75616320                        nown cause

2000db1b <.Lanon.eb07db2179ae97cf87156a9bbd6f5ec6.4>:
2000db1b:	6b636f74 6968632f 692f7370 2f786562     tock/chips/ibex/
2000db2b:	2f637273 70696863                        src/chip.rs

2000db36 <.Lanon.eb07db2179ae97cf87156a9bbd6f5ec6.12>:
2000db36:	78656e75 74636570 6e206465 692d6e6f     unexpected non-i
2000db46:	7265746e 74707572                        nterrupt.

2000db4f <.Lanon.efd8bea743350a274c79f0e50c0d2211.0>:
2000db4f:	6b636f74 6968632f 692f7370 2f786562     tock/chips/ibex/
2000db5f:	2f637273 6f697067                        src/gpio.rs

2000db6a <.Lanon.5734e79b67304b96ecc62fc75092324d.3>:
2000db6a:	43584520 45444545                         EXCEEDED!

2000db74 <.Lanon.5734e79b67304b96ecc62fc75092324d.4>:
2000db74:	20202020 20202020                                  

2000db7e <.Lanon.5734e79b67304b96ecc62fc75092324d.10>:
2000db7e:	74736e55 65747261                        Unstarted

2000db87 <.Lanon.5734e79b67304b96ecc62fc75092324d.16>:
2000db87:	6e6e7552                                 Running

2000db8e <.Lanon.5734e79b67304b96ecc62fc75092324d.15>:
2000db8e:	6c656959                                 Yielded

2000db95 <.Lanon.5734e79b67304b96ecc62fc75092324d.14>:
2000db95:	706f7453 52646570 696e6e75               StoppedRunning

2000dba3 <.Lanon.5734e79b67304b96ecc62fc75092324d.13>:
2000dba3:	706f7453 59646570 646c6569               StoppedYielded

2000dbb1 <.Lanon.5734e79b67304b96ecc62fc75092324d.12>:
2000dbb1:	706f7453 46646570 746c7561               StoppedFaulted

2000dbbf <.Lanon.5734e79b67304b96ecc62fc75092324d.11>:
2000dbbf:	6c756146 00000074 00000000 00000000     Fault...........
	...

2000dbd0 <str.0.llvm.4797975692018640014>:
2000dbd0:	65747461 2074706d 63206f74 75636c61     attempt to calcu
2000dbe0:	6574616c 65687420 6d657220 646e6961     late the remaind
2000dbf0:	77207265 20687469 69642061 6f736976     er with a diviso
2000dc00:	666f2072 72657a20                        r of zero

2000dc09 <.Lanon.4c464de74907d66a71b3f87dff4c9859.0>:
2000dc09:	6b636f74 72656b2f 2f6c656e 2f637273     tock/kernel/src/
2000dc19:	6d6d6f63 642f6e6f 6d616e79 645f6369     common/dynamic_d
2000dc29:	72656665 5f646572 6c6c6163               eferred_call.rs

2000dc38 <.Lanon.520f5862a4975a8db2d79231aa35a5bc.4>:
2000dc38:	7473754d 6c616320 7360206c 645f7465     Must call `set_d
2000dc48:	67756265 6972775f 5f726574 70617277     ebug_writer_wrap
2000dc58:	60726570 206e6920 72616f62 6e692064     per` in board in
2000dc68:	61697469 617a696c 6e6f6974               itialization.

2000dc75 <anon.ac8d6c5934574765b7948f49cce9802a.0.llvm.9675610886577411859>:
2000dc75:	2a2a2a0a 42454420 42204755 45464655     .*** DEBUG BUFFE
2000dc85:	55462052 2a204c4c                        R FULL ***.

2000dc90 <.Lswitch.table._ZN6kernel7process110_$LT$impl$u20$core..convert..From$LT$kernel..process..Error$GT$$u20$for$u20$kernel..returncode..ReturnCode$GT$4from17h3567326624cf5547E>:
2000dc90:	00000007 0000000a 00000007 00000002     ................
2000dca0:	00000002                                ....

2000dca4 <.Lanon.79c8bc306567266ec0f713c8274c0d5c.0>:
2000dca4:	4f4d454d                                 MEMOP

2000dca9 <.Lanon.79c8bc306567266ec0f713c8274c0d5c.1>:
2000dca9:	7265706f                                 operand

2000dcb0 <.Lanon.79c8bc306567266ec0f713c8274c0d5c.16>:
2000dcb0:	4c454959                                 YIELD

2000dcb5 <.Lanon.79c8bc306567266ec0f713c8274c0d5c.12>:
2000dcb5:	53425553 42495243                        SUBSCRIBE

2000dcbe <.Lanon.79c8bc306567266ec0f713c8274c0d5c.5>:
2000dcbe:	76697264 6e5f7265 65626d75               driver_number

2000dccb <.Lanon.79c8bc306567266ec0f713c8274c0d5c.13>:
2000dccb:	6c6c6163 6b636162 7274705f              callback_ptr

2000dcd7 <.Lanon.79c8bc306567266ec0f713c8274c0d5c.15>:
2000dcd7:	64707061                                 appdata

2000dcde <.Lanon.79c8bc306567266ec0f713c8274c0d5c.10>:
2000dcde:	4d4d4f43                                 COMMAND

2000dce5 <.Lanon.79c8bc306567266ec0f713c8274c0d5c.4>:
2000dce5:	4f4c4c41                                 ALLOW

2000dcea <.Lanon.79c8bc306567266ec0f713c8274c0d5c.7>:
2000dcea:	6f6c6c61 64615f77 73657264               allow_address

2000dcf7 <.Lanon.79c8bc306567266ec0f713c8274c0d5c.9>:
2000dcf7:	6f6c6c61 69735f77 0000657a 00000000     allow_size......
	...

2000dd10 <str.0.764>:
2000dd10:	65747461 2074706d 64206f74 64697669     attempt to divid
2000dd20:	79622065 72657a20                        e by zero

2000dd29 <.Lanon.11000e185f21e50805f059b45d35e01e.2>:
2000dd29:	6e65704f 61746954 6f64206e 6e207365     OpenTitan does n
2000dd39:	6120746f 776f6c6c 6e6f6320 75676966     ot allow configu
2000dd49:	69746172 6f206e6f 6c662066 6974616f     ration of floati
2000dd59:	7320676e 65746174                       ng state

2000dd61 <.Lanon.11000e185f21e50805f059b45d35e01e.3>:
2000dd61:	6b636f74 6968632f 6c2f7370 6972776f     tock/chips/lowri
2000dd71:	732f6373 672f6372 2e6f6970               sc/src/gpio.rs

2000dd7f <.Lanon.f056c6d91f79d63a3c4609c0c0b74c84.1>:
2000dd7f:	6b636f74 6968632f 6c2f7370 6972776f     tock/chips/lowri
2000dd8f:	732f6373 752f6372 2e747261               sc/src/uart.rs

2000dd9d <.L__unnamed_94>:
2000dd9d:	6e65704f 61746954 6e69206e 61697469     OpenTitan initia
2000ddad:	6173696c 6e6f6974 6d6f6320 74656c70     lisation complet
2000ddbd:	45202e65 7265746e 20676e69 6e69616d     e. Entering main
2000ddcd:	6f6f6c20                                  loop

2000ddd2 <.L__unnamed_51>:
2000ddd2:	65747441 6574706d 6f742064 68637320     Attempted to sch
2000dde2:	6c756465 20612065 6c756166 70207974     edule a faulty p
2000ddf2:	65636f72                                 rocess

2000ddf8 <.L__unnamed_64>:
2000ddf8:	633a3a3c 3a65726f 63616d3a 3a736f72     <::core::macros:
2000de08:	6e61703a 6d206369 6f726361               :panic macros>

2000de16 <.L__unnamed_52>:
2000de16:	6e72654b 63206c65 69736e6f 6e657473     Kernel consisten
2000de26:	65207963 726f7272 5049203a 61542043     cy error: IPC Ta
2000de36:	77206b73 20687469 49206f6e               sk with no IPC

2000de44 <.L__unnamed_43>:
2000de44:	6e617247 66207374 6c616e69 64657a69     Grants finalized
2000de54:	6143202e 746f6e6e 65726320 20657461     . Cannot create 
2000de64:	656e2061 72672077 2e746e61              a new grant.

2000de70 <.L__unnamed_93>:
2000de70:	6b636f74 72656b2f 2f6c656e 2f637273     tock/kernel/src/
2000de80:	75626564 73722e67                       debug.rs

2000de88 <.L__unnamed_95>:
2000de88:	2d2d0a0d 41207c2d 53207070 75746174     ..---| App Statu
2000de98:	2d7c2073 0a0d2d2d                       s |---..

2000dea0 <.L__unnamed_58>:
2000dea0:	2d2d0a0d 44207c2d 67756265 66756220     ..---| Debug buf
2000deb0:	20726566 20746f6e 74706d65 46202e79     fer not empty. F
2000dec0:	6873756c 2e676e69 79614d20 70657220     lushing. May rep
2000ded0:	20746165 656d6f73 20666f20 7473616c     eat some of last
2000dee0:	73656d20 65676173 3a297328                message(s):..

2000deee <.L__unnamed_59>:
2000deee:	2d2d0a0d 4e207c2d 6564206f 20677562     ..---| No debug 
2000defe:	75657571 6f662065 2e646e75 756f5920     queue found. You
2000df0e:	6e616320 74657320 20746920 68746977      can set it with
2000df1e:	65687420 62654420 75516775 20657565      the DebugQueue 
2000df2e:	706d6f63 6e656e6f 0a0d2e74              component...

2000df3a <.L__unnamed_54>:
2000df3a:	                                         "..

2000df3d <.L__unnamed_55>:
2000df3d:	656c6572 2d657361 2d342e31 2d393338     release-1.4-839-
2000df4d:	38623667 64633234                        g6b842cd4

2000df56 <.L__unnamed_56>:
2000df56:	6e6b6e75                                 unknown

2000df5d <.L__unnamed_96>:
2000df5d:	4b0a0a0d 656e7265 6170206c 2063696e     ...Kernel panic 
2000df6d:	                                         at 

2000df70 <.L__unnamed_97>:
2000df70:	                                         :

2000df71 <.L__unnamed_98>:
2000df71:	090a0d3a 00000022 00000000               :..."..........

2000df80 <str.0.921>:
2000df80:	65747461 2074706d 63206f74 75636c61     attempt to calcu
2000df90:	6574616c 65687420 6d657220 646e6961     late the remaind
2000dfa0:	77207265 20687469 69642061 6f736976     er with a diviso
2000dfb0:	666f2072 72657a20                        r of zero

2000dfb9 <.L__unnamed_100>:
2000dfb9:	6b636f74 72656b2f 2f6c656e 2f637273     tock/kernel/src/
2000dfc9:	6d6d6f63 722f6e6f 5f676e69 66667562     common/ring_buff
2000dfd9:	722e7265                                 er.rs

2000dfde <.Lanon.902df6e7e544c99734e58538d26fe4ad.1>:
2000dfde:	6b636f74 6372612f 76722f68 2f693233     tock/arch/rv32i/
2000dfee:	2f637273 2e706d70                        src/pmp.rs

2000dff8 <.Lswitch.table._ZN5rv32i3pmp9PMPRegion3new17h9c50b17266ec6eecE>:
2000dff8:	0000000f 0000000b 0000000d 00000009     ................
2000e008:	0000000c                                ....

2000e00c <.Lanon.d9778860540cf11319bb138777b2a7cb.67>:
2000e00c:	00000000 00000020 0000000c 00000002     .... ...........
	...
2000e024:	0000000a 00000003 00000001 00000020     ............ ...
2000e034:	0000000c 00000002 00000000 00000000     ................
2000e044:	0000000a 00000003 00000002 00000020     ............ ...
2000e054:	0000000c 00000002 00000000 00000000     ................
2000e064:	0000000a 00000003 00000003 00000020     ............ ...
2000e074:	0000000c 00000002 00000000 00000000     ................
2000e084:	0000000a 00000003 00000004 00000020     ............ ...
2000e094:	0000000c 00000002 00000000 00000000     ................
2000e0a4:	0000000a 00000003 00000005 00000020     ............ ...
2000e0b4:	0000000c 00000002 00000000 00000000     ................
2000e0c4:	0000000a 00000003                       ........

2000e0cc <.Lanon.d9778860540cf11319bb138777b2a7cb.90>:
2000e0cc:	00000000 00000020 00000008 00000002     .... ...........
	...
2000e0e4:	00000008 00000003 00000001 00000020     ............ ...
2000e0f4:	00000008 00000002 00000000 00000000     ................
2000e104:	00000008 00000003 00000002 00000020     ............ ...
2000e114:	00000000 00000002 00000000 00000000     ................
2000e124:	00000006 00000003 00000003 00000020     ............ ...
2000e134:	00000000 00000002 00000000 00000000     ................
2000e144:	00000006 00000003 00000004 00000020     ............ ...
2000e154:	00000000 00000002 00000000 00000000     ................
2000e164:	00000006 00000003 00000005 00000020     ............ ...
2000e174:	00000000 00000002 00000000 00000000     ................
2000e184:	00000006 00000003 00000006 00000020     ............ ...
2000e194:	00000000 00000002 00000000 00000000     ................
2000e1a4:	00000006 00000003 00000007 00000020     ............ ...
2000e1b4:	00000000 00000002 00000000 00000000     ................
2000e1c4:	00000006 00000003 00000008 00000020     ............ ...
2000e1d4:	00000000 00000002 00000000 00000000     ................
2000e1e4:	00000006 00000003 00000009 00000020     ............ ...
2000e1f4:	00000000 00000002 00000000 00000000     ................
2000e204:	00000006 00000003 0000000a 00000020     ............ ...
2000e214:	00000000 00000002 00000000 00000000     ................
2000e224:	00000006 00000003 0000000b 00000020     ............ ...
2000e234:	00000000 00000002 00000000 00000000     ................
2000e244:	00000006 00000003 0000000c 00000020     ............ ...
2000e254:	00000000 00000002 00000000 00000000     ................
2000e264:	00000006 00000003 0000000d 00000020     ............ ...
2000e274:	00000000 00000002 00000000 00000000     ................
2000e284:	00000006 00000003 0000000e 00000020     ............ ...
2000e294:	00000000 00000002 00000000 00000000     ................
2000e2a4:	00000006 00000003 0000000f 00000020     ............ ...
2000e2b4:	00000000 00000002 00000000 00000000     ................
2000e2c4:	00000006 00000003 00000010 00000020     ............ ...
2000e2d4:	00000000 00000002 00000000 00000000     ................
2000e2e4:	00000006 00000003 00000011 00000020     ............ ...
2000e2f4:	00000000 00000002 00000000 00000000     ................
2000e304:	00000006 00000003 00000012 00000020     ............ ...
2000e314:	00000000 00000002 00000000 00000000     ................
2000e324:	00000006 00000003 00000013 00000020     ............ ...
2000e334:	00000000 00000002 00000000 00000000     ................
2000e344:	00000006 00000003                       ........

2000e34c <.Lanon.d9778860540cf11319bb138777b2a7cb.76>:
2000e34c:	6d200a0d 203a6569 78302020              .. mie:   0x

2000e358 <.Lanon.d9778860540cf11319bb138777b2a7cb.77>:
2000e358:	6d202020 203a7069 78302020                 mip:   0x

2000e364 <.Lanon.d9778860540cf11319bb138777b2a7cb.78>:
2000e364:	20200a0d 666f7375 20203a74              ..  usoft:  

2000e370 <.Lanon.d9778860540cf11319bb138777b2a7cb.79>:
2000e370:	20202020 20202020 20202020                             

2000e37e <.Lanon.d9778860540cf11319bb138777b2a7cb.80>:
2000e37e:	20200a0d 666f7373 20203a74              ..  ssoft:  

2000e38a <.Lanon.d9778860540cf11319bb138777b2a7cb.81>:
2000e38a:	20200a0d 666f736d 20203a74              ..  msoft:  

2000e396 <.Lanon.d9778860540cf11319bb138777b2a7cb.82>:
2000e396:	20200a0d 6d697475 203a7265              ..  utimer: 

2000e3a2 <.Lanon.d9778860540cf11319bb138777b2a7cb.83>:
2000e3a2:	20200a0d 6d697473 203a7265              ..  stimer: 

2000e3ae <.Lanon.d9778860540cf11319bb138777b2a7cb.84>:
2000e3ae:	20200a0d 6d69746d 203a7265              ..  mtimer: 

2000e3ba <.Lanon.d9778860540cf11319bb138777b2a7cb.85>:
2000e3ba:	20200a0d 74786575 2020203a              ..  uext:   

2000e3c6 <.Lanon.d9778860540cf11319bb138777b2a7cb.86>:
2000e3c6:	20200a0d 74786573 2020203a              ..  sext:   

2000e3d2 <.Lanon.d9778860540cf11319bb138777b2a7cb.87>:
2000e3d2:	20200a0d 7478656d 2020203a              ..  mext:   

2000e3de <.Lanon.d9778860540cf11319bb138777b2a7cb.68>:
2000e3de:	6d200a0d 74617473 0d3a7375 7520200a     .. mstatus:..  u
2000e3ee:	203a6569                                 ie:    

2000e3f5 <.Lanon.d9778860540cf11319bb138777b2a7cb.69>:
2000e3f5:	20200a0d 3a656973 20202020              ..  sie:    

2000e401 <.Lanon.d9778860540cf11319bb138777b2a7cb.70>:
2000e401:	20200a0d 3a65696d 20202020              ..  mie:    

2000e40d <.Lanon.d9778860540cf11319bb138777b2a7cb.71>:
2000e40d:	20200a0d 65697075 2020203a              ..  upie:   

2000e419 <.Lanon.d9778860540cf11319bb138777b2a7cb.72>:
2000e419:	20200a0d 65697073 2020203a              ..  spie:   

2000e425 <.Lanon.d9778860540cf11319bb138777b2a7cb.73>:
2000e425:	20200a0d 6569706d 2020203a              ..  mpie:   

2000e431 <.Lanon.d9778860540cf11319bb138777b2a7cb.74>:
2000e431:	20200a0d 3a707073 20202020              ..  spp:    

2000e43d <.Lanon.d9778860540cf11319bb138777b2a7cb.60>:
2000e43d:	61560a0d 2065756c 76746d28 3a296c61     ..Value (mtval):
2000e44d:	                                           

2000e44f <.Lanon.d9778860540cf11319bb138777b2a7cb.61>:
2000e44f:	0a0d0a0d 74737953 72206d65 73696765     ....System regis
2000e45f:	20726574 706d7564 200a0d3a 6370656d     ter dump:.. mepc
2000e46f:	2020203a                                 :    

2000e474 <.Lanon.d9778860540cf11319bb138777b2a7cb.62>:
2000e474:	20202020 6174736d 3a737574 20202020         mstatus:    
2000e484:	                                          

2000e485 <.Lanon.d9778860540cf11319bb138777b2a7cb.63>:
2000e485:	6d200a0d 6c637963 20203a65              .. mcycle:  

2000e491 <.Lanon.d9778860540cf11319bb138777b2a7cb.64>:
2000e491:	20202020 736e696d 74657274 2020203a         minstret:   
2000e4a1:	                                          

2000e4a2 <.Lanon.d9778860540cf11319bb138777b2a7cb.65>:
2000e4a2:	6d200a0d 63657674 2020203a              .. mtvec:   

2000e4ae <.Lanon.d9778860540cf11319bb138777b2a7cb.56>:
2000e4ae:	6e692820 72726574 3d747075               (interrupt=

2000e4ba <.Lanon.d9778860540cf11319bb138777b2a7cb.57>:
2000e4ba:	7865202c 74706563 206e6f69 65646f63     , exception code
2000e4ca:	                                         =

2000e4cb <.Lanon.d9778860540cf11319bb138777b2a7cb.58>:
2000e4cb:	                                         )

2000e4cc <.Lanon.d9778860540cf11319bb138777b2a7cb.8>:
2000e4cc:	726f7453 4d412f65 6170204f 66206567     Store/AMO page f
2000e4dc:	746c7561                                ault

2000e4e0 <.Lanon.d9778860540cf11319bb138777b2a7cb.10>:
2000e4e0:	64616f4c 67617020 61662065               Load page fault

2000e4ef <.Lanon.d9778860540cf11319bb138777b2a7cb.12>:
2000e4ef:	74736e49 74637572 206e6f69 65676170     Instruction page
2000e4ff:	75616620                                  fault

2000e505 <.Lanon.d9778860540cf11319bb138777b2a7cb.14>:
2000e505:	69766e45 6d6e6f72 20746e65 6c6c6163     Environment call
2000e515:	6f726620 2d4d206d 65646f6d               from M-mode

2000e521 <.Lanon.d9778860540cf11319bb138777b2a7cb.16>:
2000e521:	69766e45 6d6e6f72 20746e65 6c6c6163     Environment call
2000e531:	6f726620 2d53206d 65646f6d               from S-mode

2000e53d <.Lanon.d9778860540cf11319bb138777b2a7cb.18>:
2000e53d:	69766e45 6d6e6f72 20746e65 6c6c6163     Environment call
2000e54d:	6f726620 2d55206d 65646f6d               from U-mode

2000e559 <.Lanon.d9778860540cf11319bb138777b2a7cb.20>:
2000e559:	726f7453 4d412f65 6361204f 73736563     Store/AMO access
2000e569:	75616620                                  fault

2000e56f <.Lanon.d9778860540cf11319bb138777b2a7cb.22>:
2000e56f:	726f7453 4d412f65 6461204f 73657264     Store/AMO addres
2000e57f:	696d2073 696c6173 64656e67              s misaligned

2000e58b <.Lanon.d9778860540cf11319bb138777b2a7cb.24>:
2000e58b:	64616f4c 63636120 20737365 6c756166     Load access faul
2000e59b:	                                         t

2000e59c <.Lanon.d9778860540cf11319bb138777b2a7cb.26>:
2000e59c:	64616f4c 64646120 73736572 73696d20     Load address mis
2000e5ac:	67696c61                                 aligned

2000e5b3 <.Lanon.d9778860540cf11319bb138777b2a7cb.28>:
2000e5b3:	61657242 696f706b                        Breakpoint

2000e5bd <.Lanon.d9778860540cf11319bb138777b2a7cb.30>:
2000e5bd:	656c6c49 206c6167 74736e69 74637572     Illegal instruct
2000e5cd:	                                         ion

2000e5d0 <.Lanon.d9778860540cf11319bb138777b2a7cb.32>:
2000e5d0:	74736e49 74637572 206e6f69 65636361     Instruction acce
2000e5e0:	66207373 746c7561                       ss fault

2000e5e8 <.Lanon.d9778860540cf11319bb138777b2a7cb.34>:
2000e5e8:	74736e49 74637572 206e6f69 65636361     Instruction acce
2000e5f8:	6d207373 6c617369 656e6769               ss misaligned

2000e605 <.Lanon.d9778860540cf11319bb138777b2a7cb.38>:
2000e605:	6863614d 20656e69 65747865 6c616e72     Machine external
2000e615:	746e6920 75727265                         interrupt

2000e61f <.Lanon.d9778860540cf11319bb138777b2a7cb.40>:
2000e61f:	65707553 73697672 6520726f 72657478     Supervisor exter
2000e62f:	206c616e 65746e69 70757272               nal interrupt

2000e63c <.Lanon.d9778860540cf11319bb138777b2a7cb.42>:
2000e63c:	72657355 74786520 616e7265 6e69206c     User external in
2000e64c:	72726574                                 terrupt

2000e653 <.Lanon.d9778860540cf11319bb138777b2a7cb.44>:
2000e653:	6863614d 20656e69 656d6974 6e692072     Machine timer in
2000e663:	72726574                                 terrupt

2000e66a <.Lanon.d9778860540cf11319bb138777b2a7cb.46>:
2000e66a:	65707553 73697672 7420726f 72656d69     Supervisor timer
2000e67a:	746e6920 75727265                         interrupt

2000e684 <.Lanon.d9778860540cf11319bb138777b2a7cb.48>:
2000e684:	72657355 6d697420 69207265 7265746e     User timer inter
2000e694:	74707572                                rupt

2000e698 <.Lanon.d9778860540cf11319bb138777b2a7cb.50>:
2000e698:	6863614d 20656e69 74666f73 65726177     Machine software
2000e6a8:	746e6920 75727265                         interrupt

2000e6b2 <.Lanon.d9778860540cf11319bb138777b2a7cb.52>:
2000e6b2:	65707553 73697672 7320726f 7774666f     Supervisor softw
2000e6c2:	20657261 65746e69 70757272               are interrupt

2000e6cf <.Lanon.d9778860540cf11319bb138777b2a7cb.54>:
2000e6cf:	72657355 666f7320 72617774 6e692065     User software in
2000e6df:	72726574                                 terrupt

2000e6e6 <.Lanon.d9778860540cf11319bb138777b2a7cb.1>:
2000e6e6:	2d2d0a0d 52207c2d 2d435349 614d2056     ..---| RISC-V Ma
2000e6f6:	6e696863 74532065 20657461 2d2d2d7c     chine State |---
2000e706:	                                         ..

2000e708 <.Lanon.8ca5636dd11a6a5d568a68f45e99022f.37>:
2000e708:	00000000 00000020 0000000c 00000002     .... ...........
	...
2000e720:	0000000a 00000003 00000001 00000020     ............ ...
2000e730:	0000000c 00000002 00000000 00000000     ................
2000e740:	0000000a 00000003 00000002 00000020     ............ ...
2000e750:	0000000c 00000002 00000000 00000000     ................
2000e760:	0000000a 00000003 00000003 00000020     ............ ...
2000e770:	0000000c 00000002 00000000 00000000     ................
2000e780:	0000000a 00000003 00000004 00000020     ............ ...
2000e790:	0000000c 00000002 00000000 00000000     ................
2000e7a0:	0000000a 00000003 00000005 00000020     ............ ...
2000e7b0:	0000000c 00000002 00000000 00000000     ................
2000e7c0:	0000000a 00000003 00000006 00000020     ............ ...
2000e7d0:	0000000c 00000002 00000000 00000000     ................
2000e7e0:	0000000a 00000003 00000007 00000020     ............ ...
2000e7f0:	0000000c 00000002 00000000 00000000     ................
2000e800:	0000000a 00000003 00000008 00000020     ............ ...
2000e810:	0000000c 00000002 00000000 00000000     ................
2000e820:	0000000a 00000003 00000009 00000020     ............ ...
2000e830:	0000000c 00000002 00000000 00000000     ................
2000e840:	0000000a 00000003 0000000a 00000020     ............ ...
2000e850:	0000000c 00000002 00000000 00000000     ................
2000e860:	0000000a 00000003 0000000b 00000020     ............ ...
2000e870:	0000000c 00000002 00000000 00000000     ................
2000e880:	0000000a 00000003 0000000c 00000020     ............ ...
2000e890:	0000000c 00000002 00000000 00000000     ................
2000e8a0:	0000000a 00000003 0000000d 00000020     ............ ...
2000e8b0:	0000000c 00000002 00000000 00000000     ................
2000e8c0:	0000000a 00000003 0000000e 00000020     ............ ...
2000e8d0:	0000000c 00000002 00000000 00000000     ................
2000e8e0:	0000000a 00000003 0000000f 00000020     ............ ...
2000e8f0:	0000000c 00000002 00000000 00000000     ................
2000e900:	0000000a 00000003 00000010 00000020     ............ ...
2000e910:	0000000c 00000002 00000000 00000000     ................
2000e920:	0000000a 00000003 00000011 00000020     ............ ...
2000e930:	0000000c 00000002 00000000 00000000     ................
2000e940:	0000000a 00000003 00000012 00000020     ............ ...
2000e950:	0000000c 00000002 00000000 00000000     ................
2000e960:	0000000a 00000003 00000013 00000020     ............ ...
2000e970:	0000000c 00000002 00000000 00000000     ................
2000e980:	0000000a 00000003 00000014 00000020     ............ ...
2000e990:	0000000c 00000002 00000000 00000000     ................
2000e9a0:	0000000a 00000003 00000015 00000020     ............ ...
2000e9b0:	0000000c 00000002 00000000 00000000     ................
2000e9c0:	0000000a 00000003 00000016 00000020     ............ ...
2000e9d0:	0000000c 00000002 00000000 00000000     ................
2000e9e0:	0000000a 00000003 00000017 00000020     ............ ...
2000e9f0:	0000000c 00000002 00000000 00000000     ................
2000ea00:	0000000a 00000003 00000018 00000020     ............ ...
2000ea10:	0000000c 00000002 00000000 00000000     ................
2000ea20:	0000000a 00000003 00000019 00000020     ............ ...
2000ea30:	0000000c 00000002 00000000 00000000     ................
2000ea40:	0000000a 00000003 0000001a 00000020     ............ ...
2000ea50:	0000000c 00000002 00000000 00000000     ................
2000ea60:	0000000a 00000003 0000001b 00000020     ............ ...
2000ea70:	0000000c 00000002 00000000 00000000     ................
2000ea80:	0000000a 00000003 0000001c 00000020     ............ ...
2000ea90:	0000000c 00000002 00000000 00000000     ................
2000eaa0:	0000000a 00000003 0000001d 00000020     ............ ...
2000eab0:	0000000c 00000002 00000000 00000000     ................
2000eac0:	0000000a 00000003 0000001e 00000020     ............ ...
2000ead0:	0000000c 00000002 00000000 00000000     ................
2000eae0:	0000000a 00000003 0000001f 00000020     ............ ...
2000eaf0:	0000000c 00000002 00000000 00000000     ................
2000eb00:	0000000a 00000003 00000020 00000020     ........ ... ...
2000eb10:	0000000c 00000002 00000000 00000000     ................
2000eb20:	0000000a 00000003 00000021 00000020     ........!... ...
2000eb30:	0000000c 00000002 00000000 00000000     ................
2000eb40:	0000000a 00000003                       ........

2000eb48 <.Lanon.8ca5636dd11a6a5d568a68f45e99022f.1>:
2000eb48:	20202020 3a363152                            R16: 

2000eb51 <.Lanon.8ca5636dd11a6a5d568a68f45e99022f.3>:
2000eb51:	20202020 3a373152                            R17: 

2000eb5a <.Lanon.8ca5636dd11a6a5d568a68f45e99022f.5>:
2000eb5a:	20202020 3a383152                            R18: 

2000eb63 <.Lanon.8ca5636dd11a6a5d568a68f45e99022f.7>:
2000eb63:	20202020 3a393152                            R19: 

2000eb6c <.Lanon.8ca5636dd11a6a5d568a68f45e99022f.9>:
2000eb6c:	20202020 3a303252                            R20: 

2000eb75 <.Lanon.8ca5636dd11a6a5d568a68f45e99022f.11>:
2000eb75:	20202020 3a313252                            R21: 

2000eb7e <.Lanon.8ca5636dd11a6a5d568a68f45e99022f.13>:
2000eb7e:	20202020 3a323252                            R22: 

2000eb87 <.Lanon.8ca5636dd11a6a5d568a68f45e99022f.15>:
2000eb87:	20202020 3a333252                            R23: 

2000eb90 <.Lanon.8ca5636dd11a6a5d568a68f45e99022f.17>:
2000eb90:	20202020 3a343252                            R24: 

2000eb99 <.Lanon.8ca5636dd11a6a5d568a68f45e99022f.19>:
2000eb99:	20202020 3a353252                            R25: 

2000eba2 <.Lanon.8ca5636dd11a6a5d568a68f45e99022f.21>:
2000eba2:	20202020 3a363252                            R26: 

2000ebab <.Lanon.8ca5636dd11a6a5d568a68f45e99022f.23>:
2000ebab:	20202020 3a373252                            R27: 

2000ebb4 <.Lanon.8ca5636dd11a6a5d568a68f45e99022f.25>:
2000ebb4:	20202020 3a383252                            R28: 

2000ebbd <.Lanon.8ca5636dd11a6a5d568a68f45e99022f.27>:
2000ebbd:	20202020 3a393252                            R29: 

2000ebc6 <.Lanon.8ca5636dd11a6a5d568a68f45e99022f.29>:
2000ebc6:	20202020 3a303352                            R30: 

2000ebcf <.Lanon.8ca5636dd11a6a5d568a68f45e99022f.31>:
2000ebcf:	20202020 3a313352                            R31: 

2000ebd8 <.Lanon.8ca5636dd11a6a5d568a68f45e99022f.34>:
2000ebd8:	00000a0d                                ....

2000ebdc <abort>:
2000ebdc:	1141                	addi	sp,sp,-16
2000ebde:	c606                	sw	ra,12(sp)
2000ebe0:	c422                	sw	s0,8(sp)
2000ebe2:	0800                	addi	s0,sp,16
2000ebe4:	c2cf106f          	j	20000010 <_start>
2000ebe8:	4422                	lw	s0,8(sp)
2000ebea:	40b2                	lw	ra,12(sp)
2000ebec:	0141                	addi	sp,sp,16
2000ebee:	8082                	ret

Disassembly of section .storage:

2000ebf0 <_estorage-0x10>:
	...
