
timer.elf:     file format elf32-littleriscv


Disassembly of section .text:

20030080 <_start>:
20030080:	02452283          	lw	t0,36(a0)
20030084:	029d                	addi	t0,t0,7
20030086:	92ae                	add	t0,t0,a1
20030088:	431d                	li	t1,7
2003008a:	fff34313          	not	t1,t1
2003008e:	0062f2b3          	and	t0,t0,t1
20030092:	01852303          	lw	t1,24(a0)
20030096:	01c52383          	lw	t2,28(a0)
2003009a:	00452e03          	lw	t3,4(a0)
2003009e:	931e                	add	t1,t1,t2
200300a0:	842a                	mv	s0,a0
200300a2:	8496                	mv	s1,t0
200300a4:	8936                	mv	s2,a3
200300a6:	0066c363          	blt	a3,t1,200300ac <skip_set_sp>
200300aa:	8116                	mv	sp,t0

200300ac <skip_set_sp>:
200300ac:	4511                	li	a0,4
200300ae:	4581                	li	a1,0
200300b0:	861a                	mv	a2,t1
200300b2:	00000073          	ecall
200300b6:	4511                	li	a0,4
200300b8:	45a9                	li	a1,10
200300ba:	8626                	mv	a2,s1
200300bc:	00000073          	ecall
200300c0:	4511                	li	a0,4
200300c2:	45ad                	li	a1,11
200300c4:	861a                	mv	a2,t1
200300c6:	00000073          	ecall
200300ca:	8126                	mv	sp,s1
200300cc:	8522                	mv	a0,s0
200300ce:	840a                	mv	s0,sp
200300d0:	85a6                	mv	a1,s1
200300d2:	864a                	mv	a2,s2
200300d4:	1d8010ef          	jal	ra,200312ac <rust_start>
200300d8:	00000097          	auipc	ra,0x0
200300dc:	008080e7          	jalr	8(ra) # 200300e0 <abort>

200300e0 <abort>:
200300e0:	1141                	addi	sp,sp,-16
200300e2:	c606                	sw	ra,12(sp)
200300e4:	c422                	sw	s0,8(sp)
200300e6:	0800                	addi	s0,sp,16
200300e8:	bf61                	j	20030080 <_start>
200300ea:	4422                	lw	s0,8(sp)
200300ec:	40b2                	lw	ra,12(sp)
200300ee:	0141                	addi	sp,sp,16
200300f0:	8082                	ret

200300f2 <_ZN4core9panicking5panic17hb8fdc2117f3885d0E>:
200300f2:	1141                	addi	sp,sp,-16
200300f4:	c606                	sw	ra,12(sp)
200300f6:	c422                	sw	s0,8(sp)
200300f8:	0800                	addi	s0,sp,16
200300fa:	00000097          	auipc	ra,0x0
200300fe:	02c080e7          	jalr	44(ra) # 20030126 <_ZN4core9panicking9panic_fmt17h70ae24ba4909920eE>
20030102:	00000097          	auipc	ra,0x0
20030106:	fde080e7          	jalr	-34(ra) # 200300e0 <abort>

2003010a <_ZN4core3fmt3num3imp52_$LT$impl$u20$core..fmt..Display$u20$for$u20$u32$GT$3fmt17hedb6a98b5a8805ddE>:
2003010a:	1141                	addi	sp,sp,-16
2003010c:	c606                	sw	ra,12(sp)
2003010e:	c422                	sw	s0,8(sp)
20030110:	0800                	addi	s0,sp,16
20030112:	862e                	mv	a2,a1
20030114:	4108                	lw	a0,0(a0)
20030116:	4585                	li	a1,1
20030118:	4422                	lw	s0,8(sp)
2003011a:	40b2                	lw	ra,12(sp)
2003011c:	0141                	addi	sp,sp,16
2003011e:	00000317          	auipc	t1,0x0
20030122:	02430067          	jr	36(t1) # 20030142 <_ZN4core3fmt3num3imp7fmt_u3217h72fff5c80df0334fE>

20030126 <_ZN4core9panicking9panic_fmt17h70ae24ba4909920eE>:
20030126:	1141                	addi	sp,sp,-16
20030128:	c606                	sw	ra,12(sp)
2003012a:	c422                	sw	s0,8(sp)
2003012c:	0800                	addi	s0,sp,16
2003012e:	45a1                	li	a1,8
20030130:	4605                	li	a2,1
20030132:	4685                	li	a3,1
20030134:	4509                	li	a0,2
20030136:	00000073          	ecall
2003013a:	4501                	li	a0,0
2003013c:	00000073          	ecall
20030140:	bfed                	j	2003013a <_ZN4core9panicking9panic_fmt17h70ae24ba4909920eE+0x14>

20030142 <_ZN4core3fmt3num3imp7fmt_u3217h72fff5c80df0334fE>:
20030142:	7139                	addi	sp,sp,-64
20030144:	de06                	sw	ra,60(sp)
20030146:	dc22                	sw	s0,56(sp)
20030148:	da26                	sw	s1,52(sp)
2003014a:	d84a                	sw	s2,48(sp)
2003014c:	d64e                	sw	s3,44(sp)
2003014e:	0080                	addi	s0,sp,64
20030150:	8832                	mv	a6,a2
20030152:	02700613          	li	a2,39
20030156:	00455693          	srli	a3,a0,0x4
2003015a:	27100713          	li	a4,625
2003015e:	08e6ec63          	bltu	a3,a4,200301f6 <_ZN4core3fmt3num3imp7fmt_u3217h72fff5c80df0334fE+0xb4>
20030162:	d1b71637          	lui	a2,0xd1b71
20030166:	75960293          	addi	t0,a2,1881 # d1b71759 <_etext+0xb1b3e5f5>
2003016a:	7679                	lui	a2,0xffffe
2003016c:	8f060313          	addi	t1,a2,-1808 # ffffd8f0 <_etext+0xdffca78c>
20030170:	6641                	lui	a2,0x10
20030172:	fff60e13          	addi	t3,a2,-1 # ffff <.Lline_table_start0+0xccbd>
20030176:	51eb86b7          	lui	a3,0x51eb8
2003017a:	51f68e93          	addi	t4,a3,1311 # 51eb851f <_etext+0x31e853bb>
2003017e:	f9c00893          	li	a7,-100
20030182:	ffe60f13          	addi	t5,a2,-2
20030186:	200336b7          	lui	a3,0x20033
2003018a:	db368913          	addi	s2,a3,-589 # 20032db3 <.Lanon.2c6bb00a6eab53dbfca994608b168c3b.202>
2003018e:	fc540393          	addi	t2,s0,-59
20030192:	05f5e6b7          	lui	a3,0x5f5e
20030196:	0ff68f93          	addi	t6,a3,255 # 5f5e0ff <.Lline_table_start0+0x5f5adbd>
2003019a:	4781                	li	a5,0
2003019c:	89aa                	mv	s3,a0
2003019e:	02553533          	mulhu	a0,a0,t0
200301a2:	8135                	srli	a0,a0,0xd
200301a4:	026506b3          	mul	a3,a0,t1
200301a8:	96ce                	add	a3,a3,s3
200301aa:	01c6f4b3          	and	s1,a3,t3
200301ae:	03d4b4b3          	mulhu	s1,s1,t4
200301b2:	8095                	srli	s1,s1,0x5
200301b4:	03148733          	mul	a4,s1,a7
200301b8:	96ba                	add	a3,a3,a4
200301ba:	0686                	slli	a3,a3,0x1
200301bc:	01e6f6b3          	and	a3,a3,t5
200301c0:	00149713          	slli	a4,s1,0x1
200301c4:	96ca                	add	a3,a3,s2
200301c6:	974a                	add	a4,a4,s2
200301c8:	00f384b3          	add	s1,t2,a5
200301cc:	00170603          	lb	a2,1(a4)
200301d0:	02c48223          	sb	a2,36(s1)
200301d4:	00074603          	lbu	a2,0(a4)
200301d8:	02c481a3          	sb	a2,35(s1)
200301dc:	00168603          	lb	a2,1(a3)
200301e0:	02c48323          	sb	a2,38(s1)
200301e4:	0006c603          	lbu	a2,0(a3)
200301e8:	02c482a3          	sb	a2,37(s1)
200301ec:	17f1                	addi	a5,a5,-4
200301ee:	fb3fe7e3          	bltu	t6,s3,2003019c <_ZN4core3fmt3num3imp7fmt_u3217h72fff5c80df0334fE+0x5a>
200301f2:	02778613          	addi	a2,a5,39
200301f6:	06300693          	li	a3,99
200301fa:	06a6db63          	bge	a3,a0,20030270 <_ZN4core3fmt3num3imp7fmt_u3217h72fff5c80df0334fE+0x12e>
200301fe:	6741                	lui	a4,0x10
20030200:	fff70693          	addi	a3,a4,-1 # ffff <.Lline_table_start0+0xccbd>
20030204:	8ee9                	and	a3,a3,a0
20030206:	51eb87b7          	lui	a5,0x51eb8
2003020a:	51f78793          	addi	a5,a5,1311 # 51eb851f <_etext+0x31e853bb>
2003020e:	02f6b6b3          	mulhu	a3,a3,a5
20030212:	8295                	srli	a3,a3,0x5
20030214:	f9c00793          	li	a5,-100
20030218:	02f687b3          	mul	a5,a3,a5
2003021c:	953e                	add	a0,a0,a5
2003021e:	0506                	slli	a0,a0,0x1
20030220:	1779                	addi	a4,a4,-2
20030222:	8d79                	and	a0,a0,a4
20030224:	20033737          	lui	a4,0x20033
20030228:	db370713          	addi	a4,a4,-589 # 20032db3 <.Lanon.2c6bb00a6eab53dbfca994608b168c3b.202>
2003022c:	953a                	add	a0,a0,a4
2003022e:	1679                	addi	a2,a2,-2
20030230:	fc540713          	addi	a4,s0,-59
20030234:	9732                	add	a4,a4,a2
20030236:	00150783          	lb	a5,1(a0)
2003023a:	00f700a3          	sb	a5,1(a4)
2003023e:	00054503          	lbu	a0,0(a0)
20030242:	00a70023          	sb	a0,0(a4)
20030246:	4529                	li	a0,10
20030248:	02a6c863          	blt	a3,a0,20030278 <_ZN4core3fmt3num3imp7fmt_u3217h72fff5c80df0334fE+0x136>
2003024c:	20033537          	lui	a0,0x20033
20030250:	db350513          	addi	a0,a0,-589 # 20032db3 <.Lanon.2c6bb00a6eab53dbfca994608b168c3b.202>
20030254:	0686                	slli	a3,a3,0x1
20030256:	96aa                	add	a3,a3,a0
20030258:	ffe60513          	addi	a0,a2,-2
2003025c:	fc540613          	addi	a2,s0,-59
20030260:	962a                	add	a2,a2,a0
20030262:	00168703          	lb	a4,1(a3)
20030266:	00e600a3          	sb	a4,1(a2)
2003026a:	0006c683          	lbu	a3,0(a3)
2003026e:	a821                	j	20030286 <_ZN4core3fmt3num3imp7fmt_u3217h72fff5c80df0334fE+0x144>
20030270:	86aa                	mv	a3,a0
20030272:	4529                	li	a0,10
20030274:	fca6dce3          	bge	a3,a0,2003024c <_ZN4core3fmt3num3imp7fmt_u3217h72fff5c80df0334fE+0x10a>
20030278:	fff60513          	addi	a0,a2,-1
2003027c:	fc540613          	addi	a2,s0,-59
20030280:	962a                	add	a2,a2,a0
20030282:	03068693          	addi	a3,a3,48
20030286:	00d60023          	sb	a3,0(a2)
2003028a:	fc540613          	addi	a2,s0,-59
2003028e:	00a60733          	add	a4,a2,a0
20030292:	02700613          	li	a2,39
20030296:	40a607b3          	sub	a5,a2,a0
2003029a:	20033537          	lui	a0,0x20033
2003029e:	12450613          	addi	a2,a0,292 # 20033124 <.L__unnamed_19>
200302a2:	8542                	mv	a0,a6
200302a4:	4681                	li	a3,0
200302a6:	00000097          	auipc	ra,0x0
200302aa:	016080e7          	jalr	22(ra) # 200302bc <_ZN4core3fmt9Formatter12pad_integral17h4560b69444f06327E>
200302ae:	59b2                	lw	s3,44(sp)
200302b0:	5942                	lw	s2,48(sp)
200302b2:	54d2                	lw	s1,52(sp)
200302b4:	5462                	lw	s0,56(sp)
200302b6:	50f2                	lw	ra,60(sp)
200302b8:	6121                	addi	sp,sp,64
200302ba:	8082                	ret

200302bc <_ZN4core3fmt9Formatter12pad_integral17h4560b69444f06327E>:
200302bc:	7139                	addi	sp,sp,-64
200302be:	de06                	sw	ra,60(sp)
200302c0:	dc22                	sw	s0,56(sp)
200302c2:	da26                	sw	s1,52(sp)
200302c4:	d84a                	sw	s2,48(sp)
200302c6:	d64e                	sw	s3,44(sp)
200302c8:	d452                	sw	s4,40(sp)
200302ca:	d256                	sw	s5,36(sp)
200302cc:	d05a                	sw	s6,32(sp)
200302ce:	ce5e                	sw	s7,28(sp)
200302d0:	cc62                	sw	s8,24(sp)
200302d2:	ca66                	sw	s9,20(sp)
200302d4:	c86a                	sw	s10,16(sp)
200302d6:	c66e                	sw	s11,12(sp)
200302d8:	0080                	addi	s0,sp,64
200302da:	893e                	mv	s2,a5
200302dc:	89ba                	mv	s3,a4
200302de:	8a36                	mv	s4,a3
200302e0:	8ab2                	mv	s5,a2
200302e2:	8d2a                	mv	s10,a0
200302e4:	c1a9                	beqz	a1,20030326 <_ZN4core3fmt9Formatter12pad_integral17h4560b69444f06327E+0x6a>
200302e6:	000d2503          	lw	a0,0(s10)
200302ea:	00157593          	andi	a1,a0,1
200302ee:	00110b37          	lui	s6,0x110
200302f2:	c199                	beqz	a1,200302f8 <_ZN4core3fmt9Formatter12pad_integral17h4560b69444f06327E+0x3c>
200302f4:	02b00b13          	li	s6,43
200302f8:	01258cb3          	add	s9,a1,s2
200302fc:	00457593          	andi	a1,a0,4
20030300:	cd85                	beqz	a1,20030338 <_ZN4core3fmt9Formatter12pad_integral17h4560b69444f06327E+0x7c>
20030302:	060a0763          	beqz	s4,20030370 <_ZN4core3fmt9Formatter12pad_integral17h4560b69444f06327E+0xb4>
20030306:	8652                	mv	a2,s4
20030308:	4581                	li	a1,0
2003030a:	86d6                	mv	a3,s5
2003030c:	0006c703          	lbu	a4,0(a3)
20030310:	0c077713          	andi	a4,a4,192
20030314:	08074713          	xori	a4,a4,128
20030318:	00173713          	seqz	a4,a4
2003031c:	95ba                	add	a1,a1,a4
2003031e:	0685                	addi	a3,a3,1
20030320:	167d                	addi	a2,a2,-1
20030322:	f66d                	bnez	a2,2003030c <_ZN4core3fmt9Formatter12pad_integral17h4560b69444f06327E+0x50>
20030324:	a0b9                	j	20030372 <_ZN4core3fmt9Formatter12pad_integral17h4560b69444f06327E+0xb6>
20030326:	02d00b13          	li	s6,45
2003032a:	000d2503          	lw	a0,0(s10)
2003032e:	00190c93          	addi	s9,s2,1
20030332:	00457593          	andi	a1,a0,4
20030336:	f5f1                	bnez	a1,20030302 <_ZN4core3fmt9Formatter12pad_integral17h4560b69444f06327E+0x46>
20030338:	4a81                	li	s5,0
2003033a:	008d2583          	lw	a1,8(s10)
2003033e:	4b85                	li	s7,1
20030340:	05759263          	bne	a1,s7,20030384 <_ZN4core3fmt9Formatter12pad_integral17h4560b69444f06327E+0xc8>
20030344:	00cd2d83          	lw	s11,12(s10)
20030348:	03bcfe63          	bgeu	s9,s11,20030384 <_ZN4core3fmt9Formatter12pad_integral17h4560b69444f06327E+0xc8>
2003034c:	8921                	andi	a0,a0,8
2003034e:	ed2d                	bnez	a0,200303c8 <_ZN4core3fmt9Formatter12pad_integral17h4560b69444f06327E+0x10c>
20030350:	030d4503          	lbu	a0,48(s10)
20030354:	4605                	li	a2,1
20030356:	468d                	li	a3,3
20030358:	4585                	li	a1,1
2003035a:	00d50363          	beq	a0,a3,20030360 <_ZN4core3fmt9Formatter12pad_integral17h4560b69444f06327E+0xa4>
2003035e:	85aa                	mv	a1,a0
20030360:	419d8533          	sub	a0,s11,s9
20030364:	0ab64763          	blt	a2,a1,20030412 <_ZN4core3fmt9Formatter12pad_integral17h4560b69444f06327E+0x156>
20030368:	e9c5                	bnez	a1,20030418 <_ZN4core3fmt9Formatter12pad_integral17h4560b69444f06327E+0x15c>
2003036a:	8caa                	mv	s9,a0
2003036c:	4501                	li	a0,0
2003036e:	a0d9                	j	20030434 <_ZN4core3fmt9Formatter12pad_integral17h4560b69444f06327E+0x178>
20030370:	4581                	li	a1,0
20030372:	014c8633          	add	a2,s9,s4
20030376:	40b60cb3          	sub	s9,a2,a1
2003037a:	008d2583          	lw	a1,8(s10)
2003037e:	4b85                	li	s7,1
20030380:	fd7582e3          	beq	a1,s7,20030344 <_ZN4core3fmt9Formatter12pad_integral17h4560b69444f06327E+0x88>
20030384:	856a                	mv	a0,s10
20030386:	85da                	mv	a1,s6
20030388:	8656                	mv	a2,s5
2003038a:	86d2                	mv	a3,s4
2003038c:	00000097          	auipc	ra,0x0
20030390:	180080e7          	jalr	384(ra) # 2003050c <_ZN4core3fmt9Formatter12pad_integral12write_prefix17h2d4ba524920ad39eE>
20030394:	e911                	bnez	a0,200303a8 <_ZN4core3fmt9Formatter12pad_integral17h4560b69444f06327E+0xec>
20030396:	018d2503          	lw	a0,24(s10)
2003039a:	01cd2583          	lw	a1,28(s10)
2003039e:	45d4                	lw	a3,12(a1)
200303a0:	85ce                	mv	a1,s3
200303a2:	864a                	mv	a2,s2
200303a4:	9682                	jalr	a3
200303a6:	8baa                	mv	s7,a0
200303a8:	855e                	mv	a0,s7
200303aa:	4db2                	lw	s11,12(sp)
200303ac:	4d42                	lw	s10,16(sp)
200303ae:	4cd2                	lw	s9,20(sp)
200303b0:	4c62                	lw	s8,24(sp)
200303b2:	4bf2                	lw	s7,28(sp)
200303b4:	5b02                	lw	s6,32(sp)
200303b6:	5a92                	lw	s5,36(sp)
200303b8:	5a22                	lw	s4,40(sp)
200303ba:	59b2                	lw	s3,44(sp)
200303bc:	5942                	lw	s2,48(sp)
200303be:	54d2                	lw	s1,52(sp)
200303c0:	5462                	lw	s0,56(sp)
200303c2:	50f2                	lw	ra,60(sp)
200303c4:	6121                	addi	sp,sp,64
200303c6:	8082                	ret
200303c8:	004d2483          	lw	s1,4(s10)
200303cc:	03000513          	li	a0,48
200303d0:	00ad2223          	sw	a0,4(s10)
200303d4:	030d4c03          	lbu	s8,48(s10)
200303d8:	4b85                	li	s7,1
200303da:	037d0823          	sb	s7,48(s10)
200303de:	856a                	mv	a0,s10
200303e0:	85da                	mv	a1,s6
200303e2:	8656                	mv	a2,s5
200303e4:	86d2                	mv	a3,s4
200303e6:	00000097          	auipc	ra,0x0
200303ea:	126080e7          	jalr	294(ra) # 2003050c <_ZN4core3fmt9Formatter12pad_integral12write_prefix17h2d4ba524920ad39eE>
200303ee:	fd4d                	bnez	a0,200303a8 <_ZN4core3fmt9Formatter12pad_integral17h4560b69444f06327E+0xec>
200303f0:	030d4503          	lbu	a0,48(s10)
200303f4:	4605                	li	a2,1
200303f6:	468d                	li	a3,3
200303f8:	4585                	li	a1,1
200303fa:	00d50363          	beq	a0,a3,20030400 <_ZN4core3fmt9Formatter12pad_integral17h4560b69444f06327E+0x144>
200303fe:	85aa                	mv	a1,a0
20030400:	419d8533          	sub	a0,s11,s9
20030404:	00b64c63          	blt	a2,a1,2003041c <_ZN4core3fmt9Formatter12pad_integral17h4560b69444f06327E+0x160>
20030408:	ed89                	bnez	a1,20030422 <_ZN4core3fmt9Formatter12pad_integral17h4560b69444f06327E+0x166>
2003040a:	8b26                	mv	s6,s1
2003040c:	8aaa                	mv	s5,a0
2003040e:	4501                	li	a0,0
20030410:	a859                	j	200304a6 <_ZN4core3fmt9Formatter12pad_integral17h4560b69444f06327E+0x1ea>
20030412:	460d                	li	a2,3
20030414:	00c59a63          	bne	a1,a2,20030428 <_ZN4core3fmt9Formatter12pad_integral17h4560b69444f06327E+0x16c>
20030418:	4c81                	li	s9,0
2003041a:	a829                	j	20030434 <_ZN4core3fmt9Formatter12pad_integral17h4560b69444f06327E+0x178>
2003041c:	460d                	li	a2,3
2003041e:	06c59d63          	bne	a1,a2,20030498 <_ZN4core3fmt9Formatter12pad_integral17h4560b69444f06327E+0x1dc>
20030422:	8b26                	mv	s6,s1
20030424:	4a81                	li	s5,0
20030426:	a041                	j	200304a6 <_ZN4core3fmt9Formatter12pad_integral17h4560b69444f06327E+0x1ea>
20030428:	00155593          	srli	a1,a0,0x1
2003042c:	0505                	addi	a0,a0,1
2003042e:	00155c93          	srli	s9,a0,0x1
20030432:	852e                	mv	a0,a1
20030434:	00150493          	addi	s1,a0,1
20030438:	14fd                	addi	s1,s1,-1
2003043a:	c899                	beqz	s1,20030450 <_ZN4core3fmt9Formatter12pad_integral17h4560b69444f06327E+0x194>
2003043c:	004d2583          	lw	a1,4(s10)
20030440:	018d2503          	lw	a0,24(s10)
20030444:	01cd2603          	lw	a2,28(s10)
20030448:	4a10                	lw	a2,16(a2)
2003044a:	9602                	jalr	a2
2003044c:	d575                	beqz	a0,20030438 <_ZN4core3fmt9Formatter12pad_integral17h4560b69444f06327E+0x17c>
2003044e:	a88d                	j	200304c0 <_ZN4core3fmt9Formatter12pad_integral17h4560b69444f06327E+0x204>
20030450:	004d2c03          	lw	s8,4(s10)
20030454:	856a                	mv	a0,s10
20030456:	85da                	mv	a1,s6
20030458:	8656                	mv	a2,s5
2003045a:	86d2                	mv	a3,s4
2003045c:	00000097          	auipc	ra,0x0
20030460:	0b0080e7          	jalr	176(ra) # 2003050c <_ZN4core3fmt9Formatter12pad_integral12write_prefix17h2d4ba524920ad39eE>
20030464:	4b85                	li	s7,1
20030466:	f129                	bnez	a0,200303a8 <_ZN4core3fmt9Formatter12pad_integral17h4560b69444f06327E+0xec>
20030468:	018d2503          	lw	a0,24(s10)
2003046c:	01cd2583          	lw	a1,28(s10)
20030470:	45d4                	lw	a3,12(a1)
20030472:	85ce                	mv	a1,s3
20030474:	864a                	mv	a2,s2
20030476:	9682                	jalr	a3
20030478:	f905                	bnez	a0,200303a8 <_ZN4core3fmt9Formatter12pad_integral17h4560b69444f06327E+0xec>
2003047a:	001c8493          	addi	s1,s9,1
2003047e:	01cd2983          	lw	s3,28(s10)
20030482:	018d2903          	lw	s2,24(s10)
20030486:	14fd                	addi	s1,s1,-1
20030488:	c8b5                	beqz	s1,200304fc <_ZN4core3fmt9Formatter12pad_integral17h4560b69444f06327E+0x240>
2003048a:	0109a603          	lw	a2,16(s3)
2003048e:	854a                	mv	a0,s2
20030490:	85e2                	mv	a1,s8
20030492:	9602                	jalr	a2
20030494:	d96d                	beqz	a0,20030486 <_ZN4core3fmt9Formatter12pad_integral17h4560b69444f06327E+0x1ca>
20030496:	bf09                	j	200303a8 <_ZN4core3fmt9Formatter12pad_integral17h4560b69444f06327E+0xec>
20030498:	8b26                	mv	s6,s1
2003049a:	00155593          	srli	a1,a0,0x1
2003049e:	0505                	addi	a0,a0,1
200304a0:	00155a93          	srli	s5,a0,0x1
200304a4:	852e                	mv	a0,a1
200304a6:	00150493          	addi	s1,a0,1
200304aa:	14fd                	addi	s1,s1,-1
200304ac:	cc81                	beqz	s1,200304c4 <_ZN4core3fmt9Formatter12pad_integral17h4560b69444f06327E+0x208>
200304ae:	004d2583          	lw	a1,4(s10)
200304b2:	018d2503          	lw	a0,24(s10)
200304b6:	01cd2603          	lw	a2,28(s10)
200304ba:	4a10                	lw	a2,16(a2)
200304bc:	9602                	jalr	a2
200304be:	d575                	beqz	a0,200304aa <_ZN4core3fmt9Formatter12pad_integral17h4560b69444f06327E+0x1ee>
200304c0:	4b85                	li	s7,1
200304c2:	b5dd                	j	200303a8 <_ZN4core3fmt9Formatter12pad_integral17h4560b69444f06327E+0xec>
200304c4:	004d2a03          	lw	s4,4(s10)
200304c8:	018d2503          	lw	a0,24(s10)
200304cc:	01cd2583          	lw	a1,28(s10)
200304d0:	45d4                	lw	a3,12(a1)
200304d2:	85ce                	mv	a1,s3
200304d4:	864a                	mv	a2,s2
200304d6:	9682                	jalr	a3
200304d8:	4b85                	li	s7,1
200304da:	ec0517e3          	bnez	a0,200303a8 <_ZN4core3fmt9Formatter12pad_integral17h4560b69444f06327E+0xec>
200304de:	001a8493          	addi	s1,s5,1
200304e2:	01cd2983          	lw	s3,28(s10)
200304e6:	018d2903          	lw	s2,24(s10)
200304ea:	14fd                	addi	s1,s1,-1
200304ec:	c891                	beqz	s1,20030500 <_ZN4core3fmt9Formatter12pad_integral17h4560b69444f06327E+0x244>
200304ee:	0109a603          	lw	a2,16(s3)
200304f2:	854a                	mv	a0,s2
200304f4:	85d2                	mv	a1,s4
200304f6:	9602                	jalr	a2
200304f8:	d96d                	beqz	a0,200304ea <_ZN4core3fmt9Formatter12pad_integral17h4560b69444f06327E+0x22e>
200304fa:	b57d                	j	200303a8 <_ZN4core3fmt9Formatter12pad_integral17h4560b69444f06327E+0xec>
200304fc:	4b81                	li	s7,0
200304fe:	b56d                	j	200303a8 <_ZN4core3fmt9Formatter12pad_integral17h4560b69444f06327E+0xec>
20030500:	038d0823          	sb	s8,48(s10)
20030504:	016d2223          	sw	s6,4(s10)
20030508:	4b81                	li	s7,0
2003050a:	bd79                	j	200303a8 <_ZN4core3fmt9Formatter12pad_integral17h4560b69444f06327E+0xec>

2003050c <_ZN4core3fmt9Formatter12pad_integral12write_prefix17h2d4ba524920ad39eE>:
2003050c:	1101                	addi	sp,sp,-32
2003050e:	ce06                	sw	ra,28(sp)
20030510:	cc22                	sw	s0,24(sp)
20030512:	ca26                	sw	s1,20(sp)
20030514:	c84a                	sw	s2,16(sp)
20030516:	c64e                	sw	s3,12(sp)
20030518:	1000                	addi	s0,sp,32
2003051a:	8936                	mv	s2,a3
2003051c:	89b2                	mv	s3,a2
2003051e:	84aa                	mv	s1,a0
20030520:	00110537          	lui	a0,0x110
20030524:	00a58963          	beq	a1,a0,20030536 <_ZN4core3fmt9Formatter12pad_integral12write_prefix17h2d4ba524920ad39eE+0x2a>
20030528:	4c88                	lw	a0,24(s1)
2003052a:	4cd0                	lw	a2,28(s1)
2003052c:	4a10                	lw	a2,16(a2)
2003052e:	9602                	jalr	a2
20030530:	85aa                	mv	a1,a0
20030532:	4505                	li	a0,1
20030534:	e999                	bnez	a1,2003054a <_ZN4core3fmt9Formatter12pad_integral12write_prefix17h2d4ba524920ad39eE+0x3e>
20030536:	00098963          	beqz	s3,20030548 <_ZN4core3fmt9Formatter12pad_integral12write_prefix17h2d4ba524920ad39eE+0x3c>
2003053a:	4c88                	lw	a0,24(s1)
2003053c:	4ccc                	lw	a1,28(s1)
2003053e:	45d4                	lw	a3,12(a1)
20030540:	85ce                	mv	a1,s3
20030542:	864a                	mv	a2,s2
20030544:	9682                	jalr	a3
20030546:	a011                	j	2003054a <_ZN4core3fmt9Formatter12pad_integral12write_prefix17h2d4ba524920ad39eE+0x3e>
20030548:	4501                	li	a0,0
2003054a:	49b2                	lw	s3,12(sp)
2003054c:	4942                	lw	s2,16(sp)
2003054e:	44d2                	lw	s1,20(sp)
20030550:	4462                	lw	s0,24(sp)
20030552:	40f2                	lw	ra,28(sp)
20030554:	6105                	addi	sp,sp,32
20030556:	8082                	ret

20030558 <_ZN4core5slice20slice_index_len_fail17hcd616a912ad4f7b9E>:
20030558:	1141                	addi	sp,sp,-16
2003055a:	c606                	sw	ra,12(sp)
2003055c:	c422                	sw	s0,8(sp)
2003055e:	0800                	addi	s0,sp,16
20030560:	00000097          	auipc	ra,0x0
20030564:	bc6080e7          	jalr	-1082(ra) # 20030126 <_ZN4core9panicking9panic_fmt17h70ae24ba4909920eE>
20030568:	00000097          	auipc	ra,0x0
2003056c:	b78080e7          	jalr	-1160(ra) # 200300e0 <abort>

20030570 <_ZN4core3str16slice_error_fail17he674a0ba49a60f0aE>:
20030570:	1141                	addi	sp,sp,-16
20030572:	c606                	sw	ra,12(sp)
20030574:	c422                	sw	s0,8(sp)
20030576:	0800                	addi	s0,sp,16
20030578:	10c5e363          	bltu	a1,a2,2003067e <_ZN4core3str16slice_error_fail17he674a0ba49a60f0aE+0x10e>
2003057c:	10d5e163          	bltu	a1,a3,2003067e <_ZN4core3str16slice_error_fail17he674a0ba49a60f0aE+0x10e>
20030580:	0ec6ef63          	bltu	a3,a2,2003067e <_ZN4core3str16slice_error_fail17he674a0ba49a60f0aE+0x10e>
20030584:	ce09                	beqz	a2,2003059e <_ZN4core3str16slice_error_fail17he674a0ba49a60f0aE+0x2e>
20030586:	00c58c63          	beq	a1,a2,2003059e <_ZN4core3str16slice_error_fail17he674a0ba49a60f0aE+0x2e>
2003058a:	00b67b63          	bgeu	a2,a1,200305a0 <_ZN4core3str16slice_error_fail17he674a0ba49a60f0aE+0x30>
2003058e:	00c50733          	add	a4,a0,a2
20030592:	00070703          	lb	a4,0(a4)
20030596:	fc000793          	li	a5,-64
2003059a:	00f74363          	blt	a4,a5,200305a0 <_ZN4core3str16slice_error_fail17he674a0ba49a60f0aE+0x30>
2003059e:	8636                	mv	a2,a3
200305a0:	ca0d                	beqz	a2,200305d2 <_ZN4core3str16slice_error_fail17he674a0ba49a60f0aE+0x62>
200305a2:	02b60863          	beq	a2,a1,200305d2 <_ZN4core3str16slice_error_fail17he674a0ba49a60f0aE+0x62>
200305a6:	00158693          	addi	a3,a1,1
200305aa:	fc000813          	li	a6,-64
200305ae:	4785                	li	a5,1
200305b0:	8732                	mv	a4,a2
200305b2:	00b67863          	bgeu	a2,a1,200305c2 <_ZN4core3str16slice_error_fail17he674a0ba49a60f0aE+0x52>
200305b6:	00e50633          	add	a2,a0,a4
200305ba:	00060603          	lb	a2,0(a2)
200305be:	01065963          	bge	a2,a6,200305d0 <_ZN4core3str16slice_error_fail17he674a0ba49a60f0aE+0x60>
200305c2:	fff70613          	addi	a2,a4,-1
200305c6:	00f70663          	beq	a4,a5,200305d2 <_ZN4core3str16slice_error_fail17he674a0ba49a60f0aE+0x62>
200305ca:	fee693e3          	bne	a3,a4,200305b0 <_ZN4core3str16slice_error_fail17he674a0ba49a60f0aE+0x40>
200305ce:	a011                	j	200305d2 <_ZN4core3str16slice_error_fail17he674a0ba49a60f0aE+0x62>
200305d0:	863a                	mv	a2,a4
200305d2:	02b61063          	bne	a2,a1,200305f2 <_ZN4core3str16slice_error_fail17he674a0ba49a60f0aE+0x82>
200305d6:	20033537          	lui	a0,0x20033
200305da:	e7b50513          	addi	a0,a0,-389 # 20032e7b <.Lanon.2c6bb00a6eab53dbfca994608b168c3b.159>
200305de:	02b00593          	li	a1,43
200305e2:	00000097          	auipc	ra,0x0
200305e6:	b10080e7          	jalr	-1264(ra) # 200300f2 <_ZN4core9panicking5panic17hb8fdc2117f3885d0E>
200305ea:	00000097          	auipc	ra,0x0
200305ee:	af6080e7          	jalr	-1290(ra) # 200300e0 <abort>
200305f2:	962a                	add	a2,a2,a0
200305f4:	00060683          	lb	a3,0(a2)
200305f8:	577d                	li	a4,-1
200305fa:	08d74263          	blt	a4,a3,2003067e <_ZN4core3str16slice_error_fail17he674a0ba49a60f0aE+0x10e>
200305fe:	95aa                	add	a1,a1,a0
20030600:	00160713          	addi	a4,a2,1
20030604:	0ff6f513          	andi	a0,a3,255
20030608:	02b71563          	bne	a4,a1,20030632 <_ZN4core3str16slice_error_fail17he674a0ba49a60f0aE+0xc2>
2003060c:	86ae                	mv	a3,a1
2003060e:	4601                	li	a2,0
20030610:	0e000713          	li	a4,224
20030614:	06e56563          	bltu	a0,a4,2003067e <_ZN4core3str16slice_error_fail17he674a0ba49a60f0aE+0x10e>
20030618:	02b69963          	bne	a3,a1,2003064a <_ZN4core3str16slice_error_fail17he674a0ba49a60f0aE+0xda>
2003061c:	872e                	mv	a4,a1
2003061e:	4681                	li	a3,0
20030620:	0f000793          	li	a5,240
20030624:	04f56d63          	bltu	a0,a5,2003067e <_ZN4core3str16slice_error_fail17he674a0ba49a60f0aE+0x10e>
20030628:	8e55                	or	a2,a2,a3
2003062a:	02b71b63          	bne	a4,a1,20030660 <_ZN4core3str16slice_error_fail17he674a0ba49a60f0aE+0xf0>
2003062e:	4581                	li	a1,0
20030630:	a825                	j	20030668 <_ZN4core3str16slice_error_fail17he674a0ba49a60f0aE+0xf8>
20030632:	00260693          	addi	a3,a2,2
20030636:	00164603          	lbu	a2,1(a2)
2003063a:	03f67613          	andi	a2,a2,63
2003063e:	061a                	slli	a2,a2,0x6
20030640:	0e000713          	li	a4,224
20030644:	fce57ae3          	bgeu	a0,a4,20030618 <_ZN4core3str16slice_error_fail17he674a0ba49a60f0aE+0xa8>
20030648:	a81d                	j	2003067e <_ZN4core3str16slice_error_fail17he674a0ba49a60f0aE+0x10e>
2003064a:	00168713          	addi	a4,a3,1
2003064e:	0006c683          	lbu	a3,0(a3)
20030652:	03f6f693          	andi	a3,a3,63
20030656:	0f000793          	li	a5,240
2003065a:	fcf577e3          	bgeu	a0,a5,20030628 <_ZN4core3str16slice_error_fail17he674a0ba49a60f0aE+0xb8>
2003065e:	a005                	j	2003067e <_ZN4core3str16slice_error_fail17he674a0ba49a60f0aE+0x10e>
20030660:	00074583          	lbu	a1,0(a4)
20030664:	03f5f593          	andi	a1,a1,63
20030668:	054a                	slli	a0,a0,0x12
2003066a:	001c06b7          	lui	a3,0x1c0
2003066e:	8d75                	and	a0,a0,a3
20030670:	061a                	slli	a2,a2,0x6
20030672:	8d51                	or	a0,a0,a2
20030674:	8d4d                	or	a0,a0,a1
20030676:	001105b7          	lui	a1,0x110
2003067a:	f4b50ee3          	beq	a0,a1,200305d6 <_ZN4core3str16slice_error_fail17he674a0ba49a60f0aE+0x66>
2003067e:	00000097          	auipc	ra,0x0
20030682:	aa8080e7          	jalr	-1368(ra) # 20030126 <_ZN4core9panicking9panic_fmt17h70ae24ba4909920eE>
20030686:	00000097          	auipc	ra,0x0
2003068a:	a5a080e7          	jalr	-1446(ra) # 200300e0 <abort>

2003068e <_ZN4core3fmt5write17h28e75e9ae6470266E>:
2003068e:	7159                	addi	sp,sp,-112
20030690:	d686                	sw	ra,108(sp)
20030692:	d4a2                	sw	s0,104(sp)
20030694:	d2a6                	sw	s1,100(sp)
20030696:	d0ca                	sw	s2,96(sp)
20030698:	cece                	sw	s3,92(sp)
2003069a:	ccd2                	sw	s4,88(sp)
2003069c:	cad6                	sw	s5,84(sp)
2003069e:	c8da                	sw	s6,80(sp)
200306a0:	c6de                	sw	s7,76(sp)
200306a2:	c4e2                	sw	s8,72(sp)
200306a4:	c2e6                	sw	s9,68(sp)
200306a6:	c0ea                	sw	s10,64(sp)
200306a8:	de6e                	sw	s11,60(sp)
200306aa:	1880                	addi	s0,sp,112
200306ac:	4a04                	lw	s1,16(a2)
200306ae:	4a54                	lw	a3,20(a2)
200306b0:	470d                	li	a4,3
200306b2:	fce40423          	sb	a4,-56(s0)
200306b6:	02000713          	li	a4,32
200306ba:	f8e42e23          	sw	a4,-100(s0)
200306be:	fab42a23          	sw	a1,-76(s0)
200306c2:	faa42823          	sw	a0,-80(s0)
200306c6:	00369713          	slli	a4,a3,0x3
200306ca:	9726                	add	a4,a4,s1
200306cc:	fae42e23          	sw	a4,-68(s0)
200306d0:	fcd42223          	sw	a3,-60(s0)
200306d4:	fc942023          	sw	s1,-64(s0)
200306d8:	fa942c23          	sw	s1,-72(s0)
200306dc:	f8042c23          	sw	zero,-104(s0)
200306e0:	fa042423          	sw	zero,-88(s0)
200306e4:	fa042023          	sw	zero,-96(s0)
200306e8:	00862903          	lw	s2,8(a2)
200306ec:	1a090663          	beqz	s2,20030898 <_ZN4core3fmt5write17h28e75e9ae6470266E+0x20a>
200306f0:	4654                	lw	a3,12(a2)
200306f2:	00462983          	lw	s3,4(a2)
200306f6:	8b4e                	mv	s6,s3
200306f8:	00d9e363          	bltu	s3,a3,200306fe <_ZN4core3fmt5write17h28e75e9ae6470266E+0x70>
200306fc:	8b36                	mv	s6,a3
200306fe:	00062a03          	lw	s4,0(a2)
20030702:	1e0b0b63          	beqz	s6,200308f8 <_ZN4core3fmt5write17h28e75e9ae6470266E+0x26a>
20030706:	45d4                	lw	a3,12(a1)
20030708:	004a2603          	lw	a2,4(s4)
2003070c:	000a2583          	lw	a1,0(s4)
20030710:	9682                	jalr	a3
20030712:	4a85                	li	s5,1
20030714:	20051363          	bnez	a0,2003091a <_ZN4core3fmt5write17h28e75e9ae6470266E+0x28c>
20030718:	4b85                	li	s7,1
2003071a:	01090493          	addi	s1,s2,16
2003071e:	00ca0c93          	addi	s9,s4,12
20030722:	20031537          	lui	a0,0x20031
20030726:	96650d13          	addi	s10,a0,-1690 # 20030966 <_ZN4core3fmt10ArgumentV110show_usize17hf4b33bff5c807181E>
2003072a:	f9840913          	addi	s2,s0,-104
2003072e:	4d8d                	li	s11,3
20030730:	4c05                	li	s8,1
20030732:	ff84a503          	lw	a0,-8(s1)
20030736:	f8a42e23          	sw	a0,-100(s0)
2003073a:	01048503          	lb	a0,16(s1)
2003073e:	fca40423          	sb	a0,-56(s0)
20030742:	ffc4a503          	lw	a0,-4(s1)
20030746:	f8a42c23          	sw	a0,-104(s0)
2003074a:	4488                	lw	a0,8(s1)
2003074c:	04abcf63          	blt	s7,a0,200307aa <_ZN4core3fmt5write17h28e75e9ae6470266E+0x11c>
20030750:	e56d                	bnez	a0,2003083a <_ZN4core3fmt5write17h28e75e9ae6470266E+0x1ac>
20030752:	4505                	li	a0,1
20030754:	44cc                	lw	a1,12(s1)
20030756:	fab42223          	sw	a1,-92(s0)
2003075a:	faa42023          	sw	a0,-96(s0)
2003075e:	4088                	lw	a0,0(s1)
20030760:	06abdc63          	bge	s7,a0,200307d8 <_ZN4core3fmt5write17h28e75e9ae6470266E+0x14a>
20030764:	01b50f63          	beq	a0,s11,20030782 <_ZN4core3fmt5write17h28e75e9ae6470266E+0xf4>
20030768:	fb842583          	lw	a1,-72(s0)
2003076c:	fbc42503          	lw	a0,-68(s0)
20030770:	00a58963          	beq	a1,a0,20030782 <_ZN4core3fmt5write17h28e75e9ae6470266E+0xf4>
20030774:	00858513          	addi	a0,a1,8 # 110008 <.Lline_table_start0+0x10ccc6>
20030778:	faa42c23          	sw	a0,-72(s0)
2003077c:	41c8                	lw	a0,4(a1)
2003077e:	11a50163          	beq	a0,s10,20030880 <_ZN4core3fmt5write17h28e75e9ae6470266E+0x1f2>
20030782:	4501                	li	a0,0
20030784:	fab42623          	sw	a1,-84(s0)
20030788:	faa42423          	sw	a0,-88(s0)
2003078c:	ff04a503          	lw	a0,-16(s1)
20030790:	05751f63          	bne	a0,s7,200307ee <_ZN4core3fmt5write17h28e75e9ae6470266E+0x160>
20030794:	ff44a503          	lw	a0,-12(s1)
20030798:	fc442583          	lw	a1,-60(s0)
2003079c:	18b57f63          	bgeu	a0,a1,2003093a <_ZN4core3fmt5write17h28e75e9ae6470266E+0x2ac>
200307a0:	050e                	slli	a0,a0,0x3
200307a2:	fc042583          	lw	a1,-64(s0)
200307a6:	952e                	add	a0,a0,a1
200307a8:	a8a9                	j	20030802 <_ZN4core3fmt5write17h28e75e9ae6470266E+0x174>
200307aa:	01b50f63          	beq	a0,s11,200307c8 <_ZN4core3fmt5write17h28e75e9ae6470266E+0x13a>
200307ae:	fb842583          	lw	a1,-72(s0)
200307b2:	fbc42503          	lw	a0,-68(s0)
200307b6:	00a58963          	beq	a1,a0,200307c8 <_ZN4core3fmt5write17h28e75e9ae6470266E+0x13a>
200307ba:	00858513          	addi	a0,a1,8
200307be:	faa42c23          	sw	a0,-72(s0)
200307c2:	41c8                	lw	a0,4(a1)
200307c4:	09a50763          	beq	a0,s10,20030852 <_ZN4core3fmt5write17h28e75e9ae6470266E+0x1c4>
200307c8:	4501                	li	a0,0
200307ca:	fab42223          	sw	a1,-92(s0)
200307ce:	faa42023          	sw	a0,-96(s0)
200307d2:	4088                	lw	a0,0(s1)
200307d4:	f8abc8e3          	blt	s7,a0,20030764 <_ZN4core3fmt5write17h28e75e9ae6470266E+0xd6>
200307d8:	e941                	bnez	a0,20030868 <_ZN4core3fmt5write17h28e75e9ae6470266E+0x1da>
200307da:	4505                	li	a0,1
200307dc:	40cc                	lw	a1,4(s1)
200307de:	fab42623          	sw	a1,-84(s0)
200307e2:	faa42423          	sw	a0,-88(s0)
200307e6:	ff04a503          	lw	a0,-16(s1)
200307ea:	fb7505e3          	beq	a0,s7,20030794 <_ZN4core3fmt5write17h28e75e9ae6470266E+0x106>
200307ee:	fb842503          	lw	a0,-72(s0)
200307f2:	fbc42583          	lw	a1,-68(s0)
200307f6:	14b50a63          	beq	a0,a1,2003094a <_ZN4core3fmt5write17h28e75e9ae6470266E+0x2bc>
200307fa:	00850593          	addi	a1,a0,8
200307fe:	fab42c23          	sw	a1,-72(s0)
20030802:	00450593          	addi	a1,a0,4
20030806:	4190                	lw	a2,0(a1)
20030808:	4108                	lw	a0,0(a0)
2003080a:	85ca                	mv	a1,s2
2003080c:	9602                	jalr	a2
2003080e:	4a85                	li	s5,1
20030810:	10051563          	bnez	a0,2003091a <_ZN4core3fmt5write17h28e75e9ae6470266E+0x28c>
20030814:	0f6c7363          	bgeu	s8,s6,200308fa <_ZN4core3fmt5write17h28e75e9ae6470266E+0x26c>
20030818:	fb442503          	lw	a0,-76(s0)
2003081c:	4554                	lw	a3,12(a0)
2003081e:	000ca603          	lw	a2,0(s9)
20030822:	ffcca583          	lw	a1,-4(s9)
20030826:	fb042503          	lw	a0,-80(s0)
2003082a:	9682                	jalr	a3
2003082c:	02448493          	addi	s1,s1,36
20030830:	0ca1                	addi	s9,s9,8
20030832:	0c05                	addi	s8,s8,1
20030834:	ee050fe3          	beqz	a0,20030732 <_ZN4core3fmt5write17h28e75e9ae6470266E+0xa4>
20030838:	a0cd                	j	2003091a <_ZN4core3fmt5write17h28e75e9ae6470266E+0x28c>
2003083a:	44c8                	lw	a0,12(s1)
2003083c:	fc442583          	lw	a1,-60(s0)
20030840:	0eb57d63          	bgeu	a0,a1,2003093a <_ZN4core3fmt5write17h28e75e9ae6470266E+0x2ac>
20030844:	050e                	slli	a0,a0,0x3
20030846:	fc042583          	lw	a1,-64(s0)
2003084a:	95aa                	add	a1,a1,a0
2003084c:	41c8                	lw	a0,4(a1)
2003084e:	f7a51de3          	bne	a0,s10,200307c8 <_ZN4core3fmt5write17h28e75e9ae6470266E+0x13a>
20030852:	4505                	li	a0,1
20030854:	418c                	lw	a1,0(a1)
20030856:	418c                	lw	a1,0(a1)
20030858:	fab42223          	sw	a1,-92(s0)
2003085c:	faa42023          	sw	a0,-96(s0)
20030860:	4088                	lw	a0,0(s1)
20030862:	f0abc1e3          	blt	s7,a0,20030764 <_ZN4core3fmt5write17h28e75e9ae6470266E+0xd6>
20030866:	bf8d                	j	200307d8 <_ZN4core3fmt5write17h28e75e9ae6470266E+0x14a>
20030868:	40c8                	lw	a0,4(s1)
2003086a:	fc442583          	lw	a1,-60(s0)
2003086e:	0cb57663          	bgeu	a0,a1,2003093a <_ZN4core3fmt5write17h28e75e9ae6470266E+0x2ac>
20030872:	050e                	slli	a0,a0,0x3
20030874:	fc042583          	lw	a1,-64(s0)
20030878:	95aa                	add	a1,a1,a0
2003087a:	41c8                	lw	a0,4(a1)
2003087c:	f1a513e3          	bne	a0,s10,20030782 <_ZN4core3fmt5write17h28e75e9ae6470266E+0xf4>
20030880:	4505                	li	a0,1
20030882:	418c                	lw	a1,0(a1)
20030884:	418c                	lw	a1,0(a1)
20030886:	fab42623          	sw	a1,-84(s0)
2003088a:	faa42423          	sw	a0,-88(s0)
2003088e:	ff04a503          	lw	a0,-16(s1)
20030892:	f17501e3          	beq	a0,s7,20030794 <_ZN4core3fmt5write17h28e75e9ae6470266E+0x106>
20030896:	bfa1                	j	200307ee <_ZN4core3fmt5write17h28e75e9ae6470266E+0x160>
20030898:	00462983          	lw	s3,4(a2)
2003089c:	8b4e                	mv	s6,s3
2003089e:	00d9e363          	bltu	s3,a3,200308a4 <_ZN4core3fmt5write17h28e75e9ae6470266E+0x216>
200308a2:	8b36                	mv	s6,a3
200308a4:	00062a03          	lw	s4,0(a2)
200308a8:	040b0863          	beqz	s6,200308f8 <_ZN4core3fmt5write17h28e75e9ae6470266E+0x26a>
200308ac:	45d4                	lw	a3,12(a1)
200308ae:	004a2603          	lw	a2,4(s4)
200308b2:	000a2583          	lw	a1,0(s4)
200308b6:	9682                	jalr	a3
200308b8:	4a85                	li	s5,1
200308ba:	e125                	bnez	a0,2003091a <_ZN4core3fmt5write17h28e75e9ae6470266E+0x28c>
200308bc:	4a85                	li	s5,1
200308be:	0491                	addi	s1,s1,4
200308c0:	00ca0b93          	addi	s7,s4,12
200308c4:	f9840913          	addi	s2,s0,-104
200308c8:	4c05                	li	s8,1
200308ca:	ffc4a503          	lw	a0,-4(s1)
200308ce:	4090                	lw	a2,0(s1)
200308d0:	85ca                	mv	a1,s2
200308d2:	9602                	jalr	a2
200308d4:	e139                	bnez	a0,2003091a <_ZN4core3fmt5write17h28e75e9ae6470266E+0x28c>
200308d6:	036c7263          	bgeu	s8,s6,200308fa <_ZN4core3fmt5write17h28e75e9ae6470266E+0x26c>
200308da:	fb442503          	lw	a0,-76(s0)
200308de:	4554                	lw	a3,12(a0)
200308e0:	000ba603          	lw	a2,0(s7)
200308e4:	ffcba583          	lw	a1,-4(s7)
200308e8:	fb042503          	lw	a0,-80(s0)
200308ec:	9682                	jalr	a3
200308ee:	04a1                	addi	s1,s1,8
200308f0:	0ba1                	addi	s7,s7,8
200308f2:	0c05                	addi	s8,s8,1
200308f4:	d979                	beqz	a0,200308ca <_ZN4core3fmt5write17h28e75e9ae6470266E+0x23c>
200308f6:	a015                	j	2003091a <_ZN4core3fmt5write17h28e75e9ae6470266E+0x28c>
200308f8:	4c01                	li	s8,0
200308fa:	013c7f63          	bgeu	s8,s3,20030918 <_ZN4core3fmt5write17h28e75e9ae6470266E+0x28a>
200308fe:	003c1513          	slli	a0,s8,0x3
20030902:	9552                	add	a0,a0,s4
20030904:	4150                	lw	a2,4(a0)
20030906:	410c                	lw	a1,0(a0)
20030908:	fb442503          	lw	a0,-76(s0)
2003090c:	4554                	lw	a3,12(a0)
2003090e:	fb042503          	lw	a0,-80(s0)
20030912:	9682                	jalr	a3
20030914:	4a85                	li	s5,1
20030916:	e111                	bnez	a0,2003091a <_ZN4core3fmt5write17h28e75e9ae6470266E+0x28c>
20030918:	4a81                	li	s5,0
2003091a:	8556                	mv	a0,s5
2003091c:	5df2                	lw	s11,60(sp)
2003091e:	4d06                	lw	s10,64(sp)
20030920:	4c96                	lw	s9,68(sp)
20030922:	4c26                	lw	s8,72(sp)
20030924:	4bb6                	lw	s7,76(sp)
20030926:	4b46                	lw	s6,80(sp)
20030928:	4ad6                	lw	s5,84(sp)
2003092a:	4a66                	lw	s4,88(sp)
2003092c:	49f6                	lw	s3,92(sp)
2003092e:	5906                	lw	s2,96(sp)
20030930:	5496                	lw	s1,100(sp)
20030932:	5426                	lw	s0,104(sp)
20030934:	50b6                	lw	ra,108(sp)
20030936:	6165                	addi	sp,sp,112
20030938:	8082                	ret
2003093a:	00000097          	auipc	ra,0x0
2003093e:	c1e080e7          	jalr	-994(ra) # 20030558 <_ZN4core5slice20slice_index_len_fail17hcd616a912ad4f7b9E>
20030942:	fffff097          	auipc	ra,0xfffff
20030946:	79e080e7          	jalr	1950(ra) # 200300e0 <abort>
2003094a:	20033537          	lui	a0,0x20033
2003094e:	e7b50513          	addi	a0,a0,-389 # 20032e7b <.Lanon.2c6bb00a6eab53dbfca994608b168c3b.159>
20030952:	02b00593          	li	a1,43
20030956:	fffff097          	auipc	ra,0xfffff
2003095a:	79c080e7          	jalr	1948(ra) # 200300f2 <_ZN4core9panicking5panic17hb8fdc2117f3885d0E>
2003095e:	fffff097          	auipc	ra,0xfffff
20030962:	782080e7          	jalr	1922(ra) # 200300e0 <abort>

20030966 <_ZN4core3fmt10ArgumentV110show_usize17hf4b33bff5c807181E>:
20030966:	1141                	addi	sp,sp,-16
20030968:	c606                	sw	ra,12(sp)
2003096a:	c422                	sw	s0,8(sp)
2003096c:	0800                	addi	s0,sp,16
2003096e:	862e                	mv	a2,a1
20030970:	4108                	lw	a0,0(a0)
20030972:	4585                	li	a1,1
20030974:	4422                	lw	s0,8(sp)
20030976:	40b2                	lw	ra,12(sp)
20030978:	0141                	addi	sp,sp,16
2003097a:	fffff317          	auipc	t1,0xfffff
2003097e:	7c830067          	jr	1992(t1) # 20030142 <_ZN4core3fmt3num3imp7fmt_u3217h72fff5c80df0334fE>

20030982 <_ZN63_$LT$core..ffi..VaListImpl$u20$as$u20$core..ops..drop..Drop$GT$4drop17hae001101cdc31b01E>:
20030982:	1141                	addi	sp,sp,-16
20030984:	c606                	sw	ra,12(sp)
20030986:	c422                	sw	s0,8(sp)
20030988:	0800                	addi	s0,sp,16
2003098a:	4422                	lw	s0,8(sp)
2003098c:	40b2                	lw	ra,12(sp)
2003098e:	0141                	addi	sp,sp,16
20030990:	8082                	ret

20030992 <_ZN68_$LT$core..fmt..builders..PadAdapter$u20$as$u20$core..fmt..Write$GT$9write_str17hac765964859ce206E>:
20030992:	711d                	addi	sp,sp,-96
20030994:	ce86                	sw	ra,92(sp)
20030996:	cca2                	sw	s0,88(sp)
20030998:	caa6                	sw	s1,84(sp)
2003099a:	c8ca                	sw	s2,80(sp)
2003099c:	c6ce                	sw	s3,76(sp)
2003099e:	c4d2                	sw	s4,72(sp)
200309a0:	c2d6                	sw	s5,68(sp)
200309a2:	c0da                	sw	s6,64(sp)
200309a4:	de5e                	sw	s7,60(sp)
200309a6:	dc62                	sw	s8,56(sp)
200309a8:	da66                	sw	s9,52(sp)
200309aa:	d86a                	sw	s10,48(sp)
200309ac:	d66e                	sw	s11,44(sp)
200309ae:	1080                	addi	s0,sp,96
200309b0:	16060863          	beqz	a2,20030b20 <_ZN68_$LT$core..fmt..builders..PadAdapter$u20$as$u20$core..fmt..Write$GT$9write_str17hac765964859ce206E+0x18e>
200309b4:	8b32                	mv	s6,a2
200309b6:	892e                	mv	s2,a1
200309b8:	89aa                	mv	s3,a0
200309ba:	fc840a13          	addi	s4,s0,-56
200309be:	4ba9                	li	s7,10
200309c0:	4c05                	li	s8,1
200309c2:	fb040c93          	addi	s9,s0,-80
200309c6:	20033537          	lui	a0,0x20033
200309ca:	ea850513          	addi	a0,a0,-344 # 20032ea8 <.Lanon.2c6bb00a6eab53dbfca994608b168c3b.201+0x2>
200309ce:	faa42623          	sw	a0,-84(s0)
200309d2:	0089a503          	lw	a0,8(s3)
200309d6:	00054503          	lbu	a0,0(a0)
200309da:	ed01                	bnez	a0,200309f2 <_ZN68_$LT$core..fmt..builders..PadAdapter$u20$as$u20$core..fmt..Write$GT$9write_str17hac765964859ce206E+0x60>
200309dc:	a035                	j	20030a08 <_ZN68_$LT$core..fmt..builders..PadAdapter$u20$as$u20$core..fmt..Write$GT$9write_str17hac765964859ce206E+0x76>
200309de:	409b0b33          	sub	s6,s6,s1
200309e2:	8956                	mv	s2,s5
200309e4:	120b0e63          	beqz	s6,20030b20 <_ZN68_$LT$core..fmt..builders..PadAdapter$u20$as$u20$core..fmt..Write$GT$9write_str17hac765964859ce206E+0x18e>
200309e8:	0089a503          	lw	a0,8(s3)
200309ec:	00054503          	lbu	a0,0(a0)
200309f0:	cd01                	beqz	a0,20030a08 <_ZN68_$LT$core..fmt..builders..PadAdapter$u20$as$u20$core..fmt..Write$GT$9write_str17hac765964859ce206E+0x76>
200309f2:	0009a503          	lw	a0,0(s3)
200309f6:	0049a583          	lw	a1,4(s3)
200309fa:	45d4                	lw	a3,12(a1)
200309fc:	fac42583          	lw	a1,-84(s0)
20030a00:	4611                	li	a2,4
20030a02:	9682                	jalr	a3
20030a04:	12051063          	bnez	a0,20030b24 <_ZN68_$LT$core..fmt..builders..PadAdapter$u20$as$u20$core..fmt..Write$GT$9write_str17hac765964859ce206E+0x192>
20030a08:	fa042c23          	sw	zero,-72(s0)
20030a0c:	fd742423          	sw	s7,-56(s0)
20030a10:	fd842223          	sw	s8,-60(s0)
20030a14:	fd742023          	sw	s7,-64(s0)
20030a18:	fb642e23          	sw	s6,-68(s0)
20030a1c:	fb642a23          	sw	s6,-76(s0)
20030a20:	fb242823          	sw	s2,-80(s0)
20030a24:	4529                	li	a0,10
20030a26:	85ca                	mv	a1,s2
20030a28:	865a                	mv	a2,s6
20030a2a:	00000097          	auipc	ra,0x0
20030a2e:	15e080e7          	jalr	350(ra) # 20030b88 <_ZN4core5slice6memchr6memchr17h2a04f31cd516907dE>
20030a32:	07851f63          	bne	a0,s8,20030ab0 <_ZN68_$LT$core..fmt..builders..PadAdapter$u20$as$u20$core..fmt..Write$GT$9write_str17hac765964859ce206E+0x11e>
20030a36:	fb842503          	lw	a0,-72(s0)
20030a3a:	952e                	add	a0,a0,a1
20030a3c:	00150d93          	addi	s11,a0,1
20030a40:	fbb42c23          	sw	s11,-72(s0)
20030a44:	fc442483          	lw	s1,-60(s0)
20030a48:	029dfa63          	bgeu	s11,s1,20030a7c <_ZN68_$LT$core..fmt..builders..PadAdapter$u20$as$u20$core..fmt..Write$GT$9write_str17hac765964859ce206E+0xea>
20030a4c:	fb442a83          	lw	s5,-76(s0)
20030a50:	fbc42503          	lw	a0,-68(s0)
20030a54:	07b56263          	bltu	a0,s11,20030ab8 <_ZN68_$LT$core..fmt..builders..PadAdapter$u20$as$u20$core..fmt..Write$GT$9write_str17hac765964859ce206E+0x126>
20030a58:	06aae063          	bltu	s5,a0,20030ab8 <_ZN68_$LT$core..fmt..builders..PadAdapter$u20$as$u20$core..fmt..Write$GT$9write_str17hac765964859ce206E+0x126>
20030a5c:	fb042583          	lw	a1,-80(s0)
20030a60:	95ee                	add	a1,a1,s11
20030a62:	41b50633          	sub	a2,a0,s11
20030a66:	01948533          	add	a0,s1,s9
20030a6a:	01750503          	lb	a0,23(a0)
20030a6e:	00000097          	auipc	ra,0x0
20030a72:	11a080e7          	jalr	282(ra) # 20030b88 <_ZN4core5slice6memchr6memchr17h2a04f31cd516907dE>
20030a76:	fd8500e3          	beq	a0,s8,20030a36 <_ZN68_$LT$core..fmt..builders..PadAdapter$u20$as$u20$core..fmt..Write$GT$9write_str17hac765964859ce206E+0xa4>
20030a7a:	a81d                	j	20030ab0 <_ZN68_$LT$core..fmt..builders..PadAdapter$u20$as$u20$core..fmt..Write$GT$9write_str17hac765964859ce206E+0x11e>
20030a7c:	fb442a83          	lw	s5,-76(s0)
20030a80:	03bae363          	bltu	s5,s11,20030aa6 <_ZN68_$LT$core..fmt..builders..PadAdapter$u20$as$u20$core..fmt..Write$GT$9write_str17hac765964859ce206E+0x114>
20030a84:	4515                	li	a0,5
20030a86:	0aa4ff63          	bgeu	s1,a0,20030b44 <_ZN68_$LT$core..fmt..builders..PadAdapter$u20$as$u20$core..fmt..Write$GT$9write_str17hac765964859ce206E+0x1b2>
20030a8a:	409d8d33          	sub	s10,s11,s1
20030a8e:	fb042503          	lw	a0,-80(s0)
20030a92:	956a                	add	a0,a0,s10
20030a94:	07450f63          	beq	a0,s4,20030b12 <_ZN68_$LT$core..fmt..builders..PadAdapter$u20$as$u20$core..fmt..Write$GT$9write_str17hac765964859ce206E+0x180>
20030a98:	85d2                	mv	a1,s4
20030a9a:	8626                	mv	a2,s1
20030a9c:	00001097          	auipc	ra,0x1
20030aa0:	5bc080e7          	jalr	1468(ra) # 20032058 <bcmp>
20030aa4:	c53d                	beqz	a0,20030b12 <_ZN68_$LT$core..fmt..builders..PadAdapter$u20$as$u20$core..fmt..Write$GT$9write_str17hac765964859ce206E+0x180>
20030aa6:	fbc42503          	lw	a0,-68(s0)
20030aaa:	fbb577e3          	bgeu	a0,s11,20030a58 <_ZN68_$LT$core..fmt..builders..PadAdapter$u20$as$u20$core..fmt..Write$GT$9write_str17hac765964859ce206E+0xc6>
20030aae:	a029                	j	20030ab8 <_ZN68_$LT$core..fmt..builders..PadAdapter$u20$as$u20$core..fmt..Write$GT$9write_str17hac765964859ce206E+0x126>
20030ab0:	fbc42503          	lw	a0,-68(s0)
20030ab4:	faa42c23          	sw	a0,-72(s0)
20030ab8:	0089a503          	lw	a0,8(s3)
20030abc:	00050023          	sb	zero,0(a0)
20030ac0:	84da                	mv	s1,s6
20030ac2:	009b4533          	xor	a0,s6,s1
20030ac6:	00153513          	seqz	a0,a0
20030aca:	0014b593          	seqz	a1,s1
20030ace:	00a5edb3          	or	s11,a1,a0
20030ad2:	0049a583          	lw	a1,4(s3)
20030ad6:	0009a503          	lw	a0,0(s3)
20030ada:	00990ab3          	add	s5,s2,s1
20030ade:	000d9a63          	bnez	s11,20030af2 <_ZN68_$LT$core..fmt..builders..PadAdapter$u20$as$u20$core..fmt..Write$GT$9write_str17hac765964859ce206E+0x160>
20030ae2:	0764fb63          	bgeu	s1,s6,20030b58 <_ZN68_$LT$core..fmt..builders..PadAdapter$u20$as$u20$core..fmt..Write$GT$9write_str17hac765964859ce206E+0x1c6>
20030ae6:	000a8603          	lb	a2,0(s5)
20030aea:	fbf00693          	li	a3,-65
20030aee:	06c6d563          	bge	a3,a2,20030b58 <_ZN68_$LT$core..fmt..builders..PadAdapter$u20$as$u20$core..fmt..Write$GT$9write_str17hac765964859ce206E+0x1c6>
20030af2:	45d4                	lw	a3,12(a1)
20030af4:	85ca                	mv	a1,s2
20030af6:	8626                	mv	a2,s1
20030af8:	9682                	jalr	a3
20030afa:	e50d                	bnez	a0,20030b24 <_ZN68_$LT$core..fmt..builders..PadAdapter$u20$as$u20$core..fmt..Write$GT$9write_str17hac765964859ce206E+0x192>
20030afc:	ee0d91e3          	bnez	s11,200309de <_ZN68_$LT$core..fmt..builders..PadAdapter$u20$as$u20$core..fmt..Write$GT$9write_str17hac765964859ce206E+0x4c>
20030b00:	0764f863          	bgeu	s1,s6,20030b70 <_ZN68_$LT$core..fmt..builders..PadAdapter$u20$as$u20$core..fmt..Write$GT$9write_str17hac765964859ce206E+0x1de>
20030b04:	000a8503          	lb	a0,0(s5)
20030b08:	fbf00593          	li	a1,-65
20030b0c:	eca5c9e3          	blt	a1,a0,200309de <_ZN68_$LT$core..fmt..builders..PadAdapter$u20$as$u20$core..fmt..Write$GT$9write_str17hac765964859ce206E+0x4c>
20030b10:	a085                	j	20030b70 <_ZN68_$LT$core..fmt..builders..PadAdapter$u20$as$u20$core..fmt..Write$GT$9write_str17hac765964859ce206E+0x1de>
20030b12:	0089a503          	lw	a0,8(s3)
20030b16:	01850023          	sb	s8,0(a0)
20030b1a:	001d0493          	addi	s1,s10,1
20030b1e:	b755                	j	20030ac2 <_ZN68_$LT$core..fmt..builders..PadAdapter$u20$as$u20$core..fmt..Write$GT$9write_str17hac765964859ce206E+0x130>
20030b20:	4501                	li	a0,0
20030b22:	a011                	j	20030b26 <_ZN68_$LT$core..fmt..builders..PadAdapter$u20$as$u20$core..fmt..Write$GT$9write_str17hac765964859ce206E+0x194>
20030b24:	4505                	li	a0,1
20030b26:	5db2                	lw	s11,44(sp)
20030b28:	5d42                	lw	s10,48(sp)
20030b2a:	5cd2                	lw	s9,52(sp)
20030b2c:	5c62                	lw	s8,56(sp)
20030b2e:	5bf2                	lw	s7,60(sp)
20030b30:	4b06                	lw	s6,64(sp)
20030b32:	4a96                	lw	s5,68(sp)
20030b34:	4a26                	lw	s4,72(sp)
20030b36:	49b6                	lw	s3,76(sp)
20030b38:	4946                	lw	s2,80(sp)
20030b3a:	44d6                	lw	s1,84(sp)
20030b3c:	4466                	lw	s0,88(sp)
20030b3e:	40f6                	lw	ra,92(sp)
20030b40:	6125                	addi	sp,sp,96
20030b42:	8082                	ret
20030b44:	8526                	mv	a0,s1
20030b46:	4591                	li	a1,4
20030b48:	00000097          	auipc	ra,0x0
20030b4c:	a10080e7          	jalr	-1520(ra) # 20030558 <_ZN4core5slice20slice_index_len_fail17hcd616a912ad4f7b9E>
20030b50:	fffff097          	auipc	ra,0xfffff
20030b54:	590080e7          	jalr	1424(ra) # 200300e0 <abort>
20030b58:	854a                	mv	a0,s2
20030b5a:	85da                	mv	a1,s6
20030b5c:	4601                	li	a2,0
20030b5e:	86a6                	mv	a3,s1
20030b60:	00000097          	auipc	ra,0x0
20030b64:	a10080e7          	jalr	-1520(ra) # 20030570 <_ZN4core3str16slice_error_fail17he674a0ba49a60f0aE>
20030b68:	fffff097          	auipc	ra,0xfffff
20030b6c:	578080e7          	jalr	1400(ra) # 200300e0 <abort>
20030b70:	854a                	mv	a0,s2
20030b72:	85da                	mv	a1,s6
20030b74:	8626                	mv	a2,s1
20030b76:	86da                	mv	a3,s6
20030b78:	00000097          	auipc	ra,0x0
20030b7c:	9f8080e7          	jalr	-1544(ra) # 20030570 <_ZN4core3str16slice_error_fail17he674a0ba49a60f0aE>
20030b80:	fffff097          	auipc	ra,0xfffff
20030b84:	560080e7          	jalr	1376(ra) # 200300e0 <abort>

20030b88 <_ZN4core5slice6memchr6memchr17h2a04f31cd516907dE>:
20030b88:	1141                	addi	sp,sp,-16
20030b8a:	c606                	sw	ra,12(sp)
20030b8c:	c422                	sw	s0,8(sp)
20030b8e:	0800                	addi	s0,sp,16
20030b90:	86aa                	mv	a3,a0
20030b92:	0035f713          	andi	a4,a1,3
20030b96:	4501                	li	a0,0
20030b98:	0ff6f393          	andi	t2,a3,255
20030b9c:	cf15                	beqz	a4,20030bd8 <_ZN4core5slice6memchr6memchr17h2a04f31cd516907dE+0x50>
20030b9e:	4791                	li	a5,4
20030ba0:	40e78733          	sub	a4,a5,a4
20030ba4:	cb15                	beqz	a4,20030bd8 <_ZN4core5slice6memchr6memchr17h2a04f31cd516907dE+0x50>
20030ba6:	8532                	mv	a0,a2
20030ba8:	00e66363          	bltu	a2,a4,20030bae <_ZN4core5slice6memchr6memchr17h2a04f31cd516907dE+0x26>
20030bac:	853a                	mv	a0,a4
20030bae:	4701                	li	a4,0
20030bb0:	02e50463          	beq	a0,a4,20030bd8 <_ZN4core5slice6memchr6memchr17h2a04f31cd516907dE+0x50>
20030bb4:	00e587b3          	add	a5,a1,a4
20030bb8:	0705                	addi	a4,a4,1
20030bba:	0007c783          	lbu	a5,0(a5)
20030bbe:	fe7799e3          	bne	a5,t2,20030bb0 <_ZN4core5slice6memchr6memchr17h2a04f31cd516907dE+0x28>
20030bc2:	0077c533          	xor	a0,a5,t2
20030bc6:	00153513          	seqz	a0,a0
20030bca:	0505                	addi	a0,a0,1
20030bcc:	8905                	andi	a0,a0,1
20030bce:	953a                	add	a0,a0,a4
20030bd0:	4605                	li	a2,1
20030bd2:	fff50593          	addi	a1,a0,-1
20030bd6:	a861                	j	20030c6e <_ZN4core5slice6memchr6memchr17h2a04f31cd516907dE+0xe6>
20030bd8:	4721                	li	a4,8
20030bda:	06e66163          	bltu	a2,a4,20030c3c <_ZN4core5slice6memchr6memchr17h2a04f31cd516907dE+0xb4>
20030bde:	ff860813          	addi	a6,a2,-8
20030be2:	04a86d63          	bltu	a6,a0,20030c3c <_ZN4core5slice6memchr6memchr17h2a04f31cd516907dE+0xb4>
20030be6:	01010737          	lui	a4,0x1010
20030bea:	10170713          	addi	a4,a4,257 # 1010101 <.Lline_table_start0+0x100cdbf>
20030bee:	02e388b3          	mul	a7,t2,a4
20030bf2:	80808737          	lui	a4,0x80808
20030bf6:	08070293          	addi	t0,a4,128 # 80808080 <_etext+0x607d4f1c>
20030bfa:	feff07b7          	lui	a5,0xfeff0
20030bfe:	eff78313          	addi	t1,a5,-257 # fefefeff <_etext+0xdefbcd9b>
20030c02:	00a58733          	add	a4,a1,a0
20030c06:	431c                	lw	a5,0(a4)
20030c08:	0117c7b3          	xor	a5,a5,a7
20030c0c:	006786b3          	add	a3,a5,t1
20030c10:	fff7c793          	not	a5,a5
20030c14:	0057f7b3          	and	a5,a5,t0
20030c18:	8efd                	and	a3,a3,a5
20030c1a:	4358                	lw	a4,4(a4)
20030c1c:	01174733          	xor	a4,a4,a7
20030c20:	006707b3          	add	a5,a4,t1
20030c24:	fff74713          	not	a4,a4
20030c28:	00577733          	and	a4,a4,t0
20030c2c:	8f7d                	and	a4,a4,a5
20030c2e:	8ed9                	or	a3,a3,a4
20030c30:	e681                	bnez	a3,20030c38 <_ZN4core5slice6memchr6memchr17h2a04f31cd516907dE+0xb0>
20030c32:	0521                	addi	a0,a0,8
20030c34:	fca877e3          	bgeu	a6,a0,20030c02 <_ZN4core5slice6memchr6memchr17h2a04f31cd516907dE+0x7a>
20030c38:	04a66063          	bltu	a2,a0,20030c78 <_ZN4core5slice6memchr6memchr17h2a04f31cd516907dE+0xf0>
20030c3c:	8e09                	sub	a2,a2,a0
20030c3e:	00a58733          	add	a4,a1,a0
20030c42:	4581                	li	a1,0
20030c44:	02b60363          	beq	a2,a1,20030c6a <_ZN4core5slice6memchr6memchr17h2a04f31cd516907dE+0xe2>
20030c48:	00b706b3          	add	a3,a4,a1
20030c4c:	0585                	addi	a1,a1,1
20030c4e:	0006c783          	lbu	a5,0(a3) # 1c0000 <.Lline_table_start0+0x1bccbe>
20030c52:	fe7799e3          	bne	a5,t2,20030c44 <_ZN4core5slice6memchr6memchr17h2a04f31cd516907dE+0xbc>
20030c56:	0077c633          	xor	a2,a5,t2
20030c5a:	00163613          	seqz	a2,a2
20030c5e:	0605                	addi	a2,a2,1
20030c60:	8a05                	andi	a2,a2,1
20030c62:	95b2                	add	a1,a1,a2
20030c64:	4605                	li	a2,1
20030c66:	15fd                	addi	a1,a1,-1
20030c68:	a011                	j	20030c6c <_ZN4core5slice6memchr6memchr17h2a04f31cd516907dE+0xe4>
20030c6a:	4601                	li	a2,0
20030c6c:	95aa                	add	a1,a1,a0
20030c6e:	8532                	mv	a0,a2
20030c70:	4422                	lw	s0,8(sp)
20030c72:	40b2                	lw	ra,12(sp)
20030c74:	0141                	addi	sp,sp,16
20030c76:	8082                	ret
20030c78:	85b2                	mv	a1,a2
20030c7a:	00000097          	auipc	ra,0x0
20030c7e:	8de080e7          	jalr	-1826(ra) # 20030558 <_ZN4core5slice20slice_index_len_fail17hcd616a912ad4f7b9E>
20030c82:	fffff097          	auipc	ra,0xfffff
20030c86:	45e080e7          	jalr	1118(ra) # 200300e0 <abort>

20030c8a <_ZN4core3ptr18real_drop_in_place17h2224687cfacc3730E>:
20030c8a:	1141                	addi	sp,sp,-16
20030c8c:	c606                	sw	ra,12(sp)
20030c8e:	c422                	sw	s0,8(sp)
20030c90:	0800                	addi	s0,sp,16
20030c92:	4422                	lw	s0,8(sp)
20030c94:	40b2                	lw	ra,12(sp)
20030c96:	0141                	addi	sp,sp,16
20030c98:	8082                	ret

20030c9a <_ZN4core3fmt5Write10write_char17h3ad5fb6dc4c0301cE>:
20030c9a:	1141                	addi	sp,sp,-16
20030c9c:	c606                	sw	ra,12(sp)
20030c9e:	c422                	sw	s0,8(sp)
20030ca0:	0800                	addi	s0,sp,16
20030ca2:	862e                	mv	a2,a1
20030ca4:	fe042a23          	sw	zero,-12(s0)
20030ca8:	08000593          	li	a1,128
20030cac:	00b67863          	bgeu	a2,a1,20030cbc <_ZN4core3fmt5Write10write_char17h3ad5fb6dc4c0301cE+0x22>
20030cb0:	fec40a23          	sb	a2,-12(s0)
20030cb4:	ff440593          	addi	a1,s0,-12
20030cb8:	4605                	li	a2,1
20030cba:	a861                	j	20030d52 <_ZN4core3fmt5Write10write_char17h3ad5fb6dc4c0301cE+0xb8>
20030cbc:	00b65593          	srli	a1,a2,0xb
20030cc0:	e195                	bnez	a1,20030ce4 <_ZN4core3fmt5Write10write_char17h3ad5fb6dc4c0301cE+0x4a>
20030cc2:	03f67593          	andi	a1,a2,63
20030cc6:	0805e593          	ori	a1,a1,128
20030cca:	feb40aa3          	sb	a1,-11(s0)
20030cce:	00665593          	srli	a1,a2,0x6
20030cd2:	89fd                	andi	a1,a1,31
20030cd4:	0c05e593          	ori	a1,a1,192
20030cd8:	feb40a23          	sb	a1,-12(s0)
20030cdc:	ff440593          	addi	a1,s0,-12
20030ce0:	4609                	li	a2,2
20030ce2:	a885                	j	20030d52 <_ZN4core3fmt5Write10write_char17h3ad5fb6dc4c0301cE+0xb8>
20030ce4:	ff440593          	addi	a1,s0,-12
20030ce8:	01065693          	srli	a3,a2,0x10
20030cec:	e69d                	bnez	a3,20030d1a <_ZN4core3fmt5Write10write_char17h3ad5fb6dc4c0301cE+0x80>
20030cee:	03f67693          	andi	a3,a2,63
20030cf2:	0806e693          	ori	a3,a3,128
20030cf6:	fed40b23          	sb	a3,-10(s0)
20030cfa:	00665693          	srli	a3,a2,0x6
20030cfe:	03f6f693          	andi	a3,a3,63
20030d02:	0806e693          	ori	a3,a3,128
20030d06:	fed40aa3          	sb	a3,-11(s0)
20030d0a:	8231                	srli	a2,a2,0xc
20030d0c:	8a3d                	andi	a2,a2,15
20030d0e:	0e066613          	ori	a2,a2,224
20030d12:	fec40a23          	sb	a2,-12(s0)
20030d16:	460d                	li	a2,3
20030d18:	a82d                	j	20030d52 <_ZN4core3fmt5Write10write_char17h3ad5fb6dc4c0301cE+0xb8>
20030d1a:	03f67693          	andi	a3,a2,63
20030d1e:	0806e693          	ori	a3,a3,128
20030d22:	fed40ba3          	sb	a3,-9(s0)
20030d26:	01265693          	srli	a3,a2,0x12
20030d2a:	0f06e693          	ori	a3,a3,240
20030d2e:	fed40a23          	sb	a3,-12(s0)
20030d32:	00665693          	srli	a3,a2,0x6
20030d36:	03f6f693          	andi	a3,a3,63
20030d3a:	0806e693          	ori	a3,a3,128
20030d3e:	fed40b23          	sb	a3,-10(s0)
20030d42:	8231                	srli	a2,a2,0xc
20030d44:	03f67613          	andi	a2,a2,63
20030d48:	08066613          	ori	a2,a2,128
20030d4c:	fec40aa3          	sb	a2,-11(s0)
20030d50:	4611                	li	a2,4
20030d52:	00000097          	auipc	ra,0x0
20030d56:	c40080e7          	jalr	-960(ra) # 20030992 <_ZN68_$LT$core..fmt..builders..PadAdapter$u20$as$u20$core..fmt..Write$GT$9write_str17hac765964859ce206E>
20030d5a:	4422                	lw	s0,8(sp)
20030d5c:	40b2                	lw	ra,12(sp)
20030d5e:	0141                	addi	sp,sp,16
20030d60:	8082                	ret

20030d62 <_ZN4core3fmt5Write9write_fmt17hc95b7ec4111ce9baE>:
20030d62:	7179                	addi	sp,sp,-48
20030d64:	d606                	sw	ra,44(sp)
20030d66:	d422                	sw	s0,40(sp)
20030d68:	1800                	addi	s0,sp,48
20030d6a:	fca42e23          	sw	a0,-36(s0)
20030d6e:	49c8                	lw	a0,20(a1)
20030d70:	fea42a23          	sw	a0,-12(s0)
20030d74:	4988                	lw	a0,16(a1)
20030d76:	fea42823          	sw	a0,-16(s0)
20030d7a:	45c8                	lw	a0,12(a1)
20030d7c:	fea42623          	sw	a0,-20(s0)
20030d80:	4588                	lw	a0,8(a1)
20030d82:	fea42423          	sw	a0,-24(s0)
20030d86:	41c8                	lw	a0,4(a1)
20030d88:	fea42223          	sw	a0,-28(s0)
20030d8c:	4188                	lw	a0,0(a1)
20030d8e:	fea42023          	sw	a0,-32(s0)
20030d92:	20033537          	lui	a0,0x20033
20030d96:	ed050593          	addi	a1,a0,-304 # 20032ed0 <.Lanon.2c6bb00a6eab53dbfca994608b168c3b.203>
20030d9a:	fdc40513          	addi	a0,s0,-36
20030d9e:	fe040613          	addi	a2,s0,-32
20030da2:	00000097          	auipc	ra,0x0
20030da6:	8ec080e7          	jalr	-1812(ra) # 2003068e <_ZN4core3fmt5write17h28e75e9ae6470266E>
20030daa:	5422                	lw	s0,40(sp)
20030dac:	50b2                	lw	ra,44(sp)
20030dae:	6145                	addi	sp,sp,48
20030db0:	8082                	ret

20030db2 <_ZN50_$LT$$RF$mut$u20$W$u20$as$u20$core..fmt..Write$GT$9write_str17h9edb8f4bc0addf68E>:
20030db2:	1141                	addi	sp,sp,-16
20030db4:	c606                	sw	ra,12(sp)
20030db6:	c422                	sw	s0,8(sp)
20030db8:	0800                	addi	s0,sp,16
20030dba:	4108                	lw	a0,0(a0)
20030dbc:	4422                	lw	s0,8(sp)
20030dbe:	40b2                	lw	ra,12(sp)
20030dc0:	0141                	addi	sp,sp,16
20030dc2:	00000317          	auipc	t1,0x0
20030dc6:	bd030067          	jr	-1072(t1) # 20030992 <_ZN68_$LT$core..fmt..builders..PadAdapter$u20$as$u20$core..fmt..Write$GT$9write_str17hac765964859ce206E>

20030dca <_ZN50_$LT$$RF$mut$u20$W$u20$as$u20$core..fmt..Write$GT$10write_char17hbe9b3a31dcc07289E>:
20030dca:	1141                	addi	sp,sp,-16
20030dcc:	c606                	sw	ra,12(sp)
20030dce:	c422                	sw	s0,8(sp)
20030dd0:	0800                	addi	s0,sp,16
20030dd2:	4108                	lw	a0,0(a0)
20030dd4:	4422                	lw	s0,8(sp)
20030dd6:	40b2                	lw	ra,12(sp)
20030dd8:	0141                	addi	sp,sp,16
20030dda:	00000317          	auipc	t1,0x0
20030dde:	ec030067          	jr	-320(t1) # 20030c9a <_ZN4core3fmt5Write10write_char17h3ad5fb6dc4c0301cE>

20030de2 <_ZN50_$LT$$RF$mut$u20$W$u20$as$u20$core..fmt..Write$GT$9write_fmt17h7a5d071debff8484E>:
20030de2:	7179                	addi	sp,sp,-48
20030de4:	d606                	sw	ra,44(sp)
20030de6:	d422                	sw	s0,40(sp)
20030de8:	1800                	addi	s0,sp,48
20030dea:	4108                	lw	a0,0(a0)
20030dec:	fca42e23          	sw	a0,-36(s0)
20030df0:	49c8                	lw	a0,20(a1)
20030df2:	fea42a23          	sw	a0,-12(s0)
20030df6:	4988                	lw	a0,16(a1)
20030df8:	fea42823          	sw	a0,-16(s0)
20030dfc:	45c8                	lw	a0,12(a1)
20030dfe:	fea42623          	sw	a0,-20(s0)
20030e02:	4588                	lw	a0,8(a1)
20030e04:	fea42423          	sw	a0,-24(s0)
20030e08:	41c8                	lw	a0,4(a1)
20030e0a:	fea42223          	sw	a0,-28(s0)
20030e0e:	4188                	lw	a0,0(a1)
20030e10:	fea42023          	sw	a0,-32(s0)
20030e14:	20033537          	lui	a0,0x20033
20030e18:	ed050593          	addi	a1,a0,-304 # 20032ed0 <.Lanon.2c6bb00a6eab53dbfca994608b168c3b.203>
20030e1c:	fdc40513          	addi	a0,s0,-36
20030e20:	fe040613          	addi	a2,s0,-32
20030e24:	00000097          	auipc	ra,0x0
20030e28:	86a080e7          	jalr	-1942(ra) # 2003068e <_ZN4core3fmt5write17h28e75e9ae6470266E>
20030e2c:	5422                	lw	s0,40(sp)
20030e2e:	50b2                	lw	ra,44(sp)
20030e30:	6145                	addi	sp,sp,48
20030e32:	8082                	ret

20030e34 <_ZN4core3fmt3num53_$LT$impl$u20$core..fmt..LowerHex$u20$for$u20$i32$GT$3fmt17hd7c877299eecd78cE>:
20030e34:	7175                	addi	sp,sp,-144
20030e36:	c706                	sw	ra,140(sp)
20030e38:	c522                	sw	s0,136(sp)
20030e3a:	0900                	addi	s0,sp,144
20030e3c:	882e                	mv	a6,a1
20030e3e:	4108                	lw	a0,0(a0)
20030e40:	4729                	li	a4,10
20030e42:	f7840693          	addi	a3,s0,-136
20030e46:	4601                	li	a2,0
20030e48:	00f57793          	andi	a5,a0,15
20030e4c:	00e7ef63          	bltu	a5,a4,20030e6a <_ZN4core3fmt3num53_$LT$impl$u20$core..fmt..LowerHex$u20$for$u20$i32$GT$3fmt17hd7c877299eecd78cE+0x36>
20030e50:	05778793          	addi	a5,a5,87
20030e54:	00c685b3          	add	a1,a3,a2
20030e58:	06f58fa3          	sb	a5,127(a1)
20030e5c:	167d                	addi	a2,a2,-1
20030e5e:	8111                	srli	a0,a0,0x4
20030e60:	c901                	beqz	a0,20030e70 <_ZN4core3fmt3num53_$LT$impl$u20$core..fmt..LowerHex$u20$for$u20$i32$GT$3fmt17hd7c877299eecd78cE+0x3c>
20030e62:	00f57793          	andi	a5,a0,15
20030e66:	fee7f5e3          	bgeu	a5,a4,20030e50 <_ZN4core3fmt3num53_$LT$impl$u20$core..fmt..LowerHex$u20$for$u20$i32$GT$3fmt17hd7c877299eecd78cE+0x1c>
20030e6a:	0307e793          	ori	a5,a5,48
20030e6e:	b7dd                	j	20030e54 <_ZN4core3fmt3num53_$LT$impl$u20$core..fmt..LowerHex$u20$for$u20$i32$GT$3fmt17hd7c877299eecd78cE+0x20>
20030e70:	08060513          	addi	a0,a2,128
20030e74:	08100593          	li	a1,129
20030e78:	02b57763          	bgeu	a0,a1,20030ea6 <_ZN4core3fmt3num53_$LT$impl$u20$core..fmt..LowerHex$u20$for$u20$i32$GT$3fmt17hd7c877299eecd78cE+0x72>
20030e7c:	00c68533          	add	a0,a3,a2
20030e80:	40c007b3          	neg	a5,a2
20030e84:	08050713          	addi	a4,a0,128
20030e88:	20033537          	lui	a0,0x20033
20030e8c:	ea650613          	addi	a2,a0,-346 # 20032ea6 <.Lanon.2c6bb00a6eab53dbfca994608b168c3b.201>
20030e90:	8542                	mv	a0,a6
20030e92:	4585                	li	a1,1
20030e94:	4689                	li	a3,2
20030e96:	fffff097          	auipc	ra,0xfffff
20030e9a:	426080e7          	jalr	1062(ra) # 200302bc <_ZN4core3fmt9Formatter12pad_integral17h4560b69444f06327E>
20030e9e:	442a                	lw	s0,136(sp)
20030ea0:	40ba                	lw	ra,140(sp)
20030ea2:	6149                	addi	sp,sp,144
20030ea4:	8082                	ret
20030ea6:	08000593          	li	a1,128
20030eaa:	fffff097          	auipc	ra,0xfffff
20030eae:	6ae080e7          	jalr	1710(ra) # 20030558 <_ZN4core5slice20slice_index_len_fail17hcd616a912ad4f7b9E>
20030eb2:	fffff097          	auipc	ra,0xfffff
20030eb6:	22e080e7          	jalr	558(ra) # 200300e0 <abort>

20030eba <_ZN7libtock5timer19ParallelSleepDriver14activate_timer17h7434761034d8393fE>:
20030eba:	1101                	addi	sp,sp,-32
20030ebc:	ce06                	sw	ra,28(sp)
20030ebe:	cc22                	sw	s0,24(sp)
20030ec0:	ca26                	sw	s1,20(sp)
20030ec2:	c84a                	sw	s2,16(sp)
20030ec4:	1000                	addi	s0,sp,32
20030ec6:	88b6                	mv	a7,a3
20030ec8:	8832                	mv	a6,a2
20030eca:	82ae                	mv	t0,a1
20030ecc:	8faa                	mv	t6,a0
20030ece:	4791                	li	a5,4
20030ed0:	4581                	li	a1,0
20030ed2:	4611                	li	a2,4
20030ed4:	86c2                	mv	a3,a6
20030ed6:	4701                	li	a4,0
20030ed8:	4509                	li	a0,2
20030eda:	00000073          	ecall
20030ede:	fef40583          	lb	a1,-17(s0)
20030ee2:	feb40623          	sb	a1,-20(s0)
20030ee6:	fee40583          	lb	a1,-18(s0)
20030eea:	05a2                	slli	a1,a1,0x8
20030eec:	fed44603          	lbu	a2,-19(s0)
20030ef0:	8dd1                	or	a1,a1,a2
20030ef2:	feb41523          	sh	a1,-22(s0)
20030ef6:	54fd                	li	s1,-1
20030ef8:	02a4de63          	bge	s1,a0,20030f34 <_ZN7libtock5timer19ParallelSleepDriver14activate_timer17h7434761034d8393fE+0x7a>
20030efc:	4789                	li	a5,2
20030efe:	4581                	li	a1,0
20030f00:	4609                	li	a2,2
20030f02:	4681                	li	a3,0
20030f04:	4701                	li	a4,0
20030f06:	4509                	li	a0,2
20030f08:	00000073          	ecall
20030f0c:	0aa4d863          	bge	s1,a0,20030fbc <_ZN7libtock5timer19ParallelSleepDriver14activate_timer17h7434761034d8393fE+0x102>
20030f10:	411805b3          	sub	a1,a6,a7
20030f14:	41150633          	sub	a2,a0,a7
20030f18:	0082a503          	lw	a0,8(t0)
20030f1c:	0ab67e63          	bgeu	a2,a1,20030fd8 <_ZN7libtock5timer19ParallelSleepDriver14activate_timer17h7434761034d8393fE+0x11e>
20030f20:	01152423          	sw	a7,8(a0)
20030f24:	01052223          	sw	a6,4(a0)
20030f28:	4585                	li	a1,1
20030f2a:	c10c                	sw	a1,0(a0)
20030f2c:	4515                	li	a0,5
20030f2e:	00af8023          	sb	a0,0(t6)
20030f32:	aac1                	j	20031102 <_ZN7libtock5timer19ParallelSleepDriver14activate_timer17h7434761034d8393fE+0x248>
20030f34:	4585                	li	a1,1
20030f36:	00bf8023          	sb	a1,0(t6)
20030f3a:	01855593          	srli	a1,a0,0x18
20030f3e:	fec40603          	lb	a2,-20(s0)
20030f42:	feb40683          	lb	a3,-21(s0)
20030f46:	fea40703          	lb	a4,-22(s0)
20030f4a:	00bf8ba3          	sb	a1,23(t6)
20030f4e:	01055593          	srli	a1,a0,0x10
20030f52:	00bf8b23          	sb	a1,22(t6)
20030f56:	00855593          	srli	a1,a0,0x8
20030f5a:	00bf8aa3          	sb	a1,21(t6)
20030f5e:	00af8a23          	sb	a0,20(t6)
20030f62:	01885513          	srli	a0,a6,0x18
20030f66:	00af87a3          	sb	a0,15(t6)
20030f6a:	01085513          	srli	a0,a6,0x10
20030f6e:	00af8723          	sb	a0,14(t6)
20030f72:	00885513          	srli	a0,a6,0x8
20030f76:	00af86a3          	sb	a0,13(t6)
20030f7a:	010f8623          	sb	a6,12(t6)
20030f7e:	00ff8423          	sb	a5,8(t6)
20030f82:	000f89a3          	sb	zero,19(t6)
20030f86:	000f8923          	sb	zero,18(t6)
20030f8a:	000f88a3          	sb	zero,17(t6)
20030f8e:	000f8823          	sb	zero,16(t6)
20030f92:	000f85a3          	sb	zero,11(t6)
20030f96:	000f8523          	sb	zero,10(t6)
20030f9a:	000f84a3          	sb	zero,9(t6)
20030f9e:	000f83a3          	sb	zero,7(t6)
20030fa2:	000f8323          	sb	zero,6(t6)
20030fa6:	000f82a3          	sb	zero,5(t6)
20030faa:	000f8223          	sb	zero,4(t6)
20030fae:	00ef80a3          	sb	a4,1(t6)
20030fb2:	00df8123          	sb	a3,2(t6)
20030fb6:	00cf81a3          	sb	a2,3(t6)
20030fba:	a2a1                	j	20031102 <_ZN7libtock5timer19ParallelSleepDriver14activate_timer17h7434761034d8393fE+0x248>
20030fbc:	00afaa23          	sw	a0,20(t6)
20030fc0:	00ffa423          	sw	a5,8(t6)
20030fc4:	000fa823          	sw	zero,16(t6)
20030fc8:	000fa623          	sw	zero,12(t6)
20030fcc:	000fa223          	sw	zero,4(t6)
20030fd0:	4505                	li	a0,1
20030fd2:	00afa023          	sw	a0,0(t6)
20030fd6:	a235                	j	20031102 <_ZN7libtock5timer19ParallelSleepDriver14activate_timer17h7434761034d8393fE+0x248>
20030fd8:	00052023          	sw	zero,0(a0)
20030fdc:	4489                	li	s1,2
20030fde:	4581                	li	a1,0
20030fe0:	4609                	li	a2,2
20030fe2:	4681                	li	a3,0
20030fe4:	4701                	li	a4,0
20030fe6:	4509                	li	a0,2
20030fe8:	00000073          	ecall
20030fec:	882a                	mv	a6,a0
20030fee:	08054363          	bltz	a0,20031074 <_ZN7libtock5timer19ParallelSleepDriver14activate_timer17h7434761034d8393fE+0x1ba>
20030ff2:	53fd                	li	t2,-1
20030ff4:	5e75                	li	t3,-3
20030ff6:	4781                	li	a5,0
20030ff8:	a839                	j	20031016 <_ZN7libtock5timer19ParallelSleepDriver14activate_timer17h7434761034d8393fE+0x15c>
20030ffa:	09c51663          	bne	a0,t3,20031086 <_ZN7libtock5timer19ParallelSleepDriver14activate_timer17h7434761034d8393fE+0x1cc>
20030ffe:	0785                	addi	a5,a5,1
20031000:	4489                	li	s1,2
20031002:	4581                	li	a1,0
20031004:	4609                	li	a2,2
20031006:	4681                	li	a3,0
20031008:	4701                	li	a4,0
2003100a:	4509                	li	a0,2
2003100c:	00000073          	ecall
20031010:	882a                	mv	a6,a0
20031012:	06a3d263          	bge	t2,a0,20031076 <_ZN7libtock5timer19ParallelSleepDriver14activate_timer17h7434761034d8393fE+0x1bc>
20031016:	00f808b3          	add	a7,a6,a5
2003101a:	4491                	li	s1,4
2003101c:	4581                	li	a1,0
2003101e:	4611                	li	a2,4
20031020:	86c6                	mv	a3,a7
20031022:	4701                	li	a4,0
20031024:	4509                	li	a0,2
20031026:	00000073          	ecall
2003102a:	4315                	li	t1,5
2003102c:	00a3c563          	blt	t2,a0,20031036 <_ZN7libtock5timer19ParallelSleepDriver14activate_timer17h7434761034d8393fE+0x17c>
20031030:	4305                	li	t1,1
20031032:	8ec6                	mv	t4,a7
20031034:	892a                	mv	s2,a0
20031036:	04054263          	bltz	a0,2003107a <_ZN7libtock5timer19ParallelSleepDriver14activate_timer17h7434761034d8393fE+0x1c0>
2003103a:	4305                	li	t1,1
2003103c:	4489                	li	s1,2
2003103e:	4581                	li	a1,0
20031040:	4609                	li	a2,2
20031042:	4681                	li	a3,0
20031044:	4701                	li	a4,0
20031046:	4509                	li	a0,2
20031048:	00000073          	ecall
2003104c:	02054a63          	bltz	a0,20031080 <_ZN7libtock5timer19ParallelSleepDriver14activate_timer17h7434761034d8393fE+0x1c6>
20031050:	41050533          	sub	a0,a0,a6
20031054:	ecf56ce3          	bltu	a0,a5,20030f2c <_ZN7libtock5timer19ParallelSleepDriver14activate_timer17h7434761034d8393fE+0x72>
20031058:	4581                	li	a1,0
2003105a:	460d                	li	a2,3
2003105c:	86c6                	mv	a3,a7
2003105e:	4701                	li	a4,0
20031060:	4509                	li	a0,2
20031062:	00000073          	ecall
20031066:	f8a3cce3          	blt	t2,a0,20030ffe <_ZN7libtock5timer19ParallelSleepDriver14activate_timer17h7434761034d8393fE+0x144>
2003106a:	f9c508e3          	beq	a0,t3,20030ffa <_ZN7libtock5timer19ParallelSleepDriver14activate_timer17h7434761034d8393fE+0x140>
2003106e:	82c6                	mv	t0,a7
20031070:	8f2a                	mv	t5,a0
20031072:	b761                	j	20030ffa <_ZN7libtock5timer19ParallelSleepDriver14activate_timer17h7434761034d8393fE+0x140>
20031074:	4305                	li	t1,1
20031076:	4281                	li	t0,0
20031078:	a809                	j	2003108a <_ZN7libtock5timer19ParallelSleepDriver14activate_timer17h7434761034d8393fE+0x1d0>
2003107a:	82f6                	mv	t0,t4
2003107c:	884a                	mv	a6,s2
2003107e:	a031                	j	2003108a <_ZN7libtock5timer19ParallelSleepDriver14activate_timer17h7434761034d8393fE+0x1d0>
20031080:	4281                	li	t0,0
20031082:	882a                	mv	a6,a0
20031084:	a019                	j	2003108a <_ZN7libtock5timer19ParallelSleepDriver14activate_timer17h7434761034d8393fE+0x1d0>
20031086:	448d                	li	s1,3
20031088:	887a                	mv	a6,t5
2003108a:	009f8423          	sb	s1,8(t6)
2003108e:	000f89a3          	sb	zero,19(t6)
20031092:	000f8923          	sb	zero,18(t6)
20031096:	000f88a3          	sb	zero,17(t6)
2003109a:	000f8823          	sb	zero,16(t6)
2003109e:	000f85a3          	sb	zero,11(t6)
200310a2:	000f8523          	sb	zero,10(t6)
200310a6:	000f84a3          	sb	zero,9(t6)
200310aa:	000f83a3          	sb	zero,7(t6)
200310ae:	000f8323          	sb	zero,6(t6)
200310b2:	000f82a3          	sb	zero,5(t6)
200310b6:	000f8223          	sb	zero,4(t6)
200310ba:	000f8123          	sb	zero,2(t6)
200310be:	000f80a3          	sb	zero,1(t6)
200310c2:	000f81a3          	sb	zero,3(t6)
200310c6:	006f8023          	sb	t1,0(t6)
200310ca:	01885513          	srli	a0,a6,0x18
200310ce:	00af8ba3          	sb	a0,23(t6)
200310d2:	01085513          	srli	a0,a6,0x10
200310d6:	00af8b23          	sb	a0,22(t6)
200310da:	010f8a23          	sb	a6,20(t6)
200310de:	00885513          	srli	a0,a6,0x8
200310e2:	00af8aa3          	sb	a0,21(t6)
200310e6:	0182d513          	srli	a0,t0,0x18
200310ea:	00af87a3          	sb	a0,15(t6)
200310ee:	0102d513          	srli	a0,t0,0x10
200310f2:	00af8723          	sb	a0,14(t6)
200310f6:	005f8623          	sb	t0,12(t6)
200310fa:	0082d513          	srli	a0,t0,0x8
200310fe:	00af86a3          	sb	a0,13(t6)
20031102:	4942                	lw	s2,16(sp)
20031104:	44d2                	lw	s1,20(sp)
20031106:	4462                	lw	s0,24(sp)
20031108:	40f2                	lw	ra,28(sp)
2003110a:	6105                	addi	sp,sp,32
2003110c:	8082                	ret

2003110e <_ZN62_$LT$libtock..console..Console$u20$as$u20$core..fmt..Write$GT$9write_str17hcce1bb5c04d65066E>:
2003110e:	7139                	addi	sp,sp,-64
20031110:	de06                	sw	ra,60(sp)
20031112:	dc22                	sw	s0,56(sp)
20031114:	da26                	sw	s1,52(sp)
20031116:	d84a                	sw	s2,48(sp)
20031118:	d64e                	sw	s3,44(sp)
2003111a:	d452                	sw	s4,40(sp)
2003111c:	d256                	sw	s5,36(sp)
2003111e:	d05a                	sw	s6,32(sp)
20031120:	ce5e                	sw	s7,28(sp)
20031122:	cc62                	sw	s8,24(sp)
20031124:	ca66                	sw	s9,20(sp)
20031126:	c86a                	sw	s10,16(sp)
20031128:	c66e                	sw	s11,12(sp)
2003112a:	0080                	addi	s0,sp,64
2003112c:	ce79                	beqz	a2,2003120a <_ZN62_$LT$libtock..console..Console$u20$as$u20$core..fmt..Write$GT$9write_str17hcce1bb5c04d65066E+0xfc>
2003112e:	8bb2                	mv	s7,a2
20031130:	892e                	mv	s2,a1
20031132:	89aa                	mv	s3,a0
20031134:	fc740d13          	addi	s10,s0,-57
20031138:	20031537          	lui	a0,0x20031
2003113c:	29450a13          	addi	s4,a0,660 # 20031294 <_ZN12libtock_core8syscalls9subscribe10c_callback17hf280be3ae7cea60eE.llvm.6663190112982571550>
20031140:	4c05                	li	s8,1
20031142:	fc840a93          	addi	s5,s0,-56
20031146:	4c8d                	li	s9,3
20031148:	04000513          	li	a0,64
2003114c:	8b5e                	mv	s6,s7
2003114e:	08abed63          	bltu	s7,a0,200311e8 <_ZN62_$LT$libtock..console..Console$u20$as$u20$core..fmt..Write$GT$9write_str17hcce1bb5c04d65066E+0xda>
20031152:	a849                	j	200311e4 <_ZN62_$LT$libtock..console..Console$u20$as$u20$core..fmt..Write$GT$9write_str17hcce1bb5c04d65066E+0xd6>
20031154:	fc0403a3          	sb	zero,-57(s0)
20031158:	fda42423          	sw	s10,-56(s0)
2003115c:	4585                	li	a1,1
2003115e:	4605                	li	a2,1
20031160:	86d2                	mv	a3,s4
20031162:	8756                	mv	a4,s5
20031164:	4505                	li	a0,1
20031166:	00000073          	ecall
2003116a:	e94d                	bnez	a0,2003121c <_ZN62_$LT$libtock..console..Console$u20$as$u20$core..fmt..Write$GT$9write_str17hcce1bb5c04d65066E+0x10e>
2003116c:	4585                	li	a1,1
2003116e:	4605                	li	a2,1
20031170:	86da                	mv	a3,s6
20031172:	4701                	li	a4,0
20031174:	4509                	li	a0,2
20031176:	00000073          	ecall
2003117a:	08054a63          	bltz	a0,2003120e <_ZN62_$LT$libtock..console..Console$u20$as$u20$core..fmt..Write$GT$9write_str17hcce1bb5c04d65066E+0x100>
2003117e:	4481                	li	s1,0
20031180:	009c4963          	blt	s8,s1,20031192 <_ZN62_$LT$libtock..console..Console$u20$as$u20$core..fmt..Write$GT$9write_str17hcce1bb5c04d65066E+0x84>
20031184:	a00d                	j	200311a6 <_ZN62_$LT$libtock..console..Console$u20$as$u20$core..fmt..Write$GT$9write_str17hcce1bb5c04d65066E+0x98>
20031186:	448d                	li	s1,3
20031188:	4501                	li	a0,0
2003118a:	00000073          	ecall
2003118e:	009c5c63          	bge	s8,s1,200311a6 <_ZN62_$LT$libtock..console..Console$u20$as$u20$core..fmt..Write$GT$9write_str17hcce1bb5c04d65066E+0x98>
20031192:	0b949d63          	bne	s1,s9,2003124c <_ZN62_$LT$libtock..console..Console$u20$as$u20$core..fmt..Write$GT$9write_str17hcce1bb5c04d65066E+0x13e>
20031196:	01bc4563          	blt	s8,s11,200311a0 <_ZN62_$LT$libtock..console..Console$u20$as$u20$core..fmt..Write$GT$9write_str17hcce1bb5c04d65066E+0x92>
2003119a:	000d8763          	beqz	s11,200311a8 <_ZN62_$LT$libtock..console..Console$u20$as$u20$core..fmt..Write$GT$9write_str17hcce1bb5c04d65066E+0x9a>
2003119e:	a0e9                	j	20031268 <_ZN62_$LT$libtock..console..Console$u20$as$u20$core..fmt..Write$GT$9write_str17hcce1bb5c04d65066E+0x15a>
200311a0:	019d8463          	beq	s11,s9,200311a8 <_ZN62_$LT$libtock..console..Console$u20$as$u20$core..fmt..Write$GT$9write_str17hcce1bb5c04d65066E+0x9a>
200311a4:	a065                	j	2003124c <_ZN62_$LT$libtock..console..Console$u20$as$u20$core..fmt..Write$GT$9write_str17hcce1bb5c04d65066E+0x13e>
200311a6:	e0e9                	bnez	s1,20031268 <_ZN62_$LT$libtock..console..Console$u20$as$u20$core..fmt..Write$GT$9write_str17hcce1bb5c04d65066E+0x15a>
200311a8:	000d4503          	lbu	a0,0(s10)
200311ac:	4d8d                	li	s11,3
200311ae:	c111                	beqz	a0,200311b2 <_ZN62_$LT$libtock..console..Console$u20$as$u20$core..fmt..Write$GT$9write_str17hcce1bb5c04d65066E+0xa4>
200311b0:	4d85                	li	s11,1
200311b2:	d971                	beqz	a0,20031186 <_ZN62_$LT$libtock..console..Console$u20$as$u20$core..fmt..Write$GT$9write_str17hcce1bb5c04d65066E+0x78>
200311b4:	4585                	li	a1,1
200311b6:	4605                	li	a2,1
200311b8:	4681                	li	a3,0
200311ba:	4701                	li	a4,0
200311bc:	4505                	li	a0,1
200311be:	00000073          	ecall
200311c2:	4585                	li	a1,1
200311c4:	4605                	li	a2,1
200311c6:	4681                	li	a3,0
200311c8:	4701                	li	a4,0
200311ca:	450d                	li	a0,3
200311cc:	00000073          	ecall
200311d0:	995a                	add	s2,s2,s6
200311d2:	416b8bb3          	sub	s7,s7,s6
200311d6:	020b8a63          	beqz	s7,2003120a <_ZN62_$LT$libtock..console..Console$u20$as$u20$core..fmt..Write$GT$9write_str17hcce1bb5c04d65066E+0xfc>
200311da:	04000513          	li	a0,64
200311de:	8b5e                	mv	s6,s7
200311e0:	00abe463          	bltu	s7,a0,200311e8 <_ZN62_$LT$libtock..console..Console$u20$as$u20$core..fmt..Write$GT$9write_str17hcce1bb5c04d65066E+0xda>
200311e4:	04000b13          	li	s6,64
200311e8:	854e                	mv	a0,s3
200311ea:	85ca                	mv	a1,s2
200311ec:	865a                	mv	a2,s6
200311ee:	00001097          	auipc	ra,0x1
200311f2:	e28080e7          	jalr	-472(ra) # 20032016 <memcpy>
200311f6:	4785                	li	a5,1
200311f8:	4585                	li	a1,1
200311fa:	4605                	li	a2,1
200311fc:	86ce                	mv	a3,s3
200311fe:	875a                	mv	a4,s6
20031200:	450d                	li	a0,3
20031202:	00000073          	ecall
20031206:	d539                	beqz	a0,20031154 <_ZN62_$LT$libtock..console..Console$u20$as$u20$core..fmt..Write$GT$9write_str17hcce1bb5c04d65066E+0x46>
20031208:	a015                	j	2003122c <_ZN62_$LT$libtock..console..Console$u20$as$u20$core..fmt..Write$GT$9write_str17hcce1bb5c04d65066E+0x11e>
2003120a:	4781                	li	a5,0
2003120c:	a005                	j	2003122c <_ZN62_$LT$libtock..console..Console$u20$as$u20$core..fmt..Write$GT$9write_str17hcce1bb5c04d65066E+0x11e>
2003120e:	4585                	li	a1,1
20031210:	4605                	li	a2,1
20031212:	4681                	li	a3,0
20031214:	4701                	li	a4,0
20031216:	4505                	li	a0,1
20031218:	00000073          	ecall
2003121c:	4785                	li	a5,1
2003121e:	4585                	li	a1,1
20031220:	4605                	li	a2,1
20031222:	4681                	li	a3,0
20031224:	4701                	li	a4,0
20031226:	450d                	li	a0,3
20031228:	00000073          	ecall
2003122c:	853e                	mv	a0,a5
2003122e:	4db2                	lw	s11,12(sp)
20031230:	4d42                	lw	s10,16(sp)
20031232:	4cd2                	lw	s9,20(sp)
20031234:	4c62                	lw	s8,24(sp)
20031236:	4bf2                	lw	s7,28(sp)
20031238:	5b02                	lw	s6,32(sp)
2003123a:	5a92                	lw	s5,36(sp)
2003123c:	5a22                	lw	s4,40(sp)
2003123e:	59b2                	lw	s3,44(sp)
20031240:	5942                	lw	s2,48(sp)
20031242:	54d2                	lw	s1,52(sp)
20031244:	5462                	lw	s0,56(sp)
20031246:	50f2                	lw	ra,60(sp)
20031248:	6121                	addi	sp,sp,64
2003124a:	8082                	ret
2003124c:	20033537          	lui	a0,0x20033
20031250:	ef050513          	addi	a0,a0,-272 # 20032ef0 <str.0.llvm.15017180710711891547>
20031254:	02200593          	li	a1,34
20031258:	fffff097          	auipc	ra,0xfffff
2003125c:	e9a080e7          	jalr	-358(ra) # 200300f2 <_ZN4core9panicking5panic17hb8fdc2117f3885d0E>
20031260:	fffff097          	auipc	ra,0xfffff
20031264:	e80080e7          	jalr	-384(ra) # 200300e0 <abort>
20031268:	20033537          	lui	a0,0x20033
2003126c:	f2050513          	addi	a0,a0,-224 # 20032f20 <str.1.llvm.15017180710711891547>
20031270:	02300593          	li	a1,35
20031274:	fffff097          	auipc	ra,0xfffff
20031278:	e7e080e7          	jalr	-386(ra) # 200300f2 <_ZN4core9panicking5panic17hb8fdc2117f3885d0E>
2003127c:	fffff097          	auipc	ra,0xfffff
20031280:	e64080e7          	jalr	-412(ra) # 200300e0 <abort>

20031284 <_ZN12libtock_core8syscalls9subscribe10c_callback17h398a39e4d11c50fdE.llvm.6663190112982571550>:
20031284:	1141                	addi	sp,sp,-16
20031286:	c606                	sw	ra,12(sp)
20031288:	c422                	sw	s0,8(sp)
2003128a:	0800                	addi	s0,sp,16
2003128c:	4422                	lw	s0,8(sp)
2003128e:	40b2                	lw	ra,12(sp)
20031290:	0141                	addi	sp,sp,16
20031292:	8082                	ret

20031294 <_ZN12libtock_core8syscalls9subscribe10c_callback17hf280be3ae7cea60eE.llvm.6663190112982571550>:
20031294:	1141                	addi	sp,sp,-16
20031296:	c606                	sw	ra,12(sp)
20031298:	c422                	sw	s0,8(sp)
2003129a:	0800                	addi	s0,sp,16
2003129c:	4288                	lw	a0,0(a3)
2003129e:	4585                	li	a1,1
200312a0:	00b50023          	sb	a1,0(a0)
200312a4:	4422                	lw	s0,8(sp)
200312a6:	40b2                	lw	ra,12(sp)
200312a8:	0141                	addi	sp,sp,16
200312aa:	8082                	ret

200312ac <rust_start>:
200312ac:	1141                	addi	sp,sp,-16
200312ae:	c606                	sw	ra,12(sp)
200312b0:	c422                	sw	s0,8(sp)
200312b2:	c226                	sw	s1,4(sp)
200312b4:	0800                	addi	s0,sp,16
200312b6:	86ae                	mv	a3,a1
200312b8:	84aa                	mv	s1,a0
200312ba:	4548                	lw	a0,12(a0)
200312bc:	009505b3          	add	a1,a0,s1
200312c0:	48d0                	lw	a2,20(s1)
200312c2:	8536                	mv	a0,a3
200312c4:	00001097          	auipc	ra,0x1
200312c8:	d52080e7          	jalr	-686(ra) # 20032016 <memcpy>
200312cc:	4cc8                	lw	a0,28(s1)
200312ce:	4c90                	lw	a2,24(s1)
200312d0:	00c505b3          	add	a1,a0,a2
200312d4:	00b67763          	bgeu	a2,a1,200312e2 <rust_start+0x36>
200312d8:	00060023          	sb	zero,0(a2)
200312dc:	0605                	addi	a2,a2,1
200312de:	157d                	addi	a0,a0,-1
200312e0:	fd65                	bnez	a0,200312d8 <rust_start+0x2c>
200312e2:	40058613          	addi	a2,a1,1024
200312e6:	4581                	li	a1,0
200312e8:	4511                	li	a0,4
200312ea:	00000073          	ecall
200312ee:	00000097          	auipc	ra,0x0
200312f2:	3be080e7          	jalr	958(ra) # 200316ac <main>
200312f6:	4501                	li	a0,0
200312f8:	00000073          	ecall
200312fc:	bfed                	j	200312f6 <rust_start+0x4a>

200312fe <_ZN4core3ptr18real_drop_in_place17he29fed25db934f62E>:
200312fe:	1141                	addi	sp,sp,-16
20031300:	c606                	sw	ra,12(sp)
20031302:	c422                	sw	s0,8(sp)
20031304:	0800                	addi	s0,sp,16
20031306:	4422                	lw	s0,8(sp)
20031308:	40b2                	lw	ra,12(sp)
2003130a:	0141                	addi	sp,sp,16
2003130c:	8082                	ret

2003130e <_ZN50_$LT$$RF$mut$u20$W$u20$as$u20$core..fmt..Write$GT$9write_str17hf6f01f6797d7cfa2E>:
2003130e:	1141                	addi	sp,sp,-16
20031310:	c606                	sw	ra,12(sp)
20031312:	c422                	sw	s0,8(sp)
20031314:	0800                	addi	s0,sp,16
20031316:	4108                	lw	a0,0(a0)
20031318:	4422                	lw	s0,8(sp)
2003131a:	40b2                	lw	ra,12(sp)
2003131c:	0141                	addi	sp,sp,16
2003131e:	00000317          	auipc	t1,0x0
20031322:	df030067          	jr	-528(t1) # 2003110e <_ZN62_$LT$libtock..console..Console$u20$as$u20$core..fmt..Write$GT$9write_str17hcce1bb5c04d65066E>

20031326 <_ZN50_$LT$$RF$mut$u20$W$u20$as$u20$core..fmt..Write$GT$10write_char17hdc32df3336ec52cfE>:
20031326:	1141                	addi	sp,sp,-16
20031328:	c606                	sw	ra,12(sp)
2003132a:	c422                	sw	s0,8(sp)
2003132c:	0800                	addi	s0,sp,16
2003132e:	4108                	lw	a0,0(a0)
20031330:	fe042a23          	sw	zero,-12(s0)
20031334:	08000613          	li	a2,128
20031338:	00c5f663          	bgeu	a1,a2,20031344 <_ZN50_$LT$$RF$mut$u20$W$u20$as$u20$core..fmt..Write$GT$10write_char17hdc32df3336ec52cfE+0x1e>
2003133c:	feb40a23          	sb	a1,-12(s0)
20031340:	4605                	li	a2,1
20031342:	a079                	j	200313d0 <_ZN50_$LT$$RF$mut$u20$W$u20$as$u20$core..fmt..Write$GT$10write_char17hdc32df3336ec52cfE+0xaa>
20031344:	00b5d613          	srli	a2,a1,0xb
20031348:	ee19                	bnez	a2,20031366 <_ZN50_$LT$$RF$mut$u20$W$u20$as$u20$core..fmt..Write$GT$10write_char17hdc32df3336ec52cfE+0x40>
2003134a:	03f5f613          	andi	a2,a1,63
2003134e:	08066613          	ori	a2,a2,128
20031352:	fec40aa3          	sb	a2,-11(s0)
20031356:	8199                	srli	a1,a1,0x6
20031358:	89fd                	andi	a1,a1,31
2003135a:	0c05e593          	ori	a1,a1,192
2003135e:	feb40a23          	sb	a1,-12(s0)
20031362:	4609                	li	a2,2
20031364:	a0b5                	j	200313d0 <_ZN50_$LT$$RF$mut$u20$W$u20$as$u20$core..fmt..Write$GT$10write_char17hdc32df3336ec52cfE+0xaa>
20031366:	0105d613          	srli	a2,a1,0x10
2003136a:	e61d                	bnez	a2,20031398 <_ZN50_$LT$$RF$mut$u20$W$u20$as$u20$core..fmt..Write$GT$10write_char17hdc32df3336ec52cfE+0x72>
2003136c:	03f5f613          	andi	a2,a1,63
20031370:	08066613          	ori	a2,a2,128
20031374:	fec40b23          	sb	a2,-10(s0)
20031378:	0065d613          	srli	a2,a1,0x6
2003137c:	03f67613          	andi	a2,a2,63
20031380:	08066613          	ori	a2,a2,128
20031384:	fec40aa3          	sb	a2,-11(s0)
20031388:	81b1                	srli	a1,a1,0xc
2003138a:	89bd                	andi	a1,a1,15
2003138c:	0e05e593          	ori	a1,a1,224
20031390:	feb40a23          	sb	a1,-12(s0)
20031394:	460d                	li	a2,3
20031396:	a82d                	j	200313d0 <_ZN50_$LT$$RF$mut$u20$W$u20$as$u20$core..fmt..Write$GT$10write_char17hdc32df3336ec52cfE+0xaa>
20031398:	03f5f613          	andi	a2,a1,63
2003139c:	08066613          	ori	a2,a2,128
200313a0:	fec40ba3          	sb	a2,-9(s0)
200313a4:	0125d613          	srli	a2,a1,0x12
200313a8:	0f066613          	ori	a2,a2,240
200313ac:	fec40a23          	sb	a2,-12(s0)
200313b0:	0065d613          	srli	a2,a1,0x6
200313b4:	03f67613          	andi	a2,a2,63
200313b8:	08066613          	ori	a2,a2,128
200313bc:	fec40b23          	sb	a2,-10(s0)
200313c0:	81b1                	srli	a1,a1,0xc
200313c2:	03f5f593          	andi	a1,a1,63
200313c6:	0805e593          	ori	a1,a1,128
200313ca:	feb40aa3          	sb	a1,-11(s0)
200313ce:	4611                	li	a2,4
200313d0:	ff440593          	addi	a1,s0,-12
200313d4:	00000097          	auipc	ra,0x0
200313d8:	d3a080e7          	jalr	-710(ra) # 2003110e <_ZN62_$LT$libtock..console..Console$u20$as$u20$core..fmt..Write$GT$9write_str17hcce1bb5c04d65066E>
200313dc:	4422                	lw	s0,8(sp)
200313de:	40b2                	lw	ra,12(sp)
200313e0:	0141                	addi	sp,sp,16
200313e2:	8082                	ret

200313e4 <_ZN50_$LT$$RF$mut$u20$W$u20$as$u20$core..fmt..Write$GT$9write_fmt17hb3e378446832ef88E>:
200313e4:	7179                	addi	sp,sp,-48
200313e6:	d606                	sw	ra,44(sp)
200313e8:	d422                	sw	s0,40(sp)
200313ea:	1800                	addi	s0,sp,48
200313ec:	4108                	lw	a0,0(a0)
200313ee:	fca42e23          	sw	a0,-36(s0)
200313f2:	49c8                	lw	a0,20(a1)
200313f4:	fea42a23          	sw	a0,-12(s0)
200313f8:	4988                	lw	a0,16(a1)
200313fa:	fea42823          	sw	a0,-16(s0)
200313fe:	45c8                	lw	a0,12(a1)
20031400:	fea42623          	sw	a0,-20(s0)
20031404:	4588                	lw	a0,8(a1)
20031406:	fea42423          	sw	a0,-24(s0)
2003140a:	41c8                	lw	a0,4(a1)
2003140c:	fea42223          	sw	a0,-28(s0)
20031410:	4188                	lw	a0,0(a1)
20031412:	fea42023          	sw	a0,-32(s0)
20031416:	20033537          	lui	a0,0x20033
2003141a:	f4450593          	addi	a1,a0,-188 # 20032f44 <.L__unnamed_1>
2003141e:	fdc40513          	addi	a0,s0,-36
20031422:	fe040613          	addi	a2,s0,-32
20031426:	fffff097          	auipc	ra,0xfffff
2003142a:	268080e7          	jalr	616(ra) # 2003068e <_ZN4core3fmt5write17h28e75e9ae6470266E>
2003142e:	5422                	lw	s0,40(sp)
20031430:	50b2                	lw	ra,44(sp)
20031432:	6145                	addi	sp,sp,48
20031434:	8082                	ret

20031436 <_ZN66_$LT$core..option..Option$LT$T$GT$$u20$as$u20$core..fmt..Debug$GT$3fmt17h447cd70e702f6163E>:
20031436:	7159                	addi	sp,sp,-112
20031438:	d686                	sw	ra,108(sp)
2003143a:	d4a2                	sw	s0,104(sp)
2003143c:	d2a6                	sw	s1,100(sp)
2003143e:	d0ca                	sw	s2,96(sp)
20031440:	cece                	sw	s3,92(sp)
20031442:	1880                	addi	s0,sp,112
20031444:	89ae                	mv	s3,a1
20031446:	84aa                	mv	s1,a0
20031448:	4108                	lw	a0,0(a0)
2003144a:	4585                	li	a1,1
2003144c:	02b51e63          	bne	a0,a1,20031488 <_ZN66_$LT$core..option..Option$LT$T$GT$$u20$as$u20$core..fmt..Debug$GT$3fmt17h447cd70e702f6163E+0x52>
20031450:	01c9a503          	lw	a0,28(s3)
20031454:	4554                	lw	a3,12(a0)
20031456:	0189a503          	lw	a0,24(s3)
2003145a:	200335b7          	lui	a1,0x20033
2003145e:	eac58593          	addi	a1,a1,-340 # 20032eac <.Lanon.2c6bb00a6eab53dbfca994608b168c3b.201+0x6>
20031462:	4611                	li	a2,4
20031464:	9682                	jalr	a3
20031466:	f9342c23          	sw	s3,-104(s0)
2003146a:	fa0400a3          	sb	zero,-95(s0)
2003146e:	f8042e23          	sw	zero,-100(s0)
20031472:	faa40023          	sb	a0,-96(s0)
20031476:	c139                	beqz	a0,200314bc <_ZN66_$LT$core..option..Option$LT$T$GT$$u20$as$u20$core..fmt..Debug$GT$3fmt17h447cd70e702f6163E+0x86>
20031478:	4505                	li	a0,1
2003147a:	f8a42e23          	sw	a0,-100(s0)
2003147e:	faa40023          	sb	a0,-96(s0)
20031482:	faa40023          	sb	a0,-96(s0)
20031486:	a025                	j	200314ae <_ZN66_$LT$core..option..Option$LT$T$GT$$u20$as$u20$core..fmt..Debug$GT$3fmt17h447cd70e702f6163E+0x78>
20031488:	01c9a503          	lw	a0,28(s3)
2003148c:	4554                	lw	a3,12(a0)
2003148e:	0189a503          	lw	a0,24(s3)
20031492:	200335b7          	lui	a1,0x20033
20031496:	eb058593          	addi	a1,a1,-336 # 20032eb0 <.Lanon.2c6bb00a6eab53dbfca994608b168c3b.201+0xa>
2003149a:	4611                	li	a2,4
2003149c:	9682                	jalr	a3
2003149e:	fb342c23          	sw	s3,-72(s0)
200314a2:	fc0400a3          	sb	zero,-63(s0)
200314a6:	fa042e23          	sw	zero,-68(s0)
200314aa:	fca40023          	sb	a0,-64(s0)
200314ae:	49f6                	lw	s3,92(sp)
200314b0:	5906                	lw	s2,96(sp)
200314b2:	5496                	lw	s1,100(sp)
200314b4:	5426                	lw	s0,104(sp)
200314b6:	50b6                	lw	ra,108(sp)
200314b8:	6165                	addi	sp,sp,112
200314ba:	8082                	ret
200314bc:	00448913          	addi	s2,s1,4
200314c0:	0189a503          	lw	a0,24(s3)
200314c4:	01c9a583          	lw	a1,28(s3)
200314c8:	45d4                	lw	a3,12(a1)
200314ca:	0009c583          	lbu	a1,0(s3)
200314ce:	8991                	andi	a1,a1,4
200314d0:	ed99                	bnez	a1,200314ee <_ZN66_$LT$core..option..Option$LT$T$GT$$u20$as$u20$core..fmt..Debug$GT$3fmt17h447cd70e702f6163E+0xb8>
200314d2:	200335b7          	lui	a1,0x20033
200314d6:	ee858593          	addi	a1,a1,-280 # 20032ee8 <.Lanon.2c6bb00a6eab53dbfca994608b168c3b.183>
200314da:	4605                	li	a2,1
200314dc:	9682                	jalr	a3
200314de:	fd49                	bnez	a0,20031478 <_ZN66_$LT$core..option..Option$LT$T$GT$$u20$as$u20$core..fmt..Debug$GT$3fmt17h447cd70e702f6163E+0x42>
200314e0:	854a                	mv	a0,s2
200314e2:	85ce                	mv	a1,s3
200314e4:	00001097          	auipc	ra,0x1
200314e8:	a24080e7          	jalr	-1500(ra) # 20031f08 <_ZN42_$LT$$RF$T$u20$as$u20$core..fmt..Debug$GT$3fmt17h24600c4b31d73cbcE>
200314ec:	a0c9                	j	200315ae <_ZN66_$LT$core..option..Option$LT$T$GT$$u20$as$u20$core..fmt..Debug$GT$3fmt17h447cd70e702f6163E+0x178>
200314ee:	200335b7          	lui	a1,0x20033
200314f2:	ee958593          	addi	a1,a1,-279 # 20032ee9 <.Lanon.2c6bb00a6eab53dbfca994608b168c3b.182>
200314f6:	4609                	li	a2,2
200314f8:	9682                	jalr	a3
200314fa:	fd3d                	bnez	a0,20031478 <_ZN66_$LT$core..option..Option$LT$T$GT$$u20$as$u20$core..fmt..Debug$GT$3fmt17h447cd70e702f6163E+0x42>
200314fc:	0009a283          	lw	t0,0(s3)
20031500:	4585                	li	a1,1
20031502:	fab40ba3          	sb	a1,-73(s0)
20031506:	0189a583          	lw	a1,24(s3)
2003150a:	01c9a603          	lw	a2,28(s3)
2003150e:	fb740693          	addi	a3,s0,-73
20031512:	fad42823          	sw	a3,-80(s0)
20031516:	fac42623          	sw	a2,-84(s0)
2003151a:	fab42423          	sw	a1,-88(s0)
2003151e:	0089a803          	lw	a6,8(s3)
20031522:	00c9a883          	lw	a7,12(s3)
20031526:	0109a303          	lw	t1,16(s3)
2003152a:	0149a703          	lw	a4,20(s3)
2003152e:	0209a783          	lw	a5,32(s3)
20031532:	0249a483          	lw	s1,36(s3)
20031536:	0289a583          	lw	a1,40(s3)
2003153a:	02c9a603          	lw	a2,44(s3)
2003153e:	0049a503          	lw	a0,4(s3)
20031542:	03098683          	lb	a3,48(s3)
20031546:	fed40423          	sb	a3,-24(s0)
2003154a:	faa42e23          	sw	a0,-68(s0)
2003154e:	fa542c23          	sw	t0,-72(s0)
20031552:	fec42223          	sw	a2,-28(s0)
20031556:	feb42023          	sw	a1,-32(s0)
2003155a:	fc942e23          	sw	s1,-36(s0)
2003155e:	fcf42c23          	sw	a5,-40(s0)
20031562:	20033537          	lui	a0,0x20033
20031566:	eb450513          	addi	a0,a0,-332 # 20032eb4 <.Lanon.2c6bb00a6eab53dbfca994608b168c3b.174>
2003156a:	fca42a23          	sw	a0,-44(s0)
2003156e:	fa840513          	addi	a0,s0,-88
20031572:	fca42823          	sw	a0,-48(s0)
20031576:	fce42623          	sw	a4,-52(s0)
2003157a:	fc642423          	sw	t1,-56(s0)
2003157e:	fd142223          	sw	a7,-60(s0)
20031582:	fd042023          	sw	a6,-64(s0)
20031586:	fb840593          	addi	a1,s0,-72
2003158a:	854a                	mv	a0,s2
2003158c:	00001097          	auipc	ra,0x1
20031590:	97c080e7          	jalr	-1668(ra) # 20031f08 <_ZN42_$LT$$RF$T$u20$as$u20$core..fmt..Debug$GT$3fmt17h24600c4b31d73cbcE>
20031594:	ee0512e3          	bnez	a0,20031478 <_ZN66_$LT$core..option..Option$LT$T$GT$$u20$as$u20$core..fmt..Debug$GT$3fmt17h447cd70e702f6163E+0x42>
20031598:	fd442503          	lw	a0,-44(s0)
2003159c:	4554                	lw	a3,12(a0)
2003159e:	fd042503          	lw	a0,-48(s0)
200315a2:	200335b7          	lui	a1,0x20033
200315a6:	ecc58593          	addi	a1,a1,-308 # 20032ecc <.Lanon.2c6bb00a6eab53dbfca994608b168c3b.177>
200315aa:	4609                	li	a2,2
200315ac:	9682                	jalr	a3
200315ae:	85aa                	mv	a1,a0
200315b0:	4505                	li	a0,1
200315b2:	f8a42e23          	sw	a0,-100(s0)
200315b6:	fab40023          	sb	a1,-96(s0)
200315ba:	ec0594e3          	bnez	a1,20031482 <_ZN66_$LT$core..option..Option$LT$T$GT$$u20$as$u20$core..fmt..Debug$GT$3fmt17h447cd70e702f6163E+0x4c>
200315be:	0189a503          	lw	a0,24(s3)
200315c2:	01c9a583          	lw	a1,28(s3)
200315c6:	45d4                	lw	a3,12(a1)
200315c8:	200335b7          	lui	a1,0x20033
200315cc:	eeb58593          	addi	a1,a1,-277 # 20032eeb <.Lanon.2c6bb00a6eab53dbfca994608b168c3b.185>
200315d0:	4605                	li	a2,1
200315d2:	9682                	jalr	a3
200315d4:	b57d                	j	20031482 <_ZN66_$LT$core..option..Option$LT$T$GT$$u20$as$u20$core..fmt..Debug$GT$3fmt17h447cd70e702f6163E+0x4c>

200315d6 <_ZN56_$LT$timer..PrettyTime$u20$as$u20$core..fmt..Display$GT$3fmt17hfa122fd2474153d1E>:
200315d6:	7139                	addi	sp,sp,-64
200315d8:	de06                	sw	ra,60(sp)
200315da:	dc22                	sw	s0,56(sp)
200315dc:	da26                	sw	s1,52(sp)
200315de:	d84a                	sw	s2,48(sp)
200315e0:	d64e                	sw	s3,44(sp)
200315e2:	0080                	addi	s0,sp,64
200315e4:	892e                	mv	s2,a1
200315e6:	89aa                	mv	s3,a0
200315e8:	4108                	lw	a0,0(a0)
200315ea:	c531                	beqz	a0,20031636 <_ZN56_$LT$timer..PrettyTime$u20$as$u20$core..fmt..Display$GT$3fmt17hfa122fd2474153d1E+0x60>
200315ec:	fd342023          	sw	s3,-64(s0)
200315f0:	20030537          	lui	a0,0x20030
200315f4:	10a50513          	addi	a0,a0,266 # 2003010a <_ZN4core3fmt3num3imp52_$LT$impl$u20$core..fmt..Display$u20$for$u20$u32$GT$3fmt17hedb6a98b5a8805ddE>
200315f8:	fca42223          	sw	a0,-60(s0)
200315fc:	01c92583          	lw	a1,28(s2)
20031600:	01892503          	lw	a0,24(s2)
20031604:	fc040613          	addi	a2,s0,-64
20031608:	fec42023          	sw	a2,-32(s0)
2003160c:	4609                	li	a2,2
2003160e:	fcc42a23          	sw	a2,-44(s0)
20031612:	20033637          	lui	a2,0x20033
20031616:	0b460613          	addi	a2,a2,180 # 200330b4 <.L__unnamed_5>
2003161a:	fcc42823          	sw	a2,-48(s0)
2003161e:	4485                	li	s1,1
20031620:	fe942223          	sw	s1,-28(s0)
20031624:	fc042c23          	sw	zero,-40(s0)
20031628:	fd040613          	addi	a2,s0,-48
2003162c:	fffff097          	auipc	ra,0xfffff
20031630:	062080e7          	jalr	98(ra) # 2003068e <_ZN4core3fmt5write17h28e75e9ae6470266E>
20031634:	e525                	bnez	a0,2003169c <_ZN56_$LT$timer..PrettyTime$u20$as$u20$core..fmt..Display$GT$3fmt17hfa122fd2474153d1E+0xc6>
20031636:	00898513          	addi	a0,s3,8
2003163a:	fca42423          	sw	a0,-56(s0)
2003163e:	20030537          	lui	a0,0x20030
20031642:	10a50513          	addi	a0,a0,266 # 2003010a <_ZN4core3fmt3num3imp52_$LT$impl$u20$core..fmt..Display$u20$for$u20$u32$GT$3fmt17hedb6a98b5a8805ddE>
20031646:	fca42623          	sw	a0,-52(s0)
2003164a:	fca42223          	sw	a0,-60(s0)
2003164e:	00498513          	addi	a0,s3,4
20031652:	fca42023          	sw	a0,-64(s0)
20031656:	01c92583          	lw	a1,28(s2)
2003165a:	01892503          	lw	a0,24(s2)
2003165e:	fc040613          	addi	a2,s0,-64
20031662:	fec42023          	sw	a2,-32(s0)
20031666:	4609                	li	a2,2
20031668:	fec42223          	sw	a2,-28(s0)
2003166c:	fcc42e23          	sw	a2,-36(s0)
20031670:	20033637          	lui	a2,0x20033
20031674:	0dc60613          	addi	a2,a2,220 # 200330dc <.L__unnamed_6>
20031678:	fcc42c23          	sw	a2,-40(s0)
2003167c:	460d                	li	a2,3
2003167e:	fcc42a23          	sw	a2,-44(s0)
20031682:	20033637          	lui	a2,0x20033
20031686:	0c460613          	addi	a2,a2,196 # 200330c4 <.L__unnamed_7>
2003168a:	fcc42823          	sw	a2,-48(s0)
2003168e:	fd040613          	addi	a2,s0,-48
20031692:	fffff097          	auipc	ra,0xfffff
20031696:	ffc080e7          	jalr	-4(ra) # 2003068e <_ZN4core3fmt5write17h28e75e9ae6470266E>
2003169a:	84aa                	mv	s1,a0
2003169c:	8526                	mv	a0,s1
2003169e:	59b2                	lw	s3,44(sp)
200316a0:	5942                	lw	s2,48(sp)
200316a2:	54d2                	lw	s1,52(sp)
200316a4:	5462                	lw	s0,56(sp)
200316a6:	50f2                	lw	ra,60(sp)
200316a8:	6121                	addi	sp,sp,64
200316aa:	8082                	ret

200316ac <main>:
200316ac:	1141                	addi	sp,sp,-16
200316ae:	c606                	sw	ra,12(sp)
200316b0:	c422                	sw	s0,8(sp)
200316b2:	0800                	addi	s0,sp,16
200316b4:	00000097          	auipc	ra,0x0
200316b8:	012080e7          	jalr	18(ra) # 200316c6 <_ZN12libtock_core10lang_items5start17hb50763bc14d3431aE>
200316bc:	557d                	li	a0,-1
200316be:	4422                	lw	s0,8(sp)
200316c0:	40b2                	lw	ra,12(sp)
200316c2:	0141                	addi	sp,sp,16
200316c4:	8082                	ret

200316c6 <_ZN12libtock_core10lang_items5start17hb50763bc14d3431aE>:
200316c6:	7145                	addi	sp,sp,-464
200316c8:	1c112623          	sw	ra,460(sp)
200316cc:	1c812423          	sw	s0,456(sp)
200316d0:	1c912223          	sw	s1,452(sp)
200316d4:	1d212023          	sw	s2,448(sp)
200316d8:	1b312e23          	sw	s3,444(sp)
200316dc:	1b412c23          	sw	s4,440(sp)
200316e0:	1b512a23          	sw	s5,436(sp)
200316e4:	1b612823          	sw	s6,432(sp)
200316e8:	1b712623          	sw	s7,428(sp)
200316ec:	1b812423          	sw	s8,424(sp)
200316f0:	1b912223          	sw	s9,420(sp)
200316f4:	1ba12023          	sw	s10,416(sp)
200316f8:	19b12e23          	sw	s11,412(sp)
200316fc:	0b80                	addi	s0,sp,464
200316fe:	10003537          	lui	a0,0x10003
20031702:	00154583          	lbu	a1,1(a0) # 10003001 <_ZN5timer4main12MAIN_INVOKED17hd54bcea832d4dfe3E.0.0>
20031706:	7e059363          	bnez	a1,20031eec <_ZN12libtock_core10lang_items5start17hb50763bc14d3431aE+0x826>
2003170a:	4b05                	li	s6,1
2003170c:	016500a3          	sb	s6,1(a0)
20031710:	e6042c23          	sw	zero,-392(s0)
20031714:	ee840993          	addi	s3,s0,-280
20031718:	597d                	li	s2,-1
2003171a:	20032537          	lui	a0,0x20032
2003171e:	00650513          	addi	a0,a0,6 # 20032006 <_ZN12libtock_core8syscalls9subscribe10c_callback17h4b0c0b23ed8c9dbbE>
20031722:	e6a42423          	sw	a0,-408(s0)
20031726:	20031537          	lui	a0,0x20031
2003172a:	28450513          	addi	a0,a0,644 # 20031284 <_ZN12libtock_core8syscalls9subscribe10c_callback17h398a39e4d11c50fdE.llvm.6663190112982571550>
2003172e:	e6a42023          	sw	a0,-416(s0)
20031732:	10625537          	lui	a0,0x10625
20031736:	dd350513          	addi	a0,a0,-557 # 10624dd3 <_ZN5timer4main12MAIN_INVOKED17hd54bcea832d4dfe3E.0.0+0x621dd2>
2003173a:	e6a42223          	sw	a0,-412(s0)
2003173e:	88889537          	lui	a0,0x88889
20031742:	88950513          	addi	a0,a0,-1911 # 88888889 <_etext+0x68855725>
20031746:	e4a42a23          	sw	a0,-428(s0)
2003174a:	45e7b537          	lui	a0,0x45e7b
2003174e:	27350513          	addi	a0,a0,627 # 45e7b273 <_etext+0x25e4810f>
20031752:	e4a42823          	sw	a0,-432(s0)
20031756:	20031537          	lui	a0,0x20031
2003175a:	43650513          	addi	a0,a0,1078 # 20031436 <_ZN66_$LT$core..option..Option$LT$T$GT$$u20$as$u20$core..fmt..Debug$GT$3fmt17h447cd70e702f6163E>
2003175e:	e4a42623          	sw	a0,-436(s0)
20031762:	20031537          	lui	a0,0x20031
20031766:	e3450513          	addi	a0,a0,-460 # 20030e34 <_ZN4core3fmt3num53_$LT$impl$u20$core..fmt..LowerHex$u20$for$u20$i32$GT$3fmt17hd7c877299eecd78cE>
2003176a:	e4a42423          	sw	a0,-440(s0)
2003176e:	20031537          	lui	a0,0x20031
20031772:	5d650513          	addi	a0,a0,1494 # 200315d6 <_ZN56_$LT$timer..PrettyTime$u20$as$u20$core..fmt..Display$GT$3fmt17hfa122fd2474153d1E>
20031776:	e4a42223          	sw	a0,-444(s0)
2003177a:	20030537          	lui	a0,0x20030
2003177e:	10a50513          	addi	a0,a0,266 # 2003010a <_ZN4core3fmt3num3imp52_$LT$impl$u20$core..fmt..Display$u20$for$u20$u32$GT$3fmt17hedb6a98b5a8805ddE>
20031782:	e4a42023          	sw	a0,-448(s0)
20031786:	20033537          	lui	a0,0x20033
2003178a:	f9450513          	addi	a0,a0,-108 # 20032f94 <.L__unnamed_8>
2003178e:	e2a42e23          	sw	a0,-452(s0)
20031792:	20033537          	lui	a0,0x20033
20031796:	f5c50513          	addi	a0,a0,-164 # 20032f5c <.L__unnamed_9>
2003179a:	e2a42c23          	sw	a0,-456(s0)
2003179e:	20033537          	lui	a0,0x20033
200317a2:	f4450513          	addi	a0,a0,-188 # 20032f44 <.L__unnamed_1>
200317a6:	e2a42a23          	sw	a0,-460(s0)
200317aa:	fb040513          	addi	a0,s0,-80
200317ae:	e6a42823          	sw	a0,-400(s0)
200317b2:	6541                	lui	a0,0x10
200317b4:	f0050513          	addi	a0,a0,-256 # ff00 <.Lline_table_start0+0xcbbe>
200317b8:	e2a42823          	sw	a0,-464(s0)
200317bc:	4c8d                	li	s9,3
200317be:	e7842503          	lw	a0,-392(s0)
200317c2:	0eab4063          	blt	s6,a0,200318a2 <_ZN12libtock_core10lang_items5start17hb50763bc14d3431aE+0x1dc>
200317c6:	a005                	j	200317e6 <_ZN12libtock_core10lang_items5start17hb50763bc14d3431aE+0x120>
200317c8:	eea42223          	sw	a0,-284(s0)
200317cc:	eb942623          	sw	s9,-340(s0)
200317d0:	ed942a23          	sw	s9,-300(s0)
200317d4:	e7942c23          	sw	s9,-392(s0)
200317d8:	4501                	li	a0,0
200317da:	00000073          	ecall
200317de:	e7842503          	lw	a0,-392(s0)
200317e2:	0cab4063          	blt	s6,a0,200318a2 <_ZN12libtock_core10lang_items5start17hb50763bc14d3431aE+0x1dc>
200317e6:	6c051763          	bnez	a0,20031eb4 <_ZN12libtock_core10lang_items5start17hb50763bc14d3431aE+0x7ee>
200317ea:	10003537          	lui	a0,0x10003
200317ee:	00054503          	lbu	a0,0(a0) # 10003000 <_stack_top_aligned>
200317f2:	6a051463          	bnez	a0,20031e9a <_ZN12libtock_core10lang_items5start17hb50763bc14d3431aE+0x7d4>
200317f6:	10003537          	lui	a0,0x10003
200317fa:	01650023          	sb	s6,0(a0) # 10003000 <_stack_top_aligned>
200317fe:	e8042223          	sw	zero,-380(s0)
20031802:	e8042023          	sw	zero,-384(s0)
20031806:	e6042e23          	sw	zero,-388(s0)
2003180a:	ef440513          	addi	a0,s0,-268
2003180e:	4581                	li	a1,0
20031810:	04000613          	li	a2,64
20031814:	00001097          	auipc	ra,0x1
20031818:	826080e7          	jalr	-2010(ra) # 2003203a <memset>
2003181c:	e8042823          	sw	zero,-368(s0)
20031820:	e8042423          	sw	zero,-376(s0)
20031824:	4801                	li	a6,0
20031826:	00180513          	addi	a0,a6,1
2003182a:	e8a42823          	sw	a0,-368(s0)
2003182e:	f3042c23          	sw	a6,-200(s0)
20031832:	f2042e23          	sw	zero,-196(s0)
20031836:	4581                	li	a1,0
20031838:	4601                	li	a2,0
2003183a:	4681                	li	a3,0
2003183c:	4701                	li	a4,0
2003183e:	4509                	li	a0,2
20031840:	00000073          	ecall
20031844:	64a95b63          	bge	s2,a0,20031e9a <_ZN12libtock_core10lang_items5start17hb50763bc14d3431aE+0x7d4>
20031848:	87aa                	mv	a5,a0
2003184a:	4581                	li	a1,0
2003184c:	4605                	li	a2,1
2003184e:	4681                	li	a3,0
20031850:	4701                	li	a4,0
20031852:	4509                	li	a0,2
20031854:	00000073          	ecall
20031858:	64a95163          	bge	s2,a0,20031e9a <_ZN12libtock_core10lang_items5start17hb50763bc14d3431aE+0x7d4>
2003185c:	84aa                	mv	s1,a0
2003185e:	62050e63          	beqz	a0,20031e9a <_ZN12libtock_core10lang_items5start17hb50763bc14d3431aE+0x7d4>
20031862:	4581                	li	a1,0
20031864:	4601                	li	a2,0
20031866:	e6842683          	lw	a3,-408(s0)
2003186a:	f3c40713          	addi	a4,s0,-196
2003186e:	4505                	li	a0,1
20031870:	00000073          	ecall
20031874:	8daa                	mv	s11,a0
20031876:	c119                	beqz	a0,2003187c <_ZN12libtock_core10lang_items5start17hb50763bc14d3431aE+0x1b6>
20031878:	4481                	li	s1,0
2003187a:	4781                	li	a5,0
2003187c:	020d8c63          	beqz	s11,200318b4 <_ZN12libtock_core10lang_items5start17hb50763bc14d3431aE+0x1ee>
20031880:	0ff7f513          	andi	a0,a5,255
20031884:	4595                	li	a1,5
20031886:	1eb50163          	beq	a0,a1,20031a68 <_ZN12libtock_core10lang_items5start17hb50763bc14d3431aE+0x3a2>
2003188a:	e7642c23          	sw	s6,-392(s0)
2003188e:	4599                	li	a1,6
20031890:	60b51863          	bne	a0,a1,20031ea0 <_ZN12libtock_core10lang_items5start17hb50763bc14d3431aE+0x7da>
20031894:	4501                	li	a0,0
20031896:	00000073          	ecall
2003189a:	e7842503          	lw	a0,-392(s0)
2003189e:	f4ab54e3          	bge	s6,a0,200317e6 <_ZN12libtock_core10lang_items5start17hb50763bc14d3431aE+0x120>
200318a2:	63951763          	bne	a0,s9,20031ed0 <_ZN12libtock_core10lang_items5start17hb50763bc14d3431aE+0x80a>
200318a6:	eac42503          	lw	a0,-340(s0)
200318aa:	22ab4663          	blt	s6,a0,20031ad6 <_ZN12libtock_core10lang_items5start17hb50763bc14d3431aE+0x410>
200318ae:	1e050e63          	beqz	a0,20031aaa <_ZN12libtock_core10lang_items5start17hb50763bc14d3431aE+0x3e4>
200318b2:	a509                	j	20031eb4 <_ZN12libtock_core10lang_items5start17hb50763bc14d3431aE+0x7ee>
200318b4:	4581                	li	a1,0
200318b6:	4609                	li	a2,2
200318b8:	4681                	li	a3,0
200318ba:	4701                	li	a4,0
200318bc:	4509                	li	a0,2
200318be:	00000073          	ecall
200318c2:	5ca95563          	bge	s2,a0,20031e8c <_ZN12libtock_core10lang_items5start17hb50763bc14d3431aE+0x7c6>
200318c6:	8d56                	mv	s10,s5
200318c8:	1f400593          	li	a1,500
200318cc:	02b805b3          	mul	a1,a6,a1
200318d0:	0ff57613          	andi	a2,a0,255
200318d4:	8121                	srli	a0,a0,0x8
200318d6:	0522                	slli	a0,a0,0x8
200318d8:	00c56c33          	or	s8,a0,a2
200318dc:	f5842023          	sw	s8,-192(s0)
200318e0:	e6442a83          	lw	s5,-412(s0)
200318e4:	0355b533          	mulhu	a0,a1,s5
200318e8:	8119                	srli	a0,a0,0x6
200318ea:	f4942223          	sw	s1,-188(s0)
200318ee:	e5442b83          	lw	s7,-428(s0)
200318f2:	03753633          	mulhu	a2,a0,s7
200318f6:	8215                	srli	a2,a2,0x5
200318f8:	03c00693          	li	a3,60
200318fc:	02d60633          	mul	a2,a2,a3
20031900:	40c50633          	sub	a2,a0,a2
20031904:	c1800b13          	li	s6,-1000
20031908:	03650533          	mul	a0,a0,s6
2003190c:	952e                	add	a0,a0,a1
2003190e:	f8a42023          	sw	a0,-128(s0)
20031912:	f6c42e23          	sw	a2,-132(s0)
20031916:	e5042c83          	lw	s9,-432(s0)
2003191a:	0395b533          	mulhu	a0,a1,s9
2003191e:	8139                	srli	a0,a0,0xe
20031920:	f6a42c23          	sw	a0,-136(s0)
20031924:	f4440513          	addi	a0,s0,-188
20031928:	f6a42823          	sw	a0,-144(s0)
2003192c:	e4c42503          	lw	a0,-436(s0)
20031930:	f6a42623          	sw	a0,-148(s0)
20031934:	f8840513          	addi	a0,s0,-120
20031938:	f6a42423          	sw	a0,-152(s0)
2003193c:	e4842503          	lw	a0,-440(s0)
20031940:	f6a42223          	sw	a0,-156(s0)
20031944:	f4040513          	addi	a0,s0,-192
20031948:	f6a42023          	sw	a0,-160(s0)
2003194c:	f9840513          	addi	a0,s0,-104
20031950:	f4a42c23          	sw	a0,-168(s0)
20031954:	e4442503          	lw	a0,-444(s0)
20031958:	f4a42e23          	sw	a0,-164(s0)
2003195c:	f4a42a23          	sw	a0,-172(s0)
20031960:	f7840513          	addi	a0,s0,-136
20031964:	f4a42823          	sw	a0,-176(s0)
20031968:	e4042503          	lw	a0,-448(s0)
2003196c:	f6a42a23          	sw	a0,-140(s0)
20031970:	f4a42623          	sw	a0,-180(s0)
20031974:	f3840513          	addi	a0,s0,-200
20031978:	f4a42423          	sw	a0,-184(s0)
2003197c:	8562                	mv	a0,s8
2003197e:	00000097          	auipc	ra,0x0
20031982:	708080e7          	jalr	1800(ra) # 20032086 <__floatsidf>
20031986:	4601                	li	a2,0
20031988:	408f46b7          	lui	a3,0x408f4
2003198c:	00001097          	auipc	ra,0x1
20031990:	e30080e7          	jalr	-464(ra) # 200327bc <__muldf3>
20031994:	892a                	mv	s2,a0
20031996:	8a2e                	mv	s4,a1
20031998:	8526                	mv	a0,s1
2003199a:	00000097          	auipc	ra,0x0
2003199e:	7bc080e7          	jalr	1980(ra) # 20032156 <__floatunsidf>
200319a2:	862a                	mv	a2,a0
200319a4:	86ae                	mv	a3,a1
200319a6:	854a                	mv	a0,s2
200319a8:	85d2                	mv	a1,s4
200319aa:	00001097          	auipc	ra,0x1
200319ae:	900080e7          	jalr	-1792(ra) # 200322aa <__divdf3>
200319b2:	00001097          	auipc	ra,0x1
200319b6:	862080e7          	jalr	-1950(ra) # 20032214 <__fixunsdfsi>
200319ba:	e8c42583          	lw	a1,-372(s0)
200319be:	40bc05b3          	sub	a1,s8,a1
200319c2:	03953633          	mulhu	a2,a0,s9
200319c6:	8239                	srli	a2,a2,0xe
200319c8:	f8c42c23          	sw	a2,-104(s0)
200319cc:	03553633          	mulhu	a2,a0,s5
200319d0:	8219                	srli	a2,a2,0x6
200319d2:	036606b3          	mul	a3,a2,s6
200319d6:	9536                	add	a0,a0,a3
200319d8:	faa42023          	sw	a0,-96(s0)
200319dc:	03763533          	mulhu	a0,a2,s7
200319e0:	8115                	srli	a0,a0,0x5
200319e2:	03c00693          	li	a3,60
200319e6:	02d50533          	mul	a0,a0,a3
200319ea:	40a60533          	sub	a0,a2,a0
200319ee:	f8a42e23          	sw	a0,-100(s0)
200319f2:	f8b42623          	sw	a1,-116(s0)
200319f6:	e8842503          	lw	a0,-376(s0)
200319fa:	f8a42423          	sw	a0,-120(s0)
200319fe:	ef440513          	addi	a0,s0,-268
20031a02:	f8a42a23          	sw	a0,-108(s0)
20031a06:	f4840513          	addi	a0,s0,-184
20031a0a:	fca42023          	sw	a0,-64(s0)
20031a0e:	4519                	li	a0,6
20031a10:	fca42223          	sw	a0,-60(s0)
20031a14:	faa42e23          	sw	a0,-68(s0)
20031a18:	e3c42503          	lw	a0,-452(s0)
20031a1c:	faa42c23          	sw	a0,-72(s0)
20031a20:	451d                	li	a0,7
20031a22:	faa42a23          	sw	a0,-76(s0)
20031a26:	e3842503          	lw	a0,-456(s0)
20031a2a:	faa42823          	sw	a0,-80(s0)
20031a2e:	f9440513          	addi	a0,s0,-108
20031a32:	e3442583          	lw	a1,-460(s0)
20031a36:	e7042603          	lw	a2,-400(s0)
20031a3a:	fffff097          	auipc	ra,0xfffff
20031a3e:	c54080e7          	jalr	-940(ra) # 2003068e <_ZN4core3fmt5write17h28e75e9ae6470266E>
20031a42:	44051563          	bnez	a0,20031e8c <_ZN12libtock_core10lang_items5start17hb50763bc14d3431aE+0x7c6>
20031a46:	f4042503          	lw	a0,-192(s0)
20031a4a:	e8a42623          	sw	a0,-372(s0)
20031a4e:	4b05                	li	s6,1
20031a50:	e9642423          	sw	s6,-376(s0)
20031a54:	4581                	li	a1,0
20031a56:	866e                	mv	a2,s11
20031a58:	4681                	li	a3,0
20031a5a:	4701                	li	a4,0
20031a5c:	4505                	li	a0,1
20031a5e:	00000073          	ecall
20031a62:	4c8d                	li	s9,3
20031a64:	8aea                	mv	s5,s10
20031a66:	597d                	li	s2,-1
20031a68:	e7c40513          	addi	a0,s0,-388
20031a6c:	e8a42a23          	sw	a0,-364(s0)
20031a70:	4581                	li	a1,0
20031a72:	4601                	li	a2,0
20031a74:	e6042683          	lw	a3,-416(s0)
20031a78:	e9440713          	addi	a4,s0,-364
20031a7c:	4505                	li	a0,1
20031a7e:	00000073          	ecall
20031a82:	40051c63          	bnez	a0,20031e9a <_ZN12libtock_core10lang_items5start17hb50763bc14d3431aE+0x7d4>
20031a86:	1f400513          	li	a0,500
20031a8a:	eaa42423          	sw	a0,-344(s0)
20031a8e:	e9840513          	addi	a0,s0,-360
20031a92:	eaa42223          	sw	a0,-348(s0)
20031a96:	e9442503          	lw	a0,-364(s0)
20031a9a:	eaa42023          	sw	a0,-352(s0)
20031a9e:	ea042623          	sw	zero,-340(s0)
20031aa2:	e8042e23          	sw	zero,-356(s0)
20031aa6:	e8042c23          	sw	zero,-360(s0)
20031aaa:	ea442503          	lw	a0,-348(s0)
20031aae:	eaa42823          	sw	a0,-336(s0)
20031ab2:	ea842483          	lw	s1,-344(s0)
20031ab6:	4581                	li	a1,0
20031ab8:	4609                	li	a2,2
20031aba:	4681                	li	a3,0
20031abc:	4701                	li	a4,0
20031abe:	4509                	li	a0,2
20031ac0:	00000073          	ecall
20031ac4:	02054463          	bltz	a0,20031aec <_ZN12libtock_core10lang_items5start17hb50763bc14d3431aE+0x426>
20031ac8:	00855613          	srli	a2,a0,0x8
20031acc:	85aa                	mv	a1,a0
20031ace:	4501                	li	a0,0
20031ad0:	e7442683          	lw	a3,-396(s0)
20031ad4:	a00d                	j	20031af6 <_ZN12libtock_core10lang_items5start17hb50763bc14d3431aE+0x430>
20031ad6:	3f951d63          	bne	a0,s9,20031ed0 <_ZN12libtock_core10lang_items5start17hb50763bc14d3431aE+0x80a>
20031ada:	ed442503          	lw	a0,-300(s0)
20031ade:	ed840613          	addi	a2,s0,-296
20031ae2:	0aab4a63          	blt	s6,a0,20031b96 <_ZN12libtock_core10lang_items5start17hb50763bc14d3431aE+0x4d0>
20031ae6:	22050c63          	beqz	a0,20031d1e <_ZN12libtock_core10lang_items5start17hb50763bc14d3431aE+0x658>
20031aea:	a6e9                	j	20031eb4 <_ZN12libtock_core10lang_items5start17hb50763bc14d3431aE+0x7ee>
20031aec:	4585                	li	a1,1
20031aee:	e5842603          	lw	a2,-424(s0)
20031af2:	86aa                	mv	a3,a0
20031af4:	4505                	li	a0,1
20031af6:	e6d42a23          	sw	a3,-396(s0)
20031afa:	fad42423          	sw	a3,-88(s0)
20031afe:	4689                	li	a3,2
20031b00:	f8d42e23          	sw	a3,-100(s0)
20031b04:	0ff5f593          	andi	a1,a1,255
20031b08:	0622                	slli	a2,a2,0x8
20031b0a:	00b66833          	or	a6,a2,a1
20031b0e:	fa042223          	sw	zero,-92(s0)
20031b12:	fa042023          	sw	zero,-96(s0)
20031b16:	f8042c23          	sw	zero,-104(s0)
20031b1a:	cd29                	beqz	a0,20031b74 <_ZN12libtock_core10lang_items5start17hb50763bc14d3431aE+0x4ae>
20031b1c:	f5042423          	sw	a6,-184(s0)
20031b20:	fa842503          	lw	a0,-88(s0)
20031b24:	f4c40593          	addi	a1,s0,-180
20031b28:	c988                	sw	a0,16(a1)
20031b2a:	fa442503          	lw	a0,-92(s0)
20031b2e:	c5c8                	sw	a0,12(a1)
20031b30:	fa042503          	lw	a0,-96(s0)
20031b34:	c588                	sw	a0,8(a1)
20031b36:	f9c42503          	lw	a0,-100(s0)
20031b3a:	c1c8                	sw	a0,4(a1)
20031b3c:	f9842503          	lw	a0,-104(s0)
20031b40:	c188                	sw	a0,0(a1)
20031b42:	f4842503          	lw	a0,-184(s0)
20031b46:	faa42823          	sw	a0,-80(s0)
20031b4a:	f4c42503          	lw	a0,-180(s0)
20031b4e:	faa42a23          	sw	a0,-76(s0)
20031b52:	f5042503          	lw	a0,-176(s0)
20031b56:	faa42c23          	sw	a0,-72(s0)
20031b5a:	f5442503          	lw	a0,-172(s0)
20031b5e:	faa42e23          	sw	a0,-68(s0)
20031b62:	f5842503          	lw	a0,-168(s0)
20031b66:	fca42023          	sw	a0,-64(s0)
20031b6a:	f5c42503          	lw	a0,-164(s0)
20031b6e:	fca42223          	sw	a0,-60(s0)
20031b72:	a2b1                	j	20031cbe <_ZN12libtock_core10lang_items5start17hb50763bc14d3431aE+0x5f8>
20031b74:	4785                	li	a5,1
20031b76:	4581                	li	a1,0
20031b78:	4605                	li	a2,1
20031b7a:	4681                	li	a3,0
20031b7c:	4701                	li	a4,0
20031b7e:	4509                	li	a0,2
20031b80:	00000073          	ecall
20031b84:	02054263          	bltz	a0,20031ba8 <_ZN12libtock_core10lang_items5start17hb50763bc14d3431aE+0x4e2>
20031b88:	00855593          	srli	a1,a0,0x8
20031b8c:	87aa                	mv	a5,a0
20031b8e:	e5c42503          	lw	a0,-420(s0)
20031b92:	4601                	li	a2,0
20031b94:	a829                	j	20031bae <_ZN12libtock_core10lang_items5start17hb50763bc14d3431aE+0x4e8>
20031b96:	33951d63          	bne	a0,s9,20031ed0 <_ZN12libtock_core10lang_items5start17hb50763bc14d3431aE+0x80a>
20031b9a:	ee442503          	lw	a0,-284(s0)
20031b9e:	06ab4563          	blt	s6,a0,20031c08 <_ZN12libtock_core10lang_items5start17hb50763bc14d3431aE+0x542>
20031ba2:	18050963          	beqz	a0,20031d34 <_ZN12libtock_core10lang_items5start17hb50763bc14d3431aE+0x66e>
20031ba6:	a639                	j	20031eb4 <_ZN12libtock_core10lang_items5start17hb50763bc14d3431aE+0x7ee>
20031ba8:	e5842583          	lw	a1,-424(s0)
20031bac:	4605                	li	a2,1
20031bae:	faa42423          	sw	a0,-88(s0)
20031bb2:	f9642e23          	sw	s6,-100(s0)
20031bb6:	0ff7f693          	andi	a3,a5,255
20031bba:	05a2                	slli	a1,a1,0x8
20031bbc:	8dd5                	or	a1,a1,a3
20031bbe:	fa042223          	sw	zero,-92(s0)
20031bc2:	fa042023          	sw	zero,-96(s0)
20031bc6:	f8042c23          	sw	zero,-104(s0)
20031bca:	ee49                	bnez	a2,20031c64 <_ZN12libtock_core10lang_items5start17hb50763bc14d3431aE+0x59e>
20031bcc:	02b4b633          	mulhu	a2,s1,a1
20031bd0:	ce11                	beqz	a2,20031bec <_ZN12libtock_core10lang_items5start17hb50763bc14d3431aE+0x526>
20031bd2:	0295fe63          	bgeu	a1,s1,20031c0e <_ZN12libtock_core10lang_items5start17hb50763bc14d3431aE+0x548>
20031bd6:	e6442603          	lw	a2,-412(s0)
20031bda:	02c4b633          	mulhu	a2,s1,a2
20031bde:	8219                	srli	a2,a2,0x6
20031be0:	02b636b3          	mulhu	a3,a2,a1
20031be4:	ee95                	bnez	a3,20031c20 <_ZN12libtock_core10lang_items5start17hb50763bc14d3431aE+0x55a>
20031be6:	02b605b3          	mul	a1,a2,a1
20031bea:	a801                	j	20031bfa <_ZN12libtock_core10lang_items5start17hb50763bc14d3431aE+0x534>
20031bec:	02b485b3          	mul	a1,s1,a1
20031bf0:	e6442603          	lw	a2,-412(s0)
20031bf4:	02c5b5b3          	mulhu	a1,a1,a2
20031bf8:	8199                	srli	a1,a1,0x6
20031bfa:	95c2                	add	a1,a1,a6
20031bfc:	0105da93          	srli	s5,a1,0x10
20031c00:	f005f693          	andi	a3,a1,-256
20031c04:	4601                	li	a2,0
20031c06:	a00d                	j	20031c28 <_ZN12libtock_core10lang_items5start17hb50763bc14d3431aE+0x562>
20031c08:	13950f63          	beq	a0,s9,20031d46 <_ZN12libtock_core10lang_items5start17hb50763bc14d3431aE+0x680>
20031c0c:	a4d1                	j	20031ed0 <_ZN12libtock_core10lang_items5start17hb50763bc14d3431aE+0x80a>
20031c0e:	e6442603          	lw	a2,-412(s0)
20031c12:	02c5b5b3          	mulhu	a1,a1,a2
20031c16:	8199                	srli	a1,a1,0x6
20031c18:	0295b633          	mulhu	a2,a1,s1
20031c1c:	26060563          	beqz	a2,20031e86 <_ZN12libtock_core10lang_items5start17hb50763bc14d3431aE+0x7c0>
20031c20:	4605                	li	a2,1
20031c22:	20000693          	li	a3,512
20031c26:	4591                	li	a1,4
20031c28:	f5842703          	lw	a4,-168(s0)
20031c2c:	fae42423          	sw	a4,-88(s0)
20031c30:	f5442703          	lw	a4,-172(s0)
20031c34:	fae42223          	sw	a4,-92(s0)
20031c38:	f5042703          	lw	a4,-176(s0)
20031c3c:	fae42023          	sw	a4,-96(s0)
20031c40:	f4c42703          	lw	a4,-180(s0)
20031c44:	f8e42e23          	sw	a4,-100(s0)
20031c48:	f4842703          	lw	a4,-184(s0)
20031c4c:	f8e42c23          	sw	a4,-104(s0)
20031c50:	e3042703          	lw	a4,-464(s0)
20031c54:	8ef9                	and	a3,a3,a4
20031c56:	010a9713          	slli	a4,s5,0x10
20031c5a:	8ed9                	or	a3,a3,a4
20031c5c:	0ff5f593          	andi	a1,a1,255
20031c60:	8dd5                	or	a1,a1,a3
20031c62:	c651                	beqz	a2,20031cee <_ZN12libtock_core10lang_items5start17hb50763bc14d3431aE+0x628>
20031c64:	f4b42423          	sw	a1,-184(s0)
20031c68:	fa842583          	lw	a1,-88(s0)
20031c6c:	f4c40613          	addi	a2,s0,-180
20031c70:	ca0c                	sw	a1,16(a2)
20031c72:	fa442583          	lw	a1,-92(s0)
20031c76:	c64c                	sw	a1,12(a2)
20031c78:	fa042583          	lw	a1,-96(s0)
20031c7c:	c60c                	sw	a1,8(a2)
20031c7e:	f9c42583          	lw	a1,-100(s0)
20031c82:	c24c                	sw	a1,4(a2)
20031c84:	f9842583          	lw	a1,-104(s0)
20031c88:	c20c                	sw	a1,0(a2)
20031c8a:	f4842583          	lw	a1,-184(s0)
20031c8e:	fab42823          	sw	a1,-80(s0)
20031c92:	f4c42583          	lw	a1,-180(s0)
20031c96:	fab42a23          	sw	a1,-76(s0)
20031c9a:	f5042583          	lw	a1,-176(s0)
20031c9e:	fab42c23          	sw	a1,-72(s0)
20031ca2:	f5442583          	lw	a1,-172(s0)
20031ca6:	fab42e23          	sw	a1,-68(s0)
20031caa:	f5842583          	lw	a1,-168(s0)
20031cae:	fcb42023          	sw	a1,-64(s0)
20031cb2:	f5c42583          	lw	a1,-164(s0)
20031cb6:	fcb42223          	sw	a1,-60(s0)
20031cba:	e4a42e23          	sw	a0,-420(s0)
20031cbe:	e7042503          	lw	a0,-400(s0)
20031cc2:	00054783          	lbu	a5,0(a0)
20031cc6:	eb642623          	sw	s6,-340(s0)
20031cca:	4519                	li	a0,6
20031ccc:	b0a784e3          	beq	a5,a0,200317d4 <_ZN12libtock_core10lang_items5start17hb50763bc14d3431aE+0x10e>
20031cd0:	e9c42603          	lw	a2,-356(s0)
20031cd4:	e9842583          	lw	a1,-360(s0)
20031cd8:	4681                	li	a3,0
20031cda:	4701                	li	a4,0
20031cdc:	4505                	li	a0,1
20031cde:	00000073          	ecall
20031ce2:	4515                	li	a0,5
20031ce4:	1aa79b63          	bne	a5,a0,20031e9a <_ZN12libtock_core10lang_items5start17hb50763bc14d3431aE+0x7d4>
20031ce8:	e9042803          	lw	a6,-368(s0)
20031cec:	be2d                	j	20031826 <_ZN12libtock_core10lang_items5start17hb50763bc14d3431aE+0x160>
20031cee:	ebc40613          	addi	a2,s0,-324
20031cf2:	ecc42823          	sw	a2,-304(s0)
20031cf6:	eb440613          	addi	a2,s0,-332
20031cfa:	ecc42623          	sw	a2,-308(s0)
20031cfe:	eb040613          	addi	a2,s0,-336
20031d02:	ecc42423          	sw	a2,-312(s0)
20031d06:	ec042a23          	sw	zero,-300(s0)
20031d0a:	ea042e23          	sw	zero,-324(s0)
20031d0e:	eb042c23          	sw	a6,-328(s0)
20031d12:	eab42a23          	sw	a1,-332(s0)
20031d16:	e4a42e23          	sw	a0,-420(s0)
20031d1a:	ed840613          	addi	a2,s0,-296
20031d1e:	ec840513          	addi	a0,s0,-312
20031d22:	85aa                	mv	a1,a0
20031d24:	4508                	lw	a0,8(a0)
20031d26:	c608                	sw	a0,8(a2)
20031d28:	41c8                	lw	a0,4(a1)
20031d2a:	c248                	sw	a0,4(a2)
20031d2c:	4188                	lw	a0,0(a1)
20031d2e:	c208                	sw	a0,0(a2)
20031d30:	ee042223          	sw	zero,-284(s0)
20031d34:	4608                	lw	a0,8(a2)
20031d36:	00a9a423          	sw	a0,8(s3)
20031d3a:	4248                	lw	a0,4(a2)
20031d3c:	00a9a223          	sw	a0,4(s3)
20031d40:	4208                	lw	a0,0(a2)
20031d42:	00a9a023          	sw	a0,0(s3)
20031d46:	eec42503          	lw	a0,-276(s0)
20031d4a:	4144                	lw	s1,4(a0)
20031d4c:	00052c03          	lw	s8,0(a0)
20031d50:	ee842503          	lw	a0,-280(s0)
20031d54:	00052d83          	lw	s11,0(a0)
20031d58:	ef042a03          	lw	s4,-272(s0)
20031d5c:	4581                	li	a1,0
20031d5e:	4609                	li	a2,2
20031d60:	4681                	li	a3,0
20031d62:	4701                	li	a4,0
20031d64:	4509                	li	a0,2
20031d66:	00000073          	ecall
20031d6a:	4b85                	li	s7,1
20031d6c:	08054363          	bltz	a0,20031df2 <_ZN12libtock_core10lang_items5start17hb50763bc14d3431aE+0x72c>
20031d70:	892a                	mv	s2,a0
20031d72:	8cce                	mv	s9,s3
20031d74:	008dad03          	lw	s10,8(s11)
20031d78:	000d2503          	lw	a0,0(s10)
20031d7c:	05651263          	bne	a0,s6,20031dc0 <_ZN12libtock_core10lang_items5start17hb50763bc14d3431aE+0x6fa>
20031d80:	008d2583          	lw	a1,8(s10)
20031d84:	004d2503          	lw	a0,4(s10)
20031d88:	009c6763          	bltu	s8,s1,20031d96 <_ZN12libtock_core10lang_items5start17hb50763bc14d3431aE+0x6d0>
20031d8c:	00b56563          	bltu	a0,a1,20031d96 <_ZN12libtock_core10lang_items5start17hb50763bc14d3431aE+0x6d0>
20031d90:	02ac6163          	bltu	s8,a0,20031db2 <_ZN12libtock_core10lang_items5start17hb50763bc14d3431aE+0x6ec>
20031d94:	a0a1                	j	20031ddc <_ZN12libtock_core10lang_items5start17hb50763bc14d3431aE+0x716>
20031d96:	0184e463          	bltu	s1,s8,20031d9e <_ZN12libtock_core10lang_items5start17hb50763bc14d3431aE+0x6d8>
20031d9a:	04b57163          	bgeu	a0,a1,20031ddc <_ZN12libtock_core10lang_items5start17hb50763bc14d3431aE+0x716>
20031d9e:	009c6463          	bltu	s8,s1,20031da6 <_ZN12libtock_core10lang_items5start17hb50763bc14d3431aE+0x6e0>
20031da2:	00a5f863          	bgeu	a1,a0,20031db2 <_ZN12libtock_core10lang_items5start17hb50763bc14d3431aE+0x6ec>
20031da6:	02ac7b63          	bgeu	s8,a0,20031ddc <_ZN12libtock_core10lang_items5start17hb50763bc14d3431aE+0x716>
20031daa:	0384e963          	bltu	s1,s8,20031ddc <_ZN12libtock_core10lang_items5start17hb50763bc14d3431aE+0x716>
20031dae:	02a5e763          	bltu	a1,a0,20031ddc <_ZN12libtock_core10lang_items5start17hb50763bc14d3431aE+0x716>
20031db2:	00ba2423          	sw	a1,8(s4)
20031db6:	00aa2223          	sw	a0,4(s4)
20031dba:	4b85                	li	s7,1
20031dbc:	017a2023          	sw	s7,0(s4)
20031dc0:	f4840513          	addi	a0,s0,-184
20031dc4:	85ee                	mv	a1,s11
20031dc6:	8662                	mv	a2,s8
20031dc8:	86a6                	mv	a3,s1
20031dca:	fffff097          	auipc	ra,0xfffff
20031dce:	0f0080e7          	jalr	240(ra) # 20030eba <_ZN7libtock5timer19ParallelSleepDriver14activate_timer17h7434761034d8393fE>
20031dd2:	f4844503          	lbu	a0,-184(s0)
20031dd6:	4595                	li	a1,5
20031dd8:	00b51b63          	bne	a0,a1,20031dee <_ZN12libtock_core10lang_items5start17hb50763bc14d3431aE+0x728>
20031ddc:	409c0533          	sub	a0,s8,s1
20031de0:	409905b3          	sub	a1,s2,s1
20031de4:	02a5f463          	bgeu	a1,a0,20031e0c <_ZN12libtock_core10lang_items5start17hb50763bc14d3431aE+0x746>
20031de8:	4b81                	li	s7,0
20031dea:	e6042623          	sw	zero,-404(s0)
20031dee:	89e6                	mv	s3,s9
20031df0:	4c8d                	li	s9,3
20031df2:	e6c42503          	lw	a0,-404(s0)
20031df6:	0ff57613          	andi	a2,a0,255
20031dfa:	450d                	li	a0,3
20031dfc:	458d                	li	a1,3
20031dfe:	c211                	beqz	a2,20031e02 <_ZN12libtock_core10lang_items5start17hb50763bc14d3431aE+0x73c>
20031e00:	4585                	li	a1,1
20031e02:	597d                	li	s2,-1
20031e04:	9c0b92e3          	bnez	s7,200317c8 <_ZN12libtock_core10lang_items5start17hb50763bc14d3431aE+0x102>
20031e08:	852e                	mv	a0,a1
20031e0a:	ba7d                	j	200317c8 <_ZN12libtock_core10lang_items5start17hb50763bc14d3431aE+0x102>
20031e0c:	000a2503          	lw	a0,0(s4)
20031e10:	05651263          	bne	a0,s6,20031e54 <_ZN12libtock_core10lang_items5start17hb50763bc14d3431aE+0x78e>
20031e14:	004a2603          	lw	a2,4(s4)
20031e18:	008a2683          	lw	a3,8(s4)
20031e1c:	f4840513          	addi	a0,s0,-184
20031e20:	85ee                	mv	a1,s11
20031e22:	fffff097          	auipc	ra,0xfffff
20031e26:	098080e7          	jalr	152(ra) # 20030eba <_ZN7libtock5timer19ParallelSleepDriver14activate_timer17h7434761034d8393fE>
20031e2a:	f4a44503          	lbu	a0,-182(s0)
20031e2e:	0522                	slli	a0,a0,0x8
20031e30:	f4944583          	lbu	a1,-183(s0)
20031e34:	8d4d                	or	a0,a0,a1
20031e36:	f4b40583          	lb	a1,-181(s0)
20031e3a:	05c2                	slli	a1,a1,0x10
20031e3c:	8d4d                	or	a0,a0,a1
20031e3e:	e4a42c23          	sw	a0,-424(s0)
20031e42:	f4844503          	lbu	a0,-184(s0)
20031e46:	4b85                	li	s7,1
20031e48:	89e6                	mv	s3,s9
20031e4a:	4595                	li	a1,5
20031e4c:	4c8d                	li	s9,3
20031e4e:	fab512e3          	bne	a0,a1,20031df2 <_ZN12libtock_core10lang_items5start17hb50763bc14d3431aE+0x72c>
20031e52:	a029                	j	20031e5c <_ZN12libtock_core10lang_items5start17hb50763bc14d3431aE+0x796>
20031e54:	000d2023          	sw	zero,0(s10)
20031e58:	89e6                	mv	s3,s9
20031e5a:	4c8d                	li	s9,3
20031e5c:	4585                	li	a1,1
20031e5e:	4505                	li	a0,1
20031e60:	e6a42623          	sw	a0,-404(s0)
20031e64:	eeb42223          	sw	a1,-284(s0)
20031e68:	00000463          	beqz	zero,20031e70 <_ZN12libtock_core10lang_items5start17hb50763bc14d3431aE+0x7aa>
20031e6c:	597d                	li	s2,-1
20031e6e:	bab9                	j	200317cc <_ZN12libtock_core10lang_items5start17hb50763bc14d3431aE+0x106>
20031e70:	4795                	li	a5,5
20031e72:	4585                	li	a1,1
20031e74:	eab42623          	sw	a1,-340(s0)
20031e78:	4505                	li	a0,1
20031e7a:	e6a42623          	sw	a0,-404(s0)
20031e7e:	ecb42a23          	sw	a1,-300(s0)
20031e82:	597d                	li	s2,-1
20031e84:	b5b1                	j	20031cd0 <_ZN12libtock_core10lang_items5start17hb50763bc14d3431aE+0x60a>
20031e86:	029585b3          	mul	a1,a1,s1
20031e8a:	bb85                	j	20031bfa <_ZN12libtock_core10lang_items5start17hb50763bc14d3431aE+0x534>
20031e8c:	4581                	li	a1,0
20031e8e:	866e                	mv	a2,s11
20031e90:	4681                	li	a3,0
20031e92:	4701                	li	a4,0
20031e94:	4505                	li	a0,1
20031e96:	00000073          	ecall
20031e9a:	4505                	li	a0,1
20031e9c:	e6a42c23          	sw	a0,-392(s0)
20031ea0:	45a1                	li	a1,8
20031ea2:	4605                	li	a2,1
20031ea4:	4685                	li	a3,1
20031ea6:	4509                	li	a0,2
20031ea8:	00000073          	ecall
20031eac:	4501                	li	a0,0
20031eae:	00000073          	ecall
20031eb2:	bfed                	j	20031eac <_ZN12libtock_core10lang_items5start17hb50763bc14d3431aE+0x7e6>
20031eb4:	20033537          	lui	a0,0x20033
20031eb8:	d9050513          	addi	a0,a0,-624 # 20032d90 <str.1>
20031ebc:	02300593          	li	a1,35
20031ec0:	ffffe097          	auipc	ra,0xffffe
20031ec4:	232080e7          	jalr	562(ra) # 200300f2 <_ZN4core9panicking5panic17hb8fdc2117f3885d0E>
20031ec8:	ffffe097          	auipc	ra,0xffffe
20031ecc:	218080e7          	jalr	536(ra) # 200300e0 <abort>
20031ed0:	20033537          	lui	a0,0x20033
20031ed4:	d6050513          	addi	a0,a0,-672 # 20032d60 <str.0>
20031ed8:	02200593          	li	a1,34
20031edc:	ffffe097          	auipc	ra,0xffffe
20031ee0:	216080e7          	jalr	534(ra) # 200300f2 <_ZN4core9panicking5panic17hb8fdc2117f3885d0E>
20031ee4:	ffffe097          	auipc	ra,0xffffe
20031ee8:	1fc080e7          	jalr	508(ra) # 200300e0 <abort>
20031eec:	20033537          	lui	a0,0x20033
20031ef0:	12750513          	addi	a0,a0,295 # 20033127 <.L__unnamed_10>
20031ef4:	03d00593          	li	a1,61
20031ef8:	ffffe097          	auipc	ra,0xffffe
20031efc:	1fa080e7          	jalr	506(ra) # 200300f2 <_ZN4core9panicking5panic17hb8fdc2117f3885d0E>
20031f00:	ffffe097          	auipc	ra,0xffffe
20031f04:	1e0080e7          	jalr	480(ra) # 200300e0 <abort>

20031f08 <_ZN42_$LT$$RF$T$u20$as$u20$core..fmt..Debug$GT$3fmt17h24600c4b31d73cbcE>:
20031f08:	7175                	addi	sp,sp,-144
20031f0a:	c706                	sw	ra,140(sp)
20031f0c:	c522                	sw	s0,136(sp)
20031f0e:	0900                	addi	s0,sp,144
20031f10:	882e                	mv	a6,a1
20031f12:	4190                	lw	a2,0(a1)
20031f14:	01067593          	andi	a1,a2,16
20031f18:	e595                	bnez	a1,20031f44 <_ZN42_$LT$$RF$T$u20$as$u20$core..fmt..Debug$GT$3fmt17h24600c4b31d73cbcE+0x3c>
20031f1a:	410c                	lw	a1,0(a0)
20031f1c:	02067513          	andi	a0,a2,32
20031f20:	e535                	bnez	a0,20031f8c <_ZN42_$LT$$RF$T$u20$as$u20$core..fmt..Debug$GT$3fmt17h24600c4b31d73cbcE+0x84>
20031f22:	41f5d513          	srai	a0,a1,0x1f
20031f26:	00a58633          	add	a2,a1,a0
20031f2a:	8d31                	xor	a0,a0,a2
20031f2c:	fff5c593          	not	a1,a1
20031f30:	81fd                	srli	a1,a1,0x1f
20031f32:	8642                	mv	a2,a6
20031f34:	ffffe097          	auipc	ra,0xffffe
20031f38:	20e080e7          	jalr	526(ra) # 20030142 <_ZN4core3fmt3num3imp7fmt_u3217h72fff5c80df0334fE>
20031f3c:	442a                	lw	s0,136(sp)
20031f3e:	40ba                	lw	ra,140(sp)
20031f40:	6149                	addi	sp,sp,144
20031f42:	8082                	ret
20031f44:	4108                	lw	a0,0(a0)
20031f46:	4729                	li	a4,10
20031f48:	f7840613          	addi	a2,s0,-136
20031f4c:	4581                	li	a1,0
20031f4e:	00f57793          	andi	a5,a0,15
20031f52:	00e7ef63          	bltu	a5,a4,20031f70 <_ZN42_$LT$$RF$T$u20$as$u20$core..fmt..Debug$GT$3fmt17h24600c4b31d73cbcE+0x68>
20031f56:	05778793          	addi	a5,a5,87
20031f5a:	00b606b3          	add	a3,a2,a1
20031f5e:	06f68fa3          	sb	a5,127(a3) # 408f407f <_etext+0x208c0f1b>
20031f62:	15fd                	addi	a1,a1,-1
20031f64:	8111                	srli	a0,a0,0x4
20031f66:	c901                	beqz	a0,20031f76 <_ZN42_$LT$$RF$T$u20$as$u20$core..fmt..Debug$GT$3fmt17h24600c4b31d73cbcE+0x6e>
20031f68:	00f57793          	andi	a5,a0,15
20031f6c:	fee7f5e3          	bgeu	a5,a4,20031f56 <_ZN42_$LT$$RF$T$u20$as$u20$core..fmt..Debug$GT$3fmt17h24600c4b31d73cbcE+0x4e>
20031f70:	0307e793          	ori	a5,a5,48
20031f74:	b7dd                	j	20031f5a <_ZN42_$LT$$RF$T$u20$as$u20$core..fmt..Debug$GT$3fmt17h24600c4b31d73cbcE+0x52>
20031f76:	08058513          	addi	a0,a1,128
20031f7a:	08100693          	li	a3,129
20031f7e:	06d57a63          	bgeu	a0,a3,20031ff2 <_ZN42_$LT$$RF$T$u20$as$u20$core..fmt..Debug$GT$3fmt17h24600c4b31d73cbcE+0xea>
20031f82:	00b60533          	add	a0,a2,a1
20031f86:	40b007b3          	neg	a5,a1
20031f8a:	a099                	j	20031fd0 <_ZN42_$LT$$RF$T$u20$as$u20$core..fmt..Debug$GT$3fmt17h24600c4b31d73cbcE+0xc8>
20031f8c:	4529                	li	a0,10
20031f8e:	f7840713          	addi	a4,s0,-136
20031f92:	4601                	li	a2,0
20031f94:	00f5f793          	andi	a5,a1,15
20031f98:	00a7ef63          	bltu	a5,a0,20031fb6 <_ZN42_$LT$$RF$T$u20$as$u20$core..fmt..Debug$GT$3fmt17h24600c4b31d73cbcE+0xae>
20031f9c:	03778793          	addi	a5,a5,55
20031fa0:	00c706b3          	add	a3,a4,a2
20031fa4:	06f68fa3          	sb	a5,127(a3)
20031fa8:	167d                	addi	a2,a2,-1
20031faa:	8191                	srli	a1,a1,0x4
20031fac:	c981                	beqz	a1,20031fbc <_ZN42_$LT$$RF$T$u20$as$u20$core..fmt..Debug$GT$3fmt17h24600c4b31d73cbcE+0xb4>
20031fae:	00f5f793          	andi	a5,a1,15
20031fb2:	fea7f5e3          	bgeu	a5,a0,20031f9c <_ZN42_$LT$$RF$T$u20$as$u20$core..fmt..Debug$GT$3fmt17h24600c4b31d73cbcE+0x94>
20031fb6:	0307e793          	ori	a5,a5,48
20031fba:	b7dd                	j	20031fa0 <_ZN42_$LT$$RF$T$u20$as$u20$core..fmt..Debug$GT$3fmt17h24600c4b31d73cbcE+0x98>
20031fbc:	08060513          	addi	a0,a2,128
20031fc0:	08100593          	li	a1,129
20031fc4:	02b57763          	bgeu	a0,a1,20031ff2 <_ZN42_$LT$$RF$T$u20$as$u20$core..fmt..Debug$GT$3fmt17h24600c4b31d73cbcE+0xea>
20031fc8:	00c70533          	add	a0,a4,a2
20031fcc:	40c007b3          	neg	a5,a2
20031fd0:	08050713          	addi	a4,a0,128
20031fd4:	20033537          	lui	a0,0x20033
20031fd8:	ea650613          	addi	a2,a0,-346 # 20032ea6 <.Lanon.2c6bb00a6eab53dbfca994608b168c3b.201>
20031fdc:	8542                	mv	a0,a6
20031fde:	4585                	li	a1,1
20031fe0:	4689                	li	a3,2
20031fe2:	ffffe097          	auipc	ra,0xffffe
20031fe6:	2da080e7          	jalr	730(ra) # 200302bc <_ZN4core3fmt9Formatter12pad_integral17h4560b69444f06327E>
20031fea:	442a                	lw	s0,136(sp)
20031fec:	40ba                	lw	ra,140(sp)
20031fee:	6149                	addi	sp,sp,144
20031ff0:	8082                	ret
20031ff2:	08000593          	li	a1,128
20031ff6:	ffffe097          	auipc	ra,0xffffe
20031ffa:	562080e7          	jalr	1378(ra) # 20030558 <_ZN4core5slice20slice_index_len_fail17hcd616a912ad4f7b9E>
20031ffe:	ffffe097          	auipc	ra,0xffffe
20032002:	0e2080e7          	jalr	226(ra) # 200300e0 <abort>

20032006 <_ZN12libtock_core8syscalls9subscribe10c_callback17h4b0c0b23ed8c9dbbE>:
20032006:	1141                	addi	sp,sp,-16
20032008:	c606                	sw	ra,12(sp)
2003200a:	c422                	sw	s0,8(sp)
2003200c:	0800                	addi	s0,sp,16
2003200e:	4422                	lw	s0,8(sp)
20032010:	40b2                	lw	ra,12(sp)
20032012:	0141                	addi	sp,sp,16
20032014:	8082                	ret

20032016 <memcpy>:
20032016:	1141                	addi	sp,sp,-16
20032018:	c606                	sw	ra,12(sp)
2003201a:	c422                	sw	s0,8(sp)
2003201c:	0800                	addi	s0,sp,16
2003201e:	ca11                	beqz	a2,20032032 <memcpy+0x1c>
20032020:	86aa                	mv	a3,a0
20032022:	00058703          	lb	a4,0(a1)
20032026:	00e68023          	sb	a4,0(a3)
2003202a:	0685                	addi	a3,a3,1
2003202c:	0585                	addi	a1,a1,1
2003202e:	167d                	addi	a2,a2,-1
20032030:	fa6d                	bnez	a2,20032022 <memcpy+0xc>
20032032:	4422                	lw	s0,8(sp)
20032034:	40b2                	lw	ra,12(sp)
20032036:	0141                	addi	sp,sp,16
20032038:	8082                	ret

2003203a <memset>:
2003203a:	1141                	addi	sp,sp,-16
2003203c:	c606                	sw	ra,12(sp)
2003203e:	c422                	sw	s0,8(sp)
20032040:	0800                	addi	s0,sp,16
20032042:	c619                	beqz	a2,20032050 <memset+0x16>
20032044:	86aa                	mv	a3,a0
20032046:	00b68023          	sb	a1,0(a3)
2003204a:	0685                	addi	a3,a3,1
2003204c:	167d                	addi	a2,a2,-1
2003204e:	fe65                	bnez	a2,20032046 <memset+0xc>
20032050:	4422                	lw	s0,8(sp)
20032052:	40b2                	lw	ra,12(sp)
20032054:	0141                	addi	sp,sp,16
20032056:	8082                	ret

20032058 <bcmp>:
20032058:	1141                	addi	sp,sp,-16
2003205a:	c606                	sw	ra,12(sp)
2003205c:	c422                	sw	s0,8(sp)
2003205e:	0800                	addi	s0,sp,16
20032060:	ca19                	beqz	a2,20032076 <bcmp+0x1e>
20032062:	0005c683          	lbu	a3,0(a1)
20032066:	00054703          	lbu	a4,0(a0)
2003206a:	00d71863          	bne	a4,a3,2003207a <bcmp+0x22>
2003206e:	0505                	addi	a0,a0,1
20032070:	0585                	addi	a1,a1,1
20032072:	167d                	addi	a2,a2,-1
20032074:	f67d                	bnez	a2,20032062 <bcmp+0xa>
20032076:	4501                	li	a0,0
20032078:	a019                	j	2003207e <bcmp+0x26>
2003207a:	40d70533          	sub	a0,a4,a3
2003207e:	4422                	lw	s0,8(sp)
20032080:	40b2                	lw	ra,12(sp)
20032082:	0141                	addi	sp,sp,16
20032084:	8082                	ret

20032086 <__floatsidf>:
20032086:	1141                	addi	sp,sp,-16
20032088:	c606                	sw	ra,12(sp)
2003208a:	c422                	sw	s0,8(sp)
2003208c:	0800                	addi	s0,sp,16
2003208e:	c93d                	beqz	a0,20032104 <__floatsidf+0x7e>
20032090:	41f55593          	srai	a1,a0,0x1f
20032094:	00b50633          	add	a2,a0,a1
20032098:	8db1                	xor	a1,a1,a2
2003209a:	0015d813          	srli	a6,a1,0x1
2003209e:	c5b5                	beqz	a1,2003210a <__floatsidf+0x84>
200320a0:	0105e633          	or	a2,a1,a6
200320a4:	00265693          	srli	a3,a2,0x2
200320a8:	8e55                	or	a2,a2,a3
200320aa:	00465693          	srli	a3,a2,0x4
200320ae:	8e55                	or	a2,a2,a3
200320b0:	00865693          	srli	a3,a2,0x8
200320b4:	8e55                	or	a2,a2,a3
200320b6:	01065693          	srli	a3,a2,0x10
200320ba:	8e55                	or	a2,a2,a3
200320bc:	555556b7          	lui	a3,0x55555
200320c0:	55568693          	addi	a3,a3,1365 # 55555555 <_etext+0x355223f1>
200320c4:	fff64613          	not	a2,a2
200320c8:	00165713          	srli	a4,a2,0x1
200320cc:	8ef9                	and	a3,a3,a4
200320ce:	8e15                	sub	a2,a2,a3
200320d0:	333336b7          	lui	a3,0x33333
200320d4:	33368693          	addi	a3,a3,819 # 33333333 <_etext+0x133001cf>
200320d8:	00d67733          	and	a4,a2,a3
200320dc:	8209                	srli	a2,a2,0x2
200320de:	8e75                	and	a2,a2,a3
200320e0:	963a                	add	a2,a2,a4
200320e2:	00465693          	srli	a3,a2,0x4
200320e6:	9636                	add	a2,a2,a3
200320e8:	0f0f16b7          	lui	a3,0xf0f1
200320ec:	f0f68693          	addi	a3,a3,-241 # f0f0f0f <.Lline_table_start0+0xf0edbcd>
200320f0:	8e75                	and	a2,a2,a3
200320f2:	010106b7          	lui	a3,0x1010
200320f6:	10168693          	addi	a3,a3,257 # 1010101 <.Lline_table_start0+0x100cdbf>
200320fa:	02d60633          	mul	a2,a2,a3
200320fe:	01865693          	srli	a3,a2,0x18
20032102:	a031                	j	2003210e <__floatsidf+0x88>
20032104:	4601                	li	a2,0
20032106:	4581                	li	a1,0
20032108:	a091                	j	2003214c <__floatsidf+0xc6>
2003210a:	02000693          	li	a3,32
2003210e:	01568793          	addi	a5,a3,21
20032112:	03f7f713          	andi	a4,a5,63
20032116:	fe070613          	addi	a2,a4,-32
2003211a:	00064663          	bltz	a2,20032126 <__floatsidf+0xa0>
2003211e:	00c59733          	sll	a4,a1,a2
20032122:	4601                	li	a2,0
20032124:	a039                	j	20032132 <__floatsidf+0xac>
20032126:	467d                	li	a2,31
20032128:	8e19                	sub	a2,a2,a4
2003212a:	00c85733          	srl	a4,a6,a2
2003212e:	00f59633          	sll	a2,a1,a5
20032132:	800005b7          	lui	a1,0x80000
20032136:	8d6d                	and	a0,a0,a1
20032138:	41e00593          	li	a1,1054
2003213c:	8d95                	sub	a1,a1,a3
2003213e:	05d2                	slli	a1,a1,0x14
20032140:	8d4d                	or	a0,a0,a1
20032142:	001005b7          	lui	a1,0x100
20032146:	15fd                	addi	a1,a1,-1
20032148:	8df9                	and	a1,a1,a4
2003214a:	8dc9                	or	a1,a1,a0
2003214c:	8532                	mv	a0,a2
2003214e:	4422                	lw	s0,8(sp)
20032150:	40b2                	lw	ra,12(sp)
20032152:	0141                	addi	sp,sp,16
20032154:	8082                	ret

20032156 <__floatunsidf>:
20032156:	1141                	addi	sp,sp,-16
20032158:	c606                	sw	ra,12(sp)
2003215a:	c422                	sw	s0,8(sp)
2003215c:	0800                	addi	s0,sp,16
2003215e:	c52d                	beqz	a0,200321c8 <__floatunsidf+0x72>
20032160:	00155593          	srli	a1,a0,0x1
20032164:	c52d                	beqz	a0,200321ce <__floatunsidf+0x78>
20032166:	00b56633          	or	a2,a0,a1
2003216a:	00265693          	srli	a3,a2,0x2
2003216e:	8e55                	or	a2,a2,a3
20032170:	00465693          	srli	a3,a2,0x4
20032174:	8e55                	or	a2,a2,a3
20032176:	00865693          	srli	a3,a2,0x8
2003217a:	8e55                	or	a2,a2,a3
2003217c:	01065693          	srli	a3,a2,0x10
20032180:	8e55                	or	a2,a2,a3
20032182:	555556b7          	lui	a3,0x55555
20032186:	55568693          	addi	a3,a3,1365 # 55555555 <_etext+0x355223f1>
2003218a:	fff64613          	not	a2,a2
2003218e:	00165713          	srli	a4,a2,0x1
20032192:	8ef9                	and	a3,a3,a4
20032194:	8e15                	sub	a2,a2,a3
20032196:	333336b7          	lui	a3,0x33333
2003219a:	33368693          	addi	a3,a3,819 # 33333333 <_etext+0x133001cf>
2003219e:	00d67733          	and	a4,a2,a3
200321a2:	8209                	srli	a2,a2,0x2
200321a4:	8e75                	and	a2,a2,a3
200321a6:	963a                	add	a2,a2,a4
200321a8:	00465693          	srli	a3,a2,0x4
200321ac:	9636                	add	a2,a2,a3
200321ae:	0f0f16b7          	lui	a3,0xf0f1
200321b2:	f0f68693          	addi	a3,a3,-241 # f0f0f0f <.Lline_table_start0+0xf0edbcd>
200321b6:	8e75                	and	a2,a2,a3
200321b8:	010106b7          	lui	a3,0x1010
200321bc:	10168693          	addi	a3,a3,257 # 1010101 <.Lline_table_start0+0x100cdbf>
200321c0:	02d60633          	mul	a2,a2,a3
200321c4:	8261                	srli	a2,a2,0x18
200321c6:	a031                	j	200321d2 <__floatunsidf+0x7c>
200321c8:	4501                	li	a0,0
200321ca:	4581                	li	a1,0
200321cc:	a081                	j	2003220c <__floatunsidf+0xb6>
200321ce:	02000613          	li	a2,32
200321d2:	01560693          	addi	a3,a2,21
200321d6:	03f6f713          	andi	a4,a3,63
200321da:	fe070793          	addi	a5,a4,-32
200321de:	0007c663          	bltz	a5,200321ea <__floatunsidf+0x94>
200321e2:	00f515b3          	sll	a1,a0,a5
200321e6:	4501                	li	a0,0
200321e8:	a801                	j	200321f8 <__floatunsidf+0xa2>
200321ea:	47fd                	li	a5,31
200321ec:	40e78733          	sub	a4,a5,a4
200321f0:	00e5d5b3          	srl	a1,a1,a4
200321f4:	00d51533          	sll	a0,a0,a3
200321f8:	001006b7          	lui	a3,0x100
200321fc:	16fd                	addi	a3,a3,-1
200321fe:	8df5                	and	a1,a1,a3
20032200:	41e00693          	li	a3,1054
20032204:	40c68633          	sub	a2,a3,a2
20032208:	0652                	slli	a2,a2,0x14
2003220a:	8dd1                	or	a1,a1,a2
2003220c:	4422                	lw	s0,8(sp)
2003220e:	40b2                	lw	ra,12(sp)
20032210:	0141                	addi	sp,sp,16
20032212:	8082                	ret

20032214 <__fixunsdfsi>:
20032214:	1141                	addi	sp,sp,-16
20032216:	c606                	sw	ra,12(sp)
20032218:	c422                	sw	s0,8(sp)
2003221a:	0800                	addi	s0,sp,16
2003221c:	4601                	li	a2,0
2003221e:	0145d693          	srli	a3,a1,0x14
20032222:	7ff6f713          	andi	a4,a3,2047
20032226:	3ff00793          	li	a5,1023
2003222a:	00f76d63          	bltu	a4,a5,20032244 <__fixunsdfsi+0x30>
2003222e:	0005cb63          	bltz	a1,20032244 <__fixunsdfsi+0x30>
20032232:	c0170613          	addi	a2,a4,-1023
20032236:	487d                	li	a6,31
20032238:	00c87b63          	bgeu	a6,a2,2003224e <__fixunsdfsi+0x3a>
2003223c:	41f5d513          	srai	a0,a1,0x1f
20032240:	fff54613          	not	a2,a0
20032244:	8532                	mv	a0,a2
20032246:	4422                	lw	s0,8(sp)
20032248:	40b2                	lw	ra,12(sp)
2003224a:	0141                	addi	sp,sp,16
2003224c:	8082                	ret
2003224e:	00100637          	lui	a2,0x100
20032252:	167d                	addi	a2,a2,-1
20032254:	fff50793          	addi	a5,a0,-1
20032258:	00a7b533          	sltu	a0,a5,a0
2003225c:	00c5f733          	and	a4,a1,a2
20032260:	953a                	add	a0,a0,a4
20032262:	00178713          	addi	a4,a5,1
20032266:	00f737b3          	sltu	a5,a4,a5
2003226a:	953e                	add	a0,a0,a5
2003226c:	9532                	add	a0,a0,a2
2003226e:	03300613          	li	a2,51
20032272:	40d606b3          	sub	a3,a2,a3
20032276:	03f6f793          	andi	a5,a3,63
2003227a:	fe078613          	addi	a2,a5,-32
2003227e:	00064863          	bltz	a2,2003228e <__fixunsdfsi+0x7a>
20032282:	00c55533          	srl	a0,a0,a2
20032286:	567d                	li	a2,-1
20032288:	fab64fe3          	blt	a2,a1,20032246 <__fixunsdfsi+0x32>
2003228c:	a821                	j	200322a4 <__fixunsdfsi+0x90>
2003228e:	00d75633          	srl	a2,a4,a3
20032292:	40f806b3          	sub	a3,a6,a5
20032296:	0506                	slli	a0,a0,0x1
20032298:	00d51533          	sll	a0,a0,a3
2003229c:	8d51                	or	a0,a0,a2
2003229e:	567d                	li	a2,-1
200322a0:	fab643e3          	blt	a2,a1,20032246 <__fixunsdfsi+0x32>
200322a4:	40a00533          	neg	a0,a0
200322a8:	bf79                	j	20032246 <__fixunsdfsi+0x32>

200322aa <__divdf3>:
200322aa:	711d                	addi	sp,sp,-96
200322ac:	ce86                	sw	ra,92(sp)
200322ae:	cca2                	sw	s0,88(sp)
200322b0:	caa6                	sw	s1,84(sp)
200322b2:	c8ca                	sw	s2,80(sp)
200322b4:	c6ce                	sw	s3,76(sp)
200322b6:	c4d2                	sw	s4,72(sp)
200322b8:	c2d6                	sw	s5,68(sp)
200322ba:	c0da                	sw	s6,64(sp)
200322bc:	de5e                	sw	s7,60(sp)
200322be:	dc62                	sw	s8,56(sp)
200322c0:	da66                	sw	s9,52(sp)
200322c2:	d86a                	sw	s10,48(sp)
200322c4:	1080                	addi	s0,sp,96
200322c6:	8aaa                	mv	s5,a0
200322c8:	0145d513          	srli	a0,a1,0x14
200322cc:	7ff57d13          	andi	s10,a0,2047
200322d0:	fffd0513          	addi	a0,s10,-1
200322d4:	01a56763          	bltu	a0,s10,200322e2 <__divdf3+0x38>
200322d8:	01a53533          	sltu	a0,a0,s10
200322dc:	00154513          	xori	a0,a0,1
200322e0:	a029                	j	200322ea <__divdf3+0x40>
200322e2:	7fd00713          	li	a4,2045
200322e6:	00a73533          	sltu	a0,a4,a0
200322ea:	80000737          	lui	a4,0x80000
200322ee:	fff70793          	addi	a5,a4,-1 # 7fffffff <_etext+0x5ffcce9b>
200322f2:	4705                	li	a4,1
200322f4:	973e                	add	a4,a4,a5
200322f6:	00b6c4b3          	xor	s1,a3,a1
200322fa:	00e4f933          	and	s2,s1,a4
200322fe:	59fd                	li	s3,-1
20032300:	00100737          	lui	a4,0x100
20032304:	fff70a13          	addi	s4,a4,-1 # fffff <.Lline_table_start0+0xfccbd>
20032308:	0145f2b3          	and	t0,a1,s4
2003230c:	0146f8b3          	and	a7,a3,s4
20032310:	0146d713          	srli	a4,a3,0x14
20032314:	7ff77b13          	andi	s6,a4,2047
20032318:	18051c63          	bnez	a0,200324b0 <__divdf3+0x206>
2003231c:	fffb0513          	addi	a0,s6,-1 # 10ffff <.Lline_table_start0+0x10ccbd>
20032320:	01653733          	sltu	a4,a0,s6
20032324:	177d                	addi	a4,a4,-1
20032326:	18070163          	beqz	a4,200324a8 <__divdf3+0x1fe>
2003232a:	4501                	li	a0,0
2003232c:	18050263          	beqz	a0,200324b0 <__divdf3+0x206>
20032330:	4b81                	li	s7,0
20032332:	00229513          	slli	a0,t0,0x2
20032336:	01ead593          	srli	a1,s5,0x1e
2003233a:	8d4d                	or	a0,a0,a1
2003233c:	00198593          	addi	a1,s3,1
20032340:	0135b6b3          	sltu	a3,a1,s3
20032344:	96d2                	add	a3,a3,s4
20032346:	00d8ecb3          	or	s9,a7,a3
2003234a:	00b66c33          	or	s8,a2,a1
2003234e:	015c5593          	srli	a1,s8,0x15
20032352:	00bc9693          	slli	a3,s9,0xb
20032356:	8dd5                	or	a1,a1,a3
20032358:	004006b7          	lui	a3,0x400
2003235c:	8ec9                	or	a3,a3,a0
2003235e:	002a9513          	slli	a0,s5,0x2
20032362:	faa42023          	sw	a0,-96(s0)
20032366:	7504f537          	lui	a0,0x7504f
2003236a:	33350513          	addi	a0,a0,819 # 7504f333 <_etext+0x5501c1cf>
2003236e:	40b50733          	sub	a4,a0,a1
20032372:	80000537          	lui	a0,0x80000
20032376:	02e5b4b3          	mulhu	s1,a1,a4
2003237a:	800007b7          	lui	a5,0x80000
2003237e:	00a48463          	beq	s1,a0,20032386 <__divdf3+0xdc>
20032382:	409007b3          	neg	a5,s1
20032386:	02e784b3          	mul	s1,a5,a4
2003238a:	02e7b733          	mulhu	a4,a5,a4
2003238e:	fad42223          	sw	a3,-92(s0)
20032392:	00171693          	slli	a3,a4,0x1
20032396:	01f4d713          	srli	a4,s1,0x1f
2003239a:	8ed9                	or	a3,a3,a4
2003239c:	02b6b7b3          	mulhu	a5,a3,a1
200323a0:	80000737          	lui	a4,0x80000
200323a4:	00a78463          	beq	a5,a0,200323ac <__divdf3+0x102>
200323a8:	40f00733          	neg	a4,a5
200323ac:	02e687b3          	mul	a5,a3,a4
200323b0:	02e6b6b3          	mulhu	a3,a3,a4
200323b4:	0686                	slli	a3,a3,0x1
200323b6:	01f7d713          	srli	a4,a5,0x1f
200323ba:	8ed9                	or	a3,a3,a4
200323bc:	02b6b7b3          	mulhu	a5,a3,a1
200323c0:	80000737          	lui	a4,0x80000
200323c4:	00a78463          	beq	a5,a0,200323cc <__divdf3+0x122>
200323c8:	40f00733          	neg	a4,a5
200323cc:	02e687b3          	mul	a5,a3,a4
200323d0:	02e6b6b3          	mulhu	a3,a3,a4
200323d4:	0686                	slli	a3,a3,0x1
200323d6:	01f7d713          	srli	a4,a5,0x1f
200323da:	8ed9                	or	a3,a3,a4
200323dc:	00b61713          	slli	a4,a2,0xb
200323e0:	fff68613          	addi	a2,a3,-1 # 3fffff <.Lline_table_start0+0x3fccbd>
200323e4:	02e63733          	mulhu	a4,a2,a4
200323e8:	02c586b3          	mul	a3,a1,a2
200323ec:	96ba                	add	a3,a3,a4
200323ee:	00e6b733          	sltu	a4,a3,a4
200323f2:	02c5b5b3          	mulhu	a1,a1,a2
200323f6:	972e                	add	a4,a4,a1
200323f8:	00a745b3          	xor	a1,a4,a0
200323fc:	00b6e7b3          	or	a5,a3,a1
20032400:	4581                	li	a1,0
20032402:	cb81                	beqz	a5,20032412 <__divdf3+0x168>
20032404:	00d03533          	snez	a0,a3
20032408:	953a                	add	a0,a0,a4
2003240a:	40a00533          	neg	a0,a0
2003240e:	40d005b3          	neg	a1,a3
20032412:	02c536b3          	mulhu	a3,a0,a2
20032416:	02c50533          	mul	a0,a0,a2
2003241a:	02c5b5b3          	mulhu	a1,a1,a2
2003241e:	95aa                	add	a1,a1,a0
20032420:	00a5b533          	sltu	a0,a1,a0
20032424:	9536                	add	a0,a0,a3
20032426:	ffe58613          	addi	a2,a1,-2 # ffffe <.Lline_table_start0+0xfccbc>
2003242a:	00b635b3          	sltu	a1,a2,a1
2003242e:	952e                	add	a0,a0,a1
20032430:	fac42823          	sw	a2,-80(s0)
20032434:	157d                	addi	a0,a0,-1
20032436:	faa42a23          	sw	a0,-76(s0)
2003243a:	fa042623          	sw	zero,-84(s0)
2003243e:	fa042423          	sw	zero,-88(s0)
20032442:	fa042e23          	sw	zero,-68(s0)
20032446:	fa042c23          	sw	zero,-72(s0)
2003244a:	fc040513          	addi	a0,s0,-64
2003244e:	fb040593          	addi	a1,s0,-80
20032452:	fa040613          	addi	a2,s0,-96
20032456:	00001097          	auipc	ra,0x1
2003245a:	85e080e7          	jalr	-1954(ra) # 20032cb4 <__multi3>
2003245e:	4655                	li	a2,21
20032460:	fcc42703          	lw	a4,-52(s0)
20032464:	01575693          	srli	a3,a4,0x15
20032468:	c291                	beqz	a3,2003246c <__divdf3+0x1c2>
2003246a:	4651                	li	a2,20
2003246c:	416d05b3          	sub	a1,s10,s6
20032470:	853a                	mv	a0,a4
20032472:	c299                	beqz	a3,20032478 <__divdf3+0x1ce>
20032474:	00175513          	srli	a0,a4,0x1
20032478:	00bb87b3          	add	a5,s7,a1
2003247c:	fc842583          	lw	a1,-56(s0)
20032480:	c681                	beqz	a3,20032488 <__divdf3+0x1de>
20032482:	077e                	slli	a4,a4,0x1f
20032484:	8185                	srli	a1,a1,0x1
20032486:	8dd9                	or	a1,a1,a4
20032488:	0016b693          	seqz	a3,a3
2003248c:	40d786b3          	sub	a3,a5,a3
20032490:	3ff68693          	addi	a3,a3,1023
20032494:	7fe00713          	li	a4,2046
20032498:	06d75163          	bge	a4,a3,200324fa <__divdf3+0x250>
2003249c:	7ff00537          	lui	a0,0x7ff00
200324a0:	00a965b3          	or	a1,s2,a0
200324a4:	4a81                	li	s5,0
200324a6:	a0cd                	j	20032588 <__divdf3+0x2de>
200324a8:	7fe53513          	sltiu	a0,a0,2046
200324ac:	e80512e3          	bnez	a0,20032330 <__divdf3+0x86>
200324b0:	013af733          	and	a4,s5,s3
200324b4:	00f5f533          	and	a0,a1,a5
200324b8:	7ff004b7          	lui	s1,0x7ff00
200324bc:	06950e63          	beq	a0,s1,20032538 <__divdf3+0x28e>
200324c0:	00a4b4b3          	sltu	s1,s1,a0
200324c4:	ecad                	bnez	s1,2003253e <__divdf3+0x294>
200324c6:	01367333          	and	t1,a2,s3
200324ca:	00f6f833          	and	a6,a3,a5
200324ce:	7ff004b7          	lui	s1,0x7ff00
200324d2:	06980a63          	beq	a6,s1,20032546 <__divdf3+0x29c>
200324d6:	0104b4b3          	sltu	s1,s1,a6
200324da:	e8ad                	bnez	s1,2003254c <__divdf3+0x2a2>
200324dc:	7ff003b7          	lui	t2,0x7ff00
200324e0:	007544b3          	xor	s1,a0,t2
200324e4:	8cd9                	or	s1,s1,a4
200324e6:	e8d1                	bnez	s1,2003257a <__divdf3+0x2d0>
200324e8:	00784533          	xor	a0,a6,t2
200324ec:	00a36533          	or	a0,t1,a0
200324f0:	e95d                	bnez	a0,200325a6 <__divdf3+0x2fc>
200324f2:	7ff805b7          	lui	a1,0x7ff80
200324f6:	4a81                	li	s5,0
200324f8:	a841                	j	20032588 <__divdf3+0x2de>
200324fa:	4705                	li	a4,1
200324fc:	08e6c463          	blt	a3,a4,20032584 <__divdf3+0x2da>
20032500:	00ca9633          	sll	a2,s5,a2
20032504:	02ac0733          	mul	a4,s8,a0
20032508:	02bc37b3          	mulhu	a5,s8,a1
2003250c:	973e                	add	a4,a4,a5
2003250e:	02bc87b3          	mul	a5,s9,a1
20032512:	973e                	add	a4,a4,a5
20032514:	8e19                	sub	a2,a2,a4
20032516:	02bc0733          	mul	a4,s8,a1
2003251a:	00e037b3          	snez	a5,a4
2003251e:	40f607b3          	sub	a5,a2,a5
20032522:	40e00633          	neg	a2,a4
20032526:	01f65713          	srli	a4,a2,0x1f
2003252a:	0786                	slli	a5,a5,0x1
2003252c:	8f5d                	or	a4,a4,a5
2003252e:	03970563          	beq	a4,s9,20032558 <__divdf3+0x2ae>
20032532:	00ecb633          	sltu	a2,s9,a4
20032536:	a025                	j	2003255e <__divdf3+0x2b4>
20032538:	00e034b3          	snez	s1,a4
2003253c:	d4c9                	beqz	s1,200324c6 <__divdf3+0x21c>
2003253e:	00080537          	lui	a0,0x80
20032542:	8dc9                	or	a1,a1,a0
20032544:	a091                	j	20032588 <__divdf3+0x2de>
20032546:	006034b3          	snez	s1,t1
2003254a:	d8c9                	beqz	s1,200324dc <__divdf3+0x232>
2003254c:	00080537          	lui	a0,0x80
20032550:	00a6e5b3          	or	a1,a3,a0
20032554:	8ab2                	mv	s5,a2
20032556:	a80d                	j	20032588 <__divdf3+0x2de>
20032558:	0606                	slli	a2,a2,0x1
2003255a:	00cc3633          	sltu	a2,s8,a2
2003255e:	01457533          	and	a0,a0,s4
20032562:	06d2                	slli	a3,a3,0x14
20032564:	8d55                	or	a0,a0,a3
20032566:	0135f5b3          	and	a1,a1,s3
2003256a:	00c58ab3          	add	s5,a1,a2
2003256e:	00bab5b3          	sltu	a1,s5,a1
20032572:	952e                	add	a0,a0,a1
20032574:	012565b3          	or	a1,a0,s2
20032578:	a801                	j	20032588 <__divdf3+0x2de>
2003257a:	007845b3          	xor	a1,a6,t2
2003257e:	00b365b3          	or	a1,t1,a1
20032582:	ed8d                	bnez	a1,200325bc <__divdf3+0x312>
20032584:	4a81                	li	s5,0
20032586:	85ca                	mv	a1,s2
20032588:	8556                	mv	a0,s5
2003258a:	5d42                	lw	s10,48(sp)
2003258c:	5cd2                	lw	s9,52(sp)
2003258e:	5c62                	lw	s8,56(sp)
20032590:	5bf2                	lw	s7,60(sp)
20032592:	4b06                	lw	s6,64(sp)
20032594:	4a96                	lw	s5,68(sp)
20032596:	4a26                	lw	s4,72(sp)
20032598:	49b6                	lw	s3,76(sp)
2003259a:	4946                	lw	s2,80(sp)
2003259c:	44d6                	lw	s1,84(sp)
2003259e:	4466                	lw	s0,88(sp)
200325a0:	40f6                	lw	ra,92(sp)
200325a2:	6125                	addi	sp,sp,96
200325a4:	8082                	ret
200325a6:	00198513          	addi	a0,s3,1
200325aa:	8e69                	and	a2,a2,a0
200325ac:	01564ab3          	xor	s5,a2,s5
200325b0:	01353533          	sltu	a0,a0,s3
200325b4:	953e                	add	a0,a0,a5
200325b6:	8d75                	and	a0,a0,a3
200325b8:	8da9                	xor	a1,a1,a0
200325ba:	b7f9                	j	20032588 <__divdf3+0x2de>
200325bc:	00a765b3          	or	a1,a4,a0
200325c0:	cdb5                	beqz	a1,2003263c <__divdf3+0x392>
200325c2:	010365b3          	or	a1,t1,a6
200325c6:	ec058be3          	beqz	a1,2003249c <__divdf3+0x1f2>
200325ca:	8151                	srli	a0,a0,0x14
200325cc:	e141                	bnez	a0,2003264c <__divdf3+0x3a2>
200325ce:	001ad313          	srli	t1,s5,0x1
200325d2:	55555537          	lui	a0,0x55555
200325d6:	55550793          	addi	a5,a0,1365 # 55555555 <_etext+0x355223f1>
200325da:	33333537          	lui	a0,0x33333
200325de:	33350713          	addi	a4,a0,819 # 33333333 <_etext+0x133001cf>
200325e2:	0f0f1537          	lui	a0,0xf0f1
200325e6:	f0f50513          	addi	a0,a0,-241 # f0f0f0f <.Lline_table_start0+0xf0edbcd>
200325ea:	010106b7          	lui	a3,0x1010
200325ee:	10168693          	addi	a3,a3,257 # 1010101 <.Lline_table_start0+0x100cdbf>
200325f2:	06029363          	bnez	t0,20032658 <__divdf3+0x3ae>
200325f6:	006ae5b3          	or	a1,s5,t1
200325fa:	0025d493          	srli	s1,a1,0x2
200325fe:	8dc5                	or	a1,a1,s1
20032600:	0045d493          	srli	s1,a1,0x4
20032604:	8dc5                	or	a1,a1,s1
20032606:	0085d493          	srli	s1,a1,0x8
2003260a:	8dc5                	or	a1,a1,s1
2003260c:	0105d493          	srli	s1,a1,0x10
20032610:	8dc5                	or	a1,a1,s1
20032612:	fff5c593          	not	a1,a1
20032616:	0015d493          	srli	s1,a1,0x1
2003261a:	8fe5                	and	a5,a5,s1
2003261c:	8d9d                	sub	a1,a1,a5
2003261e:	00e5f7b3          	and	a5,a1,a4
20032622:	8189                	srli	a1,a1,0x2
20032624:	8df9                	and	a1,a1,a4
20032626:	95be                	add	a1,a1,a5
20032628:	0045d713          	srli	a4,a1,0x4
2003262c:	95ba                	add	a1,a1,a4
2003262e:	8d6d                	and	a0,a0,a1
20032630:	02d50533          	mul	a0,a0,a3
20032634:	8161                	srli	a0,a0,0x18
20032636:	02050513          	addi	a0,a0,32
2003263a:	a08d                	j	2003269c <__divdf3+0x3f2>
2003263c:	01036533          	or	a0,t1,a6
20032640:	7ff805b7          	lui	a1,0x7ff80
20032644:	c111                	beqz	a0,20032648 <__divdf3+0x39e>
20032646:	85ca                	mv	a1,s2
20032648:	4a81                	li	s5,0
2003264a:	bf3d                	j	20032588 <__divdf3+0x2de>
2003264c:	4b81                	li	s7,0
2003264e:	01485513          	srli	a0,a6,0x14
20032652:	ce0510e3          	bnez	a0,20032332 <__divdf3+0x88>
20032656:	a041                	j	200326d6 <__divdf3+0x42c>
20032658:	0012d493          	srli	s1,t0,0x1
2003265c:	0092e4b3          	or	s1,t0,s1
20032660:	0024d593          	srli	a1,s1,0x2
20032664:	8dc5                	or	a1,a1,s1
20032666:	0045d493          	srli	s1,a1,0x4
2003266a:	8dc5                	or	a1,a1,s1
2003266c:	0085d493          	srli	s1,a1,0x8
20032670:	8dc5                	or	a1,a1,s1
20032672:	0105d493          	srli	s1,a1,0x10
20032676:	8dc5                	or	a1,a1,s1
20032678:	fff5c593          	not	a1,a1
2003267c:	0015d493          	srli	s1,a1,0x1
20032680:	8fe5                	and	a5,a5,s1
20032682:	8d9d                	sub	a1,a1,a5
20032684:	00e5f7b3          	and	a5,a1,a4
20032688:	8189                	srli	a1,a1,0x2
2003268a:	8df9                	and	a1,a1,a4
2003268c:	95be                	add	a1,a1,a5
2003268e:	0045d713          	srli	a4,a1,0x4
20032692:	95ba                	add	a1,a1,a4
20032694:	8d6d                	and	a0,a0,a1
20032696:	02d50533          	mul	a0,a0,a3
2003269a:	8161                	srli	a0,a0,0x18
2003269c:	03550693          	addi	a3,a0,53
200326a0:	03f6f713          	andi	a4,a3,63
200326a4:	fe070793          	addi	a5,a4,-32 # 7fffffe0 <_etext+0x5ffcce7c>
200326a8:	0007c663          	bltz	a5,200326b4 <__divdf3+0x40a>
200326ac:	00fa92b3          	sll	t0,s5,a5
200326b0:	4a81                	li	s5,0
200326b2:	a819                	j	200326c8 <__divdf3+0x41e>
200326b4:	45fd                	li	a1,31
200326b6:	8d99                	sub	a1,a1,a4
200326b8:	00b355b3          	srl	a1,t1,a1
200326bc:	00d29733          	sll	a4,t0,a3
200326c0:	00b762b3          	or	t0,a4,a1
200326c4:	00da9ab3          	sll	s5,s5,a3
200326c8:	45b1                	li	a1,12
200326ca:	40a58bb3          	sub	s7,a1,a0
200326ce:	01485513          	srli	a0,a6,0x14
200326d2:	c60510e3          	bnez	a0,20032332 <__divdf3+0x88>
200326d6:	00165813          	srli	a6,a2,0x1
200326da:	55555537          	lui	a0,0x55555
200326de:	55550793          	addi	a5,a0,1365 # 55555555 <_etext+0x355223f1>
200326e2:	33333537          	lui	a0,0x33333
200326e6:	33350713          	addi	a4,a0,819 # 33333333 <_etext+0x133001cf>
200326ea:	0f0f1537          	lui	a0,0xf0f1
200326ee:	f0f50513          	addi	a0,a0,-241 # f0f0f0f <.Lline_table_start0+0xf0edbcd>
200326f2:	010106b7          	lui	a3,0x1010
200326f6:	10168693          	addi	a3,a3,257 # 1010101 <.Lline_table_start0+0x100cdbf>
200326fa:	04089563          	bnez	a7,20032744 <__divdf3+0x49a>
200326fe:	010665b3          	or	a1,a2,a6
20032702:	0025d493          	srli	s1,a1,0x2
20032706:	8dc5                	or	a1,a1,s1
20032708:	0045d493          	srli	s1,a1,0x4
2003270c:	8dc5                	or	a1,a1,s1
2003270e:	0085d493          	srli	s1,a1,0x8
20032712:	8dc5                	or	a1,a1,s1
20032714:	0105d493          	srli	s1,a1,0x10
20032718:	8dc5                	or	a1,a1,s1
2003271a:	fff5c593          	not	a1,a1
2003271e:	0015d493          	srli	s1,a1,0x1
20032722:	8fe5                	and	a5,a5,s1
20032724:	8d9d                	sub	a1,a1,a5
20032726:	00e5f7b3          	and	a5,a1,a4
2003272a:	8189                	srli	a1,a1,0x2
2003272c:	8df9                	and	a1,a1,a4
2003272e:	95be                	add	a1,a1,a5
20032730:	0045d713          	srli	a4,a1,0x4
20032734:	95ba                	add	a1,a1,a4
20032736:	8d6d                	and	a0,a0,a1
20032738:	02d50533          	mul	a0,a0,a3
2003273c:	8161                	srli	a0,a0,0x18
2003273e:	02050513          	addi	a0,a0,32
20032742:	a099                	j	20032788 <__divdf3+0x4de>
20032744:	0018d493          	srli	s1,a7,0x1
20032748:	0098e4b3          	or	s1,a7,s1
2003274c:	0024d593          	srli	a1,s1,0x2
20032750:	8dc5                	or	a1,a1,s1
20032752:	0045d493          	srli	s1,a1,0x4
20032756:	8dc5                	or	a1,a1,s1
20032758:	0085d493          	srli	s1,a1,0x8
2003275c:	8dc5                	or	a1,a1,s1
2003275e:	0105d493          	srli	s1,a1,0x10
20032762:	8dc5                	or	a1,a1,s1
20032764:	fff5c593          	not	a1,a1
20032768:	0015d493          	srli	s1,a1,0x1
2003276c:	8fe5                	and	a5,a5,s1
2003276e:	8d9d                	sub	a1,a1,a5
20032770:	00e5f7b3          	and	a5,a1,a4
20032774:	8189                	srli	a1,a1,0x2
20032776:	8df9                	and	a1,a1,a4
20032778:	95be                	add	a1,a1,a5
2003277a:	0045d713          	srli	a4,a1,0x4
2003277e:	95ba                	add	a1,a1,a4
20032780:	8d6d                	and	a0,a0,a1
20032782:	02d50533          	mul	a0,a0,a3
20032786:	8161                	srli	a0,a0,0x18
20032788:	03550693          	addi	a3,a0,53
2003278c:	03f6f713          	andi	a4,a3,63
20032790:	fe070793          	addi	a5,a4,-32
20032794:	0007c663          	bltz	a5,200327a0 <__divdf3+0x4f6>
20032798:	00f618b3          	sll	a7,a2,a5
2003279c:	4601                	li	a2,0
2003279e:	a819                	j	200327b4 <__divdf3+0x50a>
200327a0:	45fd                	li	a1,31
200327a2:	8d99                	sub	a1,a1,a4
200327a4:	00b855b3          	srl	a1,a6,a1
200327a8:	00d89733          	sll	a4,a7,a3
200327ac:	00b768b3          	or	a7,a4,a1
200327b0:	00d61633          	sll	a2,a2,a3
200327b4:	955e                	add	a0,a0,s7
200327b6:	ff450b93          	addi	s7,a0,-12
200327ba:	bea5                	j	20032332 <__divdf3+0x88>

200327bc <__muldf3>:
200327bc:	711d                	addi	sp,sp,-96
200327be:	ce86                	sw	ra,92(sp)
200327c0:	cca2                	sw	s0,88(sp)
200327c2:	caa6                	sw	s1,84(sp)
200327c4:	c8ca                	sw	s2,80(sp)
200327c6:	c6ce                	sw	s3,76(sp)
200327c8:	c4d2                	sw	s4,72(sp)
200327ca:	c2d6                	sw	s5,68(sp)
200327cc:	c0da                	sw	s6,64(sp)
200327ce:	de5e                	sw	s7,60(sp)
200327d0:	dc62                	sw	s8,56(sp)
200327d2:	1080                	addi	s0,sp,96
200327d4:	0145d713          	srli	a4,a1,0x14
200327d8:	7ff77b93          	andi	s7,a4,2047
200327dc:	fffb8713          	addi	a4,s7,-1
200327e0:	01776763          	bltu	a4,s7,200327ee <__muldf3+0x32>
200327e4:	01773733          	sltu	a4,a4,s7
200327e8:	00174713          	xori	a4,a4,1
200327ec:	a029                	j	200327f6 <__muldf3+0x3a>
200327ee:	7fd00793          	li	a5,2045
200327f2:	00e7b733          	sltu	a4,a5,a4
200327f6:	00b6c7b3          	xor	a5,a3,a1
200327fa:	80000837          	lui	a6,0x80000
200327fe:	0107f933          	and	s2,a5,a6
20032802:	001007b7          	lui	a5,0x100
20032806:	fff78993          	addi	s3,a5,-1 # fffff <.Lline_table_start0+0xfccbd>
2003280a:	0135f8b3          	and	a7,a1,s3
2003280e:	0136fe33          	and	t3,a3,s3
20032812:	0146d793          	srli	a5,a3,0x14
20032816:	7ff7fa13          	andi	s4,a5,2047
2003281a:	eb45                	bnez	a4,200328ca <__muldf3+0x10e>
2003281c:	fffa0713          	addi	a4,s4,-1
20032820:	014737b3          	sltu	a5,a4,s4
20032824:	17fd                	addi	a5,a5,-1
20032826:	cfd9                	beqz	a5,200328c4 <__muldf3+0x108>
20032828:	4701                	li	a4,0
2003282a:	c345                	beqz	a4,200328ca <__muldf3+0x10e>
2003282c:	4a81                	li	s5,0
2003282e:	5b7d                	li	s6,-1
20032830:	00be1593          	slli	a1,t3,0xb
20032834:	01565693          	srli	a3,a2,0x15
20032838:	8dd5                	or	a1,a1,a3
2003283a:	0105e5b3          	or	a1,a1,a6
2003283e:	001b0493          	addi	s1,s6,1
20032842:	0164b6b3          	sltu	a3,s1,s6
20032846:	00d98c33          	add	s8,s3,a3
2003284a:	062e                	slli	a2,a2,0xb
2003284c:	fac42c23          	sw	a2,-72(s0)
20032850:	8d45                	or	a0,a0,s1
20032852:	faa42423          	sw	a0,-88(s0)
20032856:	0188e533          	or	a0,a7,s8
2003285a:	faa42623          	sw	a0,-84(s0)
2003285e:	fab42e23          	sw	a1,-68(s0)
20032862:	fa042a23          	sw	zero,-76(s0)
20032866:	fa042823          	sw	zero,-80(s0)
2003286a:	fc042223          	sw	zero,-60(s0)
2003286e:	fc042023          	sw	zero,-64(s0)
20032872:	fc840513          	addi	a0,s0,-56
20032876:	fb840593          	addi	a1,s0,-72
2003287a:	fa840613          	addi	a2,s0,-88
2003287e:	00000097          	auipc	ra,0x0
20032882:	436080e7          	jalr	1078(ra) # 20032cb4 <__multi3>
20032886:	017a0533          	add	a0,s4,s7
2003288a:	015506b3          	add	a3,a0,s5
2003288e:	fd442603          	lw	a2,-44(s0)
20032892:	01867533          	and	a0,a2,s8
20032896:	fd042703          	lw	a4,-48(s0)
2003289a:	009775b3          	and	a1,a4,s1
2003289e:	8d4d                	or	a0,a0,a1
200328a0:	fcc42783          	lw	a5,-52(s0)
200328a4:	fc842583          	lw	a1,-56(s0)
200328a8:	cd2d                	beqz	a0,20032922 <__muldf3+0x166>
200328aa:	c0268493          	addi	s1,a3,-1022
200328ae:	853e                	mv	a0,a5
200328b0:	7fe00693          	li	a3,2046
200328b4:	0896da63          	bge	a3,s1,20032948 <__muldf3+0x18c>
200328b8:	7ff00537          	lui	a0,0x7ff00
200328bc:	00a96933          	or	s2,s2,a0
200328c0:	4501                	li	a0,0
200328c2:	ac99                	j	20032b18 <__muldf3+0x35c>
200328c4:	7fe73713          	sltiu	a4,a4,2046
200328c8:	f335                	bnez	a4,2003282c <__muldf3+0x70>
200328ca:	fff80713          	addi	a4,a6,-1 # 7fffffff <_etext+0x5ffcce9b>
200328ce:	00e5f7b3          	and	a5,a1,a4
200328d2:	7ff004b7          	lui	s1,0x7ff00
200328d6:	02978e63          	beq	a5,s1,20032912 <__muldf3+0x156>
200328da:	00f4b4b3          	sltu	s1,s1,a5
200328de:	ec8d                	bnez	s1,20032918 <__muldf3+0x15c>
200328e0:	00e6f2b3          	and	t0,a3,a4
200328e4:	7ff00737          	lui	a4,0x7ff00
200328e8:	08e28e63          	beq	t0,a4,20032984 <__muldf3+0x1c8>
200328ec:	00573733          	sltu	a4,a4,t0
200328f0:	ef49                	bnez	a4,2003298a <__muldf3+0x1ce>
200328f2:	7ff00737          	lui	a4,0x7ff00
200328f6:	00e7c4b3          	xor	s1,a5,a4
200328fa:	8cc9                	or	s1,s1,a0
200328fc:	10049363          	bnez	s1,20032a02 <__muldf3+0x246>
20032900:	00566633          	or	a2,a2,t0
20032904:	10060d63          	beqz	a2,20032a1e <__muldf3+0x262>
20032908:	0106f633          	and	a2,a3,a6
2003290c:	00b64933          	xor	s2,a2,a1
20032910:	a421                	j	20032b18 <__muldf3+0x35c>
20032912:	00a034b3          	snez	s1,a0
20032916:	d4e9                	beqz	s1,200328e0 <__muldf3+0x124>
20032918:	00080637          	lui	a2,0x80
2003291c:	00c5e933          	or	s2,a1,a2
20032920:	aae5                	j	20032b18 <__muldf3+0x35c>
20032922:	01f5d513          	srli	a0,a1,0x1f
20032926:	00179493          	slli	s1,a5,0x1
2003292a:	8d45                	or	a0,a0,s1
2003292c:	0606                	slli	a2,a2,0x1
2003292e:	01f75493          	srli	s1,a4,0x1f
20032932:	8e45                	or	a2,a2,s1
20032934:	0706                	slli	a4,a4,0x1
20032936:	83fd                	srli	a5,a5,0x1f
20032938:	8f5d                	or	a4,a4,a5
2003293a:	0586                	slli	a1,a1,0x1
2003293c:	c0168493          	addi	s1,a3,-1023
20032940:	7fe00693          	li	a3,2046
20032944:	f696cae3          	blt	a3,s1,200328b8 <__muldf3+0xfc>
20032948:	4685                	li	a3,1
2003294a:	04d4c663          	blt	s1,a3,20032996 <__muldf3+0x1da>
2003294e:	016776b3          	and	a3,a4,s6
20032952:	01367633          	and	a2,a2,s3
20032956:	01449713          	slli	a4,s1,0x14
2003295a:	8e59                	or	a2,a2,a4
2003295c:	80000737          	lui	a4,0x80000
20032960:	1ae50163          	beq	a0,a4,20032b02 <__muldf3+0x346>
20032964:	577d                	li	a4,-1
20032966:	00a72733          	slt	a4,a4,a0
2003296a:	01266933          	or	s2,a2,s2
2003296e:	1a070063          	beqz	a4,20032b0e <__muldf3+0x352>
20032972:	80000637          	lui	a2,0x80000
20032976:	8d31                	xor	a0,a0,a2
20032978:	8d4d                	or	a0,a0,a1
2003297a:	e145                	bnez	a0,20032a1a <__muldf3+0x25e>
2003297c:	0016f513          	andi	a0,a3,1
20032980:	9536                	add	a0,a0,a3
20032982:	aa41                	j	20032b12 <__muldf3+0x356>
20032984:	00c03733          	snez	a4,a2
20032988:	d72d                	beqz	a4,200328f2 <__muldf3+0x136>
2003298a:	00080537          	lui	a0,0x80
2003298e:	00a6e933          	or	s2,a3,a0
20032992:	8532                	mv	a0,a2
20032994:	a251                	j	20032b18 <__muldf3+0x35c>
20032996:	409687b3          	sub	a5,a3,s1
2003299a:	03f00693          	li	a3,63
2003299e:	f2f6c1e3          	blt	a3,a5,200328c0 <__muldf3+0x104>
200329a2:	fff48393          	addi	t2,s1,-1 # 7fefffff <_etext+0x5fecce9b>
200329a6:	03f3f293          	andi	t0,t2,63
200329aa:	437d                	li	t1,31
200329ac:	03f7f693          	andi	a3,a5,63
200329b0:	fe068893          	addi	a7,a3,-32
200329b4:	0e08cd63          	bltz	a7,20032aae <__muldf3+0x2f2>
200329b8:	011656b3          	srl	a3,a2,a7
200329bc:	01155833          	srl	a6,a0,a7
200329c0:	fe028493          	addi	s1,t0,-32
200329c4:	1004da63          	bgez	s1,20032ad8 <__muldf3+0x31c>
200329c8:	405304b3          	sub	s1,t1,t0
200329cc:	00175293          	srli	t0,a4,0x1
200329d0:	0015d313          	srli	t1,a1,0x1
200329d4:	0092d2b3          	srl	t0,t0,s1
200329d8:	00935333          	srl	t1,t1,s1
200329dc:	007514b3          	sll	s1,a0,t2
200329e0:	00761e33          	sll	t3,a2,t2
200329e4:	0064e333          	or	t1,s1,t1
200329e8:	005e62b3          	or	t0,t3,t0
200329ec:	007595b3          	sll	a1,a1,t2
200329f0:	00771733          	sll	a4,a4,t2
200329f4:	0e08da63          	bgez	a7,20032ae8 <__muldf3+0x32c>
200329f8:	00f55533          	srl	a0,a0,a5
200329fc:	00f65633          	srl	a2,a2,a5
20032a00:	a0f5                	j	20032aec <__muldf3+0x330>
20032a02:	00e2c733          	xor	a4,t0,a4
20032a06:	8f51                	or	a4,a4,a2
20032a08:	ef19                	bnez	a4,20032a26 <__muldf3+0x26a>
20032a0a:	8d5d                	or	a0,a0,a5
20032a0c:	c909                	beqz	a0,20032a1e <__muldf3+0x262>
20032a0e:	0105f533          	and	a0,a1,a6
20032a12:	00d54933          	xor	s2,a0,a3
20032a16:	8532                	mv	a0,a2
20032a18:	a201                	j	20032b18 <__muldf3+0x35c>
20032a1a:	8536                	mv	a0,a3
20032a1c:	a8f5                	j	20032b18 <__muldf3+0x35c>
20032a1e:	7ff80937          	lui	s2,0x7ff80
20032a22:	4501                	li	a0,0
20032a24:	a8d5                	j	20032b18 <__muldf3+0x35c>
20032a26:	00f565b3          	or	a1,a0,a5
20032a2a:	e8058be3          	beqz	a1,200328c0 <__muldf3+0x104>
20032a2e:	005665b3          	or	a1,a2,t0
20032a32:	e80587e3          	beqz	a1,200328c0 <__muldf3+0x104>
20032a36:	0147d593          	srli	a1,a5,0x14
20032a3a:	ede5                	bnez	a1,20032b32 <__muldf3+0x376>
20032a3c:	00155313          	srli	t1,a0,0x1
20032a40:	555555b7          	lui	a1,0x55555
20032a44:	55558693          	addi	a3,a1,1365 # 55555555 <_etext+0x355223f1>
20032a48:	333335b7          	lui	a1,0x33333
20032a4c:	33358593          	addi	a1,a1,819 # 33333333 <_etext+0x133001cf>
20032a50:	0f0f1737          	lui	a4,0xf0f1
20032a54:	f0f70393          	addi	t2,a4,-241 # f0f0f0f <.Lline_table_start0+0xf0edbcd>
20032a58:	01010737          	lui	a4,0x1010
20032a5c:	10170793          	addi	a5,a4,257 # 1010101 <.Lline_table_start0+0x100cdbf>
20032a60:	0c089f63          	bnez	a7,20032b3e <__muldf3+0x382>
20032a64:	00656733          	or	a4,a0,t1
20032a68:	00275493          	srli	s1,a4,0x2
20032a6c:	8f45                	or	a4,a4,s1
20032a6e:	00475493          	srli	s1,a4,0x4
20032a72:	8f45                	or	a4,a4,s1
20032a74:	00875493          	srli	s1,a4,0x8
20032a78:	8f45                	or	a4,a4,s1
20032a7a:	01075493          	srli	s1,a4,0x10
20032a7e:	8f45                	or	a4,a4,s1
20032a80:	fff74713          	not	a4,a4
20032a84:	00175493          	srli	s1,a4,0x1
20032a88:	8ee5                	and	a3,a3,s1
20032a8a:	40d706b3          	sub	a3,a4,a3
20032a8e:	00b6f733          	and	a4,a3,a1
20032a92:	8289                	srli	a3,a3,0x2
20032a94:	8df5                	and	a1,a1,a3
20032a96:	95ba                	add	a1,a1,a4
20032a98:	0045d693          	srli	a3,a1,0x4
20032a9c:	95b6                	add	a1,a1,a3
20032a9e:	0075f5b3          	and	a1,a1,t2
20032aa2:	02f585b3          	mul	a1,a1,a5
20032aa6:	81e1                	srli	a1,a1,0x18
20032aa8:	02058593          	addi	a1,a1,32
20032aac:	a8e9                	j	20032b86 <__muldf3+0x3ca>
20032aae:	40d306b3          	sub	a3,t1,a3
20032ab2:	00151493          	slli	s1,a0,0x1
20032ab6:	00d49833          	sll	a6,s1,a3
20032aba:	00f5d4b3          	srl	s1,a1,a5
20032abe:	0104e833          	or	a6,s1,a6
20032ac2:	00161493          	slli	s1,a2,0x1
20032ac6:	00d496b3          	sll	a3,s1,a3
20032aca:	00f754b3          	srl	s1,a4,a5
20032ace:	8ec5                	or	a3,a3,s1
20032ad0:	fe028493          	addi	s1,t0,-32
20032ad4:	ee04cae3          	bltz	s1,200329c8 <__muldf3+0x20c>
20032ad8:	009712b3          	sll	t0,a4,s1
20032adc:	00959333          	sll	t1,a1,s1
20032ae0:	4701                	li	a4,0
20032ae2:	4581                	li	a1,0
20032ae4:	f008cae3          	bltz	a7,200329f8 <__muldf3+0x23c>
20032ae8:	4601                	li	a2,0
20032aea:	4501                	li	a0,0
20032aec:	00a36533          	or	a0,t1,a0
20032af0:	00556533          	or	a0,a0,t0
20032af4:	0105e5b3          	or	a1,a1,a6
20032af8:	8dd9                	or	a1,a1,a4
20032afa:	80000737          	lui	a4,0x80000
20032afe:	e6e513e3          	bne	a0,a4,20032964 <__muldf3+0x1a8>
20032b02:	0015b713          	seqz	a4,a1
20032b06:	01266933          	or	s2,a2,s2
20032b0a:	e60714e3          	bnez	a4,20032972 <__muldf3+0x1b6>
20032b0e:	00168513          	addi	a0,a3,1
20032b12:	00d535b3          	sltu	a1,a0,a3
20032b16:	992e                	add	s2,s2,a1
20032b18:	85ca                	mv	a1,s2
20032b1a:	5c62                	lw	s8,56(sp)
20032b1c:	5bf2                	lw	s7,60(sp)
20032b1e:	4b06                	lw	s6,64(sp)
20032b20:	4a96                	lw	s5,68(sp)
20032b22:	4a26                	lw	s4,72(sp)
20032b24:	49b6                	lw	s3,76(sp)
20032b26:	4946                	lw	s2,80(sp)
20032b28:	44d6                	lw	s1,84(sp)
20032b2a:	4466                	lw	s0,88(sp)
20032b2c:	40f6                	lw	ra,92(sp)
20032b2e:	6125                	addi	sp,sp,96
20032b30:	8082                	ret
20032b32:	4a81                	li	s5,0
20032b34:	0142d593          	srli	a1,t0,0x14
20032b38:	ce059be3          	bnez	a1,2003282e <__muldf3+0x72>
20032b3c:	a059                	j	20032bc2 <__muldf3+0x406>
20032b3e:	0018d713          	srli	a4,a7,0x1
20032b42:	00e8e733          	or	a4,a7,a4
20032b46:	00275493          	srli	s1,a4,0x2
20032b4a:	8f45                	or	a4,a4,s1
20032b4c:	00475493          	srli	s1,a4,0x4
20032b50:	8f45                	or	a4,a4,s1
20032b52:	00875493          	srli	s1,a4,0x8
20032b56:	8f45                	or	a4,a4,s1
20032b58:	01075493          	srli	s1,a4,0x10
20032b5c:	8f45                	or	a4,a4,s1
20032b5e:	fff74713          	not	a4,a4
20032b62:	00175493          	srli	s1,a4,0x1
20032b66:	8ee5                	and	a3,a3,s1
20032b68:	40d706b3          	sub	a3,a4,a3
20032b6c:	00b6f733          	and	a4,a3,a1
20032b70:	8289                	srli	a3,a3,0x2
20032b72:	8df5                	and	a1,a1,a3
20032b74:	95ba                	add	a1,a1,a4
20032b76:	0045d693          	srli	a3,a1,0x4
20032b7a:	95b6                	add	a1,a1,a3
20032b7c:	0075f5b3          	and	a1,a1,t2
20032b80:	02f585b3          	mul	a1,a1,a5
20032b84:	81e1                	srli	a1,a1,0x18
20032b86:	03558693          	addi	a3,a1,53
20032b8a:	03f6f713          	andi	a4,a3,63
20032b8e:	fe070793          	addi	a5,a4,-32 # 7fffffe0 <_etext+0x5ffcce7c>
20032b92:	0007c663          	bltz	a5,20032b9e <__muldf3+0x3e2>
20032b96:	00f518b3          	sll	a7,a0,a5
20032b9a:	4501                	li	a0,0
20032b9c:	a821                	j	20032bb4 <__muldf3+0x3f8>
20032b9e:	47fd                	li	a5,31
20032ba0:	40e78733          	sub	a4,a5,a4
20032ba4:	00e35733          	srl	a4,t1,a4
20032ba8:	00d897b3          	sll	a5,a7,a3
20032bac:	00e7e8b3          	or	a7,a5,a4
20032bb0:	00d51533          	sll	a0,a0,a3
20032bb4:	46b1                	li	a3,12
20032bb6:	40b68ab3          	sub	s5,a3,a1
20032bba:	0142d593          	srli	a1,t0,0x14
20032bbe:	c60598e3          	bnez	a1,2003282e <__muldf3+0x72>
20032bc2:	00165293          	srli	t0,a2,0x1
20032bc6:	555555b7          	lui	a1,0x55555
20032bca:	55558693          	addi	a3,a1,1365 # 55555555 <_etext+0x355223f1>
20032bce:	333335b7          	lui	a1,0x33333
20032bd2:	33358593          	addi	a1,a1,819 # 33333333 <_etext+0x133001cf>
20032bd6:	0f0f1737          	lui	a4,0xf0f1
20032bda:	f0f70313          	addi	t1,a4,-241 # f0f0f0f <.Lline_table_start0+0xf0edbcd>
20032bde:	01010737          	lui	a4,0x1010
20032be2:	10170793          	addi	a5,a4,257 # 1010101 <.Lline_table_start0+0x100cdbf>
20032be6:	040e1763          	bnez	t3,20032c34 <__muldf3+0x478>
20032bea:	00566733          	or	a4,a2,t0
20032bee:	00275493          	srli	s1,a4,0x2
20032bf2:	8f45                	or	a4,a4,s1
20032bf4:	00475493          	srli	s1,a4,0x4
20032bf8:	8f45                	or	a4,a4,s1
20032bfa:	00875493          	srli	s1,a4,0x8
20032bfe:	8f45                	or	a4,a4,s1
20032c00:	01075493          	srli	s1,a4,0x10
20032c04:	8f45                	or	a4,a4,s1
20032c06:	fff74713          	not	a4,a4
20032c0a:	00175493          	srli	s1,a4,0x1
20032c0e:	8ee5                	and	a3,a3,s1
20032c10:	40d706b3          	sub	a3,a4,a3
20032c14:	00b6f733          	and	a4,a3,a1
20032c18:	8289                	srli	a3,a3,0x2
20032c1a:	8df5                	and	a1,a1,a3
20032c1c:	95ba                	add	a1,a1,a4
20032c1e:	0045d693          	srli	a3,a1,0x4
20032c22:	95b6                	add	a1,a1,a3
20032c24:	0065f5b3          	and	a1,a1,t1
20032c28:	02f585b3          	mul	a1,a1,a5
20032c2c:	81e1                	srli	a1,a1,0x18
20032c2e:	02058593          	addi	a1,a1,32
20032c32:	a0a9                	j	20032c7c <__muldf3+0x4c0>
20032c34:	001e5713          	srli	a4,t3,0x1
20032c38:	00ee6733          	or	a4,t3,a4
20032c3c:	00275493          	srli	s1,a4,0x2
20032c40:	8f45                	or	a4,a4,s1
20032c42:	00475493          	srli	s1,a4,0x4
20032c46:	8f45                	or	a4,a4,s1
20032c48:	00875493          	srli	s1,a4,0x8
20032c4c:	8f45                	or	a4,a4,s1
20032c4e:	01075493          	srli	s1,a4,0x10
20032c52:	8f45                	or	a4,a4,s1
20032c54:	fff74713          	not	a4,a4
20032c58:	00175493          	srli	s1,a4,0x1
20032c5c:	8ee5                	and	a3,a3,s1
20032c5e:	40d706b3          	sub	a3,a4,a3
20032c62:	00b6f733          	and	a4,a3,a1
20032c66:	8289                	srli	a3,a3,0x2
20032c68:	8df5                	and	a1,a1,a3
20032c6a:	95ba                	add	a1,a1,a4
20032c6c:	0045d693          	srli	a3,a1,0x4
20032c70:	95b6                	add	a1,a1,a3
20032c72:	0065f5b3          	and	a1,a1,t1
20032c76:	02f585b3          	mul	a1,a1,a5
20032c7a:	81e1                	srli	a1,a1,0x18
20032c7c:	03558693          	addi	a3,a1,53
20032c80:	03f6f713          	andi	a4,a3,63
20032c84:	fe070793          	addi	a5,a4,-32
20032c88:	0007c663          	bltz	a5,20032c94 <__muldf3+0x4d8>
20032c8c:	00f61e33          	sll	t3,a2,a5
20032c90:	4601                	li	a2,0
20032c92:	a821                	j	20032caa <__muldf3+0x4ee>
20032c94:	47fd                	li	a5,31
20032c96:	40e78733          	sub	a4,a5,a4
20032c9a:	00e2d733          	srl	a4,t0,a4
20032c9e:	00de17b3          	sll	a5,t3,a3
20032ca2:	00e7ee33          	or	t3,a5,a4
20032ca6:	00d61633          	sll	a2,a2,a3
20032caa:	40ba85b3          	sub	a1,s5,a1
20032cae:	00c58a93          	addi	s5,a1,12
20032cb2:	beb5                	j	2003282e <__muldf3+0x72>

20032cb4 <__multi3>:
20032cb4:	1141                	addi	sp,sp,-16
20032cb6:	c606                	sw	ra,12(sp)
20032cb8:	c422                	sw	s0,8(sp)
20032cba:	0800                	addi	s0,sp,16
20032cbc:	45d4                	lw	a3,12(a1)
20032cbe:	4218                	lw	a4,0(a2)
20032cc0:	02d70833          	mul	a6,a4,a3
20032cc4:	459c                	lw	a5,8(a1)
20032cc6:	02f736b3          	mulhu	a3,a4,a5
20032cca:	9836                	add	a6,a6,a3
20032ccc:	00462883          	lw	a7,4(a2) # 80000004 <_etext+0x5ffccea0>
20032cd0:	02f886b3          	mul	a3,a7,a5
20032cd4:	9836                	add	a6,a6,a3
20032cd6:	0045a283          	lw	t0,4(a1)
20032cda:	0258b6b3          	mulhu	a3,a7,t0
20032cde:	9836                	add	a6,a6,a3
20032ce0:	02f707b3          	mul	a5,a4,a5
20032ce4:	025886b3          	mul	a3,a7,t0
20032ce8:	00f683b3          	add	t2,a3,a5
20032cec:	00d3b6b3          	sltu	a3,t2,a3
20032cf0:	9836                	add	a6,a6,a3
20032cf2:	418c                	lw	a1,0(a1)
20032cf4:	4614                	lw	a3,8(a2)
20032cf6:	02568333          	mul	t1,a3,t0
20032cfa:	02b6b7b3          	mulhu	a5,a3,a1
20032cfe:	979a                	add	a5,a5,t1
20032d00:	4650                	lw	a2,12(a2)
20032d02:	02b60633          	mul	a2,a2,a1
20032d06:	963e                	add	a2,a2,a5
20032d08:	9642                	add	a2,a2,a6
20032d0a:	02b707b3          	mul	a5,a4,a1
20032d0e:	c11c                	sw	a5,0(a0)
20032d10:	02b686b3          	mul	a3,a3,a1
20032d14:	969e                	add	a3,a3,t2
20032d16:	0076b7b3          	sltu	a5,a3,t2
20032d1a:	00f60833          	add	a6,a2,a5
20032d1e:	02b8b333          	mulhu	t1,a7,a1
20032d22:	02b88633          	mul	a2,a7,a1
20032d26:	02b735b3          	mulhu	a1,a4,a1
20032d2a:	025707b3          	mul	a5,a4,t0
20032d2e:	97ae                	add	a5,a5,a1
20032d30:	963e                	add	a2,a2,a5
20032d32:	c150                	sw	a2,4(a0)
20032d34:	00f63633          	sltu	a2,a2,a5
20032d38:	961a                	add	a2,a2,t1
20032d3a:	00b7b5b3          	sltu	a1,a5,a1
20032d3e:	02573733          	mulhu	a4,a4,t0
20032d42:	95ba                	add	a1,a1,a4
20032d44:	95b6                	add	a1,a1,a3
20032d46:	962e                	add	a2,a2,a1
20032d48:	c510                	sw	a2,8(a0)
20032d4a:	00b63633          	sltu	a2,a2,a1
20032d4e:	00d5b5b3          	sltu	a1,a1,a3
20032d52:	95c2                	add	a1,a1,a6
20032d54:	95b2                	add	a1,a1,a2
20032d56:	c54c                	sw	a1,12(a0)
20032d58:	4422                	lw	s0,8(sp)
20032d5a:	40b2                	lw	ra,12(sp)
20032d5c:	0141                	addi	sp,sp,16
20032d5e:	8082                	ret

20032d60 <str.0>:
20032d60:	6160 7973 636e 6620 606e 7220 7365 6d75     `async fn` resum
20032d70:	6465 6120 7466 7265 7020 6e61 6369 696b     ed after panicki
20032d80:	676e 0000 ff00 0000 ff00 0000 ff00 0000     ng..............

20032d90 <str.1>:
20032d90:	6160 7973 636e 6620 606e 7220 7365 6d75     `async fn` resum
20032da0:	6465 6120 7466 7265 6320 6d6f 6c70 7465     ed after complet
20032db0:	6f69                                         ion

20032db3 <.Lanon.2c6bb00a6eab53dbfca994608b168c3b.202>:
20032db3:	3030 3130 3230 3330 3430 3530 3630 3730     0001020304050607
20032dc3:	3830 3930 3031 3131 3231 3331 3431 3531     0809101112131415
20032dd3:	3631 3731 3831 3931 3032 3132 3232 3332     1617181920212223
20032de3:	3432 3532 3632 3732 3832 3932 3033 3133     2425262728293031
20032df3:	3233 3333 3433 3533 3633 3733 3833 3933     3233343536373839
20032e03:	3034 3134 3234 3334 3434 3534 3634 3734     4041424344454647
20032e13:	3834 3934 3035 3135 3235 3335 3435 3535     4849505152535455
20032e23:	3635 3735 3835 3935 3036 3136 3236 3336     5657585960616263
20032e33:	3436 3536 3636 3736 3836 3936 3037 3137     6465666768697071
20032e43:	3237 3337 3437 3537 3637 3737 3837 3937     7273747576777879
20032e53:	3038 3138 3238 3338 3438 3538 3638 3738     8081828384858687
20032e63:	3838 3938 3039 3139 3239 3339 3439 3539     8889909192939495
20032e73:	3639 3739 3839 3939                         96979899

20032e7b <.Lanon.2c6bb00a6eab53dbfca994608b168c3b.159>:
20032e7b:	6163 6c6c 6465 6020 704f 6974 6e6f 3a3a     called `Option::
20032e8b:	6e75 7277 7061 2928 2060 6e6f 6120 6020     unwrap()` on a `
20032e9b:	6f4e 656e 2060 6176 756c                     None` value

20032ea6 <.Lanon.2c6bb00a6eab53dbfca994608b168c3b.201>:
20032ea6:	7830 2020 2020 6f53 656d 6f4e 656e          0x    SomeNone

20032eb4 <.Lanon.2c6bb00a6eab53dbfca994608b168c3b.174>:
20032eb4:	0c8a 2003 000c 0000 0004 0000 0992 2003     ... ........... 
20032ec4:	0c9a 2003 0d62 2003                         ... b.. 

20032ecc <.Lanon.2c6bb00a6eab53dbfca994608b168c3b.177>:
20032ecc:	0a2c 0000                                   ,...

20032ed0 <.Lanon.2c6bb00a6eab53dbfca994608b168c3b.203>:
20032ed0:	0982 2003 0004 0000 0004 0000 0db2 2003     ... ........... 
20032ee0:	0dca 2003 0de2 2003                         ... ... 

20032ee8 <.Lanon.2c6bb00a6eab53dbfca994608b168c3b.183>:
20032ee8:	                                             (

20032ee9 <.Lanon.2c6bb00a6eab53dbfca994608b168c3b.182>:
20032ee9:	0a28                                        (.

20032eeb <.Lanon.2c6bb00a6eab53dbfca994608b168c3b.185>:
20032eeb:	0029 0000                                    )....

20032ef0 <str.0.llvm.15017180710711891547>:
20032ef0:	6160 7973 636e 6620 606e 7220 7365 6d75     `async fn` resum
20032f00:	6465 6120 7466 7265 7020 6e61 6369 696b     ed after panicki
20032f10:	676e 0000 ff00 0000 ff00 0000 ff00 0000     ng..............

20032f20 <str.1.llvm.15017180710711891547>:
20032f20:	6160 7973 636e 6620 606e 7220 7365 6d75     `async fn` resum
20032f30:	6465 6120 7466 7265 6320 6d6f 6c70 7465     ed after complet
20032f40:	6f69 006e                                   ion.

20032f44 <.L__unnamed_1>:
20032f44:	12fe 2003 0004 0000 0004 0000 130e 2003     ... ........... 
20032f54:	1326 2003 13e4 2003                         &.. ... 

20032f5c <.L__unnamed_9>:
20032f5c:	306c 2003 0001 0000 306d 2003 0011 0000     l0. ....m0. ....
20032f6c:	307e 2003 0009 0000 3087 2003 0003 0000     ~0. .....0. ....
20032f7c:	308a 2003 0008 0000 3092 2003 001a 0000     .0. .....0. ....
20032f8c:	30ac 2003 0005 0000                         .0. ....

20032f94 <.L__unnamed_8>:
20032f94:	0001 0000 0000 0000 0020 0000 0000 0000     ........ .......
20032fa4:	0003 0000 0000 0000 0003 0000 0000 0000     ................
20032fb4:	0003 0000 0001 0000 0001 0000 0020 0000     ............ ...
20032fc4:	0000 0000 0003 0000 0000 0000 0003 0000     ................
20032fd4:	0000 0000 0003 0000 0001 0000 0002 0000     ................
20032fe4:	0020 0000 0000 0000 0003 0000 0000 0000      ...............
20032ff4:	0003 0000 0000 0000 0003 0000 0001 0000     ................
20033004:	0003 0000 0020 0000 000c 0000 0003 0000     .... ...........
	...
2003301c:	000a 0000 0003 0000 0001 0000 0004 0000     ................
2003302c:	0020 0000 0000 0000 0003 0000 0000 0000      ...............
2003303c:	0003 0000 0000 0000 0003 0000 0001 0000     ................
2003304c:	0005 0000 0020 0000 0000 0000 0003 0000     .... ...........
2003305c:	0000 0000 0003 0000 0000 0000 0003 0000     ................

2003306c <.L__unnamed_11>:
2003306c:	                                             [

2003306d <.L__unnamed_12>:
2003306d:	205d 6157 7469 6465 7220 756f 6867 796c     ] Waited roughly
2003307d:	                                              

2003307e <.L__unnamed_13>:
2003307e:	202e 6f4e 2077 7369                          . Now is 

20033087 <.L__unnamed_14>:
20033087:	3d20 2020 6974 6b63 2073                      =  ticks (

20033092 <.L__unnamed_16>:
20033092:	7420 6369 736b 7320 6e69 6563 6c20 7361      ticks since las
200330a2:	2074 6974 656d 6120 2074                    t time at 

200330ac <.L__unnamed_17>:
200330ac:	4820 297a 000a 0000                          Hz)....

200330b4 <.L__unnamed_5>:
200330b4:	3124 2003 0000 0000 3126 2003 0001 0000     $1. ....&1. ....

200330c4 <.L__unnamed_7>:
200330c4:	3124 2003 0000 0000 3124 2003 0001 0000     $1. ....$1. ....
200330d4:	3125 2003 0001 0000                         %1. ....

200330dc <.L__unnamed_6>:
200330dc:	0001 0000 0000 0000 0020 0000 0000 0000     ........ .......
200330ec:	0003 0000 0000 0000 0003 0000 0000 0000     ................
200330fc:	0003 0000 0001 0000 0001 0000 0020 0000     ............ ...
2003310c:	0008 0000 0003 0000 0000 0000 0000 0000     ................
2003311c:	0003 0000 0003 0000                         ........

20033124 <.L__unnamed_19>:
20033124:	                                             .

20033125 <.L__unnamed_20>:
20033125:	                                             s

20033126 <.L__unnamed_18>:
20033126:	                                             m

20033127 <.L__unnamed_10>:
20033127:	614d 6e69 6320 6c61 656c 2064 6572 7563     Main called recu
20033137:	7372 7669 6c65 3b79 7420 6968 2073 7369     rsively; this is
20033147:	7520 736e 6661 2065 6977 6874 2320 6c5b      unsafe with #[l
20033157:	6269 6f74 6b63 3a3a 616d 6e69                ibtock::main]
